   1              		.cpu cortex-m3
   2              		.eabi_attribute 20, 1
   3              		.eabi_attribute 21, 1
   4              		.eabi_attribute 23, 3
   5              		.eabi_attribute 24, 1
   6              		.eabi_attribute 25, 1
   7              		.eabi_attribute 26, 1
   8              		.eabi_attribute 30, 1
   9              		.eabi_attribute 34, 1
  10              		.eabi_attribute 18, 4
  11              		.file	"actuator.c"
  12              		.text
  13              		.align	1
  14              		.syntax unified
  15              		.thumb
  16              		.thumb_func
  17              		.fpu softvfp
  19              	event:
  20              		@ args = 0, pretend = 0, frame = 0
  21              		@ frame_needed = 0, uses_anonymous_args = 0
  22 0000 70B5     		push	{r4, r5, r6, lr}
  23 0002 0446     		mov	r4, r0
  24 0004 0D46     		mov	r5, r1
  25 0006 4378     		ldrb	r3, [r0, #1]	@ zero_extendqisi2
  26 0008 012B     		cmp	r3, #1
  27 000a 15D0     		beq	.L3
  28 000c 13B1     		cbz	r3, .L4
  29 000e 022B     		cmp	r3, #2
  30 0010 24D0     		beq	.L5
  31              	.L1:
  32 0012 70BD     		pop	{r4, r5, r6, pc}
  33              	.L4:
  34 0014 8268     		ldr	r2, [r0, #8]
  35 0016 002A     		cmp	r2, #0
  36 0018 FBD0     		beq	.L1
  37 001a 0379     		ldrb	r3, [r0, #4]	@ zero_extendqisi2
  38 001c 0B42     		tst	r3, r1
  39 001e F8D0     		beq	.L1
  40 0020 8678     		ldrb	r6, [r0, #2]	@ zero_extendqisi2
  41 0022 3340     		ands	r3, r3, r6
  42 0024 8370     		strb	r3, [r0, #2]
  43 0026 9047     		blx	r2
  44 0028 05F07905 		and	r5, r5, #121
  45 002c 2379     		ldrb	r3, [r4, #4]	@ zero_extendqisi2
  46 002e 1D40     		ands	r5, r5, r3
  47 0030 26EA0506 		bic	r6, r6, r5
  48 0034 A670     		strb	r6, [r4, #2]
  49 0036 ECE7     		b	.L1
  50              	.L3:
  51 0038 8268     		ldr	r2, [r0, #8]
  52 003a 002A     		cmp	r2, #0
  53 003c E9D0     		beq	.L1
  54 003e 0379     		ldrb	r3, [r0, #4]	@ zero_extendqisi2
  55 0040 0B42     		tst	r3, r1
  56 0042 E6D0     		beq	.L1
  57 0044 8678     		ldrb	r6, [r0, #2]	@ zero_extendqisi2
  58 0046 3340     		ands	r3, r3, r6
  59 0048 8370     		strb	r3, [r0, #2]
  60 004a 9047     		blx	r2
  61 004c 05F07905 		and	r5, r5, #121
  62 0050 2379     		ldrb	r3, [r4, #4]	@ zero_extendqisi2
  63 0052 1D40     		ands	r5, r5, r3
  64 0054 26EA0506 		bic	r6, r6, r5
  65 0058 A670     		strb	r6, [r4, #2]
  66 005a DAE7     		b	.L1
  67              	.L5:
  68 005c 8268     		ldr	r2, [r0, #8]
  69 005e 002A     		cmp	r2, #0
  70 0060 D7D0     		beq	.L1
  71 0062 0379     		ldrb	r3, [r0, #4]	@ zero_extendqisi2
  72 0064 0B42     		tst	r3, r1
  73 0066 D4D0     		beq	.L1
  74 0068 8678     		ldrb	r6, [r0, #2]	@ zero_extendqisi2
  75 006a 3340     		ands	r3, r3, r6
  76 006c 8370     		strb	r3, [r0, #2]
  77 006e 9047     		blx	r2
  78 0070 05F07905 		and	r5, r5, #121
  79 0074 2379     		ldrb	r3, [r4, #4]	@ zero_extendqisi2
  80 0076 1D40     		ands	r5, r5, r3
  81 0078 26EA0506 		bic	r6, r6, r5
  82 007c A670     		strb	r6, [r4, #2]
  83 007e C8E7     		b	.L1
  85              		.align	1
  86              		.global	actuator_create
  87              		.syntax unified
  88              		.thumb
  89              		.thumb_func
  90              		.fpu softvfp
  92              	actuator_create:
  93              		@ args = 0, pretend = 0, frame = 0
  94              		@ frame_needed = 0, uses_anonymous_args = 0
  95              		@ link register save eliminated.
  96 0080 0128     		cmp	r0, #1
  97 0082 15D0     		beq	.L9
  98 0084 48B1     		cbz	r0, .L10
  99 0086 0228     		cmp	r0, #2
 100 0088 20D0     		beq	.L11
 101              	.L8:
 102 008a 1649     		ldr	r1, .L12
 103 008c 0B78     		ldrb	r3, [r1]	@ zero_extendqisi2
 104 008e 01EB8300 		add	r0, r1, r3, lsl #2
 105 0092 4260     		str	r2, [r0, #4]
 106 0094 0133     		adds	r3, r3, #1
 107 0096 0B70     		strb	r3, [r1]
 108 0098 7047     		bx	lr
 109              	.L10:
 110 009a 1170     		strb	r1, [r2]
 111 009c 0023     		movs	r3, #0
 112 009e 5370     		strb	r3, [r2, #1]
 113 00a0 9360     		str	r3, [r2, #8]
 114 00a2 1371     		strb	r3, [r2, #4]
 115 00a4 1382     		strh	r3, [r2, #16]	@ movhi
 116 00a6 5382     		strh	r3, [r2, #18]	@ movhi
 117 00a8 1373     		strb	r3, [r2, #12]
 118 00aa D370     		strb	r3, [r2, #3]
 119 00ac 9370     		strb	r3, [r2, #2]
 120 00ae ECE7     		b	.L8
 121              	.L9:
 122 00b0 1170     		strb	r1, [r2]
 123 00b2 0123     		movs	r3, #1
 124 00b4 5370     		strb	r3, [r2, #1]
 125 00b6 0023     		movs	r3, #0
 126 00b8 9360     		str	r3, [r2, #8]
 127 00ba 1371     		strb	r3, [r2, #4]
 128 00bc 9382     		strh	r3, [r2, #20]	@ movhi
 129 00be D382     		strh	r3, [r2, #22]	@ movhi
 130 00c0 1373     		strb	r3, [r2, #12]
 131 00c2 D370     		strb	r3, [r2, #3]
 132 00c4 9370     		strb	r3, [r2, #2]
 133 00c6 1376     		strb	r3, [r2, #24]
 134 00c8 9376     		strb	r3, [r2, #26]
 135 00ca DEE7     		b	.L8
 136              	.L11:
 137 00cc 1170     		strb	r1, [r2]
 138 00ce 0223     		movs	r3, #2
 139 00d0 5370     		strb	r3, [r2, #1]
 140 00d2 0023     		movs	r3, #0
 141 00d4 9360     		str	r3, [r2, #8]
 142 00d6 1371     		strb	r3, [r2, #4]
 143 00d8 1373     		strb	r3, [r2, #12]
 144 00da D370     		strb	r3, [r2, #3]
 145 00dc 9370     		strb	r3, [r2, #2]
 146 00de 5382     		strh	r3, [r2, #18]	@ movhi
 147 00e0 D3E7     		b	.L8
 148              	.L13:
 149 00e2 00BF     		.align	2
 150              	.L12:
 151 00e4 00000000 		.word	.LANCHOR0
 153              		.align	1
 154              		.global	actuator_set_pins
 155              		.syntax unified
 156              		.thumb
 157              		.thumb_func
 158              		.fpu softvfp
 160              	actuator_set_pins:
 161              		@ args = 0, pretend = 0, frame = 0
 162              		@ frame_needed = 0, uses_anonymous_args = 0
 163 00e8 70B5     		push	{r4, r5, r6, lr}
 164 00ea 0446     		mov	r4, r0
 165 00ec 0D46     		mov	r5, r1
 166 00ee 4378     		ldrb	r3, [r0, #1]	@ zero_extendqisi2
 167 00f0 012B     		cmp	r3, #1
 168 00f2 0DD0     		beq	.L16
 169 00f4 13B1     		cbz	r3, .L17
 170 00f6 022B     		cmp	r3, #2
 171 00f8 29D0     		beq	.L18
 172              	.L14:
 173 00fa 70BD     		pop	{r4, r5, r6, pc}
 174              	.L17:
 175 00fc 0878     		ldrb	r0, [r1]	@ zero_extendqisi2
 176 00fe 6073     		strb	r0, [r4, #13]
 177 0100 4B78     		ldrb	r3, [r1, #1]	@ zero_extendqisi2
 178 0102 A373     		strb	r3, [r4, #14]
 179 0104 0022     		movs	r2, #0
 180 0106 0121     		movs	r1, #1
 181 0108 9940     		lsls	r1, r1, r3
 182 010a FFF7FEFF 		bl	GPIO_SetDir
 183 010e F4E7     		b	.L14
 184              	.L16:
 185 0110 0878     		ldrb	r0, [r1]	@ zero_extendqisi2
 186 0112 6073     		strb	r0, [r4, #13]
 187 0114 4978     		ldrb	r1, [r1, #1]	@ zero_extendqisi2
 188 0116 A173     		strb	r1, [r4, #14]
 189 0118 0126     		movs	r6, #1
 190 011a 0022     		movs	r2, #0
 191 011c 06FA01F1 		lsl	r1, r6, r1
 192 0120 FFF7FEFF 		bl	GPIO_SetDir
 193 0124 A878     		ldrb	r0, [r5, #2]	@ zero_extendqisi2
 194 0126 E073     		strb	r0, [r4, #15]
 195 0128 E978     		ldrb	r1, [r5, #3]	@ zero_extendqisi2
 196 012a 2174     		strb	r1, [r4, #16]
 197 012c 2B79     		ldrb	r3, [r5, #4]	@ zero_extendqisi2
 198 012e 6374     		strb	r3, [r4, #17]
 199 0130 6B79     		ldrb	r3, [r5, #5]	@ zero_extendqisi2
 200 0132 A374     		strb	r3, [r4, #18]
 201 0134 0022     		movs	r2, #0
 202 0136 06FA01F1 		lsl	r1, r6, r1
 203 013a FFF7FEFF 		bl	GPIO_SetDir
 204 013e A17C     		ldrb	r1, [r4, #18]	@ zero_extendqisi2
 205 0140 0022     		movs	r2, #0
 206 0142 06FA01F1 		lsl	r1, r6, r1
 207 0146 607C     		ldrb	r0, [r4, #17]	@ zero_extendqisi2
 208 0148 FFF7FEFF 		bl	GPIO_SetDir
 209 014c D5E7     		b	.L14
 210              	.L18:
 211 014e 0878     		ldrb	r0, [r1]	@ zero_extendqisi2
 212 0150 6073     		strb	r0, [r4, #13]
 213 0152 4978     		ldrb	r1, [r1, #1]	@ zero_extendqisi2
 214 0154 A173     		strb	r1, [r4, #14]
 215 0156 AA78     		ldrb	r2, [r5, #2]	@ zero_extendqisi2
 216 0158 E273     		strb	r2, [r4, #15]
 217 015a EB78     		ldrb	r3, [r5, #3]	@ zero_extendqisi2
 218 015c 2374     		strb	r3, [r4, #16]
 219 015e FFF7FEFF 		bl	PINSEL_SetPinFunc
 220 0162 CAE7     		b	.L14
 222              		.align	1
 223              		.global	actuator_set_prop
 224              		.syntax unified
 225              		.thumb
 226              		.thumb_func
 227              		.fpu softvfp
 229              	actuator_set_prop:
 230              		@ args = 0, pretend = 0, frame = 0
 231              		@ frame_needed = 0, uses_anonymous_args = 0
 232              		@ link register save eliminated.
 233 0164 4378     		ldrb	r3, [r0, #1]	@ zero_extendqisi2
 234 0166 13B1     		cbz	r3, .L22
 235 0168 012B     		cmp	r3, #1
 236 016a 04D0     		beq	.L23
 237 016c 7047     		bx	lr
 238              	.L22:
 239 016e 31B9     		cbnz	r1, .L20
 240 0170 0282     		strh	r2, [r0, #16]	@ movhi
 241 0172 4282     		strh	r2, [r0, #18]	@ movhi
 242 0174 7047     		bx	lr
 243              	.L23:
 244 0176 19B1     		cbz	r1, .L25
 245 0178 0129     		cmp	r1, #1
 246 017a 08BF     		it	eq
 247 017c 0276     		strbeq	r2, [r0, #24]
 248              	.L20:
 249 017e 7047     		bx	lr
 250              	.L25:
 251 0180 8282     		strh	r2, [r0, #20]	@ movhi
 252 0182 C282     		strh	r2, [r0, #22]	@ movhi
 253 0184 7047     		bx	lr
 255              		.align	1
 256              		.global	actuator_enable_event
 257              		.syntax unified
 258              		.thumb
 259              		.thumb_func
 260              		.fpu softvfp
 262              	actuator_enable_event:
 263              		@ args = 0, pretend = 0, frame = 0
 264              		@ frame_needed = 0, uses_anonymous_args = 0
 265              		@ link register save eliminated.
 266 0186 4378     		ldrb	r3, [r0, #1]	@ zero_extendqisi2
 267 0188 012B     		cmp	r3, #1
 268 018a 05D0     		beq	.L28
 269 018c 13B1     		cbz	r3, .L29
 270 018e 022B     		cmp	r3, #2
 271 0190 04D0     		beq	.L30
 272 0192 7047     		bx	lr
 273              	.L29:
 274 0194 0171     		strb	r1, [r0, #4]
 275 0196 7047     		bx	lr
 276              	.L28:
 277 0198 0171     		strb	r1, [r0, #4]
 278 019a 7047     		bx	lr
 279              	.L30:
 280 019c 0171     		strb	r1, [r0, #4]
 281 019e 7047     		bx	lr
 283              		.align	1
 284              		.global	actuator_set_event
 285              		.syntax unified
 286              		.thumb
 287              		.thumb_func
 288              		.fpu softvfp
 290              	actuator_set_event:
 291              		@ args = 0, pretend = 0, frame = 0
 292              		@ frame_needed = 0, uses_anonymous_args = 0
 293              		@ link register save eliminated.
 294 01a0 4378     		ldrb	r3, [r0, #1]	@ zero_extendqisi2
 295 01a2 012B     		cmp	r3, #1
 296 01a4 05D0     		beq	.L33
 297 01a6 13B1     		cbz	r3, .L34
 298 01a8 022B     		cmp	r3, #2
 299 01aa 04D0     		beq	.L35
 300 01ac 7047     		bx	lr
 301              	.L34:
 302 01ae 8160     		str	r1, [r0, #8]
 303 01b0 7047     		bx	lr
 304              	.L33:
 305 01b2 8160     		str	r1, [r0, #8]
 306 01b4 7047     		bx	lr
 307              	.L35:
 308 01b6 8160     		str	r1, [r0, #8]
 309 01b8 7047     		bx	lr
 311              		.align	1
 312              		.global	actuator_get_status
 313              		.syntax unified
 314              		.thumb
 315              		.thumb_func
 316              		.fpu softvfp
 318              	actuator_get_status:
 319              		@ args = 0, pretend = 0, frame = 0
 320              		@ frame_needed = 0, uses_anonymous_args = 0
 321              		@ link register save eliminated.
 322 01ba 0346     		mov	r3, r0
 323 01bc 4278     		ldrb	r2, [r0, #1]	@ zero_extendqisi2
 324 01be 012A     		cmp	r2, #1
 325 01c0 09D0     		beq	.L38
 326 01c2 1AB1     		cbz	r2, .L39
 327 01c4 022A     		cmp	r2, #2
 328 01c6 0BD0     		beq	.L40
 329 01c8 0020     		movs	r0, #0
 330 01ca 7047     		bx	lr
 331              	.L39:
 332 01cc 8078     		ldrb	r0, [r0, #2]	@ zero_extendqisi2
 333 01ce 20F07902 		bic	r2, r0, #121
 334 01d2 9A70     		strb	r2, [r3, #2]
 335 01d4 7047     		bx	lr
 336              	.L38:
 337 01d6 8078     		ldrb	r0, [r0, #2]	@ zero_extendqisi2
 338 01d8 20F07902 		bic	r2, r0, #121
 339 01dc 9A70     		strb	r2, [r3, #2]
 340 01de 7047     		bx	lr
 341              	.L40:
 342 01e0 8078     		ldrb	r0, [r0, #2]	@ zero_extendqisi2
 343 01e2 20F07902 		bic	r2, r0, #121
 344 01e6 9A70     		strb	r2, [r3, #2]
 345 01e8 7047     		bx	lr
 347              		.align	1
 348              		.global	actuator_get_acceleration
 349              		.syntax unified
 350              		.thumb
 351              		.thumb_func
 352              		.fpu softvfp
 354              	actuator_get_acceleration:
 355              		@ args = 0, pretend = 0, frame = 0
 356              		@ frame_needed = 0, uses_anonymous_args = 0
 357              		@ link register save eliminated.
 358 01ea 014B     		ldr	r3, .L44
 359 01ec 1878     		ldrb	r0, [r3]	@ zero_extendqisi2
 360 01ee 7047     		bx	lr
 361              	.L45:
 362              		.align	2
 363              	.L44:
 364 01f0 00000000 		.word	.LANCHOR1
 366              		.align	1
 367              		.global	actuator_pot_value
 368              		.syntax unified
 369              		.thumb
 370              		.thumb_func
 371              		.fpu softvfp
 373              	actuator_pot_value:
 374              		@ args = 0, pretend = 0, frame = 0
 375              		@ frame_needed = 0, uses_anonymous_args = 0
 376              		@ link register save eliminated.
 377 01f4 0F4B     		ldr	r3, .L50
 378 01f6 03EB4003 		add	r3, r3, r0, lsl #1
 379 01fa B3F85430 		ldrh	r3, [r3, #84]
 380 01fe 132B     		cmp	r3, #19
 381 0200 0BD9     		bls	.L49
 382 0202 40F6EB72 		movw	r2, #4075
 383 0206 9342     		cmp	r3, r2
 384 0208 0DD9     		bls	.L48
 385 020a 0A4B     		ldr	r3, .L50
 386 020c 03EB4003 		add	r3, r3, r0, lsl #1
 387 0210 40F6FF72 		movw	r2, #4095
 388 0214 A3F85420 		strh	r2, [r3, #84]	@ movhi
 389 0218 05E0     		b	.L48
 390              	.L49:
 391 021a 064B     		ldr	r3, .L50
 392 021c 03EB4003 		add	r3, r3, r0, lsl #1
 393 0220 0022     		movs	r2, #0
 394 0222 A3F85420 		strh	r2, [r3, #84]	@ movhi
 395              	.L48:
 396 0226 034B     		ldr	r3, .L50
 397 0228 03EB4000 		add	r0, r3, r0, lsl #1
 398 022c B0F85400 		ldrh	r0, [r0, #84]
 399 0230 7047     		bx	lr
 400              	.L51:
 401 0232 00BF     		.align	2
 402              	.L50:
 403 0234 00000000 		.word	.LANCHOR0
 405              		.global	__aeabi_i2d
 406              		.global	__aeabi_dmul
 407              		.global	__aeabi_i2f
 408              		.global	__aeabi_fmul
 409              		.global	__aeabi_f2d
 410              		.global	__aeabi_dadd
 411              		.global	__aeabi_d2uiz
 412              		.align	1
 413              		.global	actuators_clock
 414              		.syntax unified
 415              		.thumb
 416              		.thumb_func
 417              		.fpu softvfp
 419              	actuators_clock:
 420              		@ args = 0, pretend = 0, frame = 8
 421              		@ frame_needed = 0, uses_anonymous_args = 0
 422 0238 904B     		ldr	r3, .L100
 423 023a 1B78     		ldrb	r3, [r3]	@ zero_extendqisi2
 424 023c 002B     		cmp	r3, #0
 425 023e 00F0A181 		beq	.L92
 426 0242 2DE9F04F 		push	{r4, r5, r6, r7, r8, r9, r10, fp, lr}
 427 0246 83B0     		sub	sp, sp, #12
 428 0248 0025     		movs	r5, #0
 429 024a 8C4E     		ldr	r6, .L100
 430 024c DFF83492 		ldr	r9, .L100+8
 431 0250 3EE1     		b	.L87
 432              	.L56:
 433 0252 607B     		ldrb	r0, [r4, #13]	@ zero_extendqisi2
 434 0254 FFF7FEFF 		bl	FIO_ReadValue
 435 0258 A37B     		ldrb	r3, [r4, #14]	@ zero_extendqisi2
 436 025a D840     		lsrs	r0, r0, r3
 437 025c 10F00100 		ands	r0, r0, #1
 438 0260 0CBF     		ite	eq
 439 0262 0122     		moveq	r2, #1
 440 0264 0022     		movne	r2, #0
 441 0266 E178     		ldrb	r1, [r4, #3]	@ zero_extendqisi2
 442 0268 01F00103 		and	r3, r1, #1
 443 026c 9A42     		cmp	r2, r3
 444 026e 20D0     		beq	.L95
 445 0270 237B     		ldrb	r3, [r4, #12]	@ zero_extendqisi2
 446 0272 013B     		subs	r3, r3, #1
 447 0274 DBB2     		uxtb	r3, r3
 448 0276 2373     		strb	r3, [r4, #12]
 449 0278 002B     		cmp	r3, #0
 450 027a 40F02481 		bne	.L54
 451 027e 21F00101 		bic	r1, r1, #1
 452 0282 0A43     		orrs	r2, r2, r1
 453 0284 E270     		strb	r2, [r4, #3]
 454 0286 90B3     		cbz	r0, .L96
 455 0288 A378     		ldrb	r3, [r4, #2]	@ zero_extendqisi2
 456 028a 03F0FD03 		and	r3, r3, #253
 457 028e 12F0100F 		tst	r2, #16
 458 0292 14BF     		ite	ne
 459 0294 43F00403 		orrne	r3, r3, #4
 460 0298 43F00503 		orreq	r3, r3, #5
 461 029c A370     		strb	r3, [r4, #2]
 462 029e 22F01002 		bic	r2, r2, #16
 463 02a2 E270     		strb	r2, [r4, #3]
 464 02a4 0521     		movs	r1, #5
 465 02a6 2046     		mov	r0, r4
 466 02a8 FFF7AAFE 		bl	event
 467 02ac 0F23     		movs	r3, #15
 468 02ae 2373     		strb	r3, [r4, #12]
 469 02b0 09E1     		b	.L54
 470              	.L95:
 471 02b2 B8B9     		cbnz	r0, .L59
 472 02b4 3223     		movs	r3, #50
 473 02b6 2373     		strb	r3, [r4, #12]
 474 02b8 638A     		ldrh	r3, [r4, #18]
 475 02ba 002B     		cmp	r3, #0
 476 02bc 00F00381 		beq	.L54
 477 02c0 013B     		subs	r3, r3, #1
 478 02c2 9BB2     		uxth	r3, r3
 479 02c4 6382     		strh	r3, [r4, #18]	@ movhi
 480 02c6 002B     		cmp	r3, #0
 481 02c8 40F0FD80 		bne	.L54
 482 02cc A378     		ldrb	r3, [r4, #2]	@ zero_extendqisi2
 483 02ce 43F00803 		orr	r3, r3, #8
 484 02d2 A370     		strb	r3, [r4, #2]
 485 02d4 41F01001 		orr	r1, r1, #16
 486 02d8 E170     		strb	r1, [r4, #3]
 487 02da 0821     		movs	r1, #8
 488 02dc 2046     		mov	r0, r4
 489 02de FFF78FFE 		bl	event
 490 02e2 F0E0     		b	.L54
 491              	.L59:
 492 02e4 0F23     		movs	r3, #15
 493 02e6 2373     		strb	r3, [r4, #12]
 494 02e8 238A     		ldrh	r3, [r4, #16]
 495 02ea 6382     		strh	r3, [r4, #18]	@ movhi
 496 02ec EBE0     		b	.L54
 497              	.L96:
 498 02ee A378     		ldrb	r3, [r4, #2]	@ zero_extendqisi2
 499 02f0 23F00403 		bic	r3, r3, #4
 500 02f4 43F00203 		orr	r3, r3, #2
 501 02f8 A370     		strb	r3, [r4, #2]
 502 02fa 0221     		movs	r1, #2
 503 02fc 2046     		mov	r0, r4
 504 02fe FFF77FFE 		bl	event
 505 0302 3223     		movs	r3, #50
 506 0304 2373     		strb	r3, [r4, #12]
 507 0306 DEE0     		b	.L54
 508              	.L55:
 509 0308 607B     		ldrb	r0, [r4, #13]	@ zero_extendqisi2
 510 030a FFF7FEFF 		bl	FIO_ReadValue
 511 030e A37B     		ldrb	r3, [r4, #14]	@ zero_extendqisi2
 512 0310 D840     		lsrs	r0, r0, r3
 513 0312 10F00100 		ands	r0, r0, #1
 514 0316 0CBF     		ite	eq
 515 0318 0122     		moveq	r2, #1
 516 031a 0022     		movne	r2, #0
 517 031c E178     		ldrb	r1, [r4, #3]	@ zero_extendqisi2
 518 031e 01F00103 		and	r3, r1, #1
 519 0322 9A42     		cmp	r2, r3
 520 0324 40D0     		beq	.L97
 521 0326 237B     		ldrb	r3, [r4, #12]	@ zero_extendqisi2
 522 0328 013B     		subs	r3, r3, #1
 523 032a DBB2     		uxtb	r3, r3
 524 032c 2373     		strb	r3, [r4, #12]
 525 032e CBB9     		cbnz	r3, .L65
 526 0330 21F00101 		bic	r1, r1, #1
 527 0334 0A43     		orrs	r2, r2, r1
 528 0336 E270     		strb	r2, [r4, #3]
 529 0338 0028     		cmp	r0, #0
 530 033a 51D0     		beq	.L98
 531 033c A378     		ldrb	r3, [r4, #2]	@ zero_extendqisi2
 532 033e 03F0FD03 		and	r3, r3, #253
 533 0342 12F0100F 		tst	r2, #16
 534 0346 14BF     		ite	ne
 535 0348 43F00403 		orrne	r3, r3, #4
 536 034c 43F00503 		orreq	r3, r3, #5
 537 0350 A370     		strb	r3, [r4, #2]
 538 0352 22F01002 		bic	r2, r2, #16
 539 0356 E270     		strb	r2, [r4, #3]
 540 0358 0521     		movs	r1, #5
 541 035a 2046     		mov	r0, r4
 542 035c FFF750FE 		bl	event
 543 0360 2323     		movs	r3, #35
 544 0362 2373     		strb	r3, [r4, #12]
 545              	.L65:
 546 0364 677E     		ldrb	r7, [r4, #25]	@ zero_extendqisi2
 547 0366 07F00307 		and	r7, r7, #3
 548 036a E07B     		ldrb	r0, [r4, #15]	@ zero_extendqisi2
 549 036c FFF7FEFF 		bl	FIO_ReadValue
 550 0370 237C     		ldrb	r3, [r4, #16]	@ zero_extendqisi2
 551 0372 D840     		lsrs	r0, r0, r3
 552 0374 00F00100 		and	r0, r0, #1
 553 0378 47EA8007 		orr	r7, r7, r0, lsl #2
 554 037c 607C     		ldrb	r0, [r4, #17]	@ zero_extendqisi2
 555 037e FFF7FEFF 		bl	FIO_ReadValue
 556 0382 A37C     		ldrb	r3, [r4, #18]	@ zero_extendqisi2
 557 0384 D840     		lsrs	r0, r0, r3
 558 0386 00F00100 		and	r0, r0, #1
 559 038a 47EAC000 		orr	r0, r7, r0, lsl #3
 560 038e C3B2     		uxtb	r3, r0
 561 0390 0F28     		cmp	r0, #15
 562 0392 62D8     		bhi	.L71
 563 0394 DFE800F0 		tbb	[pc, r0]
 564              	.L73:
 565 0398 34       		.byte	(.L72-.L73)/2
 566 0399 31       		.byte	(.L74-.L73)/2
 567 039a 59       		.byte	(.L75-.L73)/2
 568 039b 5D       		.byte	(.L76-.L73)/2
 569 039c 59       		.byte	(.L75-.L73)/2
 570 039d 34       		.byte	(.L72-.L73)/2
 571 039e 61       		.byte	(.L71-.L73)/2
 572 039f 31       		.byte	(.L74-.L73)/2
 573 03a0 31       		.byte	(.L74-.L73)/2
 574 03a1 61       		.byte	(.L71-.L73)/2
 575 03a2 34       		.byte	(.L72-.L73)/2
 576 03a3 59       		.byte	(.L75-.L73)/2
 577 03a4 5D       		.byte	(.L76-.L73)/2
 578 03a5 59       		.byte	(.L75-.L73)/2
 579 03a6 31       		.byte	(.L74-.L73)/2
 580 03a7 34       		.byte	(.L72-.L73)/2
 581              		.p2align 1
 582              	.L97:
 583 03a8 A8B9     		cbnz	r0, .L64
 584 03aa 6423     		movs	r3, #100
 585 03ac 2373     		strb	r3, [r4, #12]
 586 03ae E38A     		ldrh	r3, [r4, #22]
 587 03b0 002B     		cmp	r3, #0
 588 03b2 D7D0     		beq	.L65
 589 03b4 013B     		subs	r3, r3, #1
 590 03b6 9BB2     		uxth	r3, r3
 591 03b8 E382     		strh	r3, [r4, #22]	@ movhi
 592 03ba 002B     		cmp	r3, #0
 593 03bc D2D1     		bne	.L65
 594 03be A378     		ldrb	r3, [r4, #2]	@ zero_extendqisi2
 595 03c0 43F00803 		orr	r3, r3, #8
 596 03c4 A370     		strb	r3, [r4, #2]
 597 03c6 41F01001 		orr	r1, r1, #16
 598 03ca E170     		strb	r1, [r4, #3]
 599 03cc 0821     		movs	r1, #8
 600 03ce 2046     		mov	r0, r4
 601 03d0 FFF716FE 		bl	event
 602 03d4 C6E7     		b	.L65
 603              	.L64:
 604 03d6 2323     		movs	r3, #35
 605 03d8 2373     		strb	r3, [r4, #12]
 606 03da A38A     		ldrh	r3, [r4, #20]
 607 03dc E382     		strh	r3, [r4, #22]	@ movhi
 608 03de C1E7     		b	.L65
 609              	.L98:
 610 03e0 A378     		ldrb	r3, [r4, #2]	@ zero_extendqisi2
 611 03e2 23F00403 		bic	r3, r3, #4
 612 03e6 43F00203 		orr	r3, r3, #2
 613 03ea A370     		strb	r3, [r4, #2]
 614 03ec 0221     		movs	r1, #2
 615 03ee 2046     		mov	r0, r4
 616 03f0 FFF706FE 		bl	event
 617 03f4 6423     		movs	r3, #100
 618 03f6 2373     		strb	r3, [r4, #12]
 619 03f8 B4E7     		b	.L65
 620              	.L74:
 621 03fa A27E     		ldrb	r2, [r4, #26]	@ zero_extendqisi2
 622 03fc 013A     		subs	r2, r2, #1
 623 03fe A276     		strb	r2, [r4, #26]
 624              	.L72:
 625 0400 9B08     		lsrs	r3, r3, #2
 626 0402 6376     		strb	r3, [r4, #25]
 627 0404 96F86430 		ldrb	r3, [r6, #100]	@ zero_extendqisi2
 628 0408 23B1     		cbz	r3, .L77
 629 040a 96F86530 		ldrb	r3, [r6, #101]	@ zero_extendqisi2
 630 040e 0133     		adds	r3, r3, #1
 631 0410 86F86530 		strb	r3, [r6, #101]
 632              	.L77:
 633 0414 94F91A30 		ldrsb	r3, [r4, #26]
 634 0418 002B     		cmp	r3, #0
 635 041a B8BF     		it	lt
 636 041c 5B42     		rsblt	r3, r3, #0
 637 041e 227E     		ldrb	r2, [r4, #24]	@ zero_extendqisi2
 638 0420 9342     		cmp	r3, r2
 639 0422 50DB     		blt	.L54
 640 0424 0123     		movs	r3, #1
 641 0426 86F86430 		strb	r3, [r6, #100]
 642 042a 96F86530 		ldrb	r3, [r6, #101]	@ zero_extendqisi2
 643 042e 632B     		cmp	r3, #99
 644 0430 2AD8     		bhi	.L78
 645 0432 96F86630 		ldrb	r3, [r6, #102]	@ zero_extendqisi2
 646 0436 0133     		adds	r3, r3, #1
 647 0438 DBB2     		uxtb	r3, r3
 648 043a 86F86630 		strb	r3, [r6, #102]
 649 043e 072B     		cmp	r3, #7
 650 0440 0FD9     		bls	.L79
 651 0442 0F4B     		ldr	r3, .L100+4
 652 0444 0722     		movs	r2, #7
 653 0446 1A70     		strb	r2, [r3]
 654 0448 28E0     		b	.L80
 655              	.L75:
 656 044a A27E     		ldrb	r2, [r4, #26]	@ zero_extendqisi2
 657 044c 0132     		adds	r2, r2, #1
 658 044e A276     		strb	r2, [r4, #26]
 659 0450 D6E7     		b	.L72
 660              	.L76:
 661 0452 A27E     		ldrb	r2, [r4, #26]	@ zero_extendqisi2
 662 0454 023A     		subs	r2, r2, #2
 663 0456 A276     		strb	r2, [r4, #26]
 664 0458 D2E7     		b	.L72
 665              	.L71:
 666 045a A27E     		ldrb	r2, [r4, #26]	@ zero_extendqisi2
 667 045c 0232     		adds	r2, r2, #2
 668 045e A276     		strb	r2, [r4, #26]
 669 0460 CEE7     		b	.L72
 670              	.L79:
 671 0462 052B     		cmp	r3, #5
 672 0464 03D9     		bls	.L81
 673 0466 064B     		ldr	r3, .L100+4
 674 0468 0522     		movs	r2, #5
 675 046a 1A70     		strb	r2, [r3]
 676 046c 16E0     		b	.L80
 677              	.L81:
 678 046e 032B     		cmp	r3, #3
 679 0470 034B     		ldr	r3, .L100+4
 680 0472 8CBF     		ite	hi
 681 0474 0322     		movhi	r2, #3
 682 0476 0122     		movls	r2, #1
 683 0478 1A70     		strb	r2, [r3]
 684 047a 0FE0     		b	.L80
 685              	.L101:
 686              		.align	2
 687              	.L100:
 688 047c 00000000 		.word	.LANCHOR0
 689 0480 00000000 		.word	.LANCHOR1
 690 0484 0AD7233C 		.word	1008981770
 691              	.L78:
 692 0488 0023     		movs	r3, #0
 693 048a 86F86530 		strb	r3, [r6, #101]
 694 048e 86F86430 		strb	r3, [r6, #100]
 695 0492 86F86630 		strb	r3, [r6, #102]
 696 0496 3E4B     		ldr	r3, .L102+8
 697 0498 0122     		movs	r2, #1
 698 049a 1A70     		strb	r2, [r3]
 699              	.L80:
 700 049c A378     		ldrb	r3, [r4, #2]	@ zero_extendqisi2
 701 049e 03F09F03 		and	r3, r3, #159
 702 04a2 43F01002 		orr	r2, r3, #16
 703 04a6 A270     		strb	r2, [r4, #2]
 704 04a8 94F91A20 		ldrsb	r2, [r4, #26]
 705 04ac 002A     		cmp	r2, #0
 706 04ae CCBF     		ite	gt
 707 04b0 43F03003 		orrgt	r3, r3, #48
 708 04b4 43F05003 		orrle	r3, r3, #80
 709 04b8 A370     		strb	r3, [r4, #2]
 710 04ba 7021     		movs	r1, #112
 711 04bc 2046     		mov	r0, r4
 712 04be FFF79FFD 		bl	event
 713 04c2 0023     		movs	r3, #0
 714 04c4 A376     		strb	r3, [r4, #26]
 715              	.L54:
 716 04c6 0135     		adds	r5, r5, #1
 717 04c8 EDB2     		uxtb	r5, r5
 718 04ca 3378     		ldrb	r3, [r6]	@ zero_extendqisi2
 719 04cc AB42     		cmp	r3, r5
 720 04ce 56D9     		bls	.L99
 721              	.L87:
 722 04d0 06EB8503 		add	r3, r6, r5, lsl #2
 723 04d4 5C68     		ldr	r4, [r3, #4]
 724 04d6 6378     		ldrb	r3, [r4, #1]	@ zero_extendqisi2
 725 04d8 012B     		cmp	r3, #1
 726 04da 3FF415AF 		beq	.L55
 727 04de 002B     		cmp	r3, #0
 728 04e0 3FF4B7AE 		beq	.L56
 729 04e4 022B     		cmp	r3, #2
 730 04e6 EED1     		bne	.L54
 731 04e8 0122     		movs	r2, #1
 732 04ea 217C     		ldrb	r1, [r4, #16]	@ zero_extendqisi2
 733 04ec 2948     		ldr	r0, .L102+12
 734 04ee FFF7FEFF 		bl	ADC_ChannelGetStatus
 735 04f2 0028     		cmp	r0, #0
 736 04f4 E7D0     		beq	.L54
 737 04f6 A378     		ldrb	r3, [r4, #2]	@ zero_extendqisi2
 738 04f8 03F07F03 		and	r3, r3, #127
 739 04fc A370     		strb	r3, [r4, #2]
 740 04fe 217C     		ldrb	r1, [r4, #16]	@ zero_extendqisi2
 741 0500 2448     		ldr	r0, .L102+12
 742 0502 FFF7FEFF 		bl	ADC_ChannelGetData
 743 0506 0190     		str	r0, [sp, #4]
 744 0508 94F80080 		ldrb	r8, [r4]	@ zero_extendqisi2
 745 050c 06EB4807 		add	r7, r6, r8, lsl #1
 746 0510 B7F86800 		ldrh	r0, [r7, #104]
 747 0514 FFF7FEFF 		bl	__aeabi_i2d
 748 0518 1BA3     		adr	r3, .L102
 749 051a D3E90023 		ldrd	r2, [r3]
 750 051e FFF7FEFF 		bl	__aeabi_dmul
 751 0522 8246     		mov	r10, r0
 752 0524 8B46     		mov	fp, r1
 753 0526 0198     		ldr	r0, [sp, #4]
 754 0528 FFF7FEFF 		bl	__aeabi_i2f
 755 052c 4946     		mov	r1, r9
 756 052e FFF7FEFF 		bl	__aeabi_fmul
 757 0532 FFF7FEFF 		bl	__aeabi_f2d
 758 0536 0246     		mov	r2, r0
 759 0538 0B46     		mov	r3, r1
 760 053a 5046     		mov	r0, r10
 761 053c 5946     		mov	r1, fp
 762 053e FFF7FEFF 		bl	__aeabi_dadd
 763 0542 FFF7FEFF 		bl	__aeabi_d2uiz
 764 0546 80B2     		uxth	r0, r0
 765 0548 A7F86800 		strh	r0, [r7, #104]	@ movhi
 766 054c 638A     		ldrh	r3, [r4, #18]
 767 054e 9842     		cmp	r0, r3
 768 0550 8CBF     		ite	hi
 769 0552 C31A     		subhi	r3, r0, r3
 770 0554 1B1A     		subls	r3, r3, r0
 771 0556 462B     		cmp	r3, #70
 772 0558 D4BF     		ite	le
 773 055a 0023     		movle	r3, #0
 774 055c 0123     		movgt	r3, #1
 775 055e 002B     		cmp	r3, #0
 776 0560 B1D0     		beq	.L54
 777 0562 6082     		strh	r0, [r4, #18]	@ movhi
 778 0564 06EB4808 		add	r8, r6, r8, lsl #1
 779 0568 A8F85400 		strh	r0, [r8, #84]	@ movhi
 780 056c A378     		ldrb	r3, [r4, #2]	@ zero_extendqisi2
 781 056e 63F07F03 		orn	r3, r3, #127
 782 0572 A370     		strb	r3, [r4, #2]
 783 0574 8021     		movs	r1, #128
 784 0576 2046     		mov	r0, r4
 785 0578 FFF742FD 		bl	event
 786 057c A3E7     		b	.L54
 787              	.L99:
 788 057e 03B0     		add	sp, sp, #12
 789              		@ sp needed
 790 0580 BDE8F08F 		pop	{r4, r5, r6, r7, r8, r9, r10, fp, pc}
 791              	.L92:
 792 0584 7047     		bx	lr
 793              	.L103:
 794 0586 00BF     		.align	3
 795              	.L102:
 796 0588 0000007B 		.word	2063597568
 797 058c 14AEEF3F 		.word	1072672276
 798 0590 00000000 		.word	.LANCHOR1
 799 0594 00400340 		.word	1073954816
 801              		.data
 802              		.set	.LANCHOR1,. + 0
 805              	acceleration:
 806 0000 01       		.byte	1
 807              		.bss
 808              		.align	2
 809              		.set	.LANCHOR0,. + 0
 812              	g_actuators_count:
 813 0000 00       		.space	1
 814 0001 000000   		.space	3
 817              	g_actuators_pointers:
 818 0004 00000000 		.space	80
 818      00000000 
 818      00000000 
 818      00000000 
 818      00000000 
 821              	g_pot_value:
 822 0054 00000000 		.space	16
 822      00000000 
 822      00000000 
 822      00000000 
 825              	firsttick.7480:
 826 0064 00       		.space	1
 829              	acceleration_count.7479:
 830 0065 00       		.space	1
 833              	ticks_count.7498:
 834 0066 00       		.space	1
 835 0067 00       		.space	1
 838              	current_value.7501:
 839 0068 00000000 		.space	16
 839      00000000 
 839      00000000 
 839      00000000 
 840              		.ident	"GCC: (GNU Tools for Arm Embedded Processors 7-2018-q3-update) 7.3.1 20180622 (release) [AR