   1              		.cpu cortex-m3
   2              		.eabi_attribute 20, 1
   3              		.eabi_attribute 21, 1
   4              		.eabi_attribute 23, 3
   5              		.eabi_attribute 24, 1
   6              		.eabi_attribute 25, 1
   7              		.eabi_attribute 26, 1
   8              		.eabi_attribute 30, 1
   9              		.eabi_attribute 34, 1
  10              		.eabi_attribute 18, 4
  11              		.file	"cr_startup_lpc176x.c"
  12              		.text
  13              		.section	.after_vectors,"ax",%progbits
  14              		.align	1
  15              		.weak	NMI_Handler
  16              		.syntax unified
  17              		.thumb
  18              		.thumb_func
  19              		.fpu softvfp
  21              	NMI_Handler:
  22              		@ args = 0, pretend = 0, frame = 0
  23              		@ frame_needed = 0, uses_anonymous_args = 0
  24              		@ link register save eliminated.
  25              	.L2:
  26 0000 FEE7     		b	.L2
  28              		.align	1
  29              		.weak	HardFault_Handler
  30              		.syntax unified
  31              		.thumb
  32              		.thumb_func
  33              		.fpu softvfp
  35              	HardFault_Handler:
  36              		@ args = 0, pretend = 0, frame = 0
  37              		@ frame_needed = 0, uses_anonymous_args = 0
  38              		@ link register save eliminated.
  39              	.L4:
  40 0002 FEE7     		b	.L4
  42              		.align	1
  43              		.weak	MemManage_Handler
  44              		.syntax unified
  45              		.thumb
  46              		.thumb_func
  47              		.fpu softvfp
  49              	MemManage_Handler:
  50              		@ args = 0, pretend = 0, frame = 0
  51              		@ frame_needed = 0, uses_anonymous_args = 0
  52              		@ link register save eliminated.
  53              	.L6:
  54 0004 FEE7     		b	.L6
  56              		.align	1
  57              		.weak	BusFault_Handler
  58              		.syntax unified
  59              		.thumb
  60              		.thumb_func
  61              		.fpu softvfp
  63              	BusFault_Handler:
  64              		@ args = 0, pretend = 0, frame = 0
  65              		@ frame_needed = 0, uses_anonymous_args = 0
  66              		@ link register save eliminated.
  67              	.L8:
  68 0006 FEE7     		b	.L8
  70              		.align	1
  71              		.weak	UsageFault_Handler
  72              		.syntax unified
  73              		.thumb
  74              		.thumb_func
  75              		.fpu softvfp
  77              	UsageFault_Handler:
  78              		@ args = 0, pretend = 0, frame = 0
  79              		@ frame_needed = 0, uses_anonymous_args = 0
  80              		@ link register save eliminated.
  81              	.L10:
  82 0008 FEE7     		b	.L10
  84              		.align	1
  85              		.weak	DebugMon_Handler
  86              		.syntax unified
  87              		.thumb
  88              		.thumb_func
  89              		.fpu softvfp
  91              	DebugMon_Handler:
  92              		@ args = 0, pretend = 0, frame = 0
  93              		@ frame_needed = 0, uses_anonymous_args = 0
  94              		@ link register save eliminated.
  95              	.L12:
  96 000a FEE7     		b	.L12
  98              		.align	1
  99              		.weak	IntDefaultHandler
 100              		.syntax unified
 101              		.thumb
 102              		.thumb_func
 103              		.fpu softvfp
 105              	IntDefaultHandler:
 106              		@ Volatile: function does not return.
 107              		@ args = 0, pretend = 0, frame = 0
 108              		@ frame_needed = 0, uses_anonymous_args = 0
 109              		@ link register save eliminated.
 110              	.L14:
 111 000c FEE7     		b	.L14
 113              		.weak	CANActivity_IRQHandler
 114              		.thumb_set CANActivity_IRQHandler,IntDefaultHandler
 115              		.weak	USBActivity_IRQHandler
 116              		.thumb_set USBActivity_IRQHandler,IntDefaultHandler
 117              		.weak	PLL1_IRQHandler
 118              		.thumb_set PLL1_IRQHandler,IntDefaultHandler
 119              		.weak	QEI_IRQHandler
 120              		.thumb_set QEI_IRQHandler,IntDefaultHandler
 121              		.weak	MCPWM_IRQHandler
 122              		.thumb_set MCPWM_IRQHandler,IntDefaultHandler
 123              		.weak	RIT_IRQHandler
 124              		.thumb_set RIT_IRQHandler,IntDefaultHandler
 125              		.weak	ENET_IRQHandler
 126              		.thumb_set ENET_IRQHandler,IntDefaultHandler
 127              		.weak	I2S_IRQHandler
 128              		.thumb_set I2S_IRQHandler,IntDefaultHandler
 129              		.weak	DMA_IRQHandler
 130              		.thumb_set DMA_IRQHandler,IntDefaultHandler
 131              		.weak	CAN_IRQHandler
 132              		.thumb_set CAN_IRQHandler,IntDefaultHandler
 133              		.weak	USB_IRQHandler
 134              		.thumb_set USB_IRQHandler,IntDefaultHandler
 135              		.weak	BOD_IRQHandler
 136              		.thumb_set BOD_IRQHandler,IntDefaultHandler
 137              		.weak	ADC_IRQHandler
 138              		.thumb_set ADC_IRQHandler,IntDefaultHandler
 139              		.weak	EINT3_IRQHandler
 140              		.thumb_set EINT3_IRQHandler,IntDefaultHandler
 141              		.weak	EINT2_IRQHandler
 142              		.thumb_set EINT2_IRQHandler,IntDefaultHandler
 143              		.weak	EINT1_IRQHandler
 144              		.thumb_set EINT1_IRQHandler,IntDefaultHandler
 145              		.weak	EINT0_IRQHandler
 146              		.thumb_set EINT0_IRQHandler,IntDefaultHandler
 147              		.weak	RTC_IRQHandler
 148              		.thumb_set RTC_IRQHandler,IntDefaultHandler
 149              		.weak	PLL0_IRQHandler
 150              		.thumb_set PLL0_IRQHandler,IntDefaultHandler
 151              		.weak	SSP1_IRQHandler
 152              		.thumb_set SSP1_IRQHandler,IntDefaultHandler
 153              		.weak	SSP0_IRQHandler
 154              		.thumb_set SSP0_IRQHandler,IntDefaultHandler
 155              		.weak	SPI_IRQHandler
 156              		.thumb_set SPI_IRQHandler,IntDefaultHandler
 157              		.weak	I2C2_IRQHandler
 158              		.thumb_set I2C2_IRQHandler,IntDefaultHandler
 159              		.weak	I2C1_IRQHandler
 160              		.thumb_set I2C1_IRQHandler,IntDefaultHandler
 161              		.weak	I2C0_IRQHandler
 162              		.thumb_set I2C0_IRQHandler,IntDefaultHandler
 163              		.weak	PWM1_IRQHandler
 164              		.thumb_set PWM1_IRQHandler,IntDefaultHandler
 165              		.weak	UART3_IRQHandler
 166              		.thumb_set UART3_IRQHandler,IntDefaultHandler
 167              		.weak	UART2_IRQHandler
 168              		.thumb_set UART2_IRQHandler,IntDefaultHandler
 169              		.weak	UART1_IRQHandler
 170              		.thumb_set UART1_IRQHandler,IntDefaultHandler
 171              		.weak	UART0_IRQHandler
 172              		.thumb_set UART0_IRQHandler,IntDefaultHandler
 173              		.weak	TIMER3_IRQHandler
 174              		.thumb_set TIMER3_IRQHandler,IntDefaultHandler
 175              		.weak	TIMER2_IRQHandler
 176              		.thumb_set TIMER2_IRQHandler,IntDefaultHandler
 177              		.weak	TIMER1_IRQHandler
 178              		.thumb_set TIMER1_IRQHandler,IntDefaultHandler
 179              		.weak	TIMER0_IRQHandler
 180              		.thumb_set TIMER0_IRQHandler,IntDefaultHandler
 181              		.weak	WDT_IRQHandler
 182              		.thumb_set WDT_IRQHandler,IntDefaultHandler
 183              		.align	1
 184              		.global	data_init
 185              		.syntax unified
 186              		.thumb
 187              		.thumb_func
 188              		.fpu softvfp
 190              	data_init:
 191              		@ args = 0, pretend = 0, frame = 0
 192              		@ frame_needed = 0, uses_anonymous_args = 0
 193              		@ link register save eliminated.
 194 000e 62B1     		cbz	r2, .L20
 195 0010 30B4     		push	{r4, r5}
 196 0012 0446     		mov	r4, r0
 197 0014 1546     		mov	r5, r2
 198 0016 091A     		subs	r1, r1, r0
 199              	.L17:
 200 0018 231D     		adds	r3, r4, #4
 201 001a 2268     		ldr	r2, [r4]
 202 001c 6250     		str	r2, [r4, r1]
 203 001e 1C46     		mov	r4, r3
 204 0020 1B1A     		subs	r3, r3, r0
 205 0022 9D42     		cmp	r5, r3
 206 0024 F8D8     		bhi	.L17
 207 0026 30BC     		pop	{r4, r5}
 208 0028 7047     		bx	lr
 209              	.L20:
 210 002a 7047     		bx	lr
 212              		.align	1
 213              		.global	bss_init
 214              		.syntax unified
 215              		.thumb
 216              		.thumb_func
 217              		.fpu softvfp
 219              	bss_init:
 220              		@ args = 0, pretend = 0, frame = 0
 221              		@ frame_needed = 0, uses_anonymous_args = 0
 222              		@ link register save eliminated.
 223 002c 59B1     		cbz	r1, .L28
 224 002e 10B4     		push	{r4}
 225 0030 0246     		mov	r2, r0
 226 0032 0C46     		mov	r4, r1
 227 0034 0021     		movs	r1, #0
 228              	.L25:
 229 0036 131D     		adds	r3, r2, #4
 230 0038 1160     		str	r1, [r2]
 231 003a 1A46     		mov	r2, r3
 232 003c 1B1A     		subs	r3, r3, r0
 233 003e A342     		cmp	r3, r4
 234 0040 F9D3     		bcc	.L25
 235 0042 10BC     		pop	{r4}
 236 0044 7047     		bx	lr
 237              	.L28:
 238 0046 7047     		bx	lr
 240              		.align	1
 241              		.global	ResetISR
 242              		.syntax unified
 243              		.thumb
 244              		.thumb_func
 245              		.fpu softvfp
 247              	ResetISR:
 248              		@ args = 0, pretend = 0, frame = 0
 249              		@ frame_needed = 0, uses_anonymous_args = 0
 250 0048 38B5     		push	{r3, r4, r5, lr}
 251 004a 154A     		ldr	r2, .L41
 252 004c 154B     		ldr	r3, .L41+4
 253 004e 9A42     		cmp	r2, r3
 254 0050 23D2     		bcs	.L37
 255 0052 1446     		mov	r4, r2
 256 0054 1D46     		mov	r5, r3
 257              	.L33:
 258 0056 2068     		ldr	r0, [r4]
 259 0058 6168     		ldr	r1, [r4, #4]
 260 005a 0C34     		adds	r4, r4, #12
 261 005c 54F8042C 		ldr	r2, [r4, #-4]
 262 0060 FFF7FEFF 		bl	data_init
 263 0064 AC42     		cmp	r4, r5
 264 0066 F6D3     		bcc	.L33
 265              	.L32:
 266 0068 0F4B     		ldr	r3, .L41+8
 267 006a 9C42     		cmp	r4, r3
 268 006c 10D2     		bcs	.L34
 269 006e 04F10805 		add	r5, r4, #8
 270 0072 0733     		adds	r3, r3, #7
 271 0074 5B1B     		subs	r3, r3, r5
 272 0076 23F00703 		bic	r3, r3, #7
 273 007a 1034     		adds	r4, r4, #16
 274 007c 1C44     		add	r4, r4, r3
 275              	.L35:
 276 007e 55F8041C 		ldr	r1, [r5, #-4]
 277 0082 55F8080C 		ldr	r0, [r5, #-8]
 278 0086 FFF7FEFF 		bl	bss_init
 279 008a 0835     		adds	r5, r5, #8
 280 008c A542     		cmp	r5, r4
 281 008e F6D1     		bne	.L35
 282              	.L34:
 283 0090 FFF7FEFF 		bl	SystemInit
 284 0094 FFF7FEFF 		bl	main
 285              	.L36:
 286 0098 FEE7     		b	.L36
 287              	.L37:
 288 009a 014C     		ldr	r4, .L41
 289 009c E4E7     		b	.L32
 290              	.L42:
 291 009e 00BF     		.align	2
 292              	.L41:
 293 00a0 00000000 		.word	__data_section_table
 294 00a4 00000000 		.word	__data_section_table_end
 295 00a8 00000000 		.word	__bss_section_table_end
 297              		.align	1
 298              		.weak	SVCall_Handler
 299              		.syntax unified
 300              		.thumb
 301              		.thumb_func
 302              		.fpu softvfp
 304              	SVCall_Handler:
 305              		@ args = 0, pretend = 0, frame = 0
 306              		@ frame_needed = 0, uses_anonymous_args = 0
 307              		@ link register save eliminated.
 308              	.L44:
 309 00ac FEE7     		b	.L44
 311              		.align	1
 312              		.weak	PendSV_Handler
 313              		.syntax unified
 314              		.thumb
 315              		.thumb_func
 316              		.fpu softvfp
 318              	PendSV_Handler:
 319              		@ args = 0, pretend = 0, frame = 0
 320              		@ frame_needed = 0, uses_anonymous_args = 0
 321              		@ link register save eliminated.
 322              	.L46:
 323 00ae FEE7     		b	.L46
 325              		.align	1
 326              		.weak	SysTick_Handler
 327              		.syntax unified
 328              		.thumb
 329              		.thumb_func
 330              		.fpu softvfp
 332              	SysTick_Handler:
 333              		@ args = 0, pretend = 0, frame = 0
 334              		@ frame_needed = 0, uses_anonymous_args = 0
 335              		@ link register save eliminated.
 336              	.L48:
 337 00b0 FEE7     		b	.L48
 339              		.global	g_pfnVectors
 340 00b2 00BF     		.section	.isr_vector,"a",%progbits
 341              		.align	2
 344              	g_pfnVectors:
 345 0000 00000000 		.word	_vStackTop
 346 0004 00000000 		.word	ResetISR
 347 0008 00000000 		.word	NMI_Handler
 348 000c 00000000 		.word	HardFault_Handler
 349 0010 00000000 		.word	MemManage_Handler
 350 0014 00000000 		.word	BusFault_Handler
 351 0018 00000000 		.word	UsageFault_Handler
 352 001c 00000000 		.word	0
 353 0020 00000000 		.word	0
 354 0024 00000000 		.word	0
 355 0028 00000000 		.word	0
 356 002c 00000000 		.word	vPortSVCHandler
 357 0030 00000000 		.word	DebugMon_Handler
 358 0034 00000000 		.word	0
 359 0038 00000000 		.word	xPortPendSVHandler
 360 003c 00000000 		.word	xPortSysTickHandler
 361 0040 00000000 		.word	WDT_IRQHandler
 362 0044 00000000 		.word	TIMER0_IRQHandler
 363 0048 00000000 		.word	TIMER1_IRQHandler
 364 004c 00000000 		.word	TIMER2_IRQHandler
 365 0050 00000000 		.word	TIMER3_IRQHandler
 366 0054 00000000 		.word	UART0_IRQHandler
 367 0058 00000000 		.word	UART1_IRQHandler
 368 005c 00000000 		.word	UART2_IRQHandler
 369 0060 00000000 		.word	UART3_IRQHandler
 370 0064 00000000 		.word	PWM1_IRQHandler
 371 0068 00000000 		.word	I2C0_IRQHandler
 372 006c 00000000 		.word	I2C1_IRQHandler
 373 0070 00000000 		.word	I2C2_IRQHandler
 374 0074 00000000 		.word	SPI_IRQHandler
 375 0078 00000000 		.word	SSP0_IRQHandler
 376 007c 00000000 		.word	SSP1_IRQHandler
 377 0080 00000000 		.word	PLL0_IRQHandler
 378 0084 00000000 		.word	RTC_IRQHandler
 379 0088 00000000 		.word	EINT0_IRQHandler
 380 008c 00000000 		.word	EINT1_IRQHandler
 381 0090 00000000 		.word	EINT2_IRQHandler
 382 0094 00000000 		.word	EINT3_IRQHandler
 383 0098 00000000 		.word	ADC_IRQHandler
 384 009c 00000000 		.word	BOD_IRQHandler
 385 00a0 00000000 		.word	USB_IRQHandler
 386 00a4 00000000 		.word	CAN_IRQHandler
 387 00a8 00000000 		.word	DMA_IRQHandler
 388 00ac 00000000 		.word	I2S_IRQHandler
 389 00b0 00000000 		.word	ENET_IRQHandler
 390 00b4 00000000 		.word	RIT_IRQHandler
 391 00b8 00000000 		.word	MCPWM_IRQHandler
 392 00bc 00000000 		.word	QEI_IRQHandler
 393 00c0 00000000 		.word	PLL1_IRQHandler
 394 00c4 00000000 		.word	USBActivity_IRQHandler
 395 00c8 00000000 		.word	CANActivity_IRQHandler
 396              		.ident	"GCC: (GNU Tools for Arm Embedded Processors 7-2018-q3-update) 7.3.1 20180622 (release) [AR