   1              		.cpu cortex-m3
   2              		.eabi_attribute 20, 1
   3              		.eabi_attribute 21, 1
   4              		.eabi_attribute 23, 3
   5              		.eabi_attribute 24, 1
   6              		.eabi_attribute 25, 1
   7              		.eabi_attribute 26, 1
   8              		.eabi_attribute 30, 2
   9              		.eabi_attribute 34, 1
  10              		.eabi_attribute 18, 4
  11              		.file	"data.c"
  12              		.text
  13              		.align	1
  14              		.p2align 2,,3
  15              		.syntax unified
  16              		.thumb
  17              		.thumb_func
  18              		.fpu softvfp
  20              	data_free_control.part.0:
  21              		@ args = 0, pretend = 0, frame = 0
  22              		@ frame_needed = 0, uses_anonymous_args = 0
  23 0000 38B5     		push	{r3, r4, r5, lr}
  24 0002 0546     		mov	r5, r0
  25 0004 4068     		ldr	r0, [r0, #4]
  26 0006 FFF7FEFF 		bl	vPortFree
  27 000a A868     		ldr	r0, [r5, #8]
  28 000c FFF7FEFF 		bl	vPortFree
  29 0010 686A     		ldr	r0, [r5, #36]
  30 0012 B8B1     		cbz	r0, .L2
  31 0014 95F82020 		ldrb	r2, [r5, #32]	@ zero_extendqisi2
  32 0018 92B1     		cbz	r2, .L3
  33 001a 0024     		movs	r4, #0
  34              	.L5:
  35 001c 50F82430 		ldr	r3, [r0, r4, lsl #2]
  36 0020 53B1     		cbz	r3, .L4
  37 0022 1868     		ldr	r0, [r3]
  38 0024 FFF7FEFF 		bl	vPortFree
  39 0028 6B6A     		ldr	r3, [r5, #36]
  40 002a 53F82400 		ldr	r0, [r3, r4, lsl #2]
  41 002e FFF7FEFF 		bl	vPortFree
  42 0032 686A     		ldr	r0, [r5, #36]
  43 0034 95F82020 		ldrb	r2, [r5, #32]	@ zero_extendqisi2
  44              	.L4:
  45 0038 0134     		adds	r4, r4, #1
  46 003a E4B2     		uxtb	r4, r4
  47 003c A242     		cmp	r2, r4
  48 003e EDD8     		bhi	.L5
  49              	.L3:
  50 0040 FFF7FEFF 		bl	vPortFree
  51              	.L2:
  52 0044 2846     		mov	r0, r5
  53 0046 BDE83840 		pop	{r3, r4, r5, lr}
  54 004a FFF7FEBF 		b	vPortFree
  56              		.global	__aeabi_d2f
  57              		.global	__aeabi_d2iz
  58              		.align	1
  59 004e 00BF     		.p2align 2,,3
  60              		.global	data_parse_control
  61              		.syntax unified
  62              		.thumb
  63              		.thumb_func
  64              		.fpu softvfp
  66              	data_parse_control:
  67              		@ args = 0, pretend = 0, frame = 0
  68              		@ frame_needed = 0, uses_anonymous_args = 0
  69 0050 2DE9F041 		push	{r4, r5, r6, r7, r8, lr}
  70 0054 0546     		mov	r5, r0
  71 0056 FFF7FEFF 		bl	strarr_length
  72 005a 0828     		cmp	r0, #8
  73 005c 02D8     		bhi	.L64
  74 005e 0023     		movs	r3, #0
  75 0060 1B73     		strb	r3, [r3, #12]
  76 0062 FFDE     		.inst	0xdeff
  77              	.L64:
  78 0064 0646     		mov	r6, r0
  79 0066 2C20     		movs	r0, #44
  80 0068 FFF7FEFF 		bl	pvPortMalloc
  81 006c 0446     		mov	r4, r0
  82 006e 0028     		cmp	r0, #0
  83 0070 7AD0     		beq	.L18
  84 0072 6868     		ldr	r0, [r5, #4]
  85 0074 FFF7FEFF 		bl	atoi
  86 0078 2070     		strb	r0, [r4]
  87 007a A868     		ldr	r0, [r5, #8]
  88 007c FFF7FEFF 		bl	str_duplicate
  89 0080 6060     		str	r0, [r4, #4]
  90 0082 E868     		ldr	r0, [r5, #12]
  91 0084 FFF7FEFF 		bl	atoi
  92 0088 0746     		mov	r7, r0
  93 008a 2869     		ldr	r0, [r5, #16]
  94 008c FFF7FEFF 		bl	str_duplicate
  95 0090 A060     		str	r0, [r4, #8]
  96 0092 6869     		ldr	r0, [r5, #20]
  97 0094 FFF7FEFF 		bl	atof
  98 0098 FFF7FEFF 		bl	__aeabi_d2f
  99 009c 2061     		str	r0, [r4, #16]	@ float
 100 009e A869     		ldr	r0, [r5, #24]
 101 00a0 FFF7FEFF 		bl	atof
 102 00a4 FFF7FEFF 		bl	__aeabi_d2f
 103 00a8 A061     		str	r0, [r4, #24]	@ float
 104 00aa E869     		ldr	r0, [r5, #28]
 105 00ac FFF7FEFF 		bl	atof
 106 00b0 FFF7FEFF 		bl	__aeabi_d2f
 107 00b4 6061     		str	r0, [r4, #20]	@ float
 108 00b6 286A     		ldr	r0, [r5, #32]
 109 00b8 FFF7FEFF 		bl	atoi
 110 00bc 0023     		movs	r3, #0
 111 00be 6268     		ldr	r2, [r4, #4]
 112 00c0 E083     		strh	r0, [r4, #30]	@ movhi
 113 00c2 84F82030 		strb	r3, [r4, #32]
 114 00c6 6362     		str	r3, [r4, #36]
 115 00c8 002A     		cmp	r2, #0
 116 00ca 49D0     		beq	.L21
 117 00cc A368     		ldr	r3, [r4, #8]
 118 00ce 002B     		cmp	r3, #0
 119 00d0 46D0     		beq	.L21
 120 00d2 FBB2     		uxtb	r3, r7
 121 00d4 5907     		lsls	r1, r3, #29
 122 00d6 4AD5     		bpl	.L22
 123 00d8 0423     		movs	r3, #4
 124 00da 092E     		cmp	r6, #9
 125 00dc 2373     		strb	r3, [r4, #12]
 126 00de 43D0     		beq	.L18
 127              	.L25:
 128 00e0 686A     		ldr	r0, [r5, #36]
 129 00e2 FFF7FEFF 		bl	atoi
 130 00e6 C0B2     		uxtb	r0, r0
 131 00e8 84F82000 		strb	r0, [r4, #32]
 132 00ec 0028     		cmp	r0, #0
 133 00ee 3BD0     		beq	.L18
 134 00f0 8000     		lsls	r0, r0, #2
 135 00f2 FFF7FEFF 		bl	pvPortMalloc
 136 00f6 0646     		mov	r6, r0
 137 00f8 6062     		str	r0, [r4, #36]
 138 00fa 88B3     		cbz	r0, .L21
 139 00fc 94F82020 		ldrb	r2, [r4, #32]	@ zero_extendqisi2
 140 0100 92B3     		cbz	r2, .L18
 141 0102 0021     		movs	r1, #0
 142 0104 013A     		subs	r2, r2, #1
 143 0106 D2B2     		uxtb	r2, r2
 144 0108 00EB8202 		add	r2, r0, r2, lsl #2
 145 010c 031F     		subs	r3, r0, #4
 146              	.L33:
 147 010e 43F8041F 		str	r1, [r3, #4]!
 148 0112 9A42     		cmp	r2, r3
 149 0114 FBD1     		bne	.L33
 150 0116 0027     		movs	r7, #0
 151 0118 05E0     		b	.L34
 152              	.L65:
 153 011a 0137     		adds	r7, r7, #1
 154 011c 94F82030 		ldrb	r3, [r4, #32]	@ zero_extendqisi2
 155 0120 FFB2     		uxtb	r7, r7
 156 0122 BB42     		cmp	r3, r7
 157 0124 20D9     		bls	.L18
 158              	.L34:
 159 0126 0820     		movs	r0, #8
 160 0128 FFF7FEFF 		bl	pvPortMalloc
 161 012c 626A     		ldr	r2, [r4, #36]
 162 012e 7B1D     		adds	r3, r7, #5
 163 0130 46F82700 		str	r0, [r6, r7, lsl #2]
 164 0134 55F83300 		ldr	r0, [r5, r3, lsl #3]
 165 0138 52F82780 		ldr	r8, [r2, r7, lsl #2]
 166 013c DE00     		lsls	r6, r3, #3
 167 013e FFF7FEFF 		bl	str_duplicate
 168 0142 AB19     		adds	r3, r5, r6
 169 0144 C8F80000 		str	r0, [r8]
 170 0148 5868     		ldr	r0, [r3, #4]
 171 014a FFF7FEFF 		bl	atof
 172 014e FFF7FEFF 		bl	__aeabi_d2iz
 173 0152 666A     		ldr	r6, [r4, #36]
 174 0154 56F82730 		ldr	r3, [r6, r7, lsl #2]
 175 0158 1A68     		ldr	r2, [r3]
 176 015a 1871     		strb	r0, [r3, #4]
 177 015c 002A     		cmp	r2, #0
 178 015e DCD1     		bne	.L65
 179              	.L21:
 180 0160 2046     		mov	r0, r4
 181 0162 FFF74DFF 		bl	data_free_control.part.0
 182 0166 0024     		movs	r4, #0
 183              	.L18:
 184 0168 2046     		mov	r0, r4
 185 016a BDE8F081 		pop	{r4, r5, r6, r7, r8, pc}
 186              	.L22:
 187 016e 1A07     		lsls	r2, r3, #28
 188 0170 04D5     		bpl	.L24
 189 0172 0823     		movs	r3, #8
 190 0174 092E     		cmp	r6, #9
 191 0176 2373     		strb	r3, [r4, #12]
 192 0178 B2D1     		bne	.L25
 193 017a F5E7     		b	.L18
 194              	.L24:
 195 017c 9E07     		lsls	r6, r3, #30
 196 017e 02D5     		bpl	.L26
 197 0180 0223     		movs	r3, #2
 198 0182 2373     		strb	r3, [r4, #12]
 199 0184 F0E7     		b	.L18
 200              	.L26:
 201 0186 DD07     		lsls	r5, r3, #31
 202 0188 02D5     		bpl	.L28
 203 018a 0123     		movs	r3, #1
 204 018c 2373     		strb	r3, [r4, #12]
 205 018e EBE7     		b	.L18
 206              	.L28:
 207 0190 D806     		lsls	r0, r3, #27
 208 0192 02D5     		bpl	.L29
 209 0194 1023     		movs	r3, #16
 210 0196 2373     		strb	r3, [r4, #12]
 211 0198 E6E7     		b	.L18
 212              	.L29:
 213 019a 9906     		lsls	r1, r3, #26
 214 019c 02D5     		bpl	.L30
 215 019e 2023     		movs	r3, #32
 216 01a0 2373     		strb	r3, [r4, #12]
 217 01a2 E1E7     		b	.L18
 218              	.L30:
 219 01a4 13F04003 		ands	r3, r3, #64
 220 01a8 02D0     		beq	.L31
 221 01aa 4023     		movs	r3, #64
 222 01ac 2373     		strb	r3, [r4, #12]
 223 01ae DBE7     		b	.L18
 224              	.L31:
 225 01b0 3A06     		lsls	r2, r7, #24
 226 01b2 48BF     		it	mi
 227 01b4 8023     		movmi	r3, #128
 228 01b6 2373     		strb	r3, [r4, #12]
 229 01b8 D6E7     		b	.L18
 231              		.align	1
 232 01ba 00BF     		.p2align 2,,3
 233              		.global	data_free_control
 234              		.syntax unified
 235              		.thumb
 236              		.thumb_func
 237              		.fpu softvfp
 239              	data_free_control:
 240              		@ args = 0, pretend = 0, frame = 0
 241              		@ frame_needed = 0, uses_anonymous_args = 0
 242              		@ link register save eliminated.
 243 01bc 00B1     		cbz	r0, .L66
 244 01be 1FE7     		b	data_free_control.part.0
 245              	.L66:
 246 01c0 7047     		bx	lr
 248              		.align	1
 249 01c2 00BF     		.p2align 2,,3
 250              		.global	data_free_banks_list
 251              		.syntax unified
 252              		.thumb
 253              		.thumb_func
 254              		.fpu softvfp
 256              	data_free_banks_list:
 257              		@ args = 0, pretend = 0, frame = 0
 258              		@ frame_needed = 0, uses_anonymous_args = 0
 259 01c4 40B3     		cbz	r0, .L68
 260 01c6 38B5     		push	{r3, r4, r5, lr}
 261 01c8 0446     		mov	r4, r0
 262 01ca 0068     		ldr	r0, [r0]
 263 01cc 70B1     		cbz	r0, .L70
 264 01ce 237A     		ldrb	r3, [r4, #8]	@ zero_extendqisi2
 265 01d0 012B     		cmp	r3, #1
 266 01d2 09D9     		bls	.L71
 267 01d4 0125     		movs	r5, #1
 268              	.L73:
 269 01d6 50F82500 		ldr	r0, [r0, r5, lsl #2]
 270 01da FFF7FEFF 		bl	vPortFree
 271 01de 237A     		ldrb	r3, [r4, #8]	@ zero_extendqisi2
 272 01e0 0135     		adds	r5, r5, #1
 273 01e2 AB42     		cmp	r3, r5
 274 01e4 2068     		ldr	r0, [r4]
 275 01e6 F6D8     		bhi	.L73
 276              	.L71:
 277 01e8 FFF7FEFF 		bl	vPortFree
 278              	.L70:
 279 01ec 6068     		ldr	r0, [r4, #4]
 280 01ee 70B1     		cbz	r0, .L74
 281 01f0 237A     		ldrb	r3, [r4, #8]	@ zero_extendqisi2
 282 01f2 012B     		cmp	r3, #1
 283 01f4 09D9     		bls	.L75
 284 01f6 0125     		movs	r5, #1
 285              	.L77:
 286 01f8 50F82500 		ldr	r0, [r0, r5, lsl #2]
 287 01fc FFF7FEFF 		bl	vPortFree
 288 0200 237A     		ldrb	r3, [r4, #8]	@ zero_extendqisi2
 289 0202 0135     		adds	r5, r5, #1
 290 0204 AB42     		cmp	r3, r5
 291 0206 6068     		ldr	r0, [r4, #4]
 292 0208 F6D8     		bhi	.L77
 293              	.L75:
 294 020a FFF7FEFF 		bl	vPortFree
 295              	.L74:
 296 020e 2046     		mov	r0, r4
 297 0210 BDE83840 		pop	{r3, r4, r5, lr}
 298 0214 FFF7FEBF 		b	vPortFree
 299              	.L68:
 300 0218 7047     		bx	lr
 302              		.align	1
 303 021a 00BF     		.p2align 2,,3
 304              		.global	data_parse_banks_list
 305              		.syntax unified
 306              		.thumb
 307              		.thumb_func
 308              		.fpu softvfp
 310              	data_parse_banks_list:
 311              		@ args = 0, pretend = 0, frame = 0
 312              		@ frame_needed = 0, uses_anonymous_args = 0
 313 021c 2DE9F843 		push	{r3, r4, r5, r6, r7, r8, r9, lr}
 314 0220 0028     		cmp	r0, #0
 315 0222 4CD0     		beq	.L95
 316 0224 0029     		cmp	r1, #0
 317 0226 4AD0     		beq	.L95
 318 0228 11F00104 		ands	r4, r1, #1
 319 022c 47D1     		bne	.L95
 320 022e 0746     		mov	r7, r0
 321 0230 0C20     		movs	r0, #12
 322 0232 4FEA5108 		lsr	r8, r1, #1
 323 0236 FFF7FEFF 		bl	pvPortMalloc
 324 023a 0546     		mov	r5, r0
 325 023c 0028     		cmp	r0, #0
 326 023e 37D0     		beq	.L89
 327 0240 4FEA8809 		lsl	r9, r8, #2
 328 0244 4472     		strb	r4, [r0, #9]
 329 0246 8472     		strb	r4, [r0, #10]
 330 0248 80F80880 		strb	r8, [r0, #8]
 331 024c 4846     		mov	r0, r9
 332 024e FFF7FEFF 		bl	pvPortMalloc
 333 0252 2860     		str	r0, [r5]
 334 0254 4846     		mov	r0, r9
 335 0256 FFF7FEFF 		bl	pvPortMalloc
 336 025a 2E68     		ldr	r6, [r5]
 337 025c 6860     		str	r0, [r5, #4]
 338 025e 3EB3     		cbz	r6, .L89
 339 0260 30B3     		cbz	r0, .L89
 340 0262 B8F1000F 		cmp	r8, #0
 341 0266 0BD0     		beq	.L90
 342 0268 2146     		mov	r1, r4
 343 026a A9F10402 		sub	r2, r9, #4
 344 026e 3244     		add	r2, r2, r6
 345 0270 0438     		subs	r0, r0, #4
 346 0272 331F     		subs	r3, r6, #4
 347              	.L91:
 348 0274 43F8041F 		str	r1, [r3, #4]!
 349 0278 9342     		cmp	r3, r2
 350 027a 40F8041F 		str	r1, [r0, #4]!
 351 027e F9D1     		bne	.L91
 352              	.L90:
 353 0280 3868     		ldr	r0, [r7]
 354 0282 38B9     		cbnz	r0, .L92
 355 0284 18E0     		b	.L87
 356              	.L120:
 357 0286 6B68     		ldr	r3, [r5, #4]
 358 0288 1B59     		ldr	r3, [r3, r4]
 359 028a 0434     		adds	r4, r4, #4
 360 028c 83B1     		cbz	r3, .L89
 361 028e 57F8080F 		ldr	r0, [r7, #8]!
 362 0292 88B1     		cbz	r0, .L87
 363              	.L92:
 364 0294 FFF7FEFF 		bl	str_duplicate
 365 0298 3051     		str	r0, [r6, r4]
 366 029a 7868     		ldr	r0, [r7, #4]
 367 029c D5F80480 		ldr	r8, [r5, #4]
 368 02a0 FFF7FEFF 		bl	str_duplicate
 369 02a4 2E68     		ldr	r6, [r5]
 370 02a6 48F80400 		str	r0, [r8, r4]
 371 02aa 3359     		ldr	r3, [r6, r4]
 372 02ac 002B     		cmp	r3, #0
 373 02ae EAD1     		bne	.L120
 374              	.L89:
 375 02b0 2846     		mov	r0, r5
 376 02b2 FFF7FEFF 		bl	data_free_banks_list
 377 02b6 0025     		movs	r5, #0
 378              	.L87:
 379 02b8 2846     		mov	r0, r5
 380 02ba BDE8F883 		pop	{r3, r4, r5, r6, r7, r8, r9, pc}
 381              	.L95:
 382 02be 0025     		movs	r5, #0
 383 02c0 2846     		mov	r0, r5
 384 02c2 BDE8F883 		pop	{r3, r4, r5, r6, r7, r8, r9, pc}
 386              		.align	1
 387 02c6 00BF     		.p2align 2,,3
 388              		.global	data_parse_pedalboards_list
 389              		.syntax unified
 390              		.thumb
 391              		.thumb_func
 392              		.fpu softvfp
 394              	data_parse_pedalboards_list:
 395              		@ args = 0, pretend = 0, frame = 0
 396              		@ frame_needed = 0, uses_anonymous_args = 0
 397 02c8 2DE9F041 		push	{r4, r5, r6, r7, r8, lr}
 398 02cc 0028     		cmp	r0, #0
 399 02ce 51D0     		beq	.L128
 400 02d0 0029     		cmp	r1, #0
 401 02d2 4FD0     		beq	.L128
 402 02d4 11F00107 		ands	r7, r1, #1
 403 02d8 4CD1     		bne	.L128
 404 02da 0646     		mov	r6, r0
 405 02dc 0C20     		movs	r0, #12
 406 02de 4C08     		lsrs	r4, r1, #1
 407 02e0 FFF7FEFF 		bl	pvPortMalloc
 408 02e4 631C     		adds	r3, r4, #1
 409 02e6 0546     		mov	r5, r0
 410 02e8 0028     		cmp	r0, #0
 411 02ea 3CD0     		beq	.L123
 412 02ec 0122     		movs	r2, #1
 413 02ee 0234     		adds	r4, r4, #2
 414 02f0 A400     		lsls	r4, r4, #2
 415 02f2 0372     		strb	r3, [r0, #8]
 416 02f4 4772     		strb	r7, [r0, #9]
 417 02f6 AA72     		strb	r2, [r5, #10]
 418 02f8 2046     		mov	r0, r4
 419 02fa FFF7FEFF 		bl	pvPortMalloc
 420 02fe 2860     		str	r0, [r5]
 421 0300 2046     		mov	r0, r4
 422 0302 FFF7FEFF 		bl	pvPortMalloc
 423 0306 D5F80080 		ldr	r8, [r5]
 424 030a 6860     		str	r0, [r5, #4]
 425 030c B8F1000F 		cmp	r8, #0
 426 0310 29D0     		beq	.L123
 427 0312 40B3     		cbz	r0, .L123
 428 0314 043C     		subs	r4, r4, #4
 429 0316 4444     		add	r4, r4, r8
 430 0318 A8F10403 		sub	r3, r8, #4
 431 031c 011F     		subs	r1, r0, #4
 432              	.L124:
 433 031e 43F8047F 		str	r7, [r3, #4]!
 434 0322 A342     		cmp	r3, r4
 435 0324 41F8047F 		str	r7, [r1, #4]!
 436 0328 F9D1     		bne	.L124
 437 032a 144B     		ldr	r3, .L151
 438 032c C8F80030 		str	r3, [r8]
 439 0330 0760     		str	r7, [r0]
 440 0332 3068     		ldr	r0, [r6]
 441 0334 D8B1     		cbz	r0, .L121
 442 0336 0424     		movs	r4, #4
 443 0338 06E0     		b	.L125
 444              	.L150:
 445 033a 6B68     		ldr	r3, [r5, #4]
 446 033c 1B59     		ldr	r3, [r3, r4]
 447 033e 0434     		adds	r4, r4, #4
 448 0340 8BB1     		cbz	r3, .L123
 449 0342 56F8080F 		ldr	r0, [r6, #8]!
 450 0346 90B1     		cbz	r0, .L121
 451              	.L125:
 452 0348 FFF7FEFF 		bl	str_duplicate
 453 034c 48F80400 		str	r0, [r8, r4]
 454 0350 7068     		ldr	r0, [r6, #4]
 455 0352 6F68     		ldr	r7, [r5, #4]
 456 0354 FFF7FEFF 		bl	str_duplicate
 457 0358 D5F80080 		ldr	r8, [r5]
 458 035c 3851     		str	r0, [r7, r4]
 459 035e 58F80430 		ldr	r3, [r8, r4]
 460 0362 002B     		cmp	r3, #0
 461 0364 E9D1     		bne	.L150
 462              	.L123:
 463 0366 2846     		mov	r0, r5
 464 0368 FFF7FEFF 		bl	data_free_banks_list
 465 036c 0025     		movs	r5, #0
 466              	.L121:
 467 036e 2846     		mov	r0, r5
 468 0370 BDE8F081 		pop	{r4, r5, r6, r7, r8, pc}
 469              	.L128:
 470 0374 0025     		movs	r5, #0
 471 0376 2846     		mov	r0, r5
 472 0378 BDE8F081 		pop	{r4, r5, r6, r7, r8, pc}
 473              	.L152:
 474              		.align	2
 475              	.L151:
 476 037c 00000000 		.word	.LANCHOR0
 478              		.align	1
 479              		.p2align 2,,3
 480              		.global	data_free_pedalboards_list
 481              		.syntax unified
 482              		.thumb
 483              		.thumb_func
 484              		.fpu softvfp
 486              	data_free_pedalboards_list:
 487              		@ args = 0, pretend = 0, frame = 0
 488              		@ frame_needed = 0, uses_anonymous_args = 0
 489              		@ link register save eliminated.
 490 0380 FFF7FEBF 		b	data_free_banks_list
 492              		.data
 493              		.align	2
 494              		.set	.LANCHOR0,. + 0
 497              	g_back_to_bank:
 498 0000 3C204261 		.ascii	"< Back to bank list\000"
 498      636B2074 
 498      6F206261 
 498      6E6B206C 
 498      69737400 
 499              		.ident	"GCC: (GNU Tools for Arm Embedded Processors 7-2018-q3-update) 7.3.1 20180622 (release) [AR
DEFINED SYMBOLS
                            *ABS*:0000000000000000 data.c
     /tmp/ccspe1fZ.s:13     .text:0000000000000000 $t
     /tmp/ccspe1fZ.s:20     .text:0000000000000000 data_free_control.part.0
     /tmp/ccspe1fZ.s:66     .text:0000000000000050 data_parse_control
     /tmp/ccspe1fZ.s:239    .text:00000000000001bc data_free_control
     /tmp/ccspe1fZ.s:256    .text:00000000000001c4 data_free_banks_list
     /tmp/ccspe1fZ.s:310    .text:000000000000021c data_parse_banks_list
     /tmp/ccspe1fZ.s:394    .text:00000000000002c8 data_parse_pedalboards_list
     /tmp/ccspe1fZ.s:476    .text:000000000000037c $d
     /tmp/ccspe1fZ.s:478    .text:0000000000000380 $t
     /tmp/ccspe1fZ.s:486    .text:0000000000000380 data_free_pedalboards_list
     /tmp/ccspe1fZ.s:493    .data:0000000000000000 $d
     /tmp/ccspe1fZ.s:497    .data:0000000000000000 g_back_to_bank

UNDEFINED SYMBOLS
vPortFree
__aeabi_d2f
__aeabi_d2iz
strarr_length
pvPortMalloc
atoi
str_duplicate
atof
