   1              		.cpu cortex-m3
   2              		.eabi_attribute 20, 1
   3              		.eabi_attribute 21, 1
   4              		.eabi_attribute 23, 3
   5              		.eabi_attribute 24, 1
   6              		.eabi_attribute 25, 1
   7              		.eabi_attribute 26, 1
   8              		.eabi_attribute 30, 1
   9              		.eabi_attribute 34, 1
  10              		.eabi_attribute 18, 4
  11              		.file	"event_groups.c"
  12              		.text
  13              		.align	1
  14              		.global	xEventGroupCreate
  15              		.syntax unified
  16              		.thumb
  17              		.thumb_func
  18              		.fpu softvfp
  20              	xEventGroupCreate:
  21              		@ args = 0, pretend = 0, frame = 0
  22              		@ frame_needed = 0, uses_anonymous_args = 0
  23 0000 10B5     		push	{r4, lr}
  24 0002 1820     		movs	r0, #24
  25 0004 FFF7FEFF 		bl	pvPortMalloc
  26 0008 0446     		mov	r4, r0
  27 000a 20B1     		cbz	r0, .L1
  28 000c 0023     		movs	r3, #0
  29 000e 40F8043B 		str	r3, [r0], #4
  30 0012 FFF7FEFF 		bl	vListInitialise
  31              	.L1:
  32 0016 2046     		mov	r0, r4
  33 0018 10BD     		pop	{r4, pc}
  35              		.align	1
  36              		.global	xEventGroupWaitBits
  37              		.syntax unified
  38              		.thumb
  39              		.thumb_func
  40              		.fpu softvfp
  42              	xEventGroupWaitBits:
  43              		@ args = 4, pretend = 0, frame = 0
  44              		@ frame_needed = 0, uses_anonymous_args = 0
  45 001a 2DE9F041 		push	{r4, r5, r6, r7, r8, lr}
  46 001e 0646     		mov	r6, r0
  47 0020 0D46     		mov	r5, r1
  48 0022 9046     		mov	r8, r2
  49 0024 1F46     		mov	r7, r3
  50 0026 FFF7FEFF 		bl	vTaskSuspendAll
  51 002a 3468     		ldr	r4, [r6]
  52 002c 7FB9     		cbnz	r7, .L5
  53 002e 2C42     		tst	r4, r5
  54 0030 14BF     		ite	ne
  55 0032 0123     		movne	r3, #1
  56 0034 0023     		moveq	r3, #0
  57              	.L6:
  58 0036 83B1     		cbz	r3, .L7
  59 0038 B8F1000F 		cmp	r8, #0
  60 003c 02D0     		beq	.L8
  61 003e 24EA0505 		bic	r5, r4, r5
  62 0042 3560     		str	r5, [r6]
  63              	.L8:
  64 0044 FFF7FEFF 		bl	xTaskResumeAll
  65              	.L4:
  66 0048 2046     		mov	r0, r4
  67 004a BDE8F081 		pop	{r4, r5, r6, r7, r8, pc}
  68              	.L5:
  69 004e 35EA0403 		bics	r3, r5, r4
  70 0052 0CBF     		ite	eq
  71 0054 0123     		moveq	r3, #1
  72 0056 0023     		movne	r3, #0
  73 0058 EDE7     		b	.L6
  74              	.L7:
  75 005a 069B     		ldr	r3, [sp, #24]
  76 005c 002B     		cmp	r3, #0
  77 005e F1D0     		beq	.L8
  78 0060 B8F1000F 		cmp	r8, #0
  79 0064 0CBF     		ite	eq
  80 0066 0021     		moveq	r1, #0
  81 0068 4FF08071 		movne	r1, #16777216
  82 006c 0FB1     		cbz	r7, .L10
  83 006e 41F08061 		orr	r1, r1, #67108864
  84              	.L10:
  85 0072 069A     		ldr	r2, [sp, #24]
  86 0074 2943     		orrs	r1, r1, r5
  87 0076 301D     		adds	r0, r6, #4
  88 0078 FFF7FEFF 		bl	vTaskPlaceOnUnorderedEventList
  89 007c FFF7FEFF 		bl	xTaskResumeAll
  90 0080 40B1     		cbz	r0, .L19
  91              	.L11:
  92 0082 FFF7FEFF 		bl	uxTaskResetEventItemValue
  93 0086 0446     		mov	r4, r0
  94 0088 10F0007F 		tst	r0, #33554432
  95 008c 05D0     		beq	.L20
  96              	.L12:
  97 008e 24F07F44 		bic	r4, r4, #-16777216
  98 0092 D9E7     		b	.L4
  99              	.L19:
 100 0094 FFF7FEFF 		bl	vPortYield
 101 0098 F3E7     		b	.L11
 102              	.L20:
 103 009a FFF7FEFF 		bl	vPortEnterCritical
 104 009e 3468     		ldr	r4, [r6]
 105 00a0 6FB9     		cbnz	r7, .L13
 106 00a2 2542     		tst	r5, r4
 107 00a4 14BF     		ite	ne
 108 00a6 0123     		movne	r3, #1
 109 00a8 0023     		moveq	r3, #0
 110              	.L14:
 111 00aa 2BB1     		cbz	r3, .L15
 112 00ac B8F1000F 		cmp	r8, #0
 113 00b0 02D0     		beq	.L15
 114 00b2 24EA0505 		bic	r5, r4, r5
 115 00b6 3560     		str	r5, [r6]
 116              	.L15:
 117 00b8 FFF7FEFF 		bl	vPortExitCritical
 118 00bc E7E7     		b	.L12
 119              	.L13:
 120 00be 35EA0403 		bics	r3, r5, r4
 121 00c2 0CBF     		ite	eq
 122 00c4 0123     		moveq	r3, #1
 123 00c6 0023     		movne	r3, #0
 124 00c8 EFE7     		b	.L14
 126              		.align	1
 127              		.global	xEventGroupClearBits
 128              		.syntax unified
 129              		.thumb
 130              		.thumb_func
 131              		.fpu softvfp
 133              	xEventGroupClearBits:
 134              		@ args = 0, pretend = 0, frame = 0
 135              		@ frame_needed = 0, uses_anonymous_args = 0
 136 00ca 70B5     		push	{r4, r5, r6, lr}
 137 00cc 0646     		mov	r6, r0
 138 00ce 0C46     		mov	r4, r1
 139 00d0 FFF7FEFF 		bl	vPortEnterCritical
 140 00d4 3568     		ldr	r5, [r6]
 141 00d6 25EA0404 		bic	r4, r5, r4
 142 00da 3460     		str	r4, [r6]
 143 00dc FFF7FEFF 		bl	vPortExitCritical
 144 00e0 2846     		mov	r0, r5
 145 00e2 70BD     		pop	{r4, r5, r6, pc}
 147              		.align	1
 148              		.global	xEventGroupGetBitsFromISR
 149              		.syntax unified
 150              		.thumb
 151              		.thumb_func
 152              		.fpu softvfp
 154              	xEventGroupGetBitsFromISR:
 155              		@ args = 0, pretend = 0, frame = 0
 156              		@ frame_needed = 0, uses_anonymous_args = 0
 157 00e4 10B5     		push	{r4, lr}
 158 00e6 0446     		mov	r4, r0
 159 00e8 FFF7FEFF 		bl	ulPortSetInterruptMask
 160 00ec 2468     		ldr	r4, [r4]
 161 00ee FFF7FEFF 		bl	vPortClearInterruptMask
 162 00f2 2046     		mov	r0, r4
 163 00f4 10BD     		pop	{r4, pc}
 165              		.align	1
 166              		.global	xEventGroupSetBits
 167              		.syntax unified
 168              		.thumb
 169              		.thumb_func
 170              		.fpu softvfp
 172              	xEventGroupSetBits:
 173              		@ args = 0, pretend = 0, frame = 0
 174              		@ frame_needed = 0, uses_anonymous_args = 0
 175 00f6 F8B5     		push	{r3, r4, r5, r6, r7, lr}
 176 00f8 0546     		mov	r5, r0
 177 00fa 0C46     		mov	r4, r1
 178 00fc 00F10C06 		add	r6, r0, #12
 179 0100 FFF7FEFF 		bl	vTaskSuspendAll
 180 0104 2869     		ldr	r0, [r5, #16]
 181 0106 2968     		ldr	r1, [r5]
 182 0108 2143     		orrs	r1, r1, r4
 183 010a 2960     		str	r1, [r5]
 184 010c 8642     		cmp	r6, r0
 185 010e 1CD0     		beq	.L32
 186 0110 0027     		movs	r7, #0
 187 0112 0FE0     		b	.L31
 188              	.L27:
 189 0114 2968     		ldr	r1, [r5]
 190 0116 32EA0101 		bics	r1, r2, r1
 191 011a 08D1     		bne	.L29
 192              	.L28:
 193 011c 13F0807F 		tst	r3, #16777216
 194 0120 18BF     		it	ne
 195 0122 1743     		orrne	r7, r7, r2
 196 0124 2968     		ldr	r1, [r5]
 197 0126 41F00071 		orr	r1, r1, #33554432
 198 012a FFF7FEFF 		bl	xTaskRemoveFromUnorderedEventList
 199              	.L29:
 200 012e 2046     		mov	r0, r4
 201 0130 A642     		cmp	r6, r4
 202 0132 0BD0     		beq	.L26
 203              	.L31:
 204 0134 4468     		ldr	r4, [r0, #4]
 205 0136 0368     		ldr	r3, [r0]
 206 0138 23F07F42 		bic	r2, r3, #-16777216
 207 013c 13F0806F 		tst	r3, #67108864
 208 0140 E8D1     		bne	.L27
 209 0142 2968     		ldr	r1, [r5]
 210 0144 0A42     		tst	r2, r1
 211 0146 E9D1     		bne	.L28
 212 0148 F1E7     		b	.L29
 213              	.L32:
 214 014a 0027     		movs	r7, #0
 215              	.L26:
 216 014c 2B68     		ldr	r3, [r5]
 217 014e 23EA0707 		bic	r7, r3, r7
 218 0152 2F60     		str	r7, [r5]
 219 0154 FFF7FEFF 		bl	xTaskResumeAll
 220 0158 2868     		ldr	r0, [r5]
 221 015a F8BD     		pop	{r3, r4, r5, r6, r7, pc}
 223              		.align	1
 224              		.global	xEventGroupSync
 225              		.syntax unified
 226              		.thumb
 227              		.thumb_func
 228              		.fpu softvfp
 230              	xEventGroupSync:
 231              		@ args = 0, pretend = 0, frame = 0
 232              		@ frame_needed = 0, uses_anonymous_args = 0
 233 015c 2DE9F041 		push	{r4, r5, r6, r7, r8, lr}
 234 0160 0546     		mov	r5, r0
 235 0162 0F46     		mov	r7, r1
 236 0164 1646     		mov	r6, r2
 237 0166 9846     		mov	r8, r3
 238 0168 FFF7FEFF 		bl	vTaskSuspendAll
 239 016c 2C68     		ldr	r4, [r5]
 240 016e 3946     		mov	r1, r7
 241 0170 2846     		mov	r0, r5
 242 0172 FFF7FEFF 		bl	xEventGroupSetBits
 243 0176 3C43     		orrs	r4, r4, r7
 244 0178 36EA0403 		bics	r3, r6, r4
 245 017c 08D0     		beq	.L45
 246 017e B8F1000F 		cmp	r8, #0
 247 0182 0AD1     		bne	.L46
 248 0184 2C68     		ldr	r4, [r5]
 249              	.L37:
 250 0186 FFF7FEFF 		bl	xTaskResumeAll
 251              	.L35:
 252 018a 2046     		mov	r0, r4
 253 018c BDE8F081 		pop	{r4, r5, r6, r7, r8, pc}
 254              	.L45:
 255 0190 2B68     		ldr	r3, [r5]
 256 0192 23EA0606 		bic	r6, r3, r6
 257 0196 2E60     		str	r6, [r5]
 258 0198 F5E7     		b	.L37
 259              	.L46:
 260 019a 4246     		mov	r2, r8
 261 019c 46F0A061 		orr	r1, r6, #83886080
 262 01a0 281D     		adds	r0, r5, #4
 263 01a2 FFF7FEFF 		bl	vTaskPlaceOnUnorderedEventList
 264 01a6 FFF7FEFF 		bl	xTaskResumeAll
 265 01aa 40B1     		cbz	r0, .L47
 266              	.L40:
 267 01ac FFF7FEFF 		bl	uxTaskResetEventItemValue
 268 01b0 0446     		mov	r4, r0
 269 01b2 10F0007F 		tst	r0, #33554432
 270 01b6 05D0     		beq	.L48
 271              	.L41:
 272 01b8 24F07F44 		bic	r4, r4, #-16777216
 273 01bc E5E7     		b	.L35
 274              	.L47:
 275 01be FFF7FEFF 		bl	vPortYield
 276 01c2 F3E7     		b	.L40
 277              	.L48:
 278 01c4 FFF7FEFF 		bl	vPortEnterCritical
 279 01c8 2C68     		ldr	r4, [r5]
 280 01ca 36EA0403 		bics	r3, r6, r4
 281 01ce 04BF     		itt	eq
 282 01d0 24EA0606 		biceq	r6, r4, r6
 283 01d4 2E60     		streq	r6, [r5]
 284 01d6 FFF7FEFF 		bl	vPortExitCritical
 285 01da EDE7     		b	.L41
 287              		.align	1
 288              		.global	vEventGroupDelete
 289              		.syntax unified
 290              		.thumb
 291              		.thumb_func
 292              		.fpu softvfp
 294              	vEventGroupDelete:
 295              		@ args = 0, pretend = 0, frame = 0
 296              		@ frame_needed = 0, uses_anonymous_args = 0
 297 01dc 38B5     		push	{r3, r4, r5, lr}
 298 01de 0446     		mov	r4, r0
 299 01e0 FFF7FEFF 		bl	vTaskSuspendAll
 300 01e4 6368     		ldr	r3, [r4, #4]
 301 01e6 43B1     		cbz	r3, .L50
 302 01e8 4FF00075 		mov	r5, #33554432
 303              	.L51:
 304 01ec 2946     		mov	r1, r5
 305 01ee 2069     		ldr	r0, [r4, #16]
 306 01f0 FFF7FEFF 		bl	xTaskRemoveFromUnorderedEventList
 307 01f4 6368     		ldr	r3, [r4, #4]
 308 01f6 002B     		cmp	r3, #0
 309 01f8 F8D1     		bne	.L51
 310              	.L50:
 311 01fa 2046     		mov	r0, r4
 312 01fc FFF7FEFF 		bl	vPortFree
 313 0200 FFF7FEFF 		bl	xTaskResumeAll
 314 0204 38BD     		pop	{r3, r4, r5, pc}
 316              		.align	1
 317              		.global	vEventGroupSetBitsCallback
 318              		.syntax unified
 319              		.thumb
 320              		.thumb_func
 321              		.fpu softvfp
 323              	vEventGroupSetBitsCallback:
 324              		@ args = 0, pretend = 0, frame = 0
 325              		@ frame_needed = 0, uses_anonymous_args = 0
 326 0206 08B5     		push	{r3, lr}
 327 0208 FFF7FEFF 		bl	xEventGroupSetBits
 328 020c 08BD     		pop	{r3, pc}
 330              		.align	1
 331              		.global	vEventGroupClearBitsCallback
 332              		.syntax unified
 333              		.thumb
 334              		.thumb_func
 335              		.fpu softvfp
 337              	vEventGroupClearBitsCallback:
 338              		@ args = 0, pretend = 0, frame = 0
 339              		@ frame_needed = 0, uses_anonymous_args = 0
 340 020e 08B5     		push	{r3, lr}
 341 0210 FFF7FEFF 		bl	xEventGroupClearBits
 342 0214 08BD     		pop	{r3, pc}
 344              		.ident	"GCC: (GNU Tools for Arm Embedded Processors 7-2018-q3-update) 7.3.1 20180622 (release) [AR