   1              		.cpu cortex-m3
   2              		.eabi_attribute 20, 1
   3              		.eabi_attribute 21, 1
   4              		.eabi_attribute 23, 3
   5              		.eabi_attribute 24, 1
   6              		.eabi_attribute 25, 1
   7              		.eabi_attribute 26, 1
   8              		.eabi_attribute 30, 1
   9              		.eabi_attribute 34, 1
  10              		.eabi_attribute 18, 4
  11              		.file	"glcd_widget.c"
  12              		.text
  13              		.align	1
  14              		.syntax unified
  15              		.thumb
  16              		.thumb_func
  17              		.fpu softvfp
  19              	get_text_width:
  20              		@ args = 0, pretend = 0, frame = 0
  21              		@ frame_needed = 0, uses_anonymous_args = 0
  22              		@ link register save eliminated.
  23 0000 0B78     		ldrb	r3, [r1]	@ zero_extendqisi2
  24 0002 A3B1     		cbz	r3, .L2
  25              	.L5:
  26 0004 0378     		ldrb	r3, [r0]	@ zero_extendqisi2
  27 0006 83B1     		cbz	r3, .L14
  28 0008 10B4     		push	{r4}
  29 000a 0C79     		ldrb	r4, [r1, #4]	@ zero_extendqisi2
  30 000c 0022     		movs	r2, #0
  31              	.L7:
  32 000e 1B1B     		subs	r3, r3, r4
  33 0010 0B44     		add	r3, r3, r1
  34 0012 9B79     		ldrb	r3, [r3, #6]	@ zero_extendqisi2
  35 0014 0133     		adds	r3, r3, #1
  36 0016 1A44     		add	r2, r2, r3
  37 0018 D2B2     		uxtb	r2, r2
  38 001a 10F8013F 		ldrb	r3, [r0, #1]!	@ zero_extendqisi2
  39 001e 002B     		cmp	r3, #0
  40 0020 F5D1     		bne	.L7
  41 0022 501E     		subs	r0, r2, #1
  42 0024 C0B2     		uxtb	r0, r0
  43 0026 10BC     		pop	{r4}
  44 0028 7047     		bx	lr
  45              	.L14:
  46 002a 0022     		movs	r2, #0
  47 002c 0EE0     		b	.L12
  48              	.L2:
  49 002e 4B78     		ldrb	r3, [r1, #1]	@ zero_extendqisi2
  50 0030 002B     		cmp	r3, #0
  51 0032 E7D1     		bne	.L5
  52 0034 0378     		ldrb	r3, [r0]	@ zero_extendqisi2
  53 0036 63B1     		cbz	r3, .L8
  54 0038 8978     		ldrb	r1, [r1, #2]	@ zero_extendqisi2
  55 003a 0131     		adds	r1, r1, #1
  56 003c C9B2     		uxtb	r1, r1
  57 003e 0022     		movs	r2, #0
  58              	.L6:
  59 0040 0A44     		add	r2, r2, r1
  60 0042 D2B2     		uxtb	r2, r2
  61 0044 10F8013F 		ldrb	r3, [r0, #1]!	@ zero_extendqisi2
  62 0048 002B     		cmp	r3, #0
  63 004a F9D1     		bne	.L6
  64              	.L12:
  65 004c 501E     		subs	r0, r2, #1
  66 004e C0B2     		uxtb	r0, r0
  67 0050 7047     		bx	lr
  68              	.L8:
  69 0052 0022     		movs	r2, #0
  70 0054 FAE7     		b	.L12
  72              		.align	1
  73              		.global	widget_textbox
  74              		.syntax unified
  75              		.thumb
  76              		.thumb_func
  77              		.fpu softvfp
  79              	widget_textbox:
  80              		@ args = 0, pretend = 0, frame = 64
  81              		@ frame_needed = 0, uses_anonymous_args = 0
  82 0056 2DE9F04F 		push	{r4, r5, r6, r7, r8, r9, r10, fp, lr}
  83 005a 93B0     		sub	sp, sp, #76
  84 005c 8F68     		ldr	r7, [r1, #8]
  85 005e 002F     		cmp	r7, #0
  86 0060 00F00181 		beq	.L15
  87 0064 0C46     		mov	r4, r1
  88 0066 8246     		mov	r10, r0
  89 0068 0B7D     		ldrb	r3, [r1, #20]	@ zero_extendqisi2
  90 006a ABB1     		cbz	r3, .L53
  91 006c 8878     		ldrb	r0, [r1, #2]	@ zero_extendqisi2
  92 006e CA78     		ldrb	r2, [r1, #3]	@ zero_extendqisi2
  93              	.L18:
  94 0070 A378     		ldrb	r3, [r4, #2]	@ zero_extendqisi2
  95 0072 C3B9     		cbnz	r3, .L19
  96 0074 A070     		strb	r0, [r4, #2]
  97              	.L20:
  98 0076 E378     		ldrb	r3, [r4, #3]	@ zero_extendqisi2
  99 0078 03B9     		cbnz	r3, .L21
 100 007a E270     		strb	r2, [r4, #3]
 101              	.L21:
 102 007c 6379     		ldrb	r3, [r4, #5]	@ zero_extendqisi2
 103 007e 102B     		cmp	r3, #16
 104 0080 1AD8     		bhi	.L22
 105 0082 DFE803F0 		tbb	[pc, r3]
 106              	.L24:
 107 0086 15       		.byte	(.L23-.L24)/2
 108 0087 19       		.byte	(.L22-.L24)/2
 109 0088 2F       		.byte	(.L25-.L24)/2
 110 0089 20       		.byte	(.L26-.L24)/2
 111 008a 19       		.byte	(.L22-.L24)/2
 112 008b 4C       		.byte	(.L27-.L24)/2
 113 008c 27       		.byte	(.L28-.L24)/2
 114 008d 19       		.byte	(.L22-.L24)/2
 115 008e 69       		.byte	(.L29-.L24)/2
 116 008f 19       		.byte	(.L22-.L24)/2
 117 0090 74       		.byte	(.L30-.L24)/2
 118 0091 7B       		.byte	(.L31-.L24)/2
 119 0092 85       		.byte	(.L32-.L24)/2
 120 0093 37       		.byte	(.L33-.L24)/2
 121 0094 56       		.byte	(.L34-.L24)/2
 122 0095 41       		.byte	(.L35-.L24)/2
 123 0096 60       		.byte	(.L36-.L24)/2
 124 0097 00       		.p2align 1
 125              	.L53:
 126 0098 CD68     		ldr	r5, [r1, #12]
 127 009a 2946     		mov	r1, r5
 128 009c 3846     		mov	r0, r7
 129 009e FFF7AFFF 		bl	get_text_width
 130 00a2 EA78     		ldrb	r2, [r5, #3]	@ zero_extendqisi2
 131 00a4 E4E7     		b	.L18
 132              	.L19:
 133 00a6 9842     		cmp	r0, r3
 134 00a8 28BF     		it	cs
 135 00aa 1846     		movcs	r0, r3
 136 00ac C0B2     		uxtb	r0, r0
 137 00ae E2E7     		b	.L20
 138              	.L23:
 139 00b0 E37C     		ldrb	r3, [r4, #19]	@ zero_extendqisi2
 140 00b2 2370     		strb	r3, [r4]
 141 00b4 237C     		ldrb	r3, [r4, #16]	@ zero_extendqisi2
 142 00b6 6370     		strb	r3, [r4, #1]
 143              	.L22:
 144 00b8 0225     		movs	r5, #2
 145 00ba 0026     		movs	r6, #0
 146 00bc B046     		mov	r8, r6
 147 00be 3346     		mov	r3, r6
 148 00c0 B146     		mov	r9, r6
 149 00c2 C346     		mov	fp, r8
 150 00c4 8DE0     		b	.L46
 151              	.L26:
 152 00c6 4308     		lsrs	r3, r0, #1
 153 00c8 C3F14003 		rsb	r3, r3, #64
 154 00cc 2370     		strb	r3, [r4]
 155 00ce 237C     		ldrb	r3, [r4, #16]	@ zero_extendqisi2
 156 00d0 6370     		strb	r3, [r4, #1]
 157 00d2 F1E7     		b	.L22
 158              	.L28:
 159 00d4 A37C     		ldrb	r3, [r4, #18]	@ zero_extendqisi2
 160 00d6 C3F18003 		rsb	r3, r3, #128
 161 00da 181A     		subs	r0, r3, r0
 162 00dc 2070     		strb	r0, [r4]
 163 00de 237C     		ldrb	r3, [r4, #16]	@ zero_extendqisi2
 164 00e0 6370     		strb	r3, [r4, #1]
 165 00e2 E9E7     		b	.L22
 166              	.L25:
 167 00e4 E37C     		ldrb	r3, [r4, #19]	@ zero_extendqisi2
 168 00e6 2370     		strb	r3, [r4]
 169 00e8 637C     		ldrb	r3, [r4, #17]	@ zero_extendqisi2
 170 00ea C3F14003 		rsb	r3, r3, #64
 171 00ee 9A1A     		subs	r2, r3, r2
 172 00f0 6270     		strb	r2, [r4, #1]
 173 00f2 E1E7     		b	.L22
 174              	.L33:
 175 00f4 4308     		lsrs	r3, r0, #1
 176 00f6 C3F11F03 		rsb	r3, r3, #31
 177 00fa 2370     		strb	r3, [r4]
 178 00fc 637C     		ldrb	r3, [r4, #17]	@ zero_extendqisi2
 179 00fe C3F14003 		rsb	r3, r3, #64
 180 0102 9A1A     		subs	r2, r3, r2
 181 0104 6270     		strb	r2, [r4, #1]
 182 0106 D7E7     		b	.L22
 183              	.L35:
 184 0108 A37C     		ldrb	r3, [r4, #18]	@ zero_extendqisi2
 185 010a C3F13E03 		rsb	r3, r3, #62
 186 010e 181A     		subs	r0, r3, r0
 187 0110 2070     		strb	r0, [r4]
 188 0112 637C     		ldrb	r3, [r4, #17]	@ zero_extendqisi2
 189 0114 C3F14003 		rsb	r3, r3, #64
 190 0118 9A1A     		subs	r2, r3, r2
 191 011a 6270     		strb	r2, [r4, #1]
 192 011c CCE7     		b	.L22
 193              	.L27:
 194 011e 4308     		lsrs	r3, r0, #1
 195 0120 C3F14003 		rsb	r3, r3, #64
 196 0124 2370     		strb	r3, [r4]
 197 0126 637C     		ldrb	r3, [r4, #17]	@ zero_extendqisi2
 198 0128 C3F14003 		rsb	r3, r3, #64
 199 012c 9A1A     		subs	r2, r3, r2
 200 012e 6270     		strb	r2, [r4, #1]
 201 0130 C2E7     		b	.L22
 202              	.L34:
 203 0132 4308     		lsrs	r3, r0, #1
 204 0134 C3F16003 		rsb	r3, r3, #96
 205 0138 2370     		strb	r3, [r4]
 206 013a 637C     		ldrb	r3, [r4, #17]	@ zero_extendqisi2
 207 013c C3F14003 		rsb	r3, r3, #64
 208 0140 9A1A     		subs	r2, r3, r2
 209 0142 6270     		strb	r2, [r4, #1]
 210 0144 B8E7     		b	.L22
 211              	.L36:
 212 0146 E37C     		ldrb	r3, [r4, #19]	@ zero_extendqisi2
 213 0148 4033     		adds	r3, r3, #64
 214 014a 2370     		strb	r3, [r4]
 215 014c 637C     		ldrb	r3, [r4, #17]	@ zero_extendqisi2
 216 014e C3F14003 		rsb	r3, r3, #64
 217 0152 9A1A     		subs	r2, r3, r2
 218 0154 6270     		strb	r2, [r4, #1]
 219 0156 AFE7     		b	.L22
 220              	.L29:
 221 0158 A37C     		ldrb	r3, [r4, #18]	@ zero_extendqisi2
 222 015a C3F18003 		rsb	r3, r3, #128
 223 015e 181A     		subs	r0, r3, r0
 224 0160 2070     		strb	r0, [r4]
 225 0162 637C     		ldrb	r3, [r4, #17]	@ zero_extendqisi2
 226 0164 C3F14003 		rsb	r3, r3, #64
 227 0168 9A1A     		subs	r2, r3, r2
 228 016a 6270     		strb	r2, [r4, #1]
 229 016c A4E7     		b	.L22
 230              	.L30:
 231 016e E37C     		ldrb	r3, [r4, #19]	@ zero_extendqisi2
 232 0170 2370     		strb	r3, [r4]
 233 0172 6378     		ldrb	r3, [r4, #1]	@ zero_extendqisi2
 234 0174 227C     		ldrb	r2, [r4, #16]	@ zero_extendqisi2
 235 0176 1344     		add	r3, r3, r2
 236 0178 6370     		strb	r3, [r4, #1]
 237 017a 9DE7     		b	.L22
 238              	.L31:
 239 017c A37C     		ldrb	r3, [r4, #18]	@ zero_extendqisi2
 240 017e C3F18003 		rsb	r3, r3, #128
 241 0182 181A     		subs	r0, r3, r0
 242 0184 2070     		strb	r0, [r4]
 243 0186 6378     		ldrb	r3, [r4, #1]	@ zero_extendqisi2
 244 0188 227C     		ldrb	r2, [r4, #16]	@ zero_extendqisi2
 245 018a 1344     		add	r3, r3, r2
 246 018c 6370     		strb	r3, [r4, #1]
 247 018e 93E7     		b	.L22
 248              	.L32:
 249 0190 4308     		lsrs	r3, r0, #1
 250 0192 C3F14003 		rsb	r3, r3, #64
 251 0196 2370     		strb	r3, [r4]
 252 0198 6378     		ldrb	r3, [r4, #1]	@ zero_extendqisi2
 253 019a 227C     		ldrb	r2, [r4, #16]	@ zero_extendqisi2
 254 019c 1344     		add	r3, r3, r2
 255 019e 6370     		strb	r3, [r4, #1]
 256 01a0 8AE7     		b	.L22
 257              	.L39:
 258 01a2 3A78     		ldrb	r2, [r7]	@ zero_extendqisi2
 259 01a4 0A2A     		cmp	r2, #10
 260 01a6 3DD0     		beq	.L40
 261              	.L42:
 262 01a8 227D     		ldrb	r2, [r4, #20]	@ zero_extendqisi2
 263 01aa 002A     		cmp	r2, #0
 264 01ac 3CD0     		beq	.L50
 265 01ae 12AB     		add	r3, sp, #72
 266 01b0 1944     		add	r1, r1, r3
 267 01b2 01F8419C 		strb	r9, [r1, #-65]
 268 01b6 6278     		ldrb	r2, [r4, #1]	@ zero_extendqisi2
 269 01b8 4244     		add	r2, r2, r8
 270 01ba 2178     		ldrb	r1, [r4]	@ zero_extendqisi2
 271 01bc 2379     		ldrb	r3, [r4, #4]	@ zero_extendqisi2
 272 01be 0193     		str	r3, [sp, #4]
 273 01c0 0090     		str	r0, [sp]
 274 01c2 02AB     		add	r3, sp, #8
 275 01c4 D2B2     		uxtb	r2, r2
 276 01c6 5046     		mov	r0, r10
 277 01c8 FFF7FEFF 		bl	uc1701_text
 278 01cc E368     		ldr	r3, [r4, #12]
 279 01ce DA78     		ldrb	r2, [r3, #3]	@ zero_extendqisi2
 280 01d0 0132     		adds	r2, r2, #1
 281 01d2 9044     		add	r8, r8, r2
 282 01d4 5FFA88F8 		uxtb	r8, r8
 283 01d8 E378     		ldrb	r3, [r4, #3]	@ zero_extendqisi2
 284 01da 4345     		cmp	r3, r8
 285 01dc 43D3     		bcc	.L15
 286 01de 4E46     		mov	r6, r9
 287 01e0 5B46     		mov	r3, fp
 288              	.L46:
 289 01e2 3A78     		ldrb	r2, [r7]	@ zero_extendqisi2
 290 01e4 0AB3     		cbz	r2, .L43
 291 01e6 E068     		ldr	r0, [r4, #12]
 292 01e8 0178     		ldrb	r1, [r0]	@ zero_extendqisi2
 293 01ea 09B9     		cbnz	r1, .L37
 294 01ec 4178     		ldrb	r1, [r0, #1]	@ zero_extendqisi2
 295 01ee 21B1     		cbz	r1, .L38
 296              	.L37:
 297 01f0 0579     		ldrb	r5, [r0, #4]	@ zero_extendqisi2
 298 01f2 C5F10605 		rsb	r5, r5, #6
 299 01f6 1544     		add	r5, r5, r2
 300 01f8 EDB2     		uxtb	r5, r5
 301              	.L38:
 302 01fa 0133     		adds	r3, r3, #1
 303 01fc 415D     		ldrb	r1, [r0, r5]	@ zero_extendqisi2
 304 01fe 0B44     		add	r3, r3, r1
 305 0200 03F0FF03 		and	r3, r3, #255
 306 0204 711C     		adds	r1, r6, #1
 307 0206 C9B2     		uxtb	r1, r1
 308 0208 0DF1480C 		add	ip, sp, #72
 309 020c 6644     		add	r6, r6, ip
 310 020e 06F8402C 		strb	r2, [r6, #-64]
 311 0212 A278     		ldrb	r2, [r4, #2]	@ zero_extendqisi2
 312 0214 9A42     		cmp	r2, r3
 313 0216 C4D9     		bls	.L39
 314 0218 3A78     		ldrb	r2, [r7]	@ zero_extendqisi2
 315 021a 0A2A     		cmp	r2, #10
 316 021c 02D0     		beq	.L40
 317 021e 0137     		adds	r7, r7, #1
 318 0220 0E46     		mov	r6, r1
 319 0222 DEE7     		b	.L46
 320              	.L40:
 321 0224 0137     		adds	r7, r7, #1
 322 0226 BFE7     		b	.L42
 323              	.L50:
 324 0228 0E46     		mov	r6, r1
 325              	.L43:
 326 022a E3B1     		cbz	r3, .L15
 327 022c 0022     		movs	r2, #0
 328 022e 12AB     		add	r3, sp, #72
 329 0230 3344     		add	r3, r3, r6
 330 0232 03F8402C 		strb	r2, [r3, #-64]
 331 0236 E568     		ldr	r5, [r4, #12]
 332 0238 2946     		mov	r1, r5
 333 023a 02A8     		add	r0, sp, #8
 334 023c FFF7E0FE 		bl	get_text_width
 335 0240 A378     		ldrb	r3, [r4, #2]	@ zero_extendqisi2
 336 0242 8342     		cmp	r3, r0
 337 0244 04D2     		bcs	.L48
 338 0246 12AB     		add	r3, sp, #72
 339 0248 1E44     		add	r6, r6, r3
 340 024a 0023     		movs	r3, #0
 341 024c 06F8413C 		strb	r3, [r6, #-65]
 342              	.L48:
 343 0250 6278     		ldrb	r2, [r4, #1]	@ zero_extendqisi2
 344 0252 4244     		add	r2, r2, r8
 345 0254 2178     		ldrb	r1, [r4]	@ zero_extendqisi2
 346 0256 2379     		ldrb	r3, [r4, #4]	@ zero_extendqisi2
 347 0258 0193     		str	r3, [sp, #4]
 348 025a 0095     		str	r5, [sp]
 349 025c 02AB     		add	r3, sp, #8
 350 025e D2B2     		uxtb	r2, r2
 351 0260 5046     		mov	r0, r10
 352 0262 FFF7FEFF 		bl	uc1701_text
 353              	.L15:
 354 0266 13B0     		add	sp, sp, #76
 355              		@ sp needed
 356 0268 BDE8F08F 		pop	{r4, r5, r6, r7, r8, r9, r10, fp, pc}
 358              		.align	1
 359              		.global	widget_listbox
 360              		.syntax unified
 361              		.thumb
 362              		.thumb_func
 363              		.fpu softvfp
 365              	widget_listbox:
 366              		@ args = 0, pretend = 0, frame = 72
 367              		@ frame_needed = 0, uses_anonymous_args = 0
 368 026c 2DE9F04F 		push	{r4, r5, r6, r7, r8, r9, r10, fp, lr}
 369 0270 95B0     		sub	sp, sp, #84
 370 0272 0290     		str	r0, [sp, #8]
 371 0274 0C46     		mov	r4, r1
 372 0276 8B78     		ldrb	r3, [r1, #2]	@ zero_extendqisi2
 373 0278 4A78     		ldrb	r2, [r1, #1]	@ zero_extendqisi2
 374 027a 0978     		ldrb	r1, [r1]	@ zero_extendqisi2
 375 027c 2579     		ldrb	r5, [r4, #4]	@ zero_extendqisi2
 376 027e ED43     		mvns	r5, r5
 377 0280 EDB2     		uxtb	r5, r5
 378 0282 0195     		str	r5, [sp, #4]
 379 0284 E578     		ldrb	r5, [r4, #3]	@ zero_extendqisi2
 380 0286 0095     		str	r5, [sp]
 381 0288 FFF7FEFF 		bl	uc1701_rect_fill
 382 028c E368     		ldr	r3, [r4, #12]
 383 028e 93F803B0 		ldrb	fp, [r3, #3]	@ zero_extendqisi2
 384 0292 257C     		ldrb	r5, [r4, #16]	@ zero_extendqisi2
 385 0294 E378     		ldrb	r3, [r4, #3]	@ zero_extendqisi2
 386 0296 0BEB0502 		add	r2, fp, r5
 387 029a 93FBF2F3 		sdiv	r3, r3, r2
 388 029e DAB2     		uxtb	r2, r3
 389 02a0 83F00108 		eor	r8, r3, #1
 390 02a4 08F00108 		and	r8, r8, #1
 391 02a8 C8EB5208 		rsb	r8, r8, r2, lsr #1
 392 02ac 5FFA88F8 		uxtb	r8, r8
 393 02b0 94F805A0 		ldrb	r10, [r4, #5]	@ zero_extendqisi2
 394 02b4 C245     		cmp	r10, r8
 395 02b6 0FD9     		bls	.L63
 396 02b8 E179     		ldrb	r1, [r4, #7]	@ zero_extendqisi2
 397 02ba 9142     		cmp	r1, r2
 398 02bc 25D9     		bls	.L64
 399 02be AAEB0808 		sub	r8, r10, r8
 400 02c2 5FFA88F8 		uxtb	r8, r8
 401 02c6 CB1A     		subs	r3, r1, r3
 402 02c8 002B     		cmp	r3, #0
 403 02ca B8BF     		it	lt
 404 02cc 5B42     		rsblt	r3, r3, #0
 405 02ce 9845     		cmp	r8, r3
 406 02d0 04DD     		ble	.L55
 407 02d2 5FFA83F8 		uxtb	r8, r3
 408 02d6 01E0     		b	.L55
 409              	.L63:
 410 02d8 4FF00008 		mov	r8, #0
 411              	.L55:
 412 02dc 94F80790 		ldrb	r9, [r4, #7]	@ zero_extendqisi2
 413 02e0 9145     		cmp	r9, r2
 414 02e2 28BF     		it	cs
 415 02e4 9146     		movcs	r9, r2
 416 02e6 AAEB080A 		sub	r10, r10, r8
 417 02ea 5FFA8AFA 		uxtb	r10, r10
 418 02ee 637C     		ldrb	r3, [r4, #17]	@ zero_extendqisi2
 419 02f0 A27C     		ldrb	r2, [r4, #18]	@ zero_extendqisi2
 420 02f2 1344     		add	r3, r3, r2
 421 02f4 5B44     		add	r3, r3, fp
 422 02f6 DBB2     		uxtb	r3, r3
 423 02f8 0393     		str	r3, [sp, #12]
 424 02fa 6378     		ldrb	r3, [r4, #1]	@ zero_extendqisi2
 425 02fc 1D44     		add	r5, r5, r3
 426 02fe EDB2     		uxtb	r5, r5
 427 0300 B9F1000F 		cmp	r9, #0
 428 0304 56D0     		beq	.L54
 429 0306 0026     		movs	r6, #0
 430 0308 21E0     		b	.L62
 431              	.L64:
 432 030a 4FF00008 		mov	r8, #0
 433 030e E5E7     		b	.L55
 434              	.L65:
 435 0310 4FF0030C 		mov	ip, #3
 436              	.L59:
 437 0314 14AB     		add	r3, sp, #80
 438 0316 9C44     		add	ip, ip, r3
 439 0318 4FF00003 		mov	r3, #0
 440 031c 0CF8403C 		strb	r3, [ip, #-64]
 441 0320 04AB     		add	r3, sp, #16
 442              	.L58:
 443 0322 2178     		ldrb	r1, [r4]	@ zero_extendqisi2
 444 0324 E27C     		ldrb	r2, [r4, #19]	@ zero_extendqisi2
 445 0326 1144     		add	r1, r1, r2
 446 0328 2279     		ldrb	r2, [r4, #4]	@ zero_extendqisi2
 447 032a 0192     		str	r2, [sp, #4]
 448 032c E268     		ldr	r2, [r4, #12]
 449 032e 0092     		str	r2, [sp]
 450 0330 2A46     		mov	r2, r5
 451 0332 C9B2     		uxtb	r1, r1
 452 0334 0298     		ldr	r0, [sp, #8]
 453 0336 FFF7FEFF 		bl	uc1701_text
 454 033a BA45     		cmp	r10, r7
 455 033c 2FD0     		beq	.L70
 456              	.L61:
 457 033e 237C     		ldrb	r3, [r4, #16]	@ zero_extendqisi2
 458 0340 5B44     		add	r3, r3, fp
 459 0342 1D44     		add	r5, r5, r3
 460 0344 EDB2     		uxtb	r5, r5
 461              	.L57:
 462 0346 0136     		adds	r6, r6, #1
 463 0348 F3B2     		uxtb	r3, r6
 464 034a 9945     		cmp	r9, r3
 465 034c 32D9     		bls	.L54
 466              	.L62:
 467 034e F7B2     		uxtb	r7, r6
 468 0350 E379     		ldrb	r3, [r4, #7]	@ zero_extendqisi2
 469 0352 BB42     		cmp	r3, r7
 470 0354 F7D9     		bls	.L57
 471 0356 08EB0602 		add	r2, r8, r6
 472 035a A368     		ldr	r3, [r4, #8]
 473 035c 53F82230 		ldr	r3, [r3, r2, lsl #2]
 474 0360 A179     		ldrb	r1, [r4, #6]	@ zero_extendqisi2
 475 0362 9142     		cmp	r1, r2
 476 0364 DDD1     		bne	.L58
 477 0366 4FF02002 		mov	r2, #32
 478 036a 8DF81020 		strb	r2, [sp, #16]
 479 036e 4FF03E01 		mov	r1, #62
 480 0372 8DF81110 		strb	r1, [sp, #17]
 481 0376 8DF81220 		strb	r2, [sp, #18]
 482 037a 1978     		ldrb	r1, [r3]	@ zero_extendqisi2
 483 037c 0029     		cmp	r1, #0
 484 037e C7D0     		beq	.L65
 485 0380 0DF11200 		add	r0, sp, #18
 486 0384 0422     		movs	r2, #4
 487              	.L60:
 488 0386 5FFA82FC 		uxtb	ip, r2
 489 038a 00F8011F 		strb	r1, [r0, #1]!
 490 038e 13F8011F 		ldrb	r1, [r3, #1]!	@ zero_extendqisi2
 491 0392 0029     		cmp	r1, #0
 492 0394 BED0     		beq	.L59
 493 0396 0132     		adds	r2, r2, #1
 494 0398 402A     		cmp	r2, #64
 495 039a F4D1     		bne	.L60
 496 039c BAE7     		b	.L59
 497              	.L70:
 498 039e A378     		ldrb	r3, [r4, #2]	@ zero_extendqisi2
 499 03a0 627C     		ldrb	r2, [r4, #17]	@ zero_extendqisi2
 500 03a2 AA1A     		subs	r2, r5, r2
 501 03a4 2178     		ldrb	r1, [r4]	@ zero_extendqisi2
 502 03a6 0398     		ldr	r0, [sp, #12]
 503 03a8 0090     		str	r0, [sp]
 504 03aa D2B2     		uxtb	r2, r2
 505 03ac 0298     		ldr	r0, [sp, #8]
 506 03ae FFF7FEFF 		bl	uc1701_rect_invert
 507 03b2 C4E7     		b	.L61
 508              	.L54:
 509 03b4 15B0     		add	sp, sp, #84
 510              		@ sp needed
 511 03b6 BDE8F08F 		pop	{r4, r5, r6, r7, r8, r9, r10, fp, pc}
 513              		.align	1
 514              		.global	widget_listbox3
 515              		.syntax unified
 516              		.thumb
 517              		.thumb_func
 518              		.fpu softvfp
 520              	widget_listbox3:
 521              		@ args = 0, pretend = 0, frame = 16
 522              		@ frame_needed = 0, uses_anonymous_args = 0
 523 03ba 2DE9F041 		push	{r4, r5, r6, r7, r8, lr}
 524 03be 86B0     		sub	sp, sp, #24
 525 03c0 0646     		mov	r6, r0
 526 03c2 0C46     		mov	r4, r1
 527 03c4 4A78     		ldrb	r2, [r1, #1]	@ zero_extendqisi2
 528 03c6 013A     		subs	r2, r2, #1
 529 03c8 0978     		ldrb	r1, [r1]	@ zero_extendqisi2
 530 03ca 2379     		ldrb	r3, [r4, #4]	@ zero_extendqisi2
 531 03cc DB43     		mvns	r3, r3
 532 03ce DBB2     		uxtb	r3, r3
 533 03d0 0193     		str	r3, [sp, #4]
 534 03d2 E378     		ldrb	r3, [r4, #3]	@ zero_extendqisi2
 535 03d4 0093     		str	r3, [sp]
 536 03d6 8023     		movs	r3, #128
 537 03d8 D2B2     		uxtb	r2, r2
 538 03da FFF7FEFF 		bl	uc1701_rect_fill
 539 03de A769     		ldr	r7, [r4, #24]
 540 03e0 3846     		mov	r0, r7
 541 03e2 FFF7FEFF 		bl	strlen
 542 03e6 0A28     		cmp	r0, #10
 543 03e8 40F2E480 		bls	.L72
 544 03ec 0023     		movs	r3, #0
 545 03ee 0393     		str	r3, [sp, #12]
 546 03f0 0493     		str	r3, [sp, #16]
 547 03f2 0593     		str	r3, [sp, #20]
 548 03f4 03AB     		add	r3, sp, #12
 549 03f6 3868     		ldr	r0, [r7]	@ unaligned
 550 03f8 7968     		ldr	r1, [r7, #4]	@ unaligned
 551 03fa 03C3     		stmia	r3!, {r0, r1}
 552 03fc 3A89     		ldrh	r2, [r7, #8]	@ unaligned
 553 03fe 1A80     		strh	r2, [r3]	@ unaligned
 554 0400 6278     		ldrb	r2, [r4, #1]	@ zero_extendqisi2
 555 0402 0432     		adds	r2, r2, #4
 556 0404 2178     		ldrb	r1, [r4]	@ zero_extendqisi2
 557 0406 E37C     		ldrb	r3, [r4, #19]	@ zero_extendqisi2
 558 0408 1944     		add	r1, r1, r3
 559 040a 2379     		ldrb	r3, [r4, #4]	@ zero_extendqisi2
 560 040c 0193     		str	r3, [sp, #4]
 561 040e 8D4B     		ldr	r3, .L81
 562 0410 0093     		str	r3, [sp]
 563 0412 03AB     		add	r3, sp, #12
 564 0414 D2B2     		uxtb	r2, r2
 565 0416 C9B2     		uxtb	r1, r1
 566 0418 3046     		mov	r0, r6
 567 041a FFF7FEFF 		bl	uc1701_text
 568 041e 2825     		movs	r5, #40
 569              	.L73:
 570 0420 E17C     		ldrb	r1, [r4, #19]	@ zero_extendqisi2
 571 0422 C1F17607 		rsb	r7, r1, #118
 572 0426 7F1B     		subs	r7, r7, r5
 573 0428 FFB2     		uxtb	r7, r7
 574 042a 6278     		ldrb	r2, [r4, #1]	@ zero_extendqisi2
 575 042c 0232     		adds	r2, r2, #2
 576 042e 2378     		ldrb	r3, [r4]	@ zero_extendqisi2
 577 0430 1944     		add	r1, r1, r3
 578 0432 0631     		adds	r1, r1, #6
 579 0434 2944     		add	r1, r1, r5
 580 0436 2379     		ldrb	r3, [r4, #4]	@ zero_extendqisi2
 581 0438 0193     		str	r3, [sp, #4]
 582 043a 4FF00108 		mov	r8, #1
 583 043e CDF80080 		str	r8, [sp]
 584 0442 4346     		mov	r3, r8
 585 0444 D2B2     		uxtb	r2, r2
 586 0446 C9B2     		uxtb	r1, r1
 587 0448 3046     		mov	r0, r6
 588 044a FFF7FEFF 		bl	uc1701_rect_fill
 589 044e 6278     		ldrb	r2, [r4, #1]	@ zero_extendqisi2
 590 0450 0A32     		adds	r2, r2, #10
 591 0452 2178     		ldrb	r1, [r4]	@ zero_extendqisi2
 592 0454 E37C     		ldrb	r3, [r4, #19]	@ zero_extendqisi2
 593 0456 1944     		add	r1, r1, r3
 594 0458 0631     		adds	r1, r1, #6
 595 045a 2944     		add	r1, r1, r5
 596 045c 2379     		ldrb	r3, [r4, #4]	@ zero_extendqisi2
 597 045e 0193     		str	r3, [sp, #4]
 598 0460 CDF80080 		str	r8, [sp]
 599 0464 4346     		mov	r3, r8
 600 0466 D2B2     		uxtb	r2, r2
 601 0468 C9B2     		uxtb	r1, r1
 602 046a 3046     		mov	r0, r6
 603 046c FFF7FEFF 		bl	uc1701_rect_fill
 604 0470 6278     		ldrb	r2, [r4, #1]	@ zero_extendqisi2
 605 0472 0232     		adds	r2, r2, #2
 606 0474 2178     		ldrb	r1, [r4]	@ zero_extendqisi2
 607 0476 E37C     		ldrb	r3, [r4, #19]	@ zero_extendqisi2
 608 0478 1944     		add	r1, r1, r3
 609 047a 0531     		adds	r1, r1, #5
 610 047c 2944     		add	r1, r1, r5
 611 047e 2379     		ldrb	r3, [r4, #4]	@ zero_extendqisi2
 612 0480 0193     		str	r3, [sp, #4]
 613 0482 0923     		movs	r3, #9
 614 0484 0093     		str	r3, [sp]
 615 0486 4346     		mov	r3, r8
 616 0488 D2B2     		uxtb	r2, r2
 617 048a C9B2     		uxtb	r1, r1
 618 048c 3046     		mov	r0, r6
 619 048e FFF7FEFF 		bl	uc1701_rect_fill
 620 0492 6278     		ldrb	r2, [r4, #1]	@ zero_extendqisi2
 621 0494 0632     		adds	r2, r2, #6
 622 0496 2178     		ldrb	r1, [r4]	@ zero_extendqisi2
 623 0498 E37C     		ldrb	r3, [r4, #19]	@ zero_extendqisi2
 624 049a 1944     		add	r1, r1, r3
 625 049c 0231     		adds	r1, r1, #2
 626 049e 2944     		add	r1, r1, r5
 627 04a0 2379     		ldrb	r3, [r4, #4]	@ zero_extendqisi2
 628 04a2 0193     		str	r3, [sp, #4]
 629 04a4 CDF80080 		str	r8, [sp]
 630 04a8 0423     		movs	r3, #4
 631 04aa D2B2     		uxtb	r2, r2
 632 04ac C9B2     		uxtb	r1, r1
 633 04ae 3046     		mov	r0, r6
 634 04b0 FFF7FEFF 		bl	uc1701_rect_fill
 635 04b4 237D     		ldrb	r3, [r4, #20]	@ zero_extendqisi2
 636 04b6 002B     		cmp	r3, #0
 637 04b8 40F0C680 		bne	.L74
 638 04bc A379     		ldrb	r3, [r4, #6]	@ zero_extendqisi2
 639 04be 002B     		cmp	r3, #0
 640 04c0 00F08A80 		beq	.L75
 641 04c4 03F18043 		add	r3, r3, #1073741824
 642 04c8 013B     		subs	r3, r3, #1
 643 04ca A268     		ldr	r2, [r4, #8]
 644 04cc 52F82330 		ldr	r3, [r2, r3, lsl #2]
 645 04d0 6278     		ldrb	r2, [r4, #1]	@ zero_extendqisi2
 646 04d2 2178     		ldrb	r1, [r4]	@ zero_extendqisi2
 647 04d4 E07C     		ldrb	r0, [r4, #19]	@ zero_extendqisi2
 648 04d6 0144     		add	r1, r1, r0
 649 04d8 0831     		adds	r1, r1, #8
 650 04da 2944     		add	r1, r1, r5
 651 04dc 2079     		ldrb	r0, [r4, #4]	@ zero_extendqisi2
 652 04de 0190     		str	r0, [sp, #4]
 653 04e0 DFF86081 		ldr	r8, .L81
 654 04e4 CDF80080 		str	r8, [sp]
 655 04e8 C9B2     		uxtb	r1, r1
 656 04ea 3046     		mov	r0, r6
 657 04ec FFF7FEFF 		bl	uc1701_text
 658 04f0 A279     		ldrb	r2, [r4, #6]	@ zero_extendqisi2
 659 04f2 A368     		ldr	r3, [r4, #8]
 660 04f4 53F82230 		ldr	r3, [r3, r2, lsl #2]
 661 04f8 6278     		ldrb	r2, [r4, #1]	@ zero_extendqisi2
 662 04fa 0732     		adds	r2, r2, #7
 663 04fc 2178     		ldrb	r1, [r4]	@ zero_extendqisi2
 664 04fe E07C     		ldrb	r0, [r4, #19]	@ zero_extendqisi2
 665 0500 0144     		add	r1, r1, r0
 666 0502 1031     		adds	r1, r1, #16
 667 0504 2944     		add	r1, r1, r5
 668 0506 2079     		ldrb	r0, [r4, #4]	@ zero_extendqisi2
 669 0508 0190     		str	r0, [sp, #4]
 670 050a CDF80080 		str	r8, [sp]
 671 050e D2B2     		uxtb	r2, r2
 672 0510 C9B2     		uxtb	r1, r1
 673 0512 3046     		mov	r0, r6
 674 0514 FFF7FEFF 		bl	uc1701_text
 675 0518 6278     		ldrb	r2, [r4, #1]	@ zero_extendqisi2
 676 051a 0632     		adds	r2, r2, #6
 677 051c 2178     		ldrb	r1, [r4]	@ zero_extendqisi2
 678 051e E37C     		ldrb	r3, [r4, #19]	@ zero_extendqisi2
 679 0520 1944     		add	r1, r1, r3
 680 0522 0831     		adds	r1, r1, #8
 681 0524 2944     		add	r1, r1, r5
 682 0526 0723     		movs	r3, #7
 683 0528 0093     		str	r3, [sp]
 684 052a 3B46     		mov	r3, r7
 685 052c D2B2     		uxtb	r2, r2
 686 052e C9B2     		uxtb	r1, r1
 687 0530 3046     		mov	r0, r6
 688 0532 FFF7FEFF 		bl	uc1701_rect_invert
 689              	.L76:
 690 0536 6278     		ldrb	r2, [r4, #1]	@ zero_extendqisi2
 691 0538 013A     		subs	r2, r2, #1
 692 053a 2379     		ldrb	r3, [r4, #4]	@ zero_extendqisi2
 693 053c DB43     		mvns	r3, r3
 694 053e DBB2     		uxtb	r3, r3
 695 0540 0193     		str	r3, [sp, #4]
 696 0542 0F23     		movs	r3, #15
 697 0544 0093     		str	r3, [sp]
 698 0546 0823     		movs	r3, #8
 699 0548 D2B2     		uxtb	r2, r2
 700 054a 7821     		movs	r1, #120
 701 054c 3046     		mov	r0, r6
 702 054e FFF7FEFF 		bl	uc1701_rect_fill
 703 0552 6278     		ldrb	r2, [r4, #1]	@ zero_extendqisi2
 704 0554 0432     		adds	r2, r2, #4
 705 0556 2379     		ldrb	r3, [r4, #4]	@ zero_extendqisi2
 706 0558 0193     		str	r3, [sp, #4]
 707 055a 0723     		movs	r3, #7
 708 055c 0093     		str	r3, [sp]
 709 055e 0123     		movs	r3, #1
 710 0560 D2B2     		uxtb	r2, r2
 711 0562 7B21     		movs	r1, #123
 712 0564 3046     		mov	r0, r6
 713 0566 FFF7FEFF 		bl	uc1701_rect_fill
 714 056a 6278     		ldrb	r2, [r4, #1]	@ zero_extendqisi2
 715 056c 0332     		adds	r2, r2, #3
 716 056e 2379     		ldrb	r3, [r4, #4]	@ zero_extendqisi2
 717 0570 0193     		str	r3, [sp, #4]
 718 0572 0125     		movs	r5, #1
 719 0574 0095     		str	r5, [sp]
 720 0576 0523     		movs	r3, #5
 721 0578 D2B2     		uxtb	r2, r2
 722 057a 7921     		movs	r1, #121
 723 057c 3046     		mov	r0, r6
 724 057e FFF7FEFF 		bl	uc1701_rect_fill
 725 0582 6278     		ldrb	r2, [r4, #1]	@ zero_extendqisi2
 726 0584 0232     		adds	r2, r2, #2
 727 0586 2379     		ldrb	r3, [r4, #4]	@ zero_extendqisi2
 728 0588 0193     		str	r3, [sp, #4]
 729 058a 0095     		str	r5, [sp]
 730 058c 0323     		movs	r3, #3
 731 058e D2B2     		uxtb	r2, r2
 732 0590 7A21     		movs	r1, #122
 733 0592 3046     		mov	r0, r6
 734 0594 FFF7FEFF 		bl	uc1701_rect_fill
 735 0598 6278     		ldrb	r2, [r4, #1]	@ zero_extendqisi2
 736 059a 2A44     		add	r2, r2, r5
 737 059c 2379     		ldrb	r3, [r4, #4]	@ zero_extendqisi2
 738 059e 0193     		str	r3, [sp, #4]
 739 05a0 0095     		str	r5, [sp]
 740 05a2 2B46     		mov	r3, r5
 741 05a4 D2B2     		uxtb	r2, r2
 742 05a6 7B21     		movs	r1, #123
 743 05a8 3046     		mov	r0, r6
 744 05aa FFF7FEFF 		bl	uc1701_rect_fill
 745              	.L71:
 746 05ae 06B0     		add	sp, sp, #24
 747              		@ sp needed
 748 05b0 BDE8F081 		pop	{r4, r5, r6, r7, r8, pc}
 749              	.L72:
 750 05b4 8000     		lsls	r0, r0, #2
 751 05b6 C5B2     		uxtb	r5, r0
 752 05b8 6278     		ldrb	r2, [r4, #1]	@ zero_extendqisi2
 753 05ba 0432     		adds	r2, r2, #4
 754 05bc 2178     		ldrb	r1, [r4]	@ zero_extendqisi2
 755 05be E37C     		ldrb	r3, [r4, #19]	@ zero_extendqisi2
 756 05c0 1944     		add	r1, r1, r3
 757 05c2 2379     		ldrb	r3, [r4, #4]	@ zero_extendqisi2
 758 05c4 0193     		str	r3, [sp, #4]
 759 05c6 1F4B     		ldr	r3, .L81
 760 05c8 0093     		str	r3, [sp]
 761 05ca 3B46     		mov	r3, r7
 762 05cc D2B2     		uxtb	r2, r2
 763 05ce C9B2     		uxtb	r1, r1
 764 05d0 3046     		mov	r0, r6
 765 05d2 FFF7FEFF 		bl	uc1701_text
 766 05d6 23E7     		b	.L73
 767              	.L75:
 768 05d8 A368     		ldr	r3, [r4, #8]
 769 05da 5B68     		ldr	r3, [r3, #4]
 770 05dc 6278     		ldrb	r2, [r4, #1]	@ zero_extendqisi2
 771 05de 0732     		adds	r2, r2, #7
 772 05e0 2178     		ldrb	r1, [r4]	@ zero_extendqisi2
 773 05e2 E07C     		ldrb	r0, [r4, #19]	@ zero_extendqisi2
 774 05e4 0144     		add	r1, r1, r0
 775 05e6 0831     		adds	r1, r1, #8
 776 05e8 2944     		add	r1, r1, r5
 777 05ea 2079     		ldrb	r0, [r4, #4]	@ zero_extendqisi2
 778 05ec 0190     		str	r0, [sp, #4]
 779 05ee DFF85480 		ldr	r8, .L81
 780 05f2 CDF80080 		str	r8, [sp]
 781 05f6 D2B2     		uxtb	r2, r2
 782 05f8 C9B2     		uxtb	r1, r1
 783 05fa 3046     		mov	r0, r6
 784 05fc FFF7FEFF 		bl	uc1701_text
 785 0600 A279     		ldrb	r2, [r4, #6]	@ zero_extendqisi2
 786 0602 A368     		ldr	r3, [r4, #8]
 787 0604 53F82230 		ldr	r3, [r3, r2, lsl #2]
 788 0608 6278     		ldrb	r2, [r4, #1]	@ zero_extendqisi2
 789 060a 2178     		ldrb	r1, [r4]	@ zero_extendqisi2
 790 060c E07C     		ldrb	r0, [r4, #19]	@ zero_extendqisi2
 791 060e 0144     		add	r1, r1, r0
 792 0610 1031     		adds	r1, r1, #16
 793 0612 2944     		add	r1, r1, r5
 794 0614 2079     		ldrb	r0, [r4, #4]	@ zero_extendqisi2
 795 0616 0190     		str	r0, [sp, #4]
 796 0618 CDF80080 		str	r8, [sp]
 797 061c C9B2     		uxtb	r1, r1
 798 061e 3046     		mov	r0, r6
 799 0620 FFF7FEFF 		bl	uc1701_text
 800 0624 6278     		ldrb	r2, [r4, #1]	@ zero_extendqisi2
 801 0626 013A     		subs	r2, r2, #1
 802 0628 2178     		ldrb	r1, [r4]	@ zero_extendqisi2
 803 062a E37C     		ldrb	r3, [r4, #19]	@ zero_extendqisi2
 804 062c 1944     		add	r1, r1, r3
 805 062e 0831     		adds	r1, r1, #8
 806 0630 2944     		add	r1, r1, r5
 807 0632 0723     		movs	r3, #7
 808 0634 0093     		str	r3, [sp]
 809 0636 3B46     		mov	r3, r7
 810 0638 D2B2     		uxtb	r2, r2
 811 063a C9B2     		uxtb	r1, r1
 812 063c 3046     		mov	r0, r6
 813 063e FFF7FEFF 		bl	uc1701_rect_invert
 814 0642 78E7     		b	.L76
 815              	.L82:
 816              		.align	2
 817              	.L81:
 818 0644 00000000 		.word	.LANCHOR0
 819              	.L74:
 820 0648 012B     		cmp	r3, #1
 821 064a B0D1     		bne	.L71
 822 064c A379     		ldrb	r3, [r4, #6]	@ zero_extendqisi2
 823 064e E279     		ldrb	r2, [r4, #7]	@ zero_extendqisi2
 824 0650 013A     		subs	r2, r2, #1
 825 0652 9342     		cmp	r3, r2
 826 0654 73DA     		bge	.L78
 827 0656 0133     		adds	r3, r3, #1
 828 0658 A268     		ldr	r2, [r4, #8]
 829 065a 52F82330 		ldr	r3, [r2, r3, lsl #2]
 830 065e 6278     		ldrb	r2, [r4, #1]	@ zero_extendqisi2
 831 0660 0732     		adds	r2, r2, #7
 832 0662 2178     		ldrb	r1, [r4]	@ zero_extendqisi2
 833 0664 E07C     		ldrb	r0, [r4, #19]	@ zero_extendqisi2
 834 0666 0144     		add	r1, r1, r0
 835 0668 0831     		adds	r1, r1, #8
 836 066a 2944     		add	r1, r1, r5
 837 066c 2079     		ldrb	r0, [r4, #4]	@ zero_extendqisi2
 838 066e 0190     		str	r0, [sp, #4]
 839 0670 DFF84081 		ldr	r8, .L83
 840 0674 CDF80080 		str	r8, [sp]
 841 0678 D2B2     		uxtb	r2, r2
 842 067a C9B2     		uxtb	r1, r1
 843 067c 3046     		mov	r0, r6
 844 067e FFF7FEFF 		bl	uc1701_text
 845 0682 A279     		ldrb	r2, [r4, #6]	@ zero_extendqisi2
 846 0684 A368     		ldr	r3, [r4, #8]
 847 0686 53F82230 		ldr	r3, [r3, r2, lsl #2]
 848 068a 6278     		ldrb	r2, [r4, #1]	@ zero_extendqisi2
 849 068c 2178     		ldrb	r1, [r4]	@ zero_extendqisi2
 850 068e E07C     		ldrb	r0, [r4, #19]	@ zero_extendqisi2
 851 0690 0144     		add	r1, r1, r0
 852 0692 1031     		adds	r1, r1, #16
 853 0694 2944     		add	r1, r1, r5
 854 0696 2079     		ldrb	r0, [r4, #4]	@ zero_extendqisi2
 855 0698 0190     		str	r0, [sp, #4]
 856 069a CDF80080 		str	r8, [sp]
 857 069e C9B2     		uxtb	r1, r1
 858 06a0 3046     		mov	r0, r6
 859 06a2 FFF7FEFF 		bl	uc1701_text
 860 06a6 6278     		ldrb	r2, [r4, #1]	@ zero_extendqisi2
 861 06a8 013A     		subs	r2, r2, #1
 862 06aa 2178     		ldrb	r1, [r4]	@ zero_extendqisi2
 863 06ac E37C     		ldrb	r3, [r4, #19]	@ zero_extendqisi2
 864 06ae 1944     		add	r1, r1, r3
 865 06b0 0831     		adds	r1, r1, #8
 866 06b2 2944     		add	r1, r1, r5
 867 06b4 0723     		movs	r3, #7
 868 06b6 0093     		str	r3, [sp]
 869 06b8 3B46     		mov	r3, r7
 870 06ba D2B2     		uxtb	r2, r2
 871 06bc C9B2     		uxtb	r1, r1
 872 06be 3046     		mov	r0, r6
 873 06c0 FFF7FEFF 		bl	uc1701_rect_invert
 874              	.L79:
 875 06c4 6278     		ldrb	r2, [r4, #1]	@ zero_extendqisi2
 876 06c6 013A     		subs	r2, r2, #1
 877 06c8 2379     		ldrb	r3, [r4, #4]	@ zero_extendqisi2
 878 06ca DB43     		mvns	r3, r3
 879 06cc DBB2     		uxtb	r3, r3
 880 06ce 0193     		str	r3, [sp, #4]
 881 06d0 0F23     		movs	r3, #15
 882 06d2 0093     		str	r3, [sp]
 883 06d4 0823     		movs	r3, #8
 884 06d6 D2B2     		uxtb	r2, r2
 885 06d8 7821     		movs	r1, #120
 886 06da 3046     		mov	r0, r6
 887 06dc FFF7FEFF 		bl	uc1701_rect_fill
 888 06e0 6278     		ldrb	r2, [r4, #1]	@ zero_extendqisi2
 889 06e2 0132     		adds	r2, r2, #1
 890 06e4 2379     		ldrb	r3, [r4, #4]	@ zero_extendqisi2
 891 06e6 0193     		str	r3, [sp, #4]
 892 06e8 0723     		movs	r3, #7
 893 06ea 0093     		str	r3, [sp]
 894 06ec 0123     		movs	r3, #1
 895 06ee D2B2     		uxtb	r2, r2
 896 06f0 7B21     		movs	r1, #123
 897 06f2 3046     		mov	r0, r6
 898 06f4 FFF7FEFF 		bl	uc1701_rect_fill
 899 06f8 6278     		ldrb	r2, [r4, #1]	@ zero_extendqisi2
 900 06fa 0832     		adds	r2, r2, #8
 901 06fc 2379     		ldrb	r3, [r4, #4]	@ zero_extendqisi2
 902 06fe 0193     		str	r3, [sp, #4]
 903 0700 0125     		movs	r5, #1
 904 0702 0095     		str	r5, [sp]
 905 0704 0523     		movs	r3, #5
 906 0706 D2B2     		uxtb	r2, r2
 907 0708 7921     		movs	r1, #121
 908 070a 3046     		mov	r0, r6
 909 070c FFF7FEFF 		bl	uc1701_rect_fill
 910 0710 6278     		ldrb	r2, [r4, #1]	@ zero_extendqisi2
 911 0712 0932     		adds	r2, r2, #9
 912 0714 2379     		ldrb	r3, [r4, #4]	@ zero_extendqisi2
 913 0716 0193     		str	r3, [sp, #4]
 914 0718 0095     		str	r5, [sp]
 915 071a 0323     		movs	r3, #3
 916 071c D2B2     		uxtb	r2, r2
 917 071e 7A21     		movs	r1, #122
 918 0720 3046     		mov	r0, r6
 919 0722 FFF7FEFF 		bl	uc1701_rect_fill
 920 0726 6278     		ldrb	r2, [r4, #1]	@ zero_extendqisi2
 921 0728 0A32     		adds	r2, r2, #10
 922 072a 2379     		ldrb	r3, [r4, #4]	@ zero_extendqisi2
 923 072c 0193     		str	r3, [sp, #4]
 924 072e 0095     		str	r5, [sp]
 925 0730 2B46     		mov	r3, r5
 926 0732 D2B2     		uxtb	r2, r2
 927 0734 7B21     		movs	r1, #123
 928 0736 3046     		mov	r0, r6
 929 0738 FFF7FEFF 		bl	uc1701_rect_fill
 930 073c 37E7     		b	.L71
 931              	.L78:
 932 073e 03F18043 		add	r3, r3, #1073741824
 933 0742 013B     		subs	r3, r3, #1
 934 0744 A268     		ldr	r2, [r4, #8]
 935 0746 52F82330 		ldr	r3, [r2, r3, lsl #2]
 936 074a 6278     		ldrb	r2, [r4, #1]	@ zero_extendqisi2
 937 074c 2178     		ldrb	r1, [r4]	@ zero_extendqisi2
 938 074e E07C     		ldrb	r0, [r4, #19]	@ zero_extendqisi2
 939 0750 0144     		add	r1, r1, r0
 940 0752 0831     		adds	r1, r1, #8
 941 0754 2944     		add	r1, r1, r5
 942 0756 2079     		ldrb	r0, [r4, #4]	@ zero_extendqisi2
 943 0758 0190     		str	r0, [sp, #4]
 944 075a DFF85880 		ldr	r8, .L83
 945 075e CDF80080 		str	r8, [sp]
 946 0762 C9B2     		uxtb	r1, r1
 947 0764 3046     		mov	r0, r6
 948 0766 FFF7FEFF 		bl	uc1701_text
 949 076a A279     		ldrb	r2, [r4, #6]	@ zero_extendqisi2
 950 076c A368     		ldr	r3, [r4, #8]
 951 076e 53F82230 		ldr	r3, [r3, r2, lsl #2]
 952 0772 6278     		ldrb	r2, [r4, #1]	@ zero_extendqisi2
 953 0774 0732     		adds	r2, r2, #7
 954 0776 2178     		ldrb	r1, [r4]	@ zero_extendqisi2
 955 0778 E07C     		ldrb	r0, [r4, #19]	@ zero_extendqisi2
 956 077a 0144     		add	r1, r1, r0
 957 077c 1031     		adds	r1, r1, #16
 958 077e 2944     		add	r1, r1, r5
 959 0780 2079     		ldrb	r0, [r4, #4]	@ zero_extendqisi2
 960 0782 0190     		str	r0, [sp, #4]
 961 0784 CDF80080 		str	r8, [sp]
 962 0788 D2B2     		uxtb	r2, r2
 963 078a C9B2     		uxtb	r1, r1
 964 078c 3046     		mov	r0, r6
 965 078e FFF7FEFF 		bl	uc1701_text
 966 0792 6278     		ldrb	r2, [r4, #1]	@ zero_extendqisi2
 967 0794 0632     		adds	r2, r2, #6
 968 0796 2178     		ldrb	r1, [r4]	@ zero_extendqisi2
 969 0798 E37C     		ldrb	r3, [r4, #19]	@ zero_extendqisi2
 970 079a 1944     		add	r1, r1, r3
 971 079c 0831     		adds	r1, r1, #8
 972 079e 2944     		add	r1, r1, r5
 973 07a0 0723     		movs	r3, #7
 974 07a2 0093     		str	r3, [sp]
 975 07a4 3B46     		mov	r3, r7
 976 07a6 D2B2     		uxtb	r2, r2
 977 07a8 C9B2     		uxtb	r1, r1
 978 07aa 3046     		mov	r0, r6
 979 07ac FFF7FEFF 		bl	uc1701_rect_invert
 980 07b0 88E7     		b	.L79
 981              	.L84:
 982 07b2 00BF     		.align	2
 983              	.L83:
 984 07b4 00000000 		.word	.LANCHOR0
 986              		.global	__aeabi_i2f
 987              		.global	__aeabi_fmul
 988              		.global	__aeabi_fdiv
 989              		.global	__aeabi_fadd
 990              		.global	__aeabi_fcmplt
 991              		.global	__aeabi_f2d
 992              		.global	__aeabi_dsub
 993              		.global	__aeabi_d2iz
 994              		.global	__aeabi_dadd
 995              		.align	1
 996              		.global	widget_bar_indicator
 997              		.syntax unified
 998              		.thumb
 999              		.thumb_func
 1000              		.fpu softvfp
 1002              	widget_bar_indicator:
 1003              		@ args = 0, pretend = 0, frame = 0
 1004              		@ frame_needed = 0, uses_anonymous_args = 0
 1005 07b8 2DE9F041 		push	{r4, r5, r6, r7, r8, lr}
 1006 07bc 82B0     		sub	sp, sp, #8
 1007 07be 0546     		mov	r5, r0
 1008 07c0 0C46     		mov	r4, r1
 1009 07c2 91F80380 		ldrb	r8, [r1, #3]	@ zero_extendqisi2
 1010 07c6 91F90500 		ldrsb	r0, [r1, #5]
 1011 07ca FFF7FEFF 		bl	__aeabi_i2f
 1012 07ce 0646     		mov	r6, r0
 1013 07d0 A8F10300 		sub	r0, r8, #3
 1014 07d4 FFF7FEFF 		bl	__aeabi_i2f
 1015 07d8 0146     		mov	r1, r0
 1016 07da 3046     		mov	r0, r6
 1017 07dc FFF7FEFF 		bl	__aeabi_fmul
 1018 07e0 0646     		mov	r6, r0
 1019 07e2 94F90600 		ldrsb	r0, [r4, #6]
 1020 07e6 FFF7FEFF 		bl	__aeabi_i2f
 1021 07ea 0146     		mov	r1, r0
 1022 07ec 3046     		mov	r0, r6
 1023 07ee FFF7FEFF 		bl	__aeabi_fdiv
 1024 07f2 4FF07E51 		mov	r1, #1065353216
 1025 07f6 FFF7FEFF 		bl	__aeabi_fadd
 1026 07fa 0646     		mov	r6, r0
 1027 07fc 0021     		movs	r1, #0
 1028 07fe FFF7FEFF 		bl	__aeabi_fcmplt
 1029 0802 38BB     		cbnz	r0, .L92
 1030 0804 3046     		mov	r0, r6
 1031 0806 FFF7FEFF 		bl	__aeabi_f2d
 1032 080a 0022     		movs	r2, #0
 1033 080c 184B     		ldr	r3, .L93
 1034 080e FFF7FEFF 		bl	__aeabi_dadd
 1035 0812 FFF7FEFF 		bl	floor
 1036 0816 FFF7FEFF 		bl	__aeabi_d2iz
 1037 081a 0646     		mov	r6, r0
 1038              	.L88:
 1039 081c 6278     		ldrb	r2, [r4, #1]	@ zero_extendqisi2
 1040 081e 2178     		ldrb	r1, [r4]	@ zero_extendqisi2
 1041 0820 0127     		movs	r7, #1
 1042 0822 0197     		str	r7, [sp, #4]
 1043 0824 2379     		ldrb	r3, [r4, #4]	@ zero_extendqisi2
 1044 0826 0093     		str	r3, [sp]
 1045 0828 4346     		mov	r3, r8
 1046 082a 2846     		mov	r0, r5
 1047 082c FFF7FEFF 		bl	uc1701_rect
 1048 0830 6278     		ldrb	r2, [r4, #1]	@ zero_extendqisi2
 1049 0832 3A44     		add	r2, r2, r7
 1050 0834 2178     		ldrb	r1, [r4]	@ zero_extendqisi2
 1051 0836 3944     		add	r1, r1, r7
 1052 0838 0197     		str	r7, [sp, #4]
 1053 083a 2379     		ldrb	r3, [r4, #4]	@ zero_extendqisi2
 1054 083c 023B     		subs	r3, r3, #2
 1055 083e DBB2     		uxtb	r3, r3
 1056 0840 0093     		str	r3, [sp]
 1057 0842 F3B2     		uxtb	r3, r6
 1058 0844 D2B2     		uxtb	r2, r2
 1059 0846 C9B2     		uxtb	r1, r1
 1060 0848 2846     		mov	r0, r5
 1061 084a FFF7FEFF 		bl	uc1701_rect_fill
 1062 084e 02B0     		add	sp, sp, #8
 1063              		@ sp needed
 1064 0850 BDE8F081 		pop	{r4, r5, r6, r7, r8, pc}
 1065              	.L92:
 1066 0854 3046     		mov	r0, r6
 1067 0856 FFF7FEFF 		bl	__aeabi_f2d
 1068 085a 0022     		movs	r2, #0
 1069 085c 044B     		ldr	r3, .L93
 1070 085e FFF7FEFF 		bl	__aeabi_dsub
 1071 0862 FFF7FEFF 		bl	ceil
 1072 0866 FFF7FEFF 		bl	__aeabi_d2iz
 1073 086a 0646     		mov	r6, r0
 1074 086c D6E7     		b	.L88
 1075              	.L94:
 1076 086e 00BF     		.align	2
 1077              	.L93:
 1078 0870 0000E03F 		.word	1071644672
 1080              		.global	__aeabi_fsub
 1081              		.global	__aeabi_d2uiz
 1082              		.align	1
 1083              		.global	widget_knob
 1084              		.syntax unified
 1085              		.thumb
 1086              		.thumb_func
 1087              		.fpu softvfp
 1089              	widget_knob:
 1090              		@ args = 0, pretend = 0, frame = 0
 1091              		@ frame_needed = 0, uses_anonymous_args = 0
 1092 0874 2DE9F041 		push	{r4, r5, r6, r7, r8, lr}
 1093 0878 82B0     		sub	sp, sp, #8
 1094 087a 0646     		mov	r6, r0
 1095 087c 0C46     		mov	r4, r1
 1096 087e 4D68     		ldr	r5, [r1, #4]	@ float
 1097 0880 2946     		mov	r1, r5
 1098 0882 E068     		ldr	r0, [r4, #12]	@ float
 1099 0884 FFF7FEFF 		bl	__aeabi_fsub
 1100 0888 A549     		ldr	r1, .L121
 1101 088a FFF7FEFF 		bl	__aeabi_fmul
 1102 088e 0746     		mov	r7, r0
 1103 0890 2946     		mov	r1, r5
 1104 0892 A068     		ldr	r0, [r4, #8]	@ float
 1105 0894 FFF7FEFF 		bl	__aeabi_fsub
 1106 0898 0146     		mov	r1, r0
 1107 089a 3846     		mov	r0, r7
 1108 089c FFF7FEFF 		bl	__aeabi_fdiv
 1109 08a0 4FF07E51 		mov	r1, #1065353216
 1110 08a4 FFF7FEFF 		bl	__aeabi_fadd
 1111 08a8 0546     		mov	r5, r0
 1112 08aa 0021     		movs	r1, #0
 1113 08ac FFF7FEFF 		bl	__aeabi_fcmplt
 1114 08b0 0028     		cmp	r0, #0
 1115 08b2 40F0C280 		bne	.L120
 1116 08b6 2846     		mov	r0, r5
 1117 08b8 FFF7FEFF 		bl	__aeabi_f2d
 1118 08bc 0022     		movs	r2, #0
 1119 08be 994B     		ldr	r3, .L121+4
 1120 08c0 FFF7FEFF 		bl	__aeabi_dadd
 1121 08c4 FFF7FEFF 		bl	floor
 1122 08c8 FFF7FEFF 		bl	__aeabi_d2uiz
 1123 08cc C7B2     		uxtb	r7, r0
 1124              	.L98:
 1125 08ce 6278     		ldrb	r2, [r4, #1]	@ zero_extendqisi2
 1126 08d0 053A     		subs	r2, r2, #5
 1127 08d2 2178     		ldrb	r1, [r4]	@ zero_extendqisi2
 1128 08d4 0239     		subs	r1, r1, #2
 1129 08d6 A378     		ldrb	r3, [r4, #2]	@ zero_extendqisi2
 1130 08d8 0193     		str	r3, [sp, #4]
 1131 08da 0125     		movs	r5, #1
 1132 08dc 0095     		str	r5, [sp]
 1133 08de 0523     		movs	r3, #5
 1134 08e0 D2B2     		uxtb	r2, r2
 1135 08e2 C9B2     		uxtb	r1, r1
 1136 08e4 3046     		mov	r0, r6
 1137 08e6 FFF7FEFF 		bl	uc1701_rect_fill
 1138 08ea 6278     		ldrb	r2, [r4, #1]	@ zero_extendqisi2
 1139 08ec 0532     		adds	r2, r2, #5
 1140 08ee 2178     		ldrb	r1, [r4]	@ zero_extendqisi2
 1141 08f0 0239     		subs	r1, r1, #2
 1142 08f2 A378     		ldrb	r3, [r4, #2]	@ zero_extendqisi2
 1143 08f4 0193     		str	r3, [sp, #4]
 1144 08f6 0095     		str	r5, [sp]
 1145 08f8 0523     		movs	r3, #5
 1146 08fa D2B2     		uxtb	r2, r2
 1147 08fc C9B2     		uxtb	r1, r1
 1148 08fe 3046     		mov	r0, r6
 1149 0900 FFF7FEFF 		bl	uc1701_rect_fill
 1150 0904 6278     		ldrb	r2, [r4, #1]	@ zero_extendqisi2
 1151 0906 023A     		subs	r2, r2, #2
 1152 0908 2178     		ldrb	r1, [r4]	@ zero_extendqisi2
 1153 090a 0539     		subs	r1, r1, #5
 1154 090c A378     		ldrb	r3, [r4, #2]	@ zero_extendqisi2
 1155 090e 0193     		str	r3, [sp, #4]
 1156 0910 4FF00508 		mov	r8, #5
 1157 0914 CDF80080 		str	r8, [sp]
 1158 0918 2B46     		mov	r3, r5
 1159 091a D2B2     		uxtb	r2, r2
 1160 091c C9B2     		uxtb	r1, r1
 1161 091e 3046     		mov	r0, r6
 1162 0920 FFF7FEFF 		bl	uc1701_rect_fill
 1163 0924 6278     		ldrb	r2, [r4, #1]	@ zero_extendqisi2
 1164 0926 023A     		subs	r2, r2, #2
 1165 0928 2178     		ldrb	r1, [r4]	@ zero_extendqisi2
 1166 092a 4144     		add	r1, r1, r8
 1167 092c A378     		ldrb	r3, [r4, #2]	@ zero_extendqisi2
 1168 092e 0193     		str	r3, [sp, #4]
 1169 0930 CDF80080 		str	r8, [sp]
 1170 0934 2B46     		mov	r3, r5
 1171 0936 D2B2     		uxtb	r2, r2
 1172 0938 C9B2     		uxtb	r1, r1
 1173 093a 3046     		mov	r0, r6
 1174 093c FFF7FEFF 		bl	uc1701_rect_fill
 1175 0940 6278     		ldrb	r2, [r4, #1]	@ zero_extendqisi2
 1176 0942 043A     		subs	r2, r2, #4
 1177 0944 2178     		ldrb	r1, [r4]	@ zero_extendqisi2
 1178 0946 0339     		subs	r1, r1, #3
 1179 0948 A378     		ldrb	r3, [r4, #2]	@ zero_extendqisi2
 1180 094a 0193     		str	r3, [sp, #4]
 1181 094c 0095     		str	r5, [sp]
 1182 094e 2B46     		mov	r3, r5
 1183 0950 D2B2     		uxtb	r2, r2
 1184 0952 C9B2     		uxtb	r1, r1
 1185 0954 3046     		mov	r0, r6
 1186 0956 FFF7FEFF 		bl	uc1701_rect_fill
 1187 095a 6278     		ldrb	r2, [r4, #1]	@ zero_extendqisi2
 1188 095c 033A     		subs	r2, r2, #3
 1189 095e 2178     		ldrb	r1, [r4]	@ zero_extendqisi2
 1190 0960 0439     		subs	r1, r1, #4
 1191 0962 A378     		ldrb	r3, [r4, #2]	@ zero_extendqisi2
 1192 0964 0193     		str	r3, [sp, #4]
 1193 0966 0095     		str	r5, [sp]
 1194 0968 2B46     		mov	r3, r5
 1195 096a D2B2     		uxtb	r2, r2
 1196 096c C9B2     		uxtb	r1, r1
 1197 096e 3046     		mov	r0, r6
 1198 0970 FFF7FEFF 		bl	uc1701_rect_fill
 1199 0974 6278     		ldrb	r2, [r4, #1]	@ zero_extendqisi2
 1200 0976 033A     		subs	r2, r2, #3
 1201 0978 2178     		ldrb	r1, [r4]	@ zero_extendqisi2
 1202 097a 0431     		adds	r1, r1, #4
 1203 097c A378     		ldrb	r3, [r4, #2]	@ zero_extendqisi2
 1204 097e 0193     		str	r3, [sp, #4]
 1205 0980 0095     		str	r5, [sp]
 1206 0982 2B46     		mov	r3, r5
 1207 0984 D2B2     		uxtb	r2, r2
 1208 0986 C9B2     		uxtb	r1, r1
 1209 0988 3046     		mov	r0, r6
 1210 098a FFF7FEFF 		bl	uc1701_rect_fill
 1211 098e 6278     		ldrb	r2, [r4, #1]	@ zero_extendqisi2
 1212 0990 043A     		subs	r2, r2, #4
 1213 0992 2178     		ldrb	r1, [r4]	@ zero_extendqisi2
 1214 0994 0331     		adds	r1, r1, #3
 1215 0996 A378     		ldrb	r3, [r4, #2]	@ zero_extendqisi2
 1216 0998 0193     		str	r3, [sp, #4]
 1217 099a 0095     		str	r5, [sp]
 1218 099c 2B46     		mov	r3, r5
 1219 099e D2B2     		uxtb	r2, r2
 1220 09a0 C9B2     		uxtb	r1, r1
 1221 09a2 3046     		mov	r0, r6
 1222 09a4 FFF7FEFF 		bl	uc1701_rect_fill
 1223 09a8 6278     		ldrb	r2, [r4, #1]	@ zero_extendqisi2
 1224 09aa 0332     		adds	r2, r2, #3
 1225 09ac 2178     		ldrb	r1, [r4]	@ zero_extendqisi2
 1226 09ae 0431     		adds	r1, r1, #4
 1227 09b0 A378     		ldrb	r3, [r4, #2]	@ zero_extendqisi2
 1228 09b2 0193     		str	r3, [sp, #4]
 1229 09b4 0095     		str	r5, [sp]
 1230 09b6 2B46     		mov	r3, r5
 1231 09b8 D2B2     		uxtb	r2, r2
 1232 09ba C9B2     		uxtb	r1, r1
 1233 09bc 3046     		mov	r0, r6
 1234 09be FFF7FEFF 		bl	uc1701_rect_fill
 1235 09c2 6278     		ldrb	r2, [r4, #1]	@ zero_extendqisi2
 1236 09c4 0432     		adds	r2, r2, #4
 1237 09c6 2178     		ldrb	r1, [r4]	@ zero_extendqisi2
 1238 09c8 0331     		adds	r1, r1, #3
 1239 09ca A378     		ldrb	r3, [r4, #2]	@ zero_extendqisi2
 1240 09cc 0193     		str	r3, [sp, #4]
 1241 09ce 0095     		str	r5, [sp]
 1242 09d0 2B46     		mov	r3, r5
 1243 09d2 D2B2     		uxtb	r2, r2
 1244 09d4 C9B2     		uxtb	r1, r1
 1245 09d6 3046     		mov	r0, r6
 1246 09d8 FFF7FEFF 		bl	uc1701_rect_fill
 1247 09dc 6278     		ldrb	r2, [r4, #1]	@ zero_extendqisi2
 1248 09de 0332     		adds	r2, r2, #3
 1249 09e0 2178     		ldrb	r1, [r4]	@ zero_extendqisi2
 1250 09e2 0439     		subs	r1, r1, #4
 1251 09e4 A378     		ldrb	r3, [r4, #2]	@ zero_extendqisi2
 1252 09e6 0193     		str	r3, [sp, #4]
 1253 09e8 0095     		str	r5, [sp]
 1254 09ea 2B46     		mov	r3, r5
 1255 09ec D2B2     		uxtb	r2, r2
 1256 09ee C9B2     		uxtb	r1, r1
 1257 09f0 3046     		mov	r0, r6
 1258 09f2 FFF7FEFF 		bl	uc1701_rect_fill
 1259 09f6 6278     		ldrb	r2, [r4, #1]	@ zero_extendqisi2
 1260 09f8 0432     		adds	r2, r2, #4
 1261 09fa 2178     		ldrb	r1, [r4]	@ zero_extendqisi2
 1262 09fc 0339     		subs	r1, r1, #3
 1263 09fe A378     		ldrb	r3, [r4, #2]	@ zero_extendqisi2
 1264 0a00 0193     		str	r3, [sp, #4]
 1265 0a02 0095     		str	r5, [sp]
 1266 0a04 2B46     		mov	r3, r5
 1267 0a06 D2B2     		uxtb	r2, r2
 1268 0a08 C9B2     		uxtb	r1, r1
 1269 0a0a 3046     		mov	r0, r6
 1270 0a0c FFF7FEFF 		bl	uc1701_rect_fill
 1271 0a10 781E     		subs	r0, r7, #1
 1272 0a12 0F28     		cmp	r0, #15
 1273 0a14 2CD8     		bhi	.L95
 1274 0a16 DFE810F0 		tbh	[pc, r0, lsl #1]
 1275              	.L101:
 1276 0a1a 1D00     		.2byte	(.L100-.L101)/2
 1277 0a1c 2E00     		.2byte	(.L102-.L101)/2
 1278 0a1e 4A00     		.2byte	(.L103-.L101)/2
 1279 0a20 6600     		.2byte	(.L104-.L101)/2
 1280 0a22 7300     		.2byte	(.L105-.L101)/2
 1281 0a24 8700     		.2byte	(.L106-.L101)/2
 1282 0a26 A300     		.2byte	(.L107-.L101)/2
 1283 0a28 BF00     		.2byte	(.L108-.L101)/2
 1284 0a2a CE00     		.2byte	(.L109-.L101)/2
 1285 0a2c DB00     		.2byte	(.L110-.L101)/2
 1286 0a2e F700     		.2byte	(.L111-.L101)/2
 1287 0a30 1301     		.2byte	(.L112-.L101)/2
 1288 0a32 2201     		.2byte	(.L113-.L101)/2
 1289 0a34 2F01     		.2byte	(.L114-.L101)/2
 1290 0a36 4B01     		.2byte	(.L115-.L101)/2
 1291 0a38 6701     		.2byte	(.L116-.L101)/2
 1292              		.p2align 1
 1293              	.L120:
 1294 0a3a 2846     		mov	r0, r5
 1295 0a3c FFF7FEFF 		bl	__aeabi_f2d
 1296 0a40 0022     		movs	r2, #0
 1297 0a42 384B     		ldr	r3, .L121+4
 1298 0a44 FFF7FEFF 		bl	__aeabi_dsub
 1299 0a48 FFF7FEFF 		bl	ceil
 1300 0a4c FFF7FEFF 		bl	__aeabi_d2uiz
 1301 0a50 C7B2     		uxtb	r7, r0
 1302 0a52 3CE7     		b	.L98
 1303              	.L100:
 1304 0a54 6278     		ldrb	r2, [r4, #1]	@ zero_extendqisi2
 1305 0a56 0232     		adds	r2, r2, #2
 1306 0a58 2178     		ldrb	r1, [r4]	@ zero_extendqisi2
 1307 0a5a 0139     		subs	r1, r1, #1
 1308 0a5c A378     		ldrb	r3, [r4, #2]	@ zero_extendqisi2
 1309 0a5e 0193     		str	r3, [sp, #4]
 1310 0a60 0223     		movs	r3, #2
 1311 0a62 0093     		str	r3, [sp]
 1312 0a64 0123     		movs	r3, #1
 1313 0a66 D2B2     		uxtb	r2, r2
 1314 0a68 C9B2     		uxtb	r1, r1
 1315 0a6a 3046     		mov	r0, r6
 1316 0a6c FFF7FEFF 		bl	uc1701_rect_fill
 1317              	.L95:
 1318 0a70 02B0     		add	sp, sp, #8
 1319              		@ sp needed
 1320 0a72 BDE8F081 		pop	{r4, r5, r6, r7, r8, pc}
 1321              	.L102:
 1322 0a76 6278     		ldrb	r2, [r4, #1]	@ zero_extendqisi2
 1323 0a78 0232     		adds	r2, r2, #2
 1324 0a7a 2178     		ldrb	r1, [r4]	@ zero_extendqisi2
 1325 0a7c 0239     		subs	r1, r1, #2
 1326 0a7e A378     		ldrb	r3, [r4, #2]	@ zero_extendqisi2
 1327 0a80 0193     		str	r3, [sp, #4]
 1328 0a82 0125     		movs	r5, #1
 1329 0a84 0095     		str	r5, [sp]
 1330 0a86 0223     		movs	r3, #2
 1331 0a88 D2B2     		uxtb	r2, r2
 1332 0a8a C9B2     		uxtb	r1, r1
 1333 0a8c 3046     		mov	r0, r6
 1334 0a8e FFF7FEFF 		bl	uc1701_rect_fill
 1335 0a92 6278     		ldrb	r2, [r4, #1]	@ zero_extendqisi2
 1336 0a94 0332     		adds	r2, r2, #3
 1337 0a96 2178     		ldrb	r1, [r4]	@ zero_extendqisi2
 1338 0a98 0139     		subs	r1, r1, #1
 1339 0a9a A378     		ldrb	r3, [r4, #2]	@ zero_extendqisi2
 1340 0a9c 0193     		str	r3, [sp, #4]
 1341 0a9e 0095     		str	r5, [sp]
 1342 0aa0 2B46     		mov	r3, r5
 1343 0aa2 D2B2     		uxtb	r2, r2
 1344 0aa4 C9B2     		uxtb	r1, r1
 1345 0aa6 3046     		mov	r0, r6
 1346 0aa8 FFF7FEFF 		bl	uc1701_rect_fill
 1347 0aac E0E7     		b	.L95
 1348              	.L103:
 1349 0aae 6278     		ldrb	r2, [r4, #1]	@ zero_extendqisi2
 1350 0ab0 0132     		adds	r2, r2, #1
 1351 0ab2 2178     		ldrb	r1, [r4]	@ zero_extendqisi2
 1352 0ab4 0339     		subs	r1, r1, #3
 1353 0ab6 A378     		ldrb	r3, [r4, #2]	@ zero_extendqisi2
 1354 0ab8 0193     		str	r3, [sp, #4]
 1355 0aba 0125     		movs	r5, #1
 1356 0abc 0095     		str	r5, [sp]
 1357 0abe 0223     		movs	r3, #2
 1358 0ac0 D2B2     		uxtb	r2, r2
 1359 0ac2 C9B2     		uxtb	r1, r1
 1360 0ac4 3046     		mov	r0, r6
 1361 0ac6 FFF7FEFF 		bl	uc1701_rect_fill
 1362 0aca 6278     		ldrb	r2, [r4, #1]	@ zero_extendqisi2
 1363 0acc 0232     		adds	r2, r2, #2
 1364 0ace 2178     		ldrb	r1, [r4]	@ zero_extendqisi2
 1365 0ad0 0239     		subs	r1, r1, #2
 1366 0ad2 A378     		ldrb	r3, [r4, #2]	@ zero_extendqisi2
 1367 0ad4 0193     		str	r3, [sp, #4]
 1368 0ad6 0095     		str	r5, [sp]
 1369 0ad8 2B46     		mov	r3, r5
 1370 0ada D2B2     		uxtb	r2, r2
 1371 0adc C9B2     		uxtb	r1, r1
 1372 0ade 3046     		mov	r0, r6
 1373 0ae0 FFF7FEFF 		bl	uc1701_rect_fill
 1374 0ae4 C4E7     		b	.L95
 1375              	.L104:
 1376 0ae6 6278     		ldrb	r2, [r4, #1]	@ zero_extendqisi2
 1377 0ae8 2178     		ldrb	r1, [r4]	@ zero_extendqisi2
 1378 0aea 0339     		subs	r1, r1, #3
 1379 0aec A378     		ldrb	r3, [r4, #2]	@ zero_extendqisi2
 1380 0aee 0193     		str	r3, [sp, #4]
 1381 0af0 0223     		movs	r3, #2
 1382 0af2 0093     		str	r3, [sp]
 1383 0af4 0123     		movs	r3, #1
 1384 0af6 C9B2     		uxtb	r1, r1
 1385 0af8 3046     		mov	r0, r6
 1386 0afa FFF7FEFF 		bl	uc1701_rect_fill
 1387 0afe B7E7     		b	.L95
 1388              	.L105:
 1389 0b00 6278     		ldrb	r2, [r4, #1]	@ zero_extendqisi2
 1390 0b02 013A     		subs	r2, r2, #1
 1391 0b04 2178     		ldrb	r1, [r4]	@ zero_extendqisi2
 1392 0b06 0339     		subs	r1, r1, #3
 1393 0b08 A378     		ldrb	r3, [r4, #2]	@ zero_extendqisi2
 1394 0b0a 0193     		str	r3, [sp, #4]
 1395 0b0c 0223     		movs	r3, #2
 1396 0b0e 0093     		str	r3, [sp]
 1397 0b10 0123     		movs	r3, #1
 1398 0b12 D2B2     		uxtb	r2, r2
 1399 0b14 C9B2     		uxtb	r1, r1
 1400 0b16 3046     		mov	r0, r6
 1401 0b18 FFF7FEFF 		bl	uc1701_rect_fill
 1402 0b1c A8E7     		b	.L95
 1403              	.L122:
 1404 0b1e 00BF     		.align	2
 1405              	.L121:
 1406 0b20 00007041 		.word	1097859072
 1407 0b24 0000E03F 		.word	1071644672
 1408              	.L106:
 1409 0b28 6278     		ldrb	r2, [r4, #1]	@ zero_extendqisi2
 1410 0b2a 013A     		subs	r2, r2, #1
 1411 0b2c 2178     		ldrb	r1, [r4]	@ zero_extendqisi2
 1412 0b2e 0339     		subs	r1, r1, #3
 1413 0b30 A378     		ldrb	r3, [r4, #2]	@ zero_extendqisi2
 1414 0b32 0193     		str	r3, [sp, #4]
 1415 0b34 0125     		movs	r5, #1
 1416 0b36 0095     		str	r5, [sp]
 1417 0b38 0223     		movs	r3, #2
 1418 0b3a D2B2     		uxtb	r2, r2
 1419 0b3c C9B2     		uxtb	r1, r1
 1420 0b3e 3046     		mov	r0, r6
 1421 0b40 FFF7FEFF 		bl	uc1701_rect_fill
 1422 0b44 6278     		ldrb	r2, [r4, #1]	@ zero_extendqisi2
 1423 0b46 023A     		subs	r2, r2, #2
 1424 0b48 2178     		ldrb	r1, [r4]	@ zero_extendqisi2
 1425 0b4a 0239     		subs	r1, r1, #2
 1426 0b4c A378     		ldrb	r3, [r4, #2]	@ zero_extendqisi2
 1427 0b4e 0193     		str	r3, [sp, #4]
 1428 0b50 0095     		str	r5, [sp]
 1429 0b52 2B46     		mov	r3, r5
 1430 0b54 D2B2     		uxtb	r2, r2
 1431 0b56 C9B2     		uxtb	r1, r1
 1432 0b58 3046     		mov	r0, r6
 1433 0b5a FFF7FEFF 		bl	uc1701_rect_fill
 1434 0b5e 87E7     		b	.L95
 1435              	.L107:
 1436 0b60 6278     		ldrb	r2, [r4, #1]	@ zero_extendqisi2
 1437 0b62 023A     		subs	r2, r2, #2
 1438 0b64 2178     		ldrb	r1, [r4]	@ zero_extendqisi2
 1439 0b66 0239     		subs	r1, r1, #2
 1440 0b68 A378     		ldrb	r3, [r4, #2]	@ zero_extendqisi2
 1441 0b6a 0193     		str	r3, [sp, #4]
 1442 0b6c 0125     		movs	r5, #1
 1443 0b6e 0095     		str	r5, [sp]
 1444 0b70 0223     		movs	r3, #2
 1445 0b72 D2B2     		uxtb	r2, r2
 1446 0b74 C9B2     		uxtb	r1, r1
 1447 0b76 3046     		mov	r0, r6
 1448 0b78 FFF7FEFF 		bl	uc1701_rect_fill
 1449 0b7c 6278     		ldrb	r2, [r4, #1]	@ zero_extendqisi2
 1450 0b7e 033A     		subs	r2, r2, #3
 1451 0b80 2178     		ldrb	r1, [r4]	@ zero_extendqisi2
 1452 0b82 0139     		subs	r1, r1, #1
 1453 0b84 A378     		ldrb	r3, [r4, #2]	@ zero_extendqisi2
 1454 0b86 0193     		str	r3, [sp, #4]
 1455 0b88 0095     		str	r5, [sp]
 1456 0b8a 2B46     		mov	r3, r5
 1457 0b8c D2B2     		uxtb	r2, r2
 1458 0b8e C9B2     		uxtb	r1, r1
 1459 0b90 3046     		mov	r0, r6
 1460 0b92 FFF7FEFF 		bl	uc1701_rect_fill
 1461 0b96 6BE7     		b	.L95
 1462              	.L108:
 1463 0b98 6278     		ldrb	r2, [r4, #1]	@ zero_extendqisi2
 1464 0b9a 033A     		subs	r2, r2, #3
 1465 0b9c 2178     		ldrb	r1, [r4]	@ zero_extendqisi2
 1466 0b9e 0139     		subs	r1, r1, #1
 1467 0ba0 A378     		ldrb	r3, [r4, #2]	@ zero_extendqisi2
 1468 0ba2 0193     		str	r3, [sp, #4]
 1469 0ba4 0123     		movs	r3, #1
 1470 0ba6 0093     		str	r3, [sp]
 1471 0ba8 0223     		movs	r3, #2
 1472 0baa D2B2     		uxtb	r2, r2
 1473 0bac C9B2     		uxtb	r1, r1
 1474 0bae 3046     		mov	r0, r6
 1475 0bb0 FFF7FEFF 		bl	uc1701_rect_fill
 1476 0bb4 5CE7     		b	.L95
 1477              	.L109:
 1478 0bb6 6278     		ldrb	r2, [r4, #1]	@ zero_extendqisi2
 1479 0bb8 033A     		subs	r2, r2, #3
 1480 0bba 2178     		ldrb	r1, [r4]	@ zero_extendqisi2
 1481 0bbc A378     		ldrb	r3, [r4, #2]	@ zero_extendqisi2
 1482 0bbe 0193     		str	r3, [sp, #4]
 1483 0bc0 0123     		movs	r3, #1
 1484 0bc2 0093     		str	r3, [sp]
 1485 0bc4 0223     		movs	r3, #2
 1486 0bc6 D2B2     		uxtb	r2, r2
 1487 0bc8 3046     		mov	r0, r6
 1488 0bca FFF7FEFF 		bl	uc1701_rect_fill
 1489 0bce 4FE7     		b	.L95
 1490              	.L110:
 1491 0bd0 6278     		ldrb	r2, [r4, #1]	@ zero_extendqisi2
 1492 0bd2 033A     		subs	r2, r2, #3
 1493 0bd4 2178     		ldrb	r1, [r4]	@ zero_extendqisi2
 1494 0bd6 0131     		adds	r1, r1, #1
 1495 0bd8 A378     		ldrb	r3, [r4, #2]	@ zero_extendqisi2
 1496 0bda 0193     		str	r3, [sp, #4]
 1497 0bdc 0223     		movs	r3, #2
 1498 0bde 0093     		str	r3, [sp]
 1499 0be0 0123     		movs	r3, #1
 1500 0be2 D2B2     		uxtb	r2, r2
 1501 0be4 C9B2     		uxtb	r1, r1
 1502 0be6 3046     		mov	r0, r6
 1503 0be8 FFF7FEFF 		bl	uc1701_rect_fill
 1504 0bec 6278     		ldrb	r2, [r4, #1]	@ zero_extendqisi2
 1505 0bee 023A     		subs	r2, r2, #2
 1506 0bf0 2178     		ldrb	r1, [r4]	@ zero_extendqisi2
 1507 0bf2 0231     		adds	r1, r1, #2
 1508 0bf4 A378     		ldrb	r3, [r4, #2]	@ zero_extendqisi2
 1509 0bf6 0193     		str	r3, [sp, #4]
 1510 0bf8 0123     		movs	r3, #1
 1511 0bfa 0093     		str	r3, [sp]
 1512 0bfc D2B2     		uxtb	r2, r2
 1513 0bfe C9B2     		uxtb	r1, r1
 1514 0c00 3046     		mov	r0, r6
 1515 0c02 FFF7FEFF 		bl	uc1701_rect_fill
 1516 0c06 33E7     		b	.L95
 1517              	.L111:
 1518 0c08 6278     		ldrb	r2, [r4, #1]	@ zero_extendqisi2
 1519 0c0a 023A     		subs	r2, r2, #2
 1520 0c0c 2178     		ldrb	r1, [r4]	@ zero_extendqisi2
 1521 0c0e 0231     		adds	r1, r1, #2
 1522 0c10 A378     		ldrb	r3, [r4, #2]	@ zero_extendqisi2
 1523 0c12 0193     		str	r3, [sp, #4]
 1524 0c14 0223     		movs	r3, #2
 1525 0c16 0093     		str	r3, [sp]
 1526 0c18 0123     		movs	r3, #1
 1527 0c1a D2B2     		uxtb	r2, r2
 1528 0c1c C9B2     		uxtb	r1, r1
 1529 0c1e 3046     		mov	r0, r6
 1530 0c20 FFF7FEFF 		bl	uc1701_rect_fill
 1531 0c24 6278     		ldrb	r2, [r4, #1]	@ zero_extendqisi2
 1532 0c26 013A     		subs	r2, r2, #1
 1533 0c28 2178     		ldrb	r1, [r4]	@ zero_extendqisi2
 1534 0c2a 0331     		adds	r1, r1, #3
 1535 0c2c A378     		ldrb	r3, [r4, #2]	@ zero_extendqisi2
 1536 0c2e 0193     		str	r3, [sp, #4]
 1537 0c30 0123     		movs	r3, #1
 1538 0c32 0093     		str	r3, [sp]
 1539 0c34 D2B2     		uxtb	r2, r2
 1540 0c36 C9B2     		uxtb	r1, r1
 1541 0c38 3046     		mov	r0, r6
 1542 0c3a FFF7FEFF 		bl	uc1701_rect_fill
 1543 0c3e 17E7     		b	.L95
 1544              	.L112:
 1545 0c40 6278     		ldrb	r2, [r4, #1]	@ zero_extendqisi2
 1546 0c42 013A     		subs	r2, r2, #1
 1547 0c44 2178     		ldrb	r1, [r4]	@ zero_extendqisi2
 1548 0c46 0331     		adds	r1, r1, #3
 1549 0c48 A378     		ldrb	r3, [r4, #2]	@ zero_extendqisi2
 1550 0c4a 0193     		str	r3, [sp, #4]
 1551 0c4c 0223     		movs	r3, #2
 1552 0c4e 0093     		str	r3, [sp]
 1553 0c50 0123     		movs	r3, #1
 1554 0c52 D2B2     		uxtb	r2, r2
 1555 0c54 C9B2     		uxtb	r1, r1
 1556 0c56 3046     		mov	r0, r6
 1557 0c58 FFF7FEFF 		bl	uc1701_rect_fill
 1558 0c5c 08E7     		b	.L95
 1559              	.L113:
 1560 0c5e 6278     		ldrb	r2, [r4, #1]	@ zero_extendqisi2
 1561 0c60 2178     		ldrb	r1, [r4]	@ zero_extendqisi2
 1562 0c62 0331     		adds	r1, r1, #3
 1563 0c64 A378     		ldrb	r3, [r4, #2]	@ zero_extendqisi2
 1564 0c66 0193     		str	r3, [sp, #4]
 1565 0c68 0223     		movs	r3, #2
 1566 0c6a 0093     		str	r3, [sp]
 1567 0c6c 0123     		movs	r3, #1
 1568 0c6e C9B2     		uxtb	r1, r1
 1569 0c70 3046     		mov	r0, r6
 1570 0c72 FFF7FEFF 		bl	uc1701_rect_fill
 1571 0c76 FBE6     		b	.L95
 1572              	.L114:
 1573 0c78 6278     		ldrb	r2, [r4, #1]	@ zero_extendqisi2
 1574 0c7a 0132     		adds	r2, r2, #1
 1575 0c7c 2178     		ldrb	r1, [r4]	@ zero_extendqisi2
 1576 0c7e 0231     		adds	r1, r1, #2
 1577 0c80 A378     		ldrb	r3, [r4, #2]	@ zero_extendqisi2
 1578 0c82 0193     		str	r3, [sp, #4]
 1579 0c84 0125     		movs	r5, #1
 1580 0c86 0095     		str	r5, [sp]
 1581 0c88 0223     		movs	r3, #2
 1582 0c8a D2B2     		uxtb	r2, r2
 1583 0c8c C9B2     		uxtb	r1, r1
 1584 0c8e 3046     		mov	r0, r6
 1585 0c90 FFF7FEFF 		bl	uc1701_rect_fill
 1586 0c94 6278     		ldrb	r2, [r4, #1]	@ zero_extendqisi2
 1587 0c96 0232     		adds	r2, r2, #2
 1588 0c98 2178     		ldrb	r1, [r4]	@ zero_extendqisi2
 1589 0c9a 0231     		adds	r1, r1, #2
 1590 0c9c A378     		ldrb	r3, [r4, #2]	@ zero_extendqisi2
 1591 0c9e 0193     		str	r3, [sp, #4]
 1592 0ca0 0095     		str	r5, [sp]
 1593 0ca2 2B46     		mov	r3, r5
 1594 0ca4 D2B2     		uxtb	r2, r2
 1595 0ca6 C9B2     		uxtb	r1, r1
 1596 0ca8 3046     		mov	r0, r6
 1597 0caa FFF7FEFF 		bl	uc1701_rect_fill
 1598 0cae DFE6     		b	.L95
 1599              	.L115:
 1600 0cb0 6278     		ldrb	r2, [r4, #1]	@ zero_extendqisi2
 1601 0cb2 0232     		adds	r2, r2, #2
 1602 0cb4 2178     		ldrb	r1, [r4]	@ zero_extendqisi2
 1603 0cb6 0131     		adds	r1, r1, #1
 1604 0cb8 A378     		ldrb	r3, [r4, #2]	@ zero_extendqisi2
 1605 0cba 0193     		str	r3, [sp, #4]
 1606 0cbc 0223     		movs	r3, #2
 1607 0cbe 0093     		str	r3, [sp]
 1608 0cc0 0123     		movs	r3, #1
 1609 0cc2 D2B2     		uxtb	r2, r2
 1610 0cc4 C9B2     		uxtb	r1, r1
 1611 0cc6 3046     		mov	r0, r6
 1612 0cc8 FFF7FEFF 		bl	uc1701_rect_fill
 1613 0ccc 6278     		ldrb	r2, [r4, #1]	@ zero_extendqisi2
 1614 0cce 0232     		adds	r2, r2, #2
 1615 0cd0 2178     		ldrb	r1, [r4]	@ zero_extendqisi2
 1616 0cd2 0231     		adds	r1, r1, #2
 1617 0cd4 A378     		ldrb	r3, [r4, #2]	@ zero_extendqisi2
 1618 0cd6 0193     		str	r3, [sp, #4]
 1619 0cd8 0123     		movs	r3, #1
 1620 0cda 0093     		str	r3, [sp]
 1621 0cdc D2B2     		uxtb	r2, r2
 1622 0cde C9B2     		uxtb	r1, r1
 1623 0ce0 3046     		mov	r0, r6
 1624 0ce2 FFF7FEFF 		bl	uc1701_rect_fill
 1625 0ce6 C3E6     		b	.L95
 1626              	.L116:
 1627 0ce8 6278     		ldrb	r2, [r4, #1]	@ zero_extendqisi2
 1628 0cea 0232     		adds	r2, r2, #2
 1629 0cec 2178     		ldrb	r1, [r4]	@ zero_extendqisi2
 1630 0cee 0131     		adds	r1, r1, #1
 1631 0cf0 A378     		ldrb	r3, [r4, #2]	@ zero_extendqisi2
 1632 0cf2 0193     		str	r3, [sp, #4]
 1633 0cf4 0223     		movs	r3, #2
 1634 0cf6 0093     		str	r3, [sp]
 1635 0cf8 0123     		movs	r3, #1
 1636 0cfa D2B2     		uxtb	r2, r2
 1637 0cfc C9B2     		uxtb	r1, r1
 1638 0cfe 3046     		mov	r0, r6
 1639 0d00 FFF7FEFF 		bl	uc1701_rect_fill
 1640 0d04 B4E6     		b	.L95
 1642              		.global	__aeabi_fcmpgt
 1643              		.global	__aeabi_dcmpgt
 1644              		.align	1
 1645              		.global	widget_peakmeter
 1646              		.syntax unified
 1647              		.thumb
 1648              		.thumb_func
 1649              		.fpu softvfp
 1651              	widget_peakmeter:
 1652              		@ args = 0, pretend = 0, frame = 8
 1653              		@ frame_needed = 0, uses_anonymous_args = 0
 1654 0d06 2DE9F043 		push	{r4, r5, r6, r7, r8, r9, lr}
 1655 0d0a 85B0     		sub	sp, sp, #20
 1656 0d0c 0746     		mov	r7, r0
 1657 0d0e 0C46     		mov	r4, r1
 1658 0d10 1646     		mov	r6, r2
 1659 0d12 0423     		movs	r3, #4
 1660 0d14 8DF80C30 		strb	r3, [sp, #12]
 1661 0d18 1E23     		movs	r3, #30
 1662 0d1a 8DF80D30 		strb	r3, [sp, #13]
 1663 0d1e 3923     		movs	r3, #57
 1664 0d20 8DF80E30 		strb	r3, [sp, #14]
 1665 0d24 5323     		movs	r3, #83
 1666 0d26 8DF80F30 		strb	r3, [sp, #15]
 1667 0d2a 1568     		ldr	r5, [r2]	@ float
 1668 0d2c 0021     		movs	r1, #0
 1669 0d2e 2846     		mov	r0, r5
 1670 0d30 FFF7FEFF 		bl	__aeabi_fcmpgt
 1671 0d34 28B1     		cbz	r0, .L162
 1672 0d36 0025     		movs	r5, #0
 1673              	.L124:
 1674 0d38 9349     		ldr	r1, .L172
 1675 0d3a 2846     		mov	r0, r5
 1676 0d3c FFF7FEFF 		bl	__aeabi_fadd
 1677 0d40 10E0     		b	.L126
 1678              	.L162:
 1679 0d42 9249     		ldr	r1, .L172+4
 1680 0d44 2846     		mov	r0, r5
 1681 0d46 FFF7FEFF 		bl	__aeabi_fcmplt
 1682 0d4a 08B1     		cbz	r0, .L163
 1683 0d4c 8F4D     		ldr	r5, .L172+4
 1684 0d4e F3E7     		b	.L124
 1685              	.L163:
 1686 0d50 0021     		movs	r1, #0
 1687 0d52 2846     		mov	r0, r5
 1688 0d54 FFF7FEFF 		bl	__aeabi_fcmpgt
 1689 0d58 0028     		cmp	r0, #0
 1690 0d5a EDD0     		beq	.L124
 1691 0d5c 2946     		mov	r1, r5
 1692 0d5e 8A48     		ldr	r0, .L172
 1693 0d60 FFF7FEFF 		bl	__aeabi_fsub
 1694              	.L126:
 1695 0d64 8A49     		ldr	r1, .L172+8
 1696 0d66 FFF7FEFF 		bl	__aeabi_fmul
 1697 0d6a 8749     		ldr	r1, .L172
 1698 0d6c FFF7FEFF 		bl	__aeabi_fdiv
 1699 0d70 0546     		mov	r5, r0
 1700 0d72 0021     		movs	r1, #0
 1701 0d74 FFF7FEFF 		bl	__aeabi_fcmplt
 1702 0d78 0028     		cmp	r0, #0
 1703 0d7a 5CD1     		bne	.L164
 1704 0d7c 2846     		mov	r0, r5
 1705 0d7e FFF7FEFF 		bl	__aeabi_f2d
 1706 0d82 0022     		movs	r2, #0
 1707 0d84 834B     		ldr	r3, .L172+12
 1708 0d86 FFF7FEFF 		bl	__aeabi_dadd
 1709 0d8a FFF7FEFF 		bl	floor
 1710 0d8e FFF7FEFF 		bl	__aeabi_d2uiz
 1711 0d92 C5B2     		uxtb	r5, r0
 1712              	.L129:
 1713 0d94 002C     		cmp	r4, #0
 1714 0d96 5BD0     		beq	.L165
 1715 0d98 012C     		cmp	r4, #1
 1716 0d9a 64D0     		beq	.L166
 1717 0d9c 022C     		cmp	r4, #2
 1718 0d9e 6DD0     		beq	.L167
 1719 0da0 032C     		cmp	r4, #3
 1720 0da2 76D0     		beq	.L168
 1721              	.L131:
 1722 0da4 162D     		cmp	r5, #22
 1723 0da6 7FD8     		bhi	.L169
 1724              	.L134:
 1725 0da8 002D     		cmp	r5, #0
 1726 0daa 40F08F80 		bne	.L170
 1727              	.L135:
 1728 0dae 7568     		ldr	r5, [r6, #4]	@ float
 1729 0db0 3168     		ldr	r1, [r6]	@ float
 1730 0db2 2846     		mov	r0, r5
 1731 0db4 FFF7FEFF 		bl	__aeabi_fcmpgt
 1732 0db8 0028     		cmp	r0, #0
 1733 0dba 39D0     		beq	.L123
 1734 0dbc 7449     		ldr	r1, .L172+8
 1735 0dbe 2846     		mov	r0, r5
 1736 0dc0 FFF7FEFF 		bl	__aeabi_fmul
 1737 0dc4 7049     		ldr	r1, .L172
 1738 0dc6 FFF7FEFF 		bl	__aeabi_fdiv
 1739 0dca 0546     		mov	r5, r0
 1740 0dcc 0021     		movs	r1, #0
 1741 0dce FFF7FEFF 		bl	__aeabi_fcmplt
 1742 0dd2 0028     		cmp	r0, #0
 1743 0dd4 40F08C80 		bne	.L171
 1744 0dd8 2846     		mov	r0, r5
 1745 0dda FFF7FEFF 		bl	__aeabi_f2d
 1746 0dde 0022     		movs	r2, #0
 1747 0de0 6C4B     		ldr	r3, .L172+12
 1748 0de2 FFF7FEFF 		bl	__aeabi_dadd
 1749 0de6 FFF7FEFF 		bl	floor
 1750 0dea 8046     		mov	r8, r0
 1751 0dec 8946     		mov	r9, r1
 1752 0dee 0022     		movs	r2, #0
 1753 0df0 0023     		movs	r3, #0
 1754 0df2 FFF7FEFF 		bl	__aeabi_dcmpgt
 1755 0df6 0028     		cmp	r0, #0
 1756 0df8 00F0AC80 		beq	.L158
 1757 0dfc 0021     		movs	r1, #0
 1758 0dfe 2846     		mov	r0, r5
 1759 0e00 FFF7FEFF 		bl	__aeabi_fcmplt
 1760 0e04 0028     		cmp	r0, #0
 1761 0e06 40F09480 		bne	.L140
 1762 0e0a 0022     		movs	r2, #0
 1763 0e0c 624B     		ldr	r3, .L172+16
 1764 0e0e 4046     		mov	r0, r8
 1765 0e10 4946     		mov	r1, r9
 1766 0e12 FFF7FEFF 		bl	__aeabi_dadd
 1767 0e16 FFF7FEFF 		bl	__aeabi_d2uiz
 1768 0e1a C2B2     		uxtb	r2, r0
 1769              	.L146:
 1770 0e1c 04AB     		add	r3, sp, #16
 1771 0e1e 1C44     		add	r4, r4, r3
 1772 0e20 14F8041C 		ldrb	r1, [r4, #-4]	@ zero_extendqisi2
 1773 0e24 0123     		movs	r3, #1
 1774 0e26 0093     		str	r3, [sp]
 1775 0e28 1023     		movs	r3, #16
 1776 0e2a 3846     		mov	r0, r7
 1777 0e2c FFF7FEFF 		bl	uc1701_hline
 1778              	.L123:
 1779 0e30 05B0     		add	sp, sp, #20
 1780              		@ sp needed
 1781 0e32 BDE8F083 		pop	{r4, r5, r6, r7, r8, r9, pc}
 1782              	.L164:
 1783 0e36 2846     		mov	r0, r5
 1784 0e38 FFF7FEFF 		bl	__aeabi_f2d
 1785 0e3c 0022     		movs	r2, #0
 1786 0e3e 554B     		ldr	r3, .L172+12
 1787 0e40 FFF7FEFF 		bl	__aeabi_dsub
 1788 0e44 FFF7FEFF 		bl	ceil
 1789 0e48 FFF7FEFF 		bl	__aeabi_d2uiz
 1790 0e4c C5B2     		uxtb	r5, r0
 1791 0e4e A1E7     		b	.L129
 1792              	.L165:
 1793 0e50 0023     		movs	r3, #0
 1794 0e52 0193     		str	r3, [sp, #4]
 1795 0e54 2A23     		movs	r3, #42
 1796 0e56 0093     		str	r3, [sp]
 1797 0e58 1023     		movs	r3, #16
 1798 0e5a 0D22     		movs	r2, #13
 1799 0e5c 0421     		movs	r1, #4
 1800 0e5e 3846     		mov	r0, r7
 1801 0e60 FFF7FEFF 		bl	uc1701_rect_fill
 1802 0e64 9EE7     		b	.L131
 1803              	.L166:
 1804 0e66 0023     		movs	r3, #0
 1805 0e68 0193     		str	r3, [sp, #4]
 1806 0e6a 2A23     		movs	r3, #42
 1807 0e6c 0093     		str	r3, [sp]
 1808 0e6e 1023     		movs	r3, #16
 1809 0e70 0D22     		movs	r2, #13
 1810 0e72 1E21     		movs	r1, #30
 1811 0e74 3846     		mov	r0, r7
 1812 0e76 FFF7FEFF 		bl	uc1701_rect_fill
 1813 0e7a 93E7     		b	.L131
 1814              	.L167:
 1815 0e7c 0023     		movs	r3, #0
 1816 0e7e 0193     		str	r3, [sp, #4]
 1817 0e80 2A23     		movs	r3, #42
 1818 0e82 0093     		str	r3, [sp]
 1819 0e84 1023     		movs	r3, #16
 1820 0e86 0D22     		movs	r2, #13
 1821 0e88 3921     		movs	r1, #57
 1822 0e8a 3846     		mov	r0, r7
 1823 0e8c FFF7FEFF 		bl	uc1701_rect_fill
 1824 0e90 88E7     		b	.L131
 1825              	.L168:
 1826 0e92 0023     		movs	r3, #0
 1827 0e94 0193     		str	r3, [sp, #4]
 1828 0e96 2A23     		movs	r3, #42
 1829 0e98 0093     		str	r3, [sp]
 1830 0e9a 1023     		movs	r3, #16
 1831 0e9c 0D22     		movs	r2, #13
 1832 0e9e 5321     		movs	r1, #83
 1833 0ea0 3846     		mov	r0, r7
 1834 0ea2 FFF7FEFF 		bl	uc1701_rect_fill
 1835 0ea6 7DE7     		b	.L131
 1836              	.L169:
 1837 0ea8 A5F11603 		sub	r3, r5, #22
 1838 0eac DBB2     		uxtb	r3, r3
 1839 0eae C3F12102 		rsb	r2, r3, #33
 1840 0eb2 04A9     		add	r1, sp, #16
 1841 0eb4 2144     		add	r1, r1, r4
 1842 0eb6 11F8041C 		ldrb	r1, [r1, #-4]	@ zero_extendqisi2
 1843 0eba 0120     		movs	r0, #1
 1844 0ebc 0190     		str	r0, [sp, #4]
 1845 0ebe 0093     		str	r3, [sp]
 1846 0ec0 1023     		movs	r3, #16
 1847 0ec2 D2B2     		uxtb	r2, r2
 1848 0ec4 3846     		mov	r0, r7
 1849 0ec6 FFF7FEFF 		bl	uc1701_rect_fill
 1850 0eca 6DE7     		b	.L134
 1851              	.L170:
 1852 0ecc 162D     		cmp	r5, #22
 1853 0ece 28BF     		it	cs
 1854 0ed0 1625     		movcs	r5, #22
 1855 0ed2 C5F13702 		rsb	r2, r5, #55
 1856 0ed6 04AB     		add	r3, sp, #16
 1857 0ed8 2344     		add	r3, r3, r4
 1858 0eda 13F8041C 		ldrb	r1, [r3, #-4]	@ zero_extendqisi2
 1859 0ede 0423     		movs	r3, #4
 1860 0ee0 0193     		str	r3, [sp, #4]
 1861 0ee2 0095     		str	r5, [sp]
 1862 0ee4 1023     		movs	r3, #16
 1863 0ee6 D2B2     		uxtb	r2, r2
 1864 0ee8 3846     		mov	r0, r7
 1865 0eea FFF7FEFF 		bl	uc1701_rect_fill
 1866 0eee 5EE7     		b	.L135
 1867              	.L171:
 1868 0ef0 2846     		mov	r0, r5
 1869 0ef2 FFF7FEFF 		bl	__aeabi_f2d
 1870 0ef6 0022     		movs	r2, #0
 1871 0ef8 264B     		ldr	r3, .L172+12
 1872 0efa FFF7FEFF 		bl	__aeabi_dsub
 1873 0efe FFF7FEFF 		bl	ceil
 1874 0f02 0022     		movs	r2, #0
 1875 0f04 0023     		movs	r3, #0
 1876 0f06 FFF7FEFF 		bl	__aeabi_dcmpgt
 1877 0f0a 90B9     		cbnz	r0, .L140
 1878              	.L141:
 1879 0f0c 2846     		mov	r0, r5
 1880 0f0e FFF7FEFF 		bl	__aeabi_f2d
 1881 0f12 0022     		movs	r2, #0
 1882 0f14 1F4B     		ldr	r3, .L172+12
 1883 0f16 FFF7FEFF 		bl	__aeabi_dsub
 1884 0f1a FFF7FEFF 		bl	ceil
 1885 0f1e 0246     		mov	r2, r0
 1886 0f20 0B46     		mov	r3, r1
 1887 0f22 0020     		movs	r0, #0
 1888 0f24 1C49     		ldr	r1, .L172+16
 1889 0f26 FFF7FEFF 		bl	__aeabi_dsub
 1890 0f2a FFF7FEFF 		bl	__aeabi_d2uiz
 1891 0f2e C2B2     		uxtb	r2, r0
 1892 0f30 74E7     		b	.L146
 1893              	.L140:
 1894 0f32 2846     		mov	r0, r5
 1895 0f34 FFF7FEFF 		bl	__aeabi_f2d
 1896 0f38 0022     		movs	r2, #0
 1897 0f3a 164B     		ldr	r3, .L172+12
 1898 0f3c FFF7FEFF 		bl	__aeabi_dsub
 1899 0f40 FFF7FEFF 		bl	ceil
 1900 0f44 0022     		movs	r2, #0
 1901 0f46 144B     		ldr	r3, .L172+16
 1902 0f48 FFF7FEFF 		bl	__aeabi_dadd
 1903 0f4c FFF7FEFF 		bl	__aeabi_d2uiz
 1904 0f50 C2B2     		uxtb	r2, r0
 1905 0f52 63E7     		b	.L146
 1906              	.L158:
 1907 0f54 0021     		movs	r1, #0
 1908 0f56 2846     		mov	r0, r5
 1909 0f58 FFF7FEFF 		bl	__aeabi_fcmplt
 1910 0f5c 0028     		cmp	r0, #0
 1911 0f5e D5D1     		bne	.L141
 1912 0f60 2846     		mov	r0, r5
 1913 0f62 FFF7FEFF 		bl	__aeabi_f2d
 1914 0f66 0022     		movs	r2, #0
 1915 0f68 0A4B     		ldr	r3, .L172+12
 1916 0f6a FFF7FEFF 		bl	__aeabi_dadd
 1917 0f6e FFF7FEFF 		bl	floor
 1918 0f72 0246     		mov	r2, r0
 1919 0f74 0B46     		mov	r3, r1
 1920 0f76 0020     		movs	r0, #0
 1921 0f78 0749     		ldr	r1, .L172+16
 1922 0f7a FFF7FEFF 		bl	__aeabi_dsub
 1923 0f7e FFF7FEFF 		bl	__aeabi_d2uiz
 1924 0f82 C2B2     		uxtb	r2, r0
 1925 0f84 4AE7     		b	.L146
 1926              	.L173:
 1927 0f86 00BF     		.align	2
 1928              	.L172:
 1929 0f88 0000F041 		.word	1106247680
 1930 0f8c 0000F0C1 		.word	-1041235968
 1931 0f90 00002842 		.word	1109917696
 1932 0f94 0000E03F 		.word	1071644672
 1933 0f98 00002A40 		.word	1076494336
 1935              		.align	1
 1936              		.global	widget_tuner
 1937              		.syntax unified
 1938              		.thumb
 1939              		.thumb_func
 1940              		.fpu softvfp
 1942              	widget_tuner:
 1943              		@ args = 0, pretend = 0, frame = 136
 1944              		@ frame_needed = 0, uses_anonymous_args = 0
 1945 0f9c 2DE9F04F 		push	{r4, r5, r6, r7, r8, r9, r10, fp, lr}
 1946 0fa0 A5B0     		sub	sp, sp, #148
 1947 0fa2 0646     		mov	r6, r0
 1948 0fa4 8846     		mov	r8, r1
 1949 0fa6 0024     		movs	r4, #0
 1950 0fa8 0194     		str	r4, [sp, #4]
 1951 0faa 0925     		movs	r5, #9
 1952 0fac 0095     		str	r5, [sp]
 1953 0fae 8023     		movs	r3, #128
 1954 0fb0 2246     		mov	r2, r4
 1955 0fb2 2146     		mov	r1, r4
 1956 0fb4 FFF7FEFF 		bl	uc1701_rect_fill
 1957 0fb8 4FF0020A 		mov	r10, #2
 1958 0fbc CDF800A0 		str	r10, [sp]
 1959 0fc0 8023     		movs	r3, #128
 1960 0fc2 2A46     		mov	r2, r5
 1961 0fc4 2146     		mov	r1, r4
 1962 0fc6 3046     		mov	r0, r6
 1963 0fc8 FFF7FEFF 		bl	uc1701_hline
 1964 0fcc 0125     		movs	r5, #1
 1965 0fce 8DF87C50 		strb	r5, [sp, #124]
 1966 0fd2 8DF88C40 		strb	r4, [sp, #140]
 1967 0fd6 A44F     		ldr	r7, .L189
 1968 0fd8 2197     		str	r7, [sp, #132]
 1969 0fda 8DF88840 		strb	r4, [sp, #136]
 1970 0fde 8DF88940 		strb	r4, [sp, #137]
 1971 0fe2 8DF88B40 		strb	r4, [sp, #139]
 1972 0fe6 8DF88A40 		strb	r4, [sp, #138]
 1973 0fea 8DF87B40 		strb	r4, [sp, #123]
 1974 0fee 8DF87A40 		strb	r4, [sp, #122]
 1975 0ff2 9E4B     		ldr	r3, .L189+4
 1976 0ff4 2093     		str	r3, [sp, #128]
 1977 0ff6 0323     		movs	r3, #3
 1978 0ff8 8DF87D30 		strb	r3, [sp, #125]
 1979 0ffc 8DF87940 		strb	r4, [sp, #121]
 1980 1000 24A9     		add	r1, sp, #144
 1981 1002 01F8184D 		strb	r4, [r1, #-24]!
 1982 1006 3046     		mov	r0, r6
 1983 1008 FFF7FEFF 		bl	widget_textbox
 1984 100c 0194     		str	r4, [sp, #4]
 1985 100e 0C23     		movs	r3, #12
 1986 1010 0093     		str	r3, [sp]
 1987 1012 8023     		movs	r3, #128
 1988 1014 3322     		movs	r2, #51
 1989 1016 2146     		mov	r1, r4
 1990 1018 3046     		mov	r0, r6
 1991 101a FFF7FEFF 		bl	uc1701_rect_fill
 1992 101e 0DF16809 		add	r9, sp, #104
 1993 1022 5346     		mov	r3, r10
 1994 1024 1022     		movs	r2, #16
 1995 1026 4946     		mov	r1, r9
 1996 1028 D8F80000 		ldr	r0, [r8]	@ float
 1997 102c FFF7FEFF 		bl	float_to_str
 1998 1030 C0B2     		uxtb	r0, r0
 1999 1032 24AB     		add	r3, sp, #144
 2000 1034 0344     		add	r3, r3, r0
 2001 1036 4822     		movs	r2, #72
 2002 1038 03F8282C 		strb	r2, [r3, #-40]
 2003 103c 4319     		adds	r3, r0, r5
 2004 103e DBB2     		uxtb	r3, r3
 2005 1040 24AA     		add	r2, sp, #144
 2006 1042 1344     		add	r3, r3, r2
 2007 1044 7A22     		movs	r2, #122
 2008 1046 03F8282C 		strb	r2, [r3, #-40]
 2009 104a 5044     		add	r0, r0, r10
 2010 104c C0B2     		uxtb	r0, r0
 2011 104e 24AB     		add	r3, sp, #144
 2012 1050 1844     		add	r0, r0, r3
 2013 1052 00F8284C 		strb	r4, [r0, #-40]
 2014 1056 8DF84450 		strb	r5, [sp, #68]
 2015 105a 8DF85440 		strb	r4, [sp, #84]
 2016 105e 0A23     		movs	r3, #10
 2017 1060 8DF84530 		strb	r3, [sp, #69]
 2018 1064 4FF0330A 		mov	r10, #51
 2019 1068 8DF841A0 		strb	r10, [sp, #65]
 2020 106c 8DF84340 		strb	r4, [sp, #67]
 2021 1070 8DF84240 		strb	r4, [sp, #66]
 2022 1074 8DF85040 		strb	r4, [sp, #80]
 2023 1078 8DF85140 		strb	r4, [sp, #81]
 2024 107c 8DF85350 		strb	r5, [sp, #83]
 2025 1080 8DF85240 		strb	r4, [sp, #82]
 2026 1084 07F5C277 		add	r7, r7, #388
 2027 1088 1397     		str	r7, [sp, #76]
 2028 108a CDF84890 		str	r9, [sp, #72]
 2029 108e 10A9     		add	r1, sp, #64
 2030 1090 3046     		mov	r0, r6
 2031 1092 FFF7FEFF 		bl	widget_textbox
 2032 1096 4923     		movs	r3, #73
 2033 1098 8DF85830 		strb	r3, [sp, #88]
 2034 109c 4E23     		movs	r3, #78
 2035 109e 8DF85930 		strb	r3, [sp, #89]
 2036 10a2 5023     		movs	r3, #80
 2037 10a4 8DF85A30 		strb	r3, [sp, #90]
 2038 10a8 5523     		movs	r3, #85
 2039 10aa 8DF85B30 		strb	r3, [sp, #91]
 2040 10ae 5423     		movs	r3, #84
 2041 10b0 8DF85C30 		strb	r3, [sp, #92]
 2042 10b4 2023     		movs	r3, #32
 2043 10b6 8DF85D30 		strb	r3, [sp, #93]
 2044 10ba 98F80930 		ldrb	r3, [r8, #9]	@ zero_extendqisi2
 2045 10be 3033     		adds	r3, r3, #48
 2046 10c0 8DF85E30 		strb	r3, [sp, #94]
 2047 10c4 8DF85F40 		strb	r4, [sp, #95]
 2048 10c8 8DF82C50 		strb	r5, [sp, #44]
 2049 10cc 8DF83C40 		strb	r4, [sp, #60]
 2050 10d0 0B23     		movs	r3, #11
 2051 10d2 8DF82D30 		strb	r3, [sp, #45]
 2052 10d6 8DF829A0 		strb	r10, [sp, #41]
 2053 10da 8DF82B40 		strb	r4, [sp, #43]
 2054 10de 8DF82A40 		strb	r4, [sp, #42]
 2055 10e2 8DF83840 		strb	r4, [sp, #56]
 2056 10e6 8DF83940 		strb	r4, [sp, #57]
 2057 10ea 8DF83B40 		strb	r4, [sp, #59]
 2058 10ee 8DF83A50 		strb	r5, [sp, #58]
 2059 10f2 0D97     		str	r7, [sp, #52]
 2060 10f4 16AB     		add	r3, sp, #88
 2061 10f6 0C93     		str	r3, [sp, #48]
 2062 10f8 0AA9     		add	r1, sp, #40
 2063 10fa 3046     		mov	r0, r6
 2064 10fc FFF7FEFF 		bl	widget_textbox
 2065 1100 98F90830 		ldrsb	r3, [r8, #8]
 2066 1104 002B     		cmp	r3, #0
 2067 1106 B8BF     		it	lt
 2068 1108 5B42     		rsblt	r3, r3, #0
 2069 110a 0533     		adds	r3, r3, #5
 2070 110c 584A     		ldr	r2, .L189+8
 2071 110e 82FB0312 		smull	r1, r2, r2, r3
 2072 1112 DB17     		asrs	r3, r3, #31
 2073 1114 C3EBA203 		rsb	r3, r3, r2, asr #2
 2074 1118 0393     		str	r3, [sp, #12]
 2075 111a 5FFA83FB 		uxtb	fp, r3
 2076 111e 1527     		movs	r7, #21
 2077 1120 4FF00409 		mov	r9, #4
 2078 1124 AA46     		mov	r10, r5
 2079 1126 16E0     		b	.L177
 2080              	.L175:
 2081 1128 0023     		movs	r3, #0
 2082 112a 0193     		str	r3, [sp, #4]
 2083 112c 0097     		str	r7, [sp]
 2084 112e 4B46     		mov	r3, r9
 2085 1130 3A46     		mov	r2, r7
 2086 1132 2946     		mov	r1, r5
 2087 1134 3046     		mov	r0, r6
 2088 1136 FFF7FEFF 		bl	uc1701_rect_fill
 2089              	.L176:
 2090 113a CDF804A0 		str	r10, [sp, #4]
 2091 113e 0097     		str	r7, [sp]
 2092 1140 4B46     		mov	r3, r9
 2093 1142 3A46     		mov	r2, r7
 2094 1144 2946     		mov	r1, r5
 2095 1146 3046     		mov	r0, r6
 2096 1148 FFF7FEFF 		bl	uc1701_rect
 2097 114c 0735     		adds	r5, r5, #7
 2098 114e EDB2     		uxtb	r5, r5
 2099 1150 0134     		adds	r4, r4, #1
 2100 1152 242D     		cmp	r5, #36
 2101 1154 13D0     		beq	.L186
 2102              	.L177:
 2103 1156 98F90830 		ldrsb	r3, [r8, #8]
 2104 115a 002B     		cmp	r3, #0
 2105 115c E4DA     		bge	.L175
 2106 115e 9DF80C30 		ldrb	r3, [sp, #12]	@ zero_extendqisi2
 2107 1162 C3F10503 		rsb	r3, r3, #5
 2108 1166 A342     		cmp	r3, r4
 2109 1168 DEDC     		bgt	.L175
 2110 116a CDF804A0 		str	r10, [sp, #4]
 2111 116e 0097     		str	r7, [sp]
 2112 1170 4B46     		mov	r3, r9
 2113 1172 3A46     		mov	r2, r7
 2114 1174 2946     		mov	r1, r5
 2115 1176 3046     		mov	r0, r6
 2116 1178 FFF7FEFF 		bl	uc1701_rect_fill
 2117 117c DDE7     		b	.L176
 2118              	.L186:
 2119 117e 0027     		movs	r7, #0
 2120 1180 5F24     		movs	r4, #95
 2121 1182 1525     		movs	r5, #21
 2122 1184 4FF00409 		mov	r9, #4
 2123 1188 4FF0010A 		mov	r10, #1
 2124 118c 16E0     		b	.L180
 2125              	.L178:
 2126 118e 0023     		movs	r3, #0
 2127 1190 0193     		str	r3, [sp, #4]
 2128 1192 0095     		str	r5, [sp]
 2129 1194 4B46     		mov	r3, r9
 2130 1196 2A46     		mov	r2, r5
 2131 1198 2146     		mov	r1, r4
 2132 119a 3046     		mov	r0, r6
 2133 119c FFF7FEFF 		bl	uc1701_rect_fill
 2134              	.L179:
 2135 11a0 CDF804A0 		str	r10, [sp, #4]
 2136 11a4 0095     		str	r5, [sp]
 2137 11a6 4B46     		mov	r3, r9
 2138 11a8 2A46     		mov	r2, r5
 2139 11aa 2146     		mov	r1, r4
 2140 11ac 3046     		mov	r0, r6
 2141 11ae FFF7FEFF 		bl	uc1701_rect
 2142 11b2 0734     		adds	r4, r4, #7
 2143 11b4 E4B2     		uxtb	r4, r4
 2144 11b6 0137     		adds	r7, r7, #1
 2145 11b8 822C     		cmp	r4, #130
 2146 11ba 10D0     		beq	.L187
 2147              	.L180:
 2148 11bc 98F90830 		ldrsb	r3, [r8, #8]
 2149 11c0 002B     		cmp	r3, #0
 2150 11c2 E4DD     		ble	.L178
 2151 11c4 FBB2     		uxtb	r3, r7
 2152 11c6 5B45     		cmp	r3, fp
 2153 11c8 E1D2     		bcs	.L178
 2154 11ca CDF804A0 		str	r10, [sp, #4]
 2155 11ce 0095     		str	r5, [sp]
 2156 11d0 4B46     		mov	r3, r9
 2157 11d2 2A46     		mov	r2, r5
 2158 11d4 2146     		mov	r1, r4
 2159 11d6 3046     		mov	r0, r6
 2160 11d8 FFF7FEFF 		bl	uc1701_rect_fill
 2161 11dc E0E7     		b	.L179
 2162              	.L187:
 2163 11de 0024     		movs	r4, #0
 2164 11e0 0194     		str	r4, [sp, #4]
 2165 11e2 1D23     		movs	r3, #29
 2166 11e4 0093     		str	r3, [sp]
 2167 11e6 3823     		movs	r3, #56
 2168 11e8 1122     		movs	r2, #17
 2169 11ea 2421     		movs	r1, #36
 2170 11ec 3046     		mov	r0, r6
 2171 11ee FFF7FEFF 		bl	uc1701_rect_fill
 2172 11f2 0123     		movs	r3, #1
 2173 11f4 8DF81430 		strb	r3, [sp, #20]
 2174 11f8 8DF82440 		strb	r4, [sp, #36]
 2175 11fc 0C23     		movs	r3, #12
 2176 11fe 8DF81530 		strb	r3, [sp, #21]
 2177 1202 8DF82040 		strb	r4, [sp, #32]
 2178 1206 0223     		movs	r3, #2
 2179 1208 8DF82130 		strb	r3, [sp, #33]
 2180 120c 8DF82340 		strb	r4, [sp, #35]
 2181 1210 8DF82240 		strb	r4, [sp, #34]
 2182 1214 1223     		movs	r3, #18
 2183 1216 8DF81130 		strb	r3, [sp, #17]
 2184 121a 8DF81340 		strb	r4, [sp, #19]
 2185 121e 8DF81240 		strb	r4, [sp, #18]
 2186 1222 144B     		ldr	r3, .L189+12
 2187 1224 0793     		str	r3, [sp, #28]
 2188 1226 D8F80430 		ldr	r3, [r8, #4]
 2189 122a 0693     		str	r3, [sp, #24]
 2190 122c 04A9     		add	r1, sp, #16
 2191 122e 3046     		mov	r0, r6
 2192 1230 FFF7FEFF 		bl	widget_textbox
 2193 1234 BBF1000F 		cmp	fp, #0
 2194 1238 0CD0     		beq	.L188
 2195 123a 0123     		movs	r3, #1
 2196 123c 0193     		str	r3, [sp, #4]
 2197 123e 1D23     		movs	r3, #29
 2198 1240 0093     		str	r3, [sp]
 2199 1242 3823     		movs	r3, #56
 2200 1244 1122     		movs	r2, #17
 2201 1246 2421     		movs	r1, #36
 2202 1248 3046     		mov	r0, r6
 2203 124a FFF7FEFF 		bl	uc1701_rect
 2204              	.L174:
 2205 124e 25B0     		add	sp, sp, #148
 2206              		@ sp needed
 2207 1250 BDE8F08F 		pop	{r4, r5, r6, r7, r8, r9, r10, fp, pc}
 2208              	.L188:
 2209 1254 1D23     		movs	r3, #29
 2210 1256 0093     		str	r3, [sp]
 2211 1258 3823     		movs	r3, #56
 2212 125a 1122     		movs	r2, #17
 2213 125c 2421     		movs	r1, #36
 2214 125e 3046     		mov	r0, r6
 2215 1260 FFF7FEFF 		bl	uc1701_rect_invert
 2216 1264 F3E7     		b	.L174
 2217              	.L190:
 2218 1266 00BF     		.align	2
 2219              	.L189:
 2220 1268 00000000 		.word	.LANCHOR0
 2221 126c 00000000 		.word	.LC1
 2222 1270 67666666 		.word	1717986919
 2223 1274 F4050000 		.word	.LANCHOR0+1524
 2225              		.align	1
 2226              		.global	widget_popup
 2227              		.syntax unified
 2228              		.thumb
 2229              		.thumb_func
 2230              		.fpu softvfp
 2232              	widget_popup:
 2233              		@ args = 0, pretend = 0, frame = 48
 2234              		@ frame_needed = 0, uses_anonymous_args = 0
 2235 1278 2DE9F04F 		push	{r4, r5, r6, r7, r8, r9, r10, fp, lr}
 2236 127c 8FB0     		sub	sp, sp, #60
 2237 127e 0646     		mov	r6, r0
 2238 1280 0C46     		mov	r4, r1
 2239 1282 8B78     		ldrb	r3, [r1, #2]	@ zero_extendqisi2
 2240 1284 4A78     		ldrb	r2, [r1, #1]	@ zero_extendqisi2
 2241 1286 0978     		ldrb	r1, [r1]	@ zero_extendqisi2
 2242 1288 0025     		movs	r5, #0
 2243 128a 0195     		str	r5, [sp, #4]
 2244 128c E778     		ldrb	r7, [r4, #3]	@ zero_extendqisi2
 2245 128e 0097     		str	r7, [sp]
 2246 1290 FFF7FEFF 		bl	uc1701_rect_fill
 2247 1294 A378     		ldrb	r3, [r4, #2]	@ zero_extendqisi2
 2248 1296 6278     		ldrb	r2, [r4, #1]	@ zero_extendqisi2
 2249 1298 2178     		ldrb	r1, [r4]	@ zero_extendqisi2
 2250 129a 0127     		movs	r7, #1
 2251 129c 0197     		str	r7, [sp, #4]
 2252 129e E078     		ldrb	r0, [r4, #3]	@ zero_extendqisi2
 2253 12a0 0090     		str	r0, [sp]
 2254 12a2 3046     		mov	r0, r6
 2255 12a4 FFF7FEFF 		bl	uc1701_rect
 2256 12a8 8DF82470 		strb	r7, [sp, #36]
 2257 12ac 8DF83450 		strb	r5, [sp, #52]
 2258 12b0 0323     		movs	r3, #3
 2259 12b2 8DF82530 		strb	r3, [sp, #37]
 2260 12b6 6368     		ldr	r3, [r4, #4]
 2261 12b8 0B93     		str	r3, [sp, #44]
 2262 12ba 8DF83070 		strb	r7, [sp, #48]
 2263 12be 8DF83150 		strb	r5, [sp, #49]
 2264 12c2 8DF83350 		strb	r5, [sp, #51]
 2265 12c6 8DF83250 		strb	r5, [sp, #50]
 2266 12ca 0523     		movs	r3, #5
 2267 12cc 8DF82330 		strb	r3, [sp, #35]
 2268 12d0 8023     		movs	r3, #128
 2269 12d2 8DF82230 		strb	r3, [sp, #34]
 2270 12d6 A368     		ldr	r3, [r4, #8]
 2271 12d8 0A93     		str	r3, [sp, #40]
 2272 12da 08A9     		add	r1, sp, #32
 2273 12dc 3046     		mov	r0, r6
 2274 12de FFF7FEFF 		bl	widget_textbox
 2275 12e2 A378     		ldrb	r3, [r4, #2]	@ zero_extendqisi2
 2276 12e4 023B     		subs	r3, r3, #2
 2277 12e6 6278     		ldrb	r2, [r4, #1]	@ zero_extendqisi2
 2278 12e8 3A44     		add	r2, r2, r7
 2279 12ea 2178     		ldrb	r1, [r4]	@ zero_extendqisi2
 2280 12ec 3944     		add	r1, r1, r7
 2281 12ee 0620     		movs	r0, #6
 2282 12f0 0090     		str	r0, [sp]
 2283 12f2 DBB2     		uxtb	r3, r3
 2284 12f4 D2B2     		uxtb	r2, r2
 2285 12f6 C9B2     		uxtb	r1, r1
 2286 12f8 3046     		mov	r0, r6
 2287 12fa FFF7FEFF 		bl	uc1701_rect_invert
 2288 12fe 8DF80C70 		strb	r7, [sp, #12]
 2289 1302 8DF81C70 		strb	r7, [sp, #28]
 2290 1306 0923     		movs	r3, #9
 2291 1308 8DF80D30 		strb	r3, [sp, #13]
 2292 130c 8DF81850 		strb	r5, [sp, #24]
 2293 1310 8DF81950 		strb	r5, [sp, #25]
 2294 1314 8DF81B50 		strb	r5, [sp, #27]
 2295 1318 8DF81A50 		strb	r5, [sp, #26]
 2296 131c 6268     		ldr	r2, [r4, #4]
 2297 131e 0592     		str	r2, [sp, #20]
 2298 1320 2378     		ldrb	r3, [r4]	@ zero_extendqisi2
 2299 1322 0233     		adds	r3, r3, #2
 2300 1324 8DF80830 		strb	r3, [sp, #8]
 2301 1328 D378     		ldrb	r3, [r2, #3]	@ zero_extendqisi2
 2302 132a 6278     		ldrb	r2, [r4, #1]	@ zero_extendqisi2
 2303 132c 0332     		adds	r2, r2, #3
 2304 132e 1A44     		add	r2, r2, r3
 2305 1330 8DF80920 		strb	r2, [sp, #9]
 2306 1334 A278     		ldrb	r2, [r4, #2]	@ zero_extendqisi2
 2307 1336 043A     		subs	r2, r2, #4
 2308 1338 8DF80A20 		strb	r2, [sp, #10]
 2309 133c 3B44     		add	r3, r3, r7
 2310 133e DB00     		lsls	r3, r3, #3
 2311 1340 8DF80B30 		strb	r3, [sp, #11]
 2312 1344 E368     		ldr	r3, [r4, #12]
 2313 1346 0493     		str	r3, [sp, #16]
 2314 1348 02A9     		add	r1, sp, #8
 2315 134a 3046     		mov	r0, r6
 2316 134c FFF7FEFF 		bl	widget_textbox
 2317 1350 227C     		ldrb	r2, [r4, #16]	@ zero_extendqisi2
 2318 1352 032A     		cmp	r2, #3
 2319 1354 00F2AC80 		bhi	.L192
 2320 1358 DFE802F0 		tbb	[pc, r2]
 2321              	.L194:
 2322 135c 02       		.byte	(.L193-.L194)/2
 2323 135d 44       		.byte	(.L195-.L194)/2
 2324 135e 02       		.byte	(.L193-.L194)/2
 2325 135f 44       		.byte	(.L195-.L194)/2
 2326              		.p2align 1
 2327              	.L193:
 2328 1360 664B     		ldr	r3, .L206
 2329 1362 674D     		ldr	r5, .L206+4
 2330 1364 002A     		cmp	r2, #0
 2331 1366 08BF     		it	eq
 2332 1368 1D46     		moveq	r5, r3
 2333 136a D4F804A0 		ldr	r10, [r4, #4]
 2334 136e 5146     		mov	r1, r10
 2335 1370 2846     		mov	r0, r5
 2336 1372 FEF745FE 		bl	get_text_width
 2337 1376 8346     		mov	fp, r0
 2338 1378 9AF80390 		ldrb	r9, [r10, #3]	@ zero_extendqisi2
 2339 137c 09F10209 		add	r9, r9, #2
 2340 1380 5FFA89F9 		uxtb	r9, r9
 2341 1384 A178     		ldrb	r1, [r4, #2]	@ zero_extendqisi2
 2342 1386 94F80080 		ldrb	r8, [r4]	@ zero_extendqisi2
 2343 138a 08EB5108 		add	r8, r8, r1, lsr #1
 2344 138e 00F10801 		add	r1, r0, #8
 2345 1392 C1F34601 		ubfx	r1, r1, #1, #7
 2346 1396 A8EB0108 		sub	r8, r8, r1
 2347 139a 5FFA88F8 		uxtb	r8, r8
 2348 139e 6778     		ldrb	r7, [r4, #1]	@ zero_extendqisi2
 2349 13a0 E278     		ldrb	r2, [r4, #3]	@ zero_extendqisi2
 2350 13a2 1744     		add	r7, r7, r2
 2351 13a4 A7EB0907 		sub	r7, r7, r9
 2352 13a8 FFB2     		uxtb	r7, r7
 2353 13aa 08F10401 		add	r1, r8, #4
 2354 13ae 0123     		movs	r3, #1
 2355 13b0 0193     		str	r3, [sp, #4]
 2356 13b2 CDF800A0 		str	r10, [sp]
 2357 13b6 2B46     		mov	r3, r5
 2358 13b8 3A46     		mov	r2, r7
 2359 13ba C9B2     		uxtb	r1, r1
 2360 13bc 3046     		mov	r0, r6
 2361 13be FFF7FEFF 		bl	uc1701_text
 2362 13c2 637C     		ldrb	r3, [r4, #17]	@ zero_extendqisi2
 2363 13c4 002B     		cmp	r3, #0
 2364 13c6 73D1     		bne	.L192
 2365 13c8 0BF10603 		add	r3, fp, #6
 2366 13cc 7A1E     		subs	r2, r7, #1
 2367 13ce 08F10101 		add	r1, r8, #1
 2368 13d2 CDF80090 		str	r9, [sp]
 2369 13d6 DBB2     		uxtb	r3, r3
 2370 13d8 D2B2     		uxtb	r2, r2
 2371 13da C9B2     		uxtb	r1, r1
 2372 13dc 3046     		mov	r0, r6
 2373 13de FFF7FEFF 		bl	uc1701_rect_invert
 2374 13e2 65E0     		b	.L192
 2375              	.L195:
 2376 13e4 4549     		ldr	r1, .L206
 2377 13e6 474B     		ldr	r3, .L206+8
 2378 13e8 012A     		cmp	r2, #1
 2379 13ea 0CBF     		ite	eq
 2380 13ec 8946     		moveq	r9, r1
 2381 13ee 9946     		movne	r9, r3
 2382 13f0 D4F804A0 		ldr	r10, [r4, #4]
 2383 13f4 5146     		mov	r1, r10
 2384 13f6 4846     		mov	r0, r9
 2385 13f8 FEF702FE 		bl	get_text_width
 2386 13fc 8346     		mov	fp, r0
 2387 13fe 9AF80380 		ldrb	r8, [r10, #3]	@ zero_extendqisi2
 2388 1402 08F10208 		add	r8, r8, #2
 2389 1406 5FFA88F8 		uxtb	r8, r8
 2390 140a A178     		ldrb	r1, [r4, #2]	@ zero_extendqisi2
 2391 140c 2578     		ldrb	r5, [r4]	@ zero_extendqisi2
 2392 140e 05EB9105 		add	r5, r5, r1, lsr #2
 2393 1412 00F10801 		add	r1, r0, #8
 2394 1416 C1F34601 		ubfx	r1, r1, #1, #7
 2395 141a 6D1A     		subs	r5, r5, r1
 2396 141c EDB2     		uxtb	r5, r5
 2397 141e 6778     		ldrb	r7, [r4, #1]	@ zero_extendqisi2
 2398 1420 E278     		ldrb	r2, [r4, #3]	@ zero_extendqisi2
 2399 1422 1744     		add	r7, r7, r2
 2400 1424 A7EB0807 		sub	r7, r7, r8
 2401 1428 FFB2     		uxtb	r7, r7
 2402 142a 291D     		adds	r1, r5, #4
 2403 142c 0123     		movs	r3, #1
 2404 142e 0193     		str	r3, [sp, #4]
 2405 1430 CDF800A0 		str	r10, [sp]
 2406 1434 4B46     		mov	r3, r9
 2407 1436 3A46     		mov	r2, r7
 2408 1438 C9B2     		uxtb	r1, r1
 2409 143a 3046     		mov	r0, r6
 2410 143c FFF7FEFF 		bl	uc1701_text
 2411 1440 637C     		ldrb	r3, [r4, #17]	@ zero_extendqisi2
 2412 1442 002B     		cmp	r3, #0
 2413 1444 3FD0     		beq	.L204
 2414              	.L198:
 2415 1446 94F81090 		ldrb	r9, [r4, #16]	@ zero_extendqisi2
 2416 144a 2D4A     		ldr	r2, .L206+4
 2417 144c 2E4B     		ldr	r3, .L206+12
 2418 144e B9F1010F 		cmp	r9, #1
 2419 1452 0CBF     		ite	eq
 2420 1454 9146     		moveq	r9, r2
 2421 1456 9946     		movne	r9, r3
 2422 1458 D4F804A0 		ldr	r10, [r4, #4]
 2423 145c 5146     		mov	r1, r10
 2424 145e 4846     		mov	r0, r9
 2425 1460 FEF7CEFD 		bl	get_text_width
 2426 1464 8346     		mov	fp, r0
 2427 1466 9AF80380 		ldrb	r8, [r10, #3]	@ zero_extendqisi2
 2428 146a 08F10208 		add	r8, r8, #2
 2429 146e 5FFA88F8 		uxtb	r8, r8
 2430 1472 A178     		ldrb	r1, [r4, #2]	@ zero_extendqisi2
 2431 1474 2578     		ldrb	r5, [r4]	@ zero_extendqisi2
 2432 1476 0D44     		add	r5, r5, r1
 2433 1478 A5EB9105 		sub	r5, r5, r1, lsr #2
 2434 147c 00F10801 		add	r1, r0, #8
 2435 1480 C1F34601 		ubfx	r1, r1, #1, #7
 2436 1484 6D1A     		subs	r5, r5, r1
 2437 1486 EDB2     		uxtb	r5, r5
 2438 1488 6778     		ldrb	r7, [r4, #1]	@ zero_extendqisi2
 2439 148a E278     		ldrb	r2, [r4, #3]	@ zero_extendqisi2
 2440 148c 1744     		add	r7, r7, r2
 2441 148e A7EB0807 		sub	r7, r7, r8
 2442 1492 FFB2     		uxtb	r7, r7
 2443 1494 291D     		adds	r1, r5, #4
 2444 1496 0123     		movs	r3, #1
 2445 1498 0193     		str	r3, [sp, #4]
 2446 149a CDF800A0 		str	r10, [sp]
 2447 149e 4B46     		mov	r3, r9
 2448 14a0 3A46     		mov	r2, r7
 2449 14a2 C9B2     		uxtb	r1, r1
 2450 14a4 3046     		mov	r0, r6
 2451 14a6 FFF7FEFF 		bl	uc1701_text
 2452 14aa 637C     		ldrb	r3, [r4, #17]	@ zero_extendqisi2
 2453 14ac 012B     		cmp	r3, #1
 2454 14ae 17D0     		beq	.L205
 2455              	.L192:
 2456 14b0 0123     		movs	r3, #1
 2457 14b2 0093     		str	r3, [sp]
 2458 14b4 8023     		movs	r3, #128
 2459 14b6 3F22     		movs	r2, #63
 2460 14b8 0021     		movs	r1, #0
 2461 14ba 3046     		mov	r0, r6
 2462 14bc FFF7FEFF 		bl	uc1701_hline
 2463 14c0 0FB0     		add	sp, sp, #60
 2464              		@ sp needed
 2465 14c2 BDE8F08F 		pop	{r4, r5, r6, r7, r8, r9, r10, fp, pc}
 2466              	.L204:
 2467 14c6 0BF10603 		add	r3, fp, #6
 2468 14ca 7A1E     		subs	r2, r7, #1
 2469 14cc 691C     		adds	r1, r5, #1
 2470 14ce CDF80080 		str	r8, [sp]
 2471 14d2 DBB2     		uxtb	r3, r3
 2472 14d4 D2B2     		uxtb	r2, r2
 2473 14d6 C9B2     		uxtb	r1, r1
 2474 14d8 3046     		mov	r0, r6
 2475 14da FFF7FEFF 		bl	uc1701_rect_invert
 2476 14de B2E7     		b	.L198
 2477              	.L205:
 2478 14e0 0BF10603 		add	r3, fp, #6
 2479 14e4 7A1E     		subs	r2, r7, #1
 2480 14e6 691C     		adds	r1, r5, #1
 2481 14e8 CDF80080 		str	r8, [sp]
 2482 14ec DBB2     		uxtb	r3, r3
 2483 14ee D2B2     		uxtb	r2, r2
 2484 14f0 C9B2     		uxtb	r1, r1
 2485 14f2 3046     		mov	r0, r6
 2486 14f4 FFF7FEFF 		bl	uc1701_rect_invert
 2487 14f8 DAE7     		b	.L192
 2488              	.L207:
 2489 14fa 00BF     		.align	2
 2490              	.L206:
 2491 14fc 08000000 		.word	.LC2
 2492 1500 0C000000 		.word	.LC3
 2493 1504 14000000 		.word	.LC4
 2494 1508 18000000 		.word	.LC5
 2496              		.section	.rodata
 2497              		.align	2
 2498              		.set	.LANCHOR0,. + 0
 2501              	SMfont:
 2502 0000 B8       		.byte	-72
 2503 0001 01       		.byte	1
 2504 0002 03       		.byte	3
 2505 0003 05       		.byte	5
 2506 0004 20       		.byte	32
 2507 0005 5F       		.byte	95
 2508 0006 03       		.byte	3
 2509 0007 03       		.byte	3
 2510 0008 03       		.byte	3
 2511 0009 03       		.byte	3
 2512 000a 03       		.byte	3
 2513 000b 03       		.byte	3
 2514 000c 03       		.byte	3
 2515 000d 03       		.byte	3
 2516 000e 03       		.byte	3
 2517 000f 03       		.byte	3
 2518 0010 03       		.byte	3
 2519 0011 03       		.byte	3
 2520 0012 03       		.byte	3
 2521 0013 03       		.byte	3
 2522 0014 03       		.byte	3
 2523 0015 03       		.byte	3
 2524 0016 03       		.byte	3
 2525 0017 03       		.byte	3
 2526 0018 03       		.byte	3
 2527 0019 03       		.byte	3
 2528 001a 03       		.byte	3
 2529 001b 03       		.byte	3
 2530 001c 03       		.byte	3
 2531 001d 03       		.byte	3
 2532 001e 03       		.byte	3
 2533 001f 03       		.byte	3
 2534 0020 03       		.byte	3
 2535 0021 03       		.byte	3
 2536 0022 03       		.byte	3
 2537 0023 03       		.byte	3
 2538 0024 03       		.byte	3
 2539 0025 03       		.byte	3
 2540 0026 03       		.byte	3
 2541 0027 03       		.byte	3
 2542 0028 03       		.byte	3
 2543 0029 03       		.byte	3
 2544 002a 03       		.byte	3
 2545 002b 03       		.byte	3
 2546 002c 03       		.byte	3
 2547 002d 03       		.byte	3
 2548 002e 03       		.byte	3
 2549 002f 03       		.byte	3
 2550 0030 03       		.byte	3
 2551 0031 03       		.byte	3
 2552 0032 03       		.byte	3
 2553 0033 03       		.byte	3
 2554 0034 03       		.byte	3
 2555 0035 03       		.byte	3
 2556 0036 03       		.byte	3
 2557 0037 03       		.byte	3
 2558 0038 03       		.byte	3
 2559 0039 03       		.byte	3
 2560 003a 03       		.byte	3
 2561 003b 03       		.byte	3
 2562 003c 03       		.byte	3
 2563 003d 03       		.byte	3
 2564 003e 03       		.byte	3
 2565 003f 03       		.byte	3
 2566 0040 03       		.byte	3
 2567 0041 03       		.byte	3
 2568 0042 03       		.byte	3
 2569 0043 03       		.byte	3
 2570 0044 03       		.byte	3
 2571 0045 03       		.byte	3
 2572 0046 03       		.byte	3
 2573 0047 03       		.byte	3
 2574 0048 03       		.byte	3
 2575 0049 03       		.byte	3
 2576 004a 03       		.byte	3
 2577 004b 03       		.byte	3
 2578 004c 03       		.byte	3
 2579 004d 03       		.byte	3
 2580 004e 03       		.byte	3
 2581 004f 03       		.byte	3
 2582 0050 03       		.byte	3
 2583 0051 03       		.byte	3
 2584 0052 03       		.byte	3
 2585 0053 03       		.byte	3
 2586 0054 03       		.byte	3
 2587 0055 03       		.byte	3
 2588 0056 03       		.byte	3
 2589 0057 03       		.byte	3
 2590 0058 03       		.byte	3
 2591 0059 03       		.byte	3
 2592 005a 03       		.byte	3
 2593 005b 03       		.byte	3
 2594 005c 03       		.byte	3
 2595 005d 03       		.byte	3
 2596 005e 03       		.byte	3
 2597 005f 03       		.byte	3
 2598 0060 03       		.byte	3
 2599 0061 03       		.byte	3
 2600 0062 03       		.byte	3
 2601 0063 03       		.byte	3
 2602 0064 03       		.byte	3
 2603 0065 00       		.byte	0
 2604 0066 00       		.byte	0
 2605 0067 00       		.byte	0
 2606 0068 00       		.byte	0
 2607 0069 17       		.byte	23
 2608 006a 00       		.byte	0
 2609 006b 01       		.byte	1
 2610 006c 00       		.byte	0
 2611 006d 01       		.byte	1
 2612 006e 1F       		.byte	31
 2613 006f 0A       		.byte	10
 2614 0070 1F       		.byte	31
 2615 0071 0A       		.byte	10
 2616 0072 1F       		.byte	31
 2617 0073 05       		.byte	5
 2618 0074 09       		.byte	9
 2619 0075 04       		.byte	4
 2620 0076 12       		.byte	18
 2621 0077 0A       		.byte	10
 2622 0078 15       		.byte	21
 2623 0079 1A       		.byte	26
 2624 007a 03       		.byte	3
 2625 007b 00       		.byte	0
 2626 007c 00       		.byte	0
 2627 007d 0E       		.byte	14
 2628 007e 11       		.byte	17
 2629 007f 00       		.byte	0
 2630 0080 00       		.byte	0
 2631 0081 11       		.byte	17
 2632 0082 0E       		.byte	14
 2633 0083 15       		.byte	21
 2634 0084 0E       		.byte	14
 2635 0085 15       		.byte	21
 2636 0086 04       		.byte	4
 2637 0087 0E       		.byte	14
 2638 0088 04       		.byte	4
 2639 0089 00       		.byte	0
 2640 008a 10       		.byte	16
 2641 008b 08       		.byte	8
 2642 008c 04       		.byte	4
 2643 008d 04       		.byte	4
 2644 008e 04       		.byte	4
 2645 008f 00       		.byte	0
 2646 0090 10       		.byte	16
 2647 0091 00       		.byte	0
 2648 0092 08       		.byte	8
 2649 0093 04       		.byte	4
 2650 0094 02       		.byte	2
 2651 0095 1F       		.byte	31
 2652 0096 11       		.byte	17
 2653 0097 1F       		.byte	31
 2654 0098 00       		.byte	0
 2655 0099 1F       		.byte	31
 2656 009a 00       		.byte	0
 2657 009b 1D       		.byte	29
 2658 009c 15       		.byte	21
 2659 009d 17       		.byte	23
 2660 009e 15       		.byte	21
 2661 009f 15       		.byte	21
 2662 00a0 1F       		.byte	31
 2663 00a1 07       		.byte	7
 2664 00a2 04       		.byte	4
 2665 00a3 1F       		.byte	31
 2666 00a4 17       		.byte	23
 2667 00a5 15       		.byte	21
 2668 00a6 1D       		.byte	29
 2669 00a7 1F       		.byte	31
 2670 00a8 15       		.byte	21
 2671 00a9 1D       		.byte	29
 2672 00aa 01       		.byte	1
 2673 00ab 01       		.byte	1
 2674 00ac 1F       		.byte	31
 2675 00ad 1F       		.byte	31
 2676 00ae 15       		.byte	21
 2677 00af 1F       		.byte	31
 2678 00b0 17       		.byte	23
 2679 00b1 15       		.byte	21
 2680 00b2 1F       		.byte	31
 2681 00b3 00       		.byte	0
 2682 00b4 0A       		.byte	10
 2683 00b5 00       		.byte	0
 2684 00b6 10       		.byte	16
 2685 00b7 0A       		.byte	10
 2686 00b8 00       		.byte	0
 2687 00b9 04       		.byte	4
 2688 00ba 0A       		.byte	10
 2689 00bb 11       		.byte	17
 2690 00bc 0A       		.byte	10
 2691 00bd 0A       		.byte	10
 2692 00be 0A       		.byte	10
 2693 00bf 11       		.byte	17
 2694 00c0 0A       		.byte	10
 2695 00c1 04       		.byte	4
 2696 00c2 01       		.byte	1
 2697 00c3 15       		.byte	21
 2698 00c4 03       		.byte	3
 2699 00c5 0E       		.byte	14
 2700 00c6 15       		.byte	21
 2701 00c7 16       		.byte	22
 2702 00c8 1E       		.byte	30
 2703 00c9 05       		.byte	5
 2704 00ca 1E       		.byte	30
 2705 00cb 1F       		.byte	31
 2706 00cc 15       		.byte	21
 2707 00cd 0A       		.byte	10
 2708 00ce 0E       		.byte	14
 2709 00cf 11       		.byte	17
 2710 00d0 11       		.byte	17
 2711 00d1 1F       		.byte	31
 2712 00d2 11       		.byte	17
 2713 00d3 0E       		.byte	14
 2714 00d4 1F       		.byte	31
 2715 00d5 15       		.byte	21
 2716 00d6 15       		.byte	21
 2717 00d7 1F       		.byte	31
 2718 00d8 05       		.byte	5
 2719 00d9 05       		.byte	5
 2720 00da 0E       		.byte	14
 2721 00db 11       		.byte	17
 2722 00dc 1D       		.byte	29
 2723 00dd 1F       		.byte	31
 2724 00de 04       		.byte	4
 2725 00df 1F       		.byte	31
 2726 00e0 00       		.byte	0
 2727 00e1 1F       		.byte	31
 2728 00e2 00       		.byte	0
 2729 00e3 08       		.byte	8
 2730 00e4 10       		.byte	16
 2731 00e5 0F       		.byte	15
 2732 00e6 1F       		.byte	31
 2733 00e7 04       		.byte	4
 2734 00e8 1B       		.byte	27
 2735 00e9 1F       		.byte	31
 2736 00ea 10       		.byte	16
 2737 00eb 10       		.byte	16
 2738 00ec 1F       		.byte	31
 2739 00ed 06       		.byte	6
 2740 00ee 1F       		.byte	31
 2741 00ef 1F       		.byte	31
 2742 00f0 0E       		.byte	14
 2743 00f1 1F       		.byte	31
 2744 00f2 0E       		.byte	14
 2745 00f3 11       		.byte	17
 2746 00f4 0E       		.byte	14
 2747 00f5 1F       		.byte	31
 2748 00f6 05       		.byte	5
 2749 00f7 07       		.byte	7
 2750 00f8 0E       		.byte	14
 2751 00f9 19       		.byte	25
 2752 00fa 1E       		.byte	30
 2753 00fb 1F       		.byte	31
 2754 00fc 0D       		.byte	13
 2755 00fd 16       		.byte	22
 2756 00fe 12       		.byte	18
 2757 00ff 15       		.byte	21
 2758 0100 09       		.byte	9
 2759 0101 01       		.byte	1
 2760 0102 1F       		.byte	31
 2761 0103 01       		.byte	1
 2762 0104 0F       		.byte	15
 2763 0105 10       		.byte	16
 2764 0106 1F       		.byte	31
 2765 0107 0F       		.byte	15
 2766 0108 10       		.byte	16
 2767 0109 0F       		.byte	15
 2768 010a 1F       		.byte	31
 2769 010b 0C       		.byte	12
 2770 010c 1F       		.byte	31
 2771 010d 1B       		.byte	27
 2772 010e 04       		.byte	4
 2773 010f 1B       		.byte	27
 2774 0110 07       		.byte	7
 2775 0111 1C       		.byte	28
 2776 0112 07       		.byte	7
 2777 0113 19       		.byte	25
 2778 0114 15       		.byte	21
 2779 0115 13       		.byte	19
 2780 0116 1F       		.byte	31
 2781 0117 11       		.byte	17
 2782 0118 00       		.byte	0
 2783 0119 02       		.byte	2
 2784 011a 04       		.byte	4
 2785 011b 08       		.byte	8
 2786 011c 00       		.byte	0
 2787 011d 11       		.byte	17
 2788 011e 1F       		.byte	31
 2789 011f 02       		.byte	2
 2790 0120 01       		.byte	1
 2791 0121 02       		.byte	2
 2792 0122 04       		.byte	4
 2793 0123 04       		.byte	4
 2794 0124 04       		.byte	4
 2795 0125 00       		.byte	0
 2796 0126 02       		.byte	2
 2797 0127 02       		.byte	2
 2798 0128 1E       		.byte	30
 2799 0129 05       		.byte	5
 2800 012a 1E       		.byte	30
 2801 012b 1F       		.byte	31
 2802 012c 15       		.byte	21
 2803 012d 0A       		.byte	10
 2804 012e 0E       		.byte	14
 2805 012f 11       		.byte	17
 2806 0130 11       		.byte	17
 2807 0131 1F       		.byte	31
 2808 0132 11       		.byte	17
 2809 0133 0E       		.byte	14
 2810 0134 1F       		.byte	31
 2811 0135 15       		.byte	21
 2812 0136 15       		.byte	21
 2813 0137 1F       		.byte	31
 2814 0138 05       		.byte	5
 2815 0139 05       		.byte	5
 2816 013a 0E       		.byte	14
 2817 013b 11       		.byte	17
 2818 013c 1D       		.byte	29
 2819 013d 1F       		.byte	31
 2820 013e 04       		.byte	4
 2821 013f 1F       		.byte	31
 2822 0140 00       		.byte	0
 2823 0141 1F       		.byte	31
 2824 0142 00       		.byte	0
 2825 0143 08       		.byte	8
 2826 0144 10       		.byte	16
 2827 0145 0F       		.byte	15
 2828 0146 1F       		.byte	31
 2829 0147 04       		.byte	4
 2830 0148 1B       		.byte	27
 2831 0149 1F       		.byte	31
 2832 014a 10       		.byte	16
 2833 014b 10       		.byte	16
 2834 014c 1F       		.byte	31
 2835 014d 06       		.byte	6
 2836 014e 1F       		.byte	31
 2837 014f 1F       		.byte	31
 2838 0150 0E       		.byte	14
 2839 0151 1F       		.byte	31
 2840 0152 0E       		.byte	14
 2841 0153 11       		.byte	17
 2842 0154 0E       		.byte	14
 2843 0155 1F       		.byte	31
 2844 0156 05       		.byte	5
 2845 0157 07       		.byte	7
 2846 0158 0E       		.byte	14
 2847 0159 19       		.byte	25
 2848 015a 1E       		.byte	30
 2849 015b 1F       		.byte	31
 2850 015c 0D       		.byte	13
 2851 015d 16       		.byte	22
 2852 015e 12       		.byte	18
 2853 015f 15       		.byte	21
 2854 0160 09       		.byte	9
 2855 0161 01       		.byte	1
 2856 0162 1F       		.byte	31
 2857 0163 01       		.byte	1
 2858 0164 0F       		.byte	15
 2859 0165 10       		.byte	16
 2860 0166 1F       		.byte	31
 2861 0167 0F       		.byte	15
 2862 0168 10       		.byte	16
 2863 0169 0F       		.byte	15
 2864 016a 1F       		.byte	31
 2865 016b 0C       		.byte	12
 2866 016c 1F       		.byte	31
 2867 016d 1B       		.byte	27
 2868 016e 04       		.byte	4
 2869 016f 1B       		.byte	27
 2870 0170 07       		.byte	7
 2871 0171 1C       		.byte	28
 2872 0172 07       		.byte	7
 2873 0173 19       		.byte	25
 2874 0174 15       		.byte	21
 2875 0175 13       		.byte	19
 2876 0176 04       		.byte	4
 2877 0177 1B       		.byte	27
 2878 0178 11       		.byte	17
 2879 0179 00       		.byte	0
 2880 017a 1F       		.byte	31
 2881 017b 00       		.byte	0
 2882 017c 11       		.byte	17
 2883 017d 1B       		.byte	27
 2884 017e 04       		.byte	4
 2885 017f 04       		.byte	4
 2886 0180 06       		.byte	6
 2887 0181 02       		.byte	2
 2888 0182 0000     		.space	2
 2891              	alterebro24:
 2892 0184 1E       		.byte	30
 2893 0185 83       		.byte	-125
 2894 0186 0A       		.byte	10
 2895 0187 0F       		.byte	15
 2896 0188 20       		.byte	32
 2897 0189 5F       		.byte	95
 2898 018a 03       		.byte	3
 2899 018b 02       		.byte	2
 2900 018c 05       		.byte	5
 2901 018d 08       		.byte	8
 2902 018e 08       		.byte	8
 2903 018f 0B       		.byte	11
 2904 0190 08       		.byte	8
 2905 0191 02       		.byte	2
 2906 0192 03       		.byte	3
 2907 0193 03       		.byte	3
 2908 0194 05       		.byte	5
 2909 0195 08       		.byte	8
 2910 0196 02       		.byte	2
 2911 0197 05       		.byte	5
 2912 0198 02       		.byte	2
 2913 0199 06       		.byte	6
 2914 019a 06       		.byte	6
 2915 019b 03       		.byte	3
 2916 019c 06       		.byte	6
 2917 019d 06       		.byte	6
 2918 019e 06       		.byte	6
 2919 019f 06       		.byte	6
 2920 01a0 06       		.byte	6
 2921 01a1 06       		.byte	6
 2922 01a2 06       		.byte	6
 2923 01a3 06       		.byte	6
 2924 01a4 02       		.byte	2
 2925 01a5 02       		.byte	2
 2926 01a6 05       		.byte	5
 2927 01a7 05       		.byte	5
 2928 01a8 05       		.byte	5
 2929 01a9 08       		.byte	8
 2930 01aa 09       		.byte	9
 2931 01ab 06       		.byte	6
 2932 01ac 06       		.byte	6
 2933 01ad 06       		.byte	6
 2934 01ae 06       		.byte	6
 2935 01af 06       		.byte	6
 2936 01b0 06       		.byte	6
 2937 01b1 06       		.byte	6
 2938 01b2 06       		.byte	6
 2939 01b3 02       		.byte	2
 2940 01b4 06       		.byte	6
 2941 01b5 06       		.byte	6
 2942 01b6 05       		.byte	5
 2943 01b7 08       		.byte	8
 2944 01b8 06       		.byte	6
 2945 01b9 06       		.byte	6
 2946 01ba 06       		.byte	6
 2947 01bb 06       		.byte	6
 2948 01bc 06       		.byte	6
 2949 01bd 06       		.byte	6
 2950 01be 08       		.byte	8
 2951 01bf 06       		.byte	6
 2952 01c0 06       		.byte	6
 2953 01c1 08       		.byte	8
 2954 01c2 06       		.byte	6
 2955 01c3 08       		.byte	8
 2956 01c4 06       		.byte	6
 2957 01c5 03       		.byte	3
 2958 01c6 06       		.byte	6
 2959 01c7 03       		.byte	3
 2960 01c8 05       		.byte	5
 2961 01c9 05       		.byte	5
 2962 01ca 02       		.byte	2
 2963 01cb 06       		.byte	6
 2964 01cc 06       		.byte	6
 2965 01cd 06       		.byte	6
 2966 01ce 06       		.byte	6
 2967 01cf 06       		.byte	6
 2968 01d0 05       		.byte	5
 2969 01d1 06       		.byte	6
 2970 01d2 06       		.byte	6
 2971 01d3 02       		.byte	2
 2972 01d4 03       		.byte	3
 2973 01d5 05       		.byte	5
 2974 01d6 02       		.byte	2
 2975 01d7 08       		.byte	8
 2976 01d8 06       		.byte	6
 2977 01d9 06       		.byte	6
 2978 01da 06       		.byte	6
 2979 01db 06       		.byte	6
 2980 01dc 05       		.byte	5
 2981 01dd 06       		.byte	6
 2982 01de 05       		.byte	5
 2983 01df 06       		.byte	6
 2984 01e0 06       		.byte	6
 2985 01e1 08       		.byte	8
 2986 01e2 06       		.byte	6
 2987 01e3 06       		.byte	6
 2988 01e4 06       		.byte	6
 2989 01e5 05       		.byte	5
 2990 01e6 02       		.byte	2
 2991 01e7 05       		.byte	5
 2992 01e8 03       		.byte	3
 2993 01e9 00       		.byte	0
 2994 01ea 00       		.byte	0
 2995 01eb 00       		.byte	0
 2996 01ec 00       		.byte	0
 2997 01ed 00       		.byte	0
 2998 01ee 00       		.byte	0
 2999 01ef FE       		.byte	-2
 3000 01f0 FE       		.byte	-2
 3001 01f1 1A       		.byte	26
 3002 01f2 1A       		.byte	26
 3003 01f3 1E       		.byte	30
 3004 01f4 1E       		.byte	30
 3005 01f5 00       		.byte	0
 3006 01f6 1E       		.byte	30
 3007 01f7 1E       		.byte	30
 3008 01f8 00       		.byte	0
 3009 01f9 00       		.byte	0
 3010 01fa 00       		.byte	0
 3011 01fb 00       		.byte	0
 3012 01fc 00       		.byte	0
 3013 01fd B0       		.byte	-80
 3014 01fe F8       		.byte	-8
 3015 01ff F8       		.byte	-8
 3016 0200 B0       		.byte	-80
 3017 0201 F8       		.byte	-8
 3018 0202 F8       		.byte	-8
 3019 0203 B0       		.byte	-80
 3020 0204 B0       		.byte	-80
 3021 0205 02       		.byte	2
 3022 0206 0E       		.byte	14
 3023 0207 0E       		.byte	14
 3024 0208 02       		.byte	2
 3025 0209 0E       		.byte	14
 3026 020a 0E       		.byte	14
 3027 020b 02       		.byte	2
 3028 020c 02       		.byte	2
 3029 020d 38       		.byte	56
 3030 020e FE       		.byte	-2
 3031 020f C6       		.byte	-58
 3032 0210 FF       		.byte	-1
 3033 0211 FF       		.byte	-1
 3034 0212 C6       		.byte	-58
 3035 0213 86       		.byte	-122
 3036 0214 86       		.byte	-122
 3037 0215 18       		.byte	24
 3038 0216 18       		.byte	24
 3039 0217 18       		.byte	24
 3040 0218 7E       		.byte	126
 3041 0219 7E       		.byte	126
 3042 021a 18       		.byte	24
 3043 021b 0E       		.byte	14
 3044 021c 0E       		.byte	14
 3045 021d 18       		.byte	24
 3046 021e 3E       		.byte	62
 3047 021f 36       		.byte	54
 3048 0220 98       		.byte	-104
 3049 0221 D8       		.byte	-40
 3050 0222 C0       		.byte	-64
 3051 0223 30       		.byte	48
 3052 0224 B8       		.byte	-72
 3053 0225 98       		.byte	-104
 3054 0226 06       		.byte	6
 3055 0227 06       		.byte	6
 3056 0228 18       		.byte	24
 3057 0229 1C       		.byte	28
 3058 022a 0C       		.byte	12
 3059 022b 02       		.byte	2
 3060 022c 02       		.byte	2
 3061 022d 00       		.byte	0
 3062 022e 0C       		.byte	12
 3063 022f 1E       		.byte	30
 3064 0230 1A       		.byte	26
 3065 0231 0C       		.byte	12
 3066 0232 0C       		.byte	12
 3067 0233 B8       		.byte	-72
 3068 0234 FE       		.byte	-2
 3069 0235 C6       		.byte	-58
 3070 0236 B6       		.byte	-74
 3071 0237 BE       		.byte	-66
 3072 0238 18       		.byte	24
 3073 0239 C0       		.byte	-64
 3074 023a C0       		.byte	-64
 3075 023b 0E       		.byte	14
 3076 023c 1E       		.byte	30
 3077 023d 18       		.byte	24
 3078 023e 1A       		.byte	26
 3079 023f 1E       		.byte	30
 3080 0240 0C       		.byte	12
 3081 0241 1A       		.byte	26
 3082 0242 1A       		.byte	26
 3083 0243 1E       		.byte	30
 3084 0244 1E       		.byte	30
 3085 0245 00       		.byte	0
 3086 0246 00       		.byte	0
 3087 0247 FE       		.byte	-2
 3088 0248 FF       		.byte	-1
 3089 0249 03       		.byte	3
 3090 024a 1E       		.byte	30
 3091 024b 7E       		.byte	126
 3092 024c 60       		.byte	96
 3093 024d 03       		.byte	3
 3094 024e FF       		.byte	-1
 3095 024f FE       		.byte	-2
 3096 0250 60       		.byte	96
 3097 0251 7E       		.byte	126
 3098 0252 1E       		.byte	30
 3099 0253 36       		.byte	54
 3100 0254 3E       		.byte	62
 3101 0255 18       		.byte	24
 3102 0256 36       		.byte	54
 3103 0257 36       		.byte	54
 3104 0258 00       		.byte	0
 3105 0259 00       		.byte	0
 3106 025a 00       		.byte	0
 3107 025b 00       		.byte	0
 3108 025c 00       		.byte	0
 3109 025d C0       		.byte	-64
 3110 025e C0       		.byte	-64
 3111 025f C0       		.byte	-64
 3112 0260 F8       		.byte	-8
 3113 0261 F8       		.byte	-8
 3114 0262 C0       		.byte	-64
 3115 0263 C0       		.byte	-64
 3116 0264 C0       		.byte	-64
 3117 0265 00       		.byte	0
 3118 0266 00       		.byte	0
 3119 0267 00       		.byte	0
 3120 0268 0E       		.byte	14
 3121 0269 0E       		.byte	14
 3122 026a 00       		.byte	0
 3123 026b 00       		.byte	0
 3124 026c 00       		.byte	0
 3125 026d 00       		.byte	0
 3126 026e 00       		.byte	0
 3127 026f 78       		.byte	120
 3128 0270 78       		.byte	120
 3129 0271 C0       		.byte	-64
 3130 0272 C0       		.byte	-64
 3131 0273 C0       		.byte	-64
 3132 0274 C0       		.byte	-64
 3133 0275 C0       		.byte	-64
 3134 0276 00       		.byte	0
 3135 0277 00       		.byte	0
 3136 0278 00       		.byte	0
 3137 0279 00       		.byte	0
 3138 027a 00       		.byte	0
 3139 027b 00       		.byte	0
 3140 027c 00       		.byte	0
 3141 027d 18       		.byte	24
 3142 027e 18       		.byte	24
 3143 027f 00       		.byte	0
 3144 0280 C0       		.byte	-64
 3145 0281 C0       		.byte	-64
 3146 0282 38       		.byte	56
 3147 0283 3E       		.byte	62
 3148 0284 06       		.byte	6
 3149 0285 1C       		.byte	28
 3150 0286 1E       		.byte	30
 3151 0287 02       		.byte	2
 3152 0288 00       		.byte	0
 3153 0289 00       		.byte	0
 3154 028a 00       		.byte	0
 3155 028b F8       		.byte	-8
 3156 028c FE       		.byte	-2
 3157 028d 06       		.byte	6
 3158 028e 06       		.byte	6
 3159 028f FE       		.byte	-2
 3160 0290 F8       		.byte	-8
 3161 0291 0E       		.byte	14
 3162 0292 1E       		.byte	30
 3163 0293 18       		.byte	24
 3164 0294 18       		.byte	24
 3165 0295 1E       		.byte	30
 3166 0296 0E       		.byte	14
 3167 0297 18       		.byte	24
 3168 0298 FE       		.byte	-2
 3169 0299 FE       		.byte	-2
 3170 029a 00       		.byte	0
 3171 029b 1E       		.byte	30
 3172 029c 1E       		.byte	30
 3173 029d 18       		.byte	24
 3174 029e 9E       		.byte	-98
 3175 029f 86       		.byte	-122
 3176 02a0 C6       		.byte	-58
 3177 02a1 FE       		.byte	-2
 3178 02a2 38       		.byte	56
 3179 02a3 1C       		.byte	28
 3180 02a4 1E       		.byte	30
 3181 02a5 1A       		.byte	26
 3182 02a6 18       		.byte	24
 3183 02a7 18       		.byte	24
 3184 02a8 18       		.byte	24
 3185 02a9 06       		.byte	6
 3186 02aa C6       		.byte	-58
 3187 02ab C6       		.byte	-58
 3188 02ac C6       		.byte	-58
 3189 02ad FE       		.byte	-2
 3190 02ae BE       		.byte	-66
 3191 02af 18       		.byte	24
 3192 02b0 18       		.byte	24
 3193 02b1 18       		.byte	24
 3194 02b2 18       		.byte	24
 3195 02b3 1E       		.byte	30
 3196 02b4 0E       		.byte	14
 3197 02b5 FE       		.byte	-2
 3198 02b6 FE       		.byte	-2
 3199 02b7 C0       		.byte	-64
 3200 02b8 C0       		.byte	-64
 3201 02b9 FE       		.byte	-2
 3202 02ba FE       		.byte	-2
 3203 02bb 00       		.byte	0
 3204 02bc 00       		.byte	0
 3205 02bd 00       		.byte	0
 3206 02be 00       		.byte	0
 3207 02bf 1E       		.byte	30
 3208 02c0 1E       		.byte	30
 3209 02c1 FE       		.byte	-2
 3210 02c2 FE       		.byte	-2
 3211 02c3 C6       		.byte	-58
 3212 02c4 C6       		.byte	-58
 3213 02c5 C6       		.byte	-58
 3214 02c6 86       		.byte	-122
 3215 02c7 18       		.byte	24
 3216 02c8 18       		.byte	24
 3217 02c9 18       		.byte	24
 3218 02ca 18       		.byte	24
 3219 02cb 1E       		.byte	30
 3220 02cc 0E       		.byte	14
 3221 02cd F8       		.byte	-8
 3222 02ce FE       		.byte	-2
 3223 02cf C6       		.byte	-58
 3224 02d0 C6       		.byte	-58
 3225 02d1 C6       		.byte	-58
 3226 02d2 80       		.byte	-128
 3227 02d3 0E       		.byte	14
 3228 02d4 1E       		.byte	30
 3229 02d5 18       		.byte	24
 3230 02d6 18       		.byte	24
 3231 02d7 1E       		.byte	30
 3232 02d8 0E       		.byte	14
 3233 02d9 06       		.byte	6
 3234 02da 86       		.byte	-122
 3235 02db 86       		.byte	-122
 3236 02dc C6       		.byte	-58
 3237 02dd FE       		.byte	-2
 3238 02de 3E       		.byte	62
 3239 02df 00       		.byte	0
 3240 02e0 1E       		.byte	30
 3241 02e1 1E       		.byte	30
 3242 02e2 00       		.byte	0
 3243 02e3 00       		.byte	0
 3244 02e4 00       		.byte	0
 3245 02e5 B8       		.byte	-72
 3246 02e6 FE       		.byte	-2
 3247 02e7 C6       		.byte	-58
 3248 02e8 C6       		.byte	-58
 3249 02e9 FE       		.byte	-2
 3250 02ea B8       		.byte	-72
 3251 02eb 0E       		.byte	14
 3252 02ec 1E       		.byte	30
 3253 02ed 18       		.byte	24
 3254 02ee 18       		.byte	24
 3255 02ef 1E       		.byte	30
 3256 02f0 0E       		.byte	14
 3257 02f1 38       		.byte	56
 3258 02f2 FE       		.byte	-2
 3259 02f3 C6       		.byte	-58
 3260 02f4 C6       		.byte	-58
 3261 02f5 FE       		.byte	-2
 3262 02f6 F8       		.byte	-8
 3263 02f7 18       		.byte	24
 3264 02f8 18       		.byte	24
 3265 02f9 18       		.byte	24
 3266 02fa 18       		.byte	24
 3267 02fb 1E       		.byte	30
 3268 02fc 0E       		.byte	14
 3269 02fd 80       		.byte	-128
 3270 02fe 80       		.byte	-128
 3271 02ff 1A       		.byte	26
 3272 0300 1A       		.byte	26
 3273 0301 80       		.byte	-128
 3274 0302 80       		.byte	-128
 3275 0303 7A       		.byte	122
 3276 0304 7A       		.byte	122
 3277 0305 80       		.byte	-128
 3278 0306 C0       		.byte	-64
 3279 0307 C0       		.byte	-64
 3280 0308 30       		.byte	48
 3281 0309 30       		.byte	48
 3282 030a 02       		.byte	2
 3283 030b 0E       		.byte	14
 3284 030c 0C       		.byte	12
 3285 030d 18       		.byte	24
 3286 030e 18       		.byte	24
 3287 030f B0       		.byte	-80
 3288 0310 B0       		.byte	-80
 3289 0311 B0       		.byte	-80
 3290 0312 B0       		.byte	-80
 3291 0313 B0       		.byte	-80
 3292 0314 02       		.byte	2
 3293 0315 02       		.byte	2
 3294 0316 02       		.byte	2
 3295 0317 02       		.byte	2
 3296 0318 02       		.byte	2
 3297 0319 30       		.byte	48
 3298 031a F0       		.byte	-16
 3299 031b C0       		.byte	-64
 3300 031c 80       		.byte	-128
 3301 031d 80       		.byte	-128
 3302 031e 18       		.byte	24
 3303 031f 1C       		.byte	28
 3304 0320 0C       		.byte	12
 3305 0321 02       		.byte	2
 3306 0322 02       		.byte	2
 3307 0323 18       		.byte	24
 3308 0324 1E       		.byte	30
 3309 0325 06       		.byte	6
 3310 0326 86       		.byte	-122
 3311 0327 C6       		.byte	-58
 3312 0328 C6       		.byte	-58
 3313 0329 38       		.byte	56
 3314 032a 38       		.byte	56
 3315 032b 00       		.byte	0
 3316 032c 00       		.byte	0
 3317 032d 00       		.byte	0
 3318 032e 1A       		.byte	26
 3319 032f 1A       		.byte	26
 3320 0330 00       		.byte	0
 3321 0331 00       		.byte	0
 3322 0332 00       		.byte	0
 3323 0333 F8       		.byte	-8
 3324 0334 FE       		.byte	-2
 3325 0335 06       		.byte	6
 3326 0336 F6       		.byte	-10
 3327 0337 F6       		.byte	-10
 3328 0338 B6       		.byte	-74
 3329 0339 86       		.byte	-122
 3330 033a FE       		.byte	-2
 3331 033b F8       		.byte	-8
 3332 033c 0E       		.byte	14
 3333 033d 1E       		.byte	30
 3334 033e 18       		.byte	24
 3335 033f 1A       		.byte	26
 3336 0340 1A       		.byte	26
 3337 0341 1A       		.byte	26
 3338 0342 1A       		.byte	26
 3339 0343 1A       		.byte	26
 3340 0344 02       		.byte	2
 3341 0345 F8       		.byte	-8
 3342 0346 FE       		.byte	-2
 3343 0347 C6       		.byte	-58
 3344 0348 C6       		.byte	-58
 3345 0349 FE       		.byte	-2
 3346 034a FE       		.byte	-2
 3347 034b 1E       		.byte	30
 3348 034c 1E       		.byte	30
 3349 034d 00       		.byte	0
 3350 034e 00       		.byte	0
 3351 034f 1E       		.byte	30
 3352 0350 1E       		.byte	30
 3353 0351 FE       		.byte	-2
 3354 0352 FE       		.byte	-2
 3355 0353 C6       		.byte	-58
 3356 0354 C6       		.byte	-58
 3357 0355 FE       		.byte	-2
 3358 0356 B8       		.byte	-72
 3359 0357 1E       		.byte	30
 3360 0358 1E       		.byte	30
 3361 0359 18       		.byte	24
 3362 035a 18       		.byte	24
 3363 035b 1E       		.byte	30
 3364 035c 0E       		.byte	14
 3365 035d F8       		.byte	-8
 3366 035e FE       		.byte	-2
 3367 035f 06       		.byte	6
 3368 0360 06       		.byte	6
 3369 0361 06       		.byte	6
 3370 0362 06       		.byte	6
 3371 0363 0E       		.byte	14
 3372 0364 1E       		.byte	30
 3373 0365 18       		.byte	24
 3374 0366 18       		.byte	24
 3375 0367 18       		.byte	24
 3376 0368 18       		.byte	24
 3377 0369 FE       		.byte	-2
 3378 036a FE       		.byte	-2
 3379 036b 06       		.byte	6
 3380 036c 06       		.byte	6
 3381 036d FE       		.byte	-2
 3382 036e F8       		.byte	-8
 3383 036f 1E       		.byte	30
 3384 0370 1E       		.byte	30
 3385 0371 18       		.byte	24
 3386 0372 18       		.byte	24
 3387 0373 1E       		.byte	30
 3388 0374 0E       		.byte	14
 3389 0375 FE       		.byte	-2
 3390 0376 FE       		.byte	-2
 3391 0377 C6       		.byte	-58
 3392 0378 C6       		.byte	-58
 3393 0379 C6       		.byte	-58
 3394 037a 06       		.byte	6
 3395 037b 1E       		.byte	30
 3396 037c 1E       		.byte	30
 3397 037d 18       		.byte	24
 3398 037e 18       		.byte	24
 3399 037f 18       		.byte	24
 3400 0380 18       		.byte	24
 3401 0381 FE       		.byte	-2
 3402 0382 FE       		.byte	-2
 3403 0383 C6       		.byte	-58
 3404 0384 C6       		.byte	-58
 3405 0385 C6       		.byte	-58
 3406 0386 06       		.byte	6
 3407 0387 1E       		.byte	30
 3408 0388 1E       		.byte	30
 3409 0389 00       		.byte	0
 3410 038a 00       		.byte	0
 3411 038b 00       		.byte	0
 3412 038c 00       		.byte	0
 3413 038d F8       		.byte	-8
 3414 038e FE       		.byte	-2
 3415 038f 06       		.byte	6
 3416 0390 06       		.byte	6
 3417 0391 C6       		.byte	-58
 3418 0392 C6       		.byte	-58
 3419 0393 0E       		.byte	14
 3420 0394 1E       		.byte	30
 3421 0395 18       		.byte	24
 3422 0396 18       		.byte	24
 3423 0397 1E       		.byte	30
 3424 0398 1E       		.byte	30
 3425 0399 FE       		.byte	-2
 3426 039a FE       		.byte	-2
 3427 039b C0       		.byte	-64
 3428 039c C0       		.byte	-64
 3429 039d FE       		.byte	-2
 3430 039e FE       		.byte	-2
 3431 039f 1E       		.byte	30
 3432 03a0 1E       		.byte	30
 3433 03a1 00       		.byte	0
 3434 03a2 00       		.byte	0
 3435 03a3 1E       		.byte	30
 3436 03a4 1E       		.byte	30
 3437 03a5 FE       		.byte	-2
 3438 03a6 FE       		.byte	-2
 3439 03a7 1E       		.byte	30
 3440 03a8 1E       		.byte	30
 3441 03a9 80       		.byte	-128
 3442 03aa 80       		.byte	-128
 3443 03ab 00       		.byte	0
 3444 03ac 00       		.byte	0
 3445 03ad FE       		.byte	-2
 3446 03ae FE       		.byte	-2
 3447 03af 0E       		.byte	14
 3448 03b0 1E       		.byte	30
 3449 03b1 18       		.byte	24
 3450 03b2 18       		.byte	24
 3451 03b3 1E       		.byte	30
 3452 03b4 0E       		.byte	14
 3453 03b5 FE       		.byte	-2
 3454 03b6 FE       		.byte	-2
 3455 03b7 C0       		.byte	-64
 3456 03b8 C0       		.byte	-64
 3457 03b9 FE       		.byte	-2
 3458 03ba BE       		.byte	-66
 3459 03bb 1E       		.byte	30
 3460 03bc 1E       		.byte	30
 3461 03bd 00       		.byte	0
 3462 03be 00       		.byte	0
 3463 03bf 1E       		.byte	30
 3464 03c0 1E       		.byte	30
 3465 03c1 FE       		.byte	-2
 3466 03c2 FE       		.byte	-2
 3467 03c3 00       		.byte	0
 3468 03c4 00       		.byte	0
 3469 03c5 00       		.byte	0
 3470 03c6 1E       		.byte	30
 3471 03c7 1E       		.byte	30
 3472 03c8 18       		.byte	24
 3473 03c9 18       		.byte	24
 3474 03ca 18       		.byte	24
 3475 03cb FE       		.byte	-2
 3476 03cc FE       		.byte	-2
 3477 03cd 18       		.byte	24
 3478 03ce 30       		.byte	48
 3479 03cf 38       		.byte	56
 3480 03d0 18       		.byte	24
 3481 03d1 FE       		.byte	-2
 3482 03d2 FE       		.byte	-2
 3483 03d3 1E       		.byte	30
 3484 03d4 1E       		.byte	30
 3485 03d5 00       		.byte	0
 3486 03d6 00       		.byte	0
 3487 03d7 00       		.byte	0
 3488 03d8 00       		.byte	0
 3489 03d9 1E       		.byte	30
 3490 03da 1E       		.byte	30
 3491 03db FE       		.byte	-2
 3492 03dc FE       		.byte	-2
 3493 03dd 30       		.byte	48
 3494 03de C0       		.byte	-64
 3495 03df FE       		.byte	-2
 3496 03e0 FE       		.byte	-2
 3497 03e1 1E       		.byte	30
 3498 03e2 1E       		.byte	30
 3499 03e3 00       		.byte	0
 3500 03e4 00       		.byte	0
 3501 03e5 1E       		.byte	30
 3502 03e6 1E       		.byte	30
 3503 03e7 F8       		.byte	-8
 3504 03e8 FE       		.byte	-2
 3505 03e9 06       		.byte	6
 3506 03ea 06       		.byte	6
 3507 03eb FE       		.byte	-2
 3508 03ec F8       		.byte	-8
 3509 03ed 0E       		.byte	14
 3510 03ee 1E       		.byte	30
 3511 03ef 18       		.byte	24
 3512 03f0 18       		.byte	24
 3513 03f1 1E       		.byte	30
 3514 03f2 0E       		.byte	14
 3515 03f3 FE       		.byte	-2
 3516 03f4 FE       		.byte	-2
 3517 03f5 C6       		.byte	-58
 3518 03f6 C6       		.byte	-58
 3519 03f7 FE       		.byte	-2
 3520 03f8 38       		.byte	56
 3521 03f9 1E       		.byte	30
 3522 03fa 1E       		.byte	30
 3523 03fb 00       		.byte	0
 3524 03fc 00       		.byte	0
 3525 03fd 00       		.byte	0
 3526 03fe 00       		.byte	0
 3527 03ff F8       		.byte	-8
 3528 0400 FE       		.byte	-2
 3529 0401 06       		.byte	6
 3530 0402 06       		.byte	6
 3531 0403 FE       		.byte	-2
 3532 0404 F8       		.byte	-8
 3533 0405 0E       		.byte	14
 3534 0406 1E       		.byte	30
 3535 0407 18       		.byte	24
 3536 0408 1C       		.byte	28
 3537 0409 1E       		.byte	30
 3538 040a 1E       		.byte	30
 3539 040b FE       		.byte	-2
 3540 040c FE       		.byte	-2
 3541 040d C6       		.byte	-58
 3542 040e C6       		.byte	-58
 3543 040f FE       		.byte	-2
 3544 0410 B8       		.byte	-72
 3545 0411 1E       		.byte	30
 3546 0412 1E       		.byte	30
 3547 0413 00       		.byte	0
 3548 0414 00       		.byte	0
 3549 0415 1E       		.byte	30
 3550 0416 1E       		.byte	30
 3551 0417 38       		.byte	56
 3552 0418 FE       		.byte	-2
 3553 0419 C6       		.byte	-58
 3554 041a C6       		.byte	-58
 3555 041b C6       		.byte	-58
 3556 041c 86       		.byte	-122
 3557 041d 18       		.byte	24
 3558 041e 18       		.byte	24
 3559 041f 18       		.byte	24
 3560 0420 18       		.byte	24
 3561 0421 1E       		.byte	30
 3562 0422 0E       		.byte	14
 3563 0423 06       		.byte	6
 3564 0424 06       		.byte	6
 3565 0425 06       		.byte	6
 3566 0426 FE       		.byte	-2
 3567 0427 FE       		.byte	-2
 3568 0428 06       		.byte	6
 3569 0429 06       		.byte	6
 3570 042a 06       		.byte	6
 3571 042b 00       		.byte	0
 3572 042c 00       		.byte	0
 3573 042d 00       		.byte	0
 3574 042e 1E       		.byte	30
 3575 042f 1E       		.byte	30
 3576 0430 00       		.byte	0
 3577 0431 00       		.byte	0
 3578 0432 00       		.byte	0
 3579 0433 FE       		.byte	-2
 3580 0434 FE       		.byte	-2
 3581 0435 00       		.byte	0
 3582 0436 00       		.byte	0
 3583 0437 FE       		.byte	-2
 3584 0438 FE       		.byte	-2
 3585 0439 0E       		.byte	14
 3586 043a 1E       		.byte	30
 3587 043b 18       		.byte	24
 3588 043c 18       		.byte	24
 3589 043d 1E       		.byte	30
 3590 043e 0E       		.byte	14
 3591 043f FE       		.byte	-2
 3592 0440 FE       		.byte	-2
 3593 0441 00       		.byte	0
 3594 0442 00       		.byte	0
 3595 0443 FE       		.byte	-2
 3596 0444 FE       		.byte	-2
 3597 0445 0E       		.byte	14
 3598 0446 1E       		.byte	30
 3599 0447 18       		.byte	24
 3600 0448 18       		.byte	24
 3601 0449 1E       		.byte	30
 3602 044a 1E       		.byte	30
 3603 044b FE       		.byte	-2
 3604 044c FE       		.byte	-2
 3605 044d 00       		.byte	0
 3606 044e F0       		.byte	-16
 3607 044f F0       		.byte	-16
 3608 0450 00       		.byte	0
 3609 0451 FE       		.byte	-2
 3610 0452 FE       		.byte	-2
 3611 0453 0E       		.byte	14
 3612 0454 1E       		.byte	30
 3613 0455 18       		.byte	24
 3614 0456 0E       		.byte	14
 3615 0457 1E       		.byte	30
 3616 0458 18       		.byte	24
 3617 0459 0E       		.byte	14
 3618 045a 0E       		.byte	14
 3619 045b BE       		.byte	-66
 3620 045c FE       		.byte	-2
 3621 045d C0       		.byte	-64
 3622 045e C0       		.byte	-64
 3623 045f FE       		.byte	-2
 3624 0460 BE       		.byte	-66
 3625 0461 1E       		.byte	30
 3626 0462 1E       		.byte	30
 3627 0463 00       		.byte	0
 3628 0464 00       		.byte	0
 3629 0465 1E       		.byte	30
 3630 0466 1E       		.byte	30
 3631 0467 1E       		.byte	30
 3632 0468 3E       		.byte	62
 3633 0469 30       		.byte	48
 3634 046a C0       		.byte	-64
 3635 046b F0       		.byte	-16
 3636 046c 30       		.byte	48
 3637 046d 1E       		.byte	30
 3638 046e 1E       		.byte	30
 3639 046f 00       		.byte	0
 3640 0470 00       		.byte	0
 3641 0471 00       		.byte	0
 3642 0472 1E       		.byte	30
 3643 0473 1E       		.byte	30
 3644 0474 00       		.byte	0
 3645 0475 00       		.byte	0
 3646 0476 00       		.byte	0
 3647 0477 86       		.byte	-122
 3648 0478 C6       		.byte	-58
 3649 0479 C6       		.byte	-58
 3650 047a 36       		.byte	54
 3651 047b 3E       		.byte	62
 3652 047c 1E       		.byte	30
 3653 047d 1E       		.byte	30
 3654 047e 1E       		.byte	30
 3655 047f 18       		.byte	24
 3656 0480 18       		.byte	24
 3657 0481 18       		.byte	24
 3658 0482 18       		.byte	24
 3659 0483 FF       		.byte	-1
 3660 0484 FF       		.byte	-1
 3661 0485 03       		.byte	3
 3662 0486 7E       		.byte	126
 3663 0487 7E       		.byte	126
 3664 0488 60       		.byte	96
 3665 0489 06       		.byte	6
 3666 048a 3E       		.byte	62
 3667 048b 38       		.byte	56
 3668 048c C0       		.byte	-64
 3669 048d C0       		.byte	-64
 3670 048e 00       		.byte	0
 3671 048f 00       		.byte	0
 3672 0490 00       		.byte	0
 3673 0491 00       		.byte	0
 3674 0492 02       		.byte	2
 3675 0493 1E       		.byte	30
 3676 0494 1C       		.byte	28
 3677 0495 03       		.byte	3
 3678 0496 FF       		.byte	-1
 3679 0497 FF       		.byte	-1
 3680 0498 60       		.byte	96
 3681 0499 7E       		.byte	126
 3682 049a 7E       		.byte	126
 3683 049b 18       		.byte	24
 3684 049c 1E       		.byte	30
 3685 049d 06       		.byte	6
 3686 049e 18       		.byte	24
 3687 049f 18       		.byte	24
 3688 04a0 00       		.byte	0
 3689 04a1 00       		.byte	0
 3690 04a2 00       		.byte	0
 3691 04a3 00       		.byte	0
 3692 04a4 00       		.byte	0
 3693 04a5 00       		.byte	0
 3694 04a6 00       		.byte	0
 3695 04a7 00       		.byte	0
 3696 04a8 00       		.byte	0
 3697 04a9 00       		.byte	0
 3698 04aa 18       		.byte	24
 3699 04ab 18       		.byte	24
 3700 04ac 18       		.byte	24
 3701 04ad 18       		.byte	24
 3702 04ae 18       		.byte	24
 3703 04af 1E       		.byte	30
 3704 04b0 1E       		.byte	30
 3705 04b1 00       		.byte	0
 3706 04b2 00       		.byte	0
 3707 04b3 00       		.byte	0
 3708 04b4 B0       		.byte	-80
 3709 04b5 B0       		.byte	-80
 3710 04b6 B0       		.byte	-80
 3711 04b7 F0       		.byte	-16
 3712 04b8 C0       		.byte	-64
 3713 04b9 0C       		.byte	12
 3714 04ba 1E       		.byte	30
 3715 04bb 1A       		.byte	26
 3716 04bc 1A       		.byte	26
 3717 04bd 1E       		.byte	30
 3718 04be 1E       		.byte	30
 3719 04bf FE       		.byte	-2
 3720 04c0 FE       		.byte	-2
 3721 04c1 30       		.byte	48
 3722 04c2 30       		.byte	48
 3723 04c3 F0       		.byte	-16
 3724 04c4 C0       		.byte	-64
 3725 04c5 1E       		.byte	30
 3726 04c6 1E       		.byte	30
 3727 04c7 18       		.byte	24
 3728 04c8 18       		.byte	24
 3729 04c9 1E       		.byte	30
 3730 04ca 0E       		.byte	14
 3731 04cb C0       		.byte	-64
 3732 04cc F0       		.byte	-16
 3733 04cd 30       		.byte	48
 3734 04ce 30       		.byte	48
 3735 04cf 30       		.byte	48
 3736 04d0 30       		.byte	48
 3737 04d1 0E       		.byte	14
 3738 04d2 1E       		.byte	30
 3739 04d3 18       		.byte	24
 3740 04d4 18       		.byte	24
 3741 04d5 18       		.byte	24
 3742 04d6 18       		.byte	24
 3743 04d7 C0       		.byte	-64
 3744 04d8 F0       		.byte	-16
 3745 04d9 30       		.byte	48
 3746 04da 30       		.byte	48
 3747 04db FE       		.byte	-2
 3748 04dc FE       		.byte	-2
 3749 04dd 0E       		.byte	14
 3750 04de 1E       		.byte	30
 3751 04df 18       		.byte	24
 3752 04e0 18       		.byte	24
 3753 04e1 1E       		.byte	30
 3754 04e2 1E       		.byte	30
 3755 04e3 C0       		.byte	-64
 3756 04e4 F0       		.byte	-16
 3757 04e5 B0       		.byte	-80
 3758 04e6 B0       		.byte	-80
 3759 04e7 F0       		.byte	-16
 3760 04e8 C0       		.byte	-64
 3761 04e9 0E       		.byte	14
 3762 04ea 1E       		.byte	30
 3763 04eb 1A       		.byte	26
 3764 04ec 1A       		.byte	26
 3765 04ed 1A       		.byte	26
 3766 04ee 1A       		.byte	26
 3767 04ef F8       		.byte	-8
 3768 04f0 FE       		.byte	-2
 3769 04f1 C6       		.byte	-58
 3770 04f2 06       		.byte	6
 3771 04f3 06       		.byte	6
 3772 04f4 1E       		.byte	30
 3773 04f5 1E       		.byte	30
 3774 04f6 00       		.byte	0
 3775 04f7 00       		.byte	0
 3776 04f8 00       		.byte	0
 3777 04f9 C0       		.byte	-64
 3778 04fa F0       		.byte	-16
 3779 04fb 30       		.byte	48
 3780 04fc 30       		.byte	48
 3781 04fd F0       		.byte	-16
 3782 04fe C0       		.byte	-64
 3783 04ff CE       		.byte	-50
 3784 0500 DE       		.byte	-34
 3785 0501 D8       		.byte	-40
 3786 0502 D8       		.byte	-40
 3787 0503 FE       		.byte	-2
 3788 0504 7E       		.byte	126
 3789 0505 FE       		.byte	-2
 3790 0506 FE       		.byte	-2
 3791 0507 30       		.byte	48
 3792 0508 30       		.byte	48
 3793 0509 F0       		.byte	-16
 3794 050a C0       		.byte	-64
 3795 050b 1E       		.byte	30
 3796 050c 1E       		.byte	30
 3797 050d 00       		.byte	0
 3798 050e 00       		.byte	0
 3799 050f 1E       		.byte	30
 3800 0510 1E       		.byte	30
 3801 0511 F6       		.byte	-10
 3802 0512 F6       		.byte	-10
 3803 0513 1E       		.byte	30
 3804 0514 1E       		.byte	30
 3805 0515 00       		.byte	0
 3806 0516 F6       		.byte	-10
 3807 0517 F6       		.byte	-10
 3808 0518 C0       		.byte	-64
 3809 0519 FE       		.byte	-2
 3810 051a 7E       		.byte	126
 3811 051b FE       		.byte	-2
 3812 051c FE       		.byte	-2
 3813 051d 80       		.byte	-128
 3814 051e F0       		.byte	-16
 3815 051f F0       		.byte	-16
 3816 0520 1E       		.byte	30
 3817 0521 1E       		.byte	30
 3818 0522 02       		.byte	2
 3819 0523 1C       		.byte	28
 3820 0524 1C       		.byte	28
 3821 0525 FE       		.byte	-2
 3822 0526 FE       		.byte	-2
 3823 0527 1E       		.byte	30
 3824 0528 1E       		.byte	30
 3825 0529 F0       		.byte	-16
 3826 052a F0       		.byte	-16
 3827 052b 30       		.byte	48
 3828 052c F0       		.byte	-16
 3829 052d F0       		.byte	-16
 3830 052e 30       		.byte	48
 3831 052f C0       		.byte	-64
 3832 0530 C0       		.byte	-64
 3833 0531 1E       		.byte	30
 3834 0532 1E       		.byte	30
 3835 0533 00       		.byte	0
 3836 0534 1E       		.byte	30
 3837 0535 1E       		.byte	30
 3838 0536 00       		.byte	0
 3839 0537 1E       		.byte	30
 3840 0538 1E       		.byte	30
 3841 0539 F0       		.byte	-16
 3842 053a F0       		.byte	-16
 3843 053b 30       		.byte	48
 3844 053c 30       		.byte	48
 3845 053d F0       		.byte	-16
 3846 053e C0       		.byte	-64
 3847 053f 1E       		.byte	30
 3848 0540 1E       		.byte	30
 3849 0541 00       		.byte	0
 3850 0542 00       		.byte	0
 3851 0543 1E       		.byte	30
 3852 0544 1E       		.byte	30
 3853 0545 C0       		.byte	-64
 3854 0546 F0       		.byte	-16
 3855 0547 30       		.byte	48
 3856 0548 30       		.byte	48
 3857 0549 F0       		.byte	-16
 3858 054a C0       		.byte	-64
 3859 054b 0E       		.byte	14
 3860 054c 1E       		.byte	30
 3861 054d 18       		.byte	24
 3862 054e 18       		.byte	24
 3863 054f 1E       		.byte	30
 3864 0550 0E       		.byte	14
 3865 0551 F0       		.byte	-16
 3866 0552 F0       		.byte	-16
 3867 0553 30       		.byte	48
 3868 0554 30       		.byte	48
 3869 0555 F0       		.byte	-16
 3870 0556 C0       		.byte	-64
 3871 0557 FE       		.byte	-2
 3872 0558 FE       		.byte	-2
 3873 0559 18       		.byte	24
 3874 055a 18       		.byte	24
 3875 055b 1E       		.byte	30
 3876 055c 0E       		.byte	14
 3877 055d C0       		.byte	-64
 3878 055e F0       		.byte	-16
 3879 055f 30       		.byte	48
 3880 0560 30       		.byte	48
 3881 0561 F0       		.byte	-16
 3882 0562 F0       		.byte	-16
 3883 0563 0E       		.byte	14
 3884 0564 1E       		.byte	30
 3885 0565 18       		.byte	24
 3886 0566 18       		.byte	24
 3887 0567 FE       		.byte	-2
 3888 0568 FE       		.byte	-2
 3889 0569 C0       		.byte	-64
 3890 056a F0       		.byte	-16
 3891 056b 30       		.byte	48
 3892 056c 30       		.byte	48
 3893 056d 30       		.byte	48
 3894 056e 1E       		.byte	30
 3895 056f 1E       		.byte	30
 3896 0570 00       		.byte	0
 3897 0571 00       		.byte	0
 3898 0572 00       		.byte	0
 3899 0573 C0       		.byte	-64
 3900 0574 F0       		.byte	-16
 3901 0575 B0       		.byte	-80
 3902 0576 B0       		.byte	-80
 3903 0577 B0       		.byte	-80
 3904 0578 30       		.byte	48
 3905 0579 18       		.byte	24
 3906 057a 1A       		.byte	26
 3907 057b 1A       		.byte	26
 3908 057c 1A       		.byte	26
 3909 057d 1E       		.byte	30
 3910 057e 0C       		.byte	12
 3911 057f FE       		.byte	-2
 3912 0580 FE       		.byte	-2
 3913 0581 30       		.byte	48
 3914 0582 00       		.byte	0
 3915 0583 00       		.byte	0
 3916 0584 0E       		.byte	14
 3917 0585 1E       		.byte	30
 3918 0586 18       		.byte	24
 3919 0587 18       		.byte	24
 3920 0588 18       		.byte	24
 3921 0589 F0       		.byte	-16
 3922 058a F0       		.byte	-16
 3923 058b 00       		.byte	0
 3924 058c 00       		.byte	0
 3925 058d F0       		.byte	-16
 3926 058e F0       		.byte	-16
 3927 058f 0E       		.byte	14
 3928 0590 1E       		.byte	30
 3929 0591 18       		.byte	24
 3930 0592 18       		.byte	24
 3931 0593 1E       		.byte	30
 3932 0594 1E       		.byte	30
 3933 0595 F0       		.byte	-16
 3934 0596 F0       		.byte	-16
 3935 0597 00       		.byte	0
 3936 0598 00       		.byte	0
 3937 0599 F0       		.byte	-16
 3938 059a F0       		.byte	-16
 3939 059b 02       		.byte	2
 3940 059c 0E       		.byte	14
 3941 059d 0C       		.byte	12
 3942 059e 18       		.byte	24
 3943 059f 1E       		.byte	30
 3944 05a0 1E       		.byte	30
 3945 05a1 F0       		.byte	-16
 3946 05a2 F0       		.byte	-16
 3947 05a3 00       		.byte	0
 3948 05a4 00       		.byte	0
 3949 05a5 00       		.byte	0
 3950 05a6 00       		.byte	0
 3951 05a7 F0       		.byte	-16
 3952 05a8 F0       		.byte	-16
 3953 05a9 0E       		.byte	14
 3954 05aa 1E       		.byte	30
 3955 05ab 18       		.byte	24
 3956 05ac 0C       		.byte	12
 3957 05ad 1C       		.byte	28
 3958 05ae 18       		.byte	24
 3959 05af 0E       		.byte	14
 3960 05b0 0E       		.byte	14
 3961 05b1 F0       		.byte	-16
 3962 05b2 F0       		.byte	-16
 3963 05b3 80       		.byte	-128
 3964 05b4 80       		.byte	-128
 3965 05b5 F0       		.byte	-16
 3966 05b6 F0       		.byte	-16
 3967 05b7 1C       		.byte	28
 3968 05b8 1E       		.byte	30
 3969 05b9 02       		.byte	2
 3970 05ba 02       		.byte	2
 3971 05bb 1E       		.byte	30
 3972 05bc 1C       		.byte	28
 3973 05bd F0       		.byte	-16
 3974 05be F0       		.byte	-16
 3975 05bf 00       		.byte	0
 3976 05c0 00       		.byte	0
 3977 05c1 F0       		.byte	-16
 3978 05c2 F0       		.byte	-16
 3979 05c3 CE       		.byte	-50
 3980 05c4 DE       		.byte	-34
 3981 05c5 D8       		.byte	-40
 3982 05c6 D8       		.byte	-40
 3983 05c7 FE       		.byte	-2
 3984 05c8 7E       		.byte	126
 3985 05c9 30       		.byte	48
 3986 05ca B0       		.byte	-80
 3987 05cb B0       		.byte	-80
 3988 05cc B0       		.byte	-80
 3989 05cd F0       		.byte	-16
 3990 05ce F0       		.byte	-16
 3991 05cf 1C       		.byte	28
 3992 05d0 1E       		.byte	30
 3993 05d1 1A       		.byte	26
 3994 05d2 1A       		.byte	26
 3995 05d3 1A       		.byte	26
 3996 05d4 18       		.byte	24
 3997 05d5 C0       		.byte	-64
 3998 05d6 FE       		.byte	-2
 3999 05d7 BE       		.byte	-66
 4000 05d8 03       		.byte	3
 4001 05d9 03       		.byte	3
 4002 05da 00       		.byte	0
 4003 05db 1E       		.byte	30
 4004 05dc 1E       		.byte	30
 4005 05dd 60       		.byte	96
 4006 05de 60       		.byte	96
 4007 05df FE       		.byte	-2
 4008 05e0 FE       		.byte	-2
 4009 05e1 1E       		.byte	30
 4010 05e2 1E       		.byte	30
 4011 05e3 03       		.byte	3
 4012 05e4 BF       		.byte	-65
 4013 05e5 BE       		.byte	-66
 4014 05e6 C0       		.byte	-64
 4015 05e7 C0       		.byte	-64
 4016 05e8 60       		.byte	96
 4017 05e9 7E       		.byte	126
 4018 05ea 1E       		.byte	30
 4019 05eb 00       		.byte	0
 4020 05ec 00       		.byte	0
 4021 05ed 06       		.byte	6
 4022 05ee 06       		.byte	6
 4023 05ef 06       		.byte	6
 4024 05f0 00       		.byte	0
 4025 05f1 00       		.byte	0
 4026 05f2 00       		.byte	0
 4027 05f3 00       		.space	1
 4030              	alterebro49:
 4031 05f4 74       		.byte	116
 4032 05f5 A5       		.byte	-91
 4033 05f6 0A       		.byte	10
 4034 05f7 1E       		.byte	30
 4035 05f8 20       		.byte	32
 4036 05f9 5F       		.byte	95
 4037 05fa 00       		.byte	0
 4038 05fb 03       		.byte	3
 4039 05fc 09       		.byte	9
 4040 05fd 0F       		.byte	15
 4041 05fe 0F       		.byte	15
 4042 05ff 15       		.byte	21
 4043 0600 0F       		.byte	15
 4044 0601 03       		.byte	3
 4045 0602 06       		.byte	6
 4046 0603 06       		.byte	6
 4047 0604 09       		.byte	9
 4048 0605 0F       		.byte	15
 4049 0606 03       		.byte	3
 4050 0607 09       		.byte	9
 4051 0608 03       		.byte	3
 4052 0609 0C       		.byte	12
 4053 060a 0C       		.byte	12
 4054 060b 06       		.byte	6
 4055 060c 0C       		.byte	12
 4056 060d 0C       		.byte	12
 4057 060e 0C       		.byte	12
 4058 060f 0C       		.byte	12
 4059 0610 0C       		.byte	12
 4060 0611 0C       		.byte	12
 4061 0612 0C       		.byte	12
 4062 0613 0C       		.byte	12
 4063 0614 03       		.byte	3
 4064 0615 03       		.byte	3
 4065 0616 09       		.byte	9
 4066 0617 09       		.byte	9
 4067 0618 09       		.byte	9
 4068 0619 0F       		.byte	15
 4069 061a 12       		.byte	18
 4070 061b 0C       		.byte	12
 4071 061c 0C       		.byte	12
 4072 061d 0C       		.byte	12
 4073 061e 0C       		.byte	12
 4074 061f 0D       		.byte	13
 4075 0620 0D       		.byte	13
 4076 0621 0C       		.byte	12
 4077 0622 0C       		.byte	12
 4078 0623 03       		.byte	3
 4079 0624 0C       		.byte	12
 4080 0625 0C       		.byte	12
 4081 0626 09       		.byte	9
 4082 0627 0F       		.byte	15
 4083 0628 0C       		.byte	12
 4084 0629 0C       		.byte	12
 4085 062a 0C       		.byte	12
 4086 062b 0C       		.byte	12
 4087 062c 0C       		.byte	12
 4088 062d 0C       		.byte	12
 4089 062e 0F       		.byte	15
 4090 062f 0C       		.byte	12
 4091 0630 0C       		.byte	12
 4092 0631 0F       		.byte	15
 4093 0632 0C       		.byte	12
 4094 0633 0F       		.byte	15
 4095 0634 0C       		.byte	12
 4096 0635 06       		.byte	6
 4097 0636 0C       		.byte	12
 4098 0637 06       		.byte	6
 4099 0638 09       		.byte	9
 4100 0639 09       		.byte	9
 4101 063a 03       		.byte	3
 4102 063b 0C       		.byte	12
 4103 063c 0C       		.byte	12
 4104 063d 0C       		.byte	12
 4105 063e 0C       		.byte	12
 4106 063f 0C       		.byte	12
 4107 0640 09       		.byte	9
 4108 0641 0C       		.byte	12
 4109 0642 0C       		.byte	12
 4110 0643 03       		.byte	3
 4111 0644 06       		.byte	6
 4112 0645 09       		.byte	9
 4113 0646 03       		.byte	3
 4114 0647 0F       		.byte	15
 4115 0648 0C       		.byte	12
 4116 0649 0C       		.byte	12
 4117 064a 0C       		.byte	12
 4118 064b 0C       		.byte	12
 4119 064c 09       		.byte	9
 4120 064d 0C       		.byte	12
 4121 064e 09       		.byte	9
 4122 064f 0C       		.byte	12
 4123 0650 0C       		.byte	12
 4124 0651 0F       		.byte	15
 4125 0652 0C       		.byte	12
 4126 0653 0C       		.byte	12
 4127 0654 0C       		.byte	12
 4128 0655 09       		.byte	9
 4129 0656 03       		.byte	3
 4130 0657 09       		.byte	9
 4131 0658 06       		.byte	6
 4132 0659 F8       		.byte	-8
 4133 065a F8       		.byte	-8
 4134 065b F8       		.byte	-8
 4135 065c FF       		.byte	-1
 4136 065d FF       		.byte	-1
 4137 065e FF       		.byte	-1
 4138 065f E3       		.byte	-29
 4139 0660 E3       		.byte	-29
 4140 0661 E3       		.byte	-29
 4141 0662 00       		.byte	0
 4142 0663 00       		.byte	0
 4143 0664 00       		.byte	0
 4144 0665 F8       		.byte	-8
 4145 0666 F8       		.byte	-8
 4146 0667 F8       		.byte	-8
 4147 0668 00       		.byte	0
 4148 0669 00       		.byte	0
 4149 066a 00       		.byte	0
 4150 066b F8       		.byte	-8
 4151 066c F8       		.byte	-8
 4152 066d F8       		.byte	-8
 4153 066e 01       		.byte	1
 4154 066f 01       		.byte	1
 4155 0670 01       		.byte	1
 4156 0671 00       		.byte	0
 4157 0672 00       		.byte	0
 4158 0673 00       		.byte	0
 4159 0674 01       		.byte	1
 4160 0675 01       		.byte	1
 4161 0676 01       		.byte	1
 4162 0677 00       		.byte	0
 4163 0678 00       		.byte	0
 4164 0679 00       		.byte	0
 4165 067a 00       		.byte	0
 4166 067b 00       		.byte	0
 4167 067c 00       		.byte	0
 4168 067d 00       		.byte	0
 4169 067e 00       		.byte	0
 4170 067f 00       		.byte	0
 4171 0680 00       		.byte	0
 4172 0681 00       		.byte	0
 4173 0682 00       		.byte	0
 4174 0683 00       		.byte	0
 4175 0684 00       		.byte	0
 4176 0685 00       		.byte	0
 4177 0686 00       		.byte	0
 4178 0687 00       		.byte	0
 4179 0688 00       		.byte	0
 4180 0689 00       		.byte	0
 4181 068a 00       		.byte	0
 4182 068b 00       		.byte	0
 4183 068c C0       		.byte	-64
 4184 068d C0       		.byte	-64
 4185 068e C0       		.byte	-64
 4186 068f 00       		.byte	0
 4187 0690 00       		.byte	0
 4188 0691 00       		.byte	0
 4189 0692 C0       		.byte	-64
 4190 0693 C0       		.byte	-64
 4191 0694 C0       		.byte	-64
 4192 0695 00       		.byte	0
 4193 0696 00       		.byte	0
 4194 0697 00       		.byte	0
 4195 0698 8E       		.byte	-114
 4196 0699 8E       		.byte	-114
 4197 069a 8E       		.byte	-114
 4198 069b FF       		.byte	-1
 4199 069c FF       		.byte	-1
 4200 069d FF       		.byte	-1
 4201 069e 8E       		.byte	-114
 4202 069f 8E       		.byte	-114
 4203 06a0 8E       		.byte	-114
 4204 06a1 FF       		.byte	-1
 4205 06a2 FF       		.byte	-1
 4206 06a3 FF       		.byte	-1
 4207 06a4 8E       		.byte	-114
 4208 06a5 8E       		.byte	-114
 4209 06a6 8E       		.byte	-114
 4210 06a7 03       		.byte	3
 4211 06a8 03       		.byte	3
 4212 06a9 03       		.byte	3
 4213 06aa 1F       		.byte	31
 4214 06ab 1F       		.byte	31
 4215 06ac 1F       		.byte	31
 4216 06ad 03       		.byte	3
 4217 06ae 03       		.byte	3
 4218 06af 03       		.byte	3
 4219 06b0 1F       		.byte	31
 4220 06b1 1F       		.byte	31
 4221 06b2 1F       		.byte	31
 4222 06b3 03       		.byte	3
 4223 06b4 03       		.byte	3
 4224 06b5 03       		.byte	3
 4225 06b6 00       		.byte	0
 4226 06b7 00       		.byte	0
 4227 06b8 00       		.byte	0
 4228 06b9 00       		.byte	0
 4229 06ba 00       		.byte	0
 4230 06bb 00       		.byte	0
 4231 06bc 00       		.byte	0
 4232 06bd 00       		.byte	0
 4233 06be 00       		.byte	0
 4234 06bf 00       		.byte	0
 4235 06c0 00       		.byte	0
 4236 06c1 00       		.byte	0
 4237 06c2 00       		.byte	0
 4238 06c3 00       		.byte	0
 4239 06c4 00       		.byte	0
 4240 06c5 C0       		.byte	-64
 4241 06c6 C0       		.byte	-64
 4242 06c7 C0       		.byte	-64
 4243 06c8 38       		.byte	56
 4244 06c9 38       		.byte	56
 4245 06ca 38       		.byte	56
 4246 06cb FF       		.byte	-1
 4247 06cc FF       		.byte	-1
 4248 06cd FF       		.byte	-1
 4249 06ce 38       		.byte	56
 4250 06cf 38       		.byte	56
 4251 06d0 38       		.byte	56
 4252 06d1 38       		.byte	56
 4253 06d2 38       		.byte	56
 4254 06d3 38       		.byte	56
 4255 06d4 0F       		.byte	15
 4256 06d5 0F       		.byte	15
 4257 06d6 0F       		.byte	15
 4258 06d7 70       		.byte	112
 4259 06d8 70       		.byte	112
 4260 06d9 70       		.byte	112
 4261 06da FF       		.byte	-1
 4262 06db FF       		.byte	-1
 4263 06dc FF       		.byte	-1
 4264 06dd 70       		.byte	112
 4265 06de 70       		.byte	112
 4266 06df 70       		.byte	112
 4267 06e0 80       		.byte	-128
 4268 06e1 80       		.byte	-128
 4269 06e2 80       		.byte	-128
 4270 06e3 E0       		.byte	-32
 4271 06e4 E0       		.byte	-32
 4272 06e5 E0       		.byte	-32
 4273 06e6 E0       		.byte	-32
 4274 06e7 E0       		.byte	-32
 4275 06e8 E0       		.byte	-32
 4276 06e9 FF       		.byte	-1
 4277 06ea FF       		.byte	-1
 4278 06eb FF       		.byte	-1
 4279 06ec E0       		.byte	-32
 4280 06ed E0       		.byte	-32
 4281 06ee E0       		.byte	-32
 4282 06ef 1F       		.byte	31
 4283 06f0 1F       		.byte	31
 4284 06f1 1F       		.byte	31
 4285 06f2 00       		.byte	0
 4286 06f3 00       		.byte	0
 4287 06f4 00       		.byte	0
 4288 06f5 00       		.byte	0
 4289 06f6 00       		.byte	0
 4290 06f7 00       		.byte	0
 4291 06f8 1C       		.byte	28
 4292 06f9 1C       		.byte	28
 4293 06fa 1C       		.byte	28
 4294 06fb 00       		.byte	0
 4295 06fc 00       		.byte	0
 4296 06fd 00       		.byte	0
 4297 06fe 00       		.byte	0
 4298 06ff 00       		.byte	0
 4299 0700 00       		.byte	0
 4300 0701 C0       		.byte	-64
 4301 0702 C0       		.byte	-64
 4302 0703 C0       		.byte	-64
 4303 0704 38       		.byte	56
 4304 0705 38       		.byte	56
 4305 0706 38       		.byte	56
 4306 0707 C0       		.byte	-64
 4307 0708 C0       		.byte	-64
 4308 0709 C0       		.byte	-64
 4309 070a 00       		.byte	0
 4310 070b 00       		.byte	0
 4311 070c 00       		.byte	0
 4312 070d 00       		.byte	0
 4313 070e 00       		.byte	0
 4314 070f 00       		.byte	0
 4315 0710 C0       		.byte	-64
 4316 0711 C0       		.byte	-64
 4317 0712 C0       		.byte	-64
 4318 0713 38       		.byte	56
 4319 0714 38       		.byte	56
 4320 0715 38       		.byte	56
 4321 0716 01       		.byte	1
 4322 0717 01       		.byte	1
 4323 0718 01       		.byte	1
 4324 0719 0E       		.byte	14
 4325 071a 0E       		.byte	14
 4326 071b 0E       		.byte	14
 4327 071c 81       		.byte	-127
 4328 071d 81       		.byte	-127
 4329 071e 81       		.byte	-127
 4330 071f 70       		.byte	112
 4331 0720 70       		.byte	112
 4332 0721 70       		.byte	112
 4333 0722 0E       		.byte	14
 4334 0723 0E       		.byte	14
 4335 0724 0E       		.byte	14
 4336 0725 81       		.byte	-127
 4337 0726 81       		.byte	-127
 4338 0727 81       		.byte	-127
 4339 0728 00       		.byte	0
 4340 0729 00       		.byte	0
 4341 072a 00       		.byte	0
 4342 072b E0       		.byte	-32
 4343 072c E0       		.byte	-32
 4344 072d E0       		.byte	-32
 4345 072e 1C       		.byte	28
 4346 072f 1C       		.byte	28
 4347 0730 1C       		.byte	28
 4348 0731 03       		.byte	3
 4349 0732 03       		.byte	3
 4350 0733 03       		.byte	3
 4351 0734 00       		.byte	0
 4352 0735 00       		.byte	0
 4353 0736 00       		.byte	0
 4354 0737 1C       		.byte	28
 4355 0738 1C       		.byte	28
 4356 0739 1C       		.byte	28
 4357 073a E3       		.byte	-29
 4358 073b E3       		.byte	-29
 4359 073c E3       		.byte	-29
 4360 073d 1C       		.byte	28
 4361 073e 1C       		.byte	28
 4362 073f 1C       		.byte	28
 4363 0740 00       		.byte	0
 4364 0741 00       		.byte	0
 4365 0742 00       		.byte	0
 4366 0743 00       		.byte	0
 4367 0744 00       		.byte	0
 4368 0745 00       		.byte	0
 4369 0746 00       		.byte	0
 4370 0747 00       		.byte	0
 4371 0748 00       		.byte	0
 4372 0749 00       		.byte	0
 4373 074a 00       		.byte	0
 4374 074b 00       		.byte	0
 4375 074c 00       		.byte	0
 4376 074d 00       		.byte	0
 4377 074e 00       		.byte	0
 4378 074f 00       		.byte	0
 4379 0750 00       		.byte	0
 4380 0751 00       		.byte	0
 4381 0752 00       		.byte	0
 4382 0753 00       		.byte	0
 4383 0754 00       		.byte	0
 4384 0755 C0       		.byte	-64
 4385 0756 C0       		.byte	-64
 4386 0757 C0       		.byte	-64
 4387 0758 38       		.byte	56
 4388 0759 38       		.byte	56
 4389 075a 38       		.byte	56
 4390 075b 38       		.byte	56
 4391 075c 38       		.byte	56
 4392 075d 38       		.byte	56
 4393 075e C0       		.byte	-64
 4394 075f C0       		.byte	-64
 4395 0760 C0       		.byte	-64
 4396 0761 00       		.byte	0
 4397 0762 00       		.byte	0
 4398 0763 00       		.byte	0
 4399 0764 8F       		.byte	-113
 4400 0765 8F       		.byte	-113
 4401 0766 8F       		.byte	-113
 4402 0767 70       		.byte	112
 4403 0768 70       		.byte	112
 4404 0769 70       		.byte	112
 4405 076a 8E       		.byte	-114
 4406 076b 8E       		.byte	-114
 4407 076c 8E       		.byte	-114
 4408 076d 01       		.byte	1
 4409 076e 01       		.byte	1
 4410 076f 01       		.byte	1
 4411 0770 F0       		.byte	-16
 4412 0771 F0       		.byte	-16
 4413 0772 F0       		.byte	-16
 4414 0773 1F       		.byte	31
 4415 0774 1F       		.byte	31
 4416 0775 1F       		.byte	31
 4417 0776 E0       		.byte	-32
 4418 0777 E0       		.byte	-32
 4419 0778 E0       		.byte	-32
 4420 0779 E3       		.byte	-29
 4421 077a E3       		.byte	-29
 4422 077b E3       		.byte	-29
 4423 077c 1C       		.byte	28
 4424 077d 1C       		.byte	28
 4425 077e 1C       		.byte	28
 4426 077f E3       		.byte	-29
 4427 0780 E3       		.byte	-29
 4428 0781 E3       		.byte	-29
 4429 0782 00       		.byte	0
 4430 0783 00       		.byte	0
 4431 0784 00       		.byte	0
 4432 0785 00       		.byte	0
 4433 0786 00       		.byte	0
 4434 0787 00       		.byte	0
 4435 0788 00       		.byte	0
 4436 0789 00       		.byte	0
 4437 078a 00       		.byte	0
 4438 078b 00       		.byte	0
 4439 078c 00       		.byte	0
 4440 078d 00       		.byte	0
 4441 078e 00       		.byte	0
 4442 078f 00       		.byte	0
 4443 0790 00       		.byte	0
 4444 0791 F8       		.byte	-8
 4445 0792 F8       		.byte	-8
 4446 0793 F8       		.byte	-8
 4447 0794 01       		.byte	1
 4448 0795 01       		.byte	1
 4449 0796 01       		.byte	1
 4450 0797 00       		.byte	0
 4451 0798 00       		.byte	0
 4452 0799 00       		.byte	0
 4453 079a 00       		.byte	0
 4454 079b 00       		.byte	0
 4455 079c 00       		.byte	0
 4456 079d F8       		.byte	-8
 4457 079e F8       		.byte	-8
 4458 079f F8       		.byte	-8
 4459 07a0 07       		.byte	7
 4460 07a1 07       		.byte	7
 4461 07a2 07       		.byte	7
 4462 07a3 FF       		.byte	-1
 4463 07a4 FF       		.byte	-1
 4464 07a5 FF       		.byte	-1
 4465 07a6 00       		.byte	0
 4466 07a7 00       		.byte	0
 4467 07a8 00       		.byte	0
 4468 07a9 FF       		.byte	-1
 4469 07aa FF       		.byte	-1
 4470 07ab FF       		.byte	-1
 4471 07ac 00       		.byte	0
 4472 07ad 00       		.byte	0
 4473 07ae 00       		.byte	0
 4474 07af 00       		.byte	0
 4475 07b0 00       		.byte	0
 4476 07b1 00       		.byte	0
 4477 07b2 1C       		.byte	28
 4478 07b3 1C       		.byte	28
 4479 07b4 1C       		.byte	28
 4480 07b5 07       		.byte	7
 4481 07b6 07       		.byte	7
 4482 07b7 07       		.byte	7
 4483 07b8 F8       		.byte	-8
 4484 07b9 F8       		.byte	-8
 4485 07ba F8       		.byte	-8
 4486 07bb 00       		.byte	0
 4487 07bc 00       		.byte	0
 4488 07bd 00       		.byte	0
 4489 07be FF       		.byte	-1
 4490 07bf FF       		.byte	-1
 4491 07c0 FF       		.byte	-1
 4492 07c1 00       		.byte	0
 4493 07c2 00       		.byte	0
 4494 07c3 00       		.byte	0
 4495 07c4 FF       		.byte	-1
 4496 07c5 FF       		.byte	-1
 4497 07c6 FF       		.byte	-1
 4498 07c7 1C       		.byte	28
 4499 07c8 1C       		.byte	28
 4500 07c9 1C       		.byte	28
 4501 07ca 00       		.byte	0
 4502 07cb 00       		.byte	0
 4503 07cc 00       		.byte	0
 4504 07cd 38       		.byte	56
 4505 07ce 38       		.byte	56
 4506 07cf 38       		.byte	56
 4507 07d0 C0       		.byte	-64
 4508 07d1 C0       		.byte	-64
 4509 07d2 C0       		.byte	-64
 4510 07d3 38       		.byte	56
 4511 07d4 38       		.byte	56
 4512 07d5 38       		.byte	56
 4513 07d6 0E       		.byte	14
 4514 07d7 0E       		.byte	14
 4515 07d8 0E       		.byte	14
 4516 07d9 01       		.byte	1
 4517 07da 01       		.byte	1
 4518 07db 01       		.byte	1
 4519 07dc 0E       		.byte	14
 4520 07dd 0E       		.byte	14
 4521 07de 0E       		.byte	14
 4522 07df 00       		.byte	0
 4523 07e0 00       		.byte	0
 4524 07e1 00       		.byte	0
 4525 07e2 00       		.byte	0
 4526 07e3 00       		.byte	0
 4527 07e4 00       		.byte	0
 4528 07e5 00       		.byte	0
 4529 07e6 00       		.byte	0
 4530 07e7 00       		.byte	0
 4531 07e8 00       		.byte	0
 4532 07e9 00       		.byte	0
 4533 07ea 00       		.byte	0
 4534 07eb 00       		.byte	0
 4535 07ec 00       		.byte	0
 4536 07ed 00       		.byte	0
 4537 07ee 00       		.byte	0
 4538 07ef 00       		.byte	0
 4539 07f0 00       		.byte	0
 4540 07f1 00       		.byte	0
 4541 07f2 00       		.byte	0
 4542 07f3 00       		.byte	0
 4543 07f4 00       		.byte	0
 4544 07f5 00       		.byte	0
 4545 07f6 00       		.byte	0
 4546 07f7 C0       		.byte	-64
 4547 07f8 C0       		.byte	-64
 4548 07f9 C0       		.byte	-64
 4549 07fa 00       		.byte	0
 4550 07fb 00       		.byte	0
 4551 07fc 00       		.byte	0
 4552 07fd 00       		.byte	0
 4553 07fe 00       		.byte	0
 4554 07ff 00       		.byte	0
 4555 0800 70       		.byte	112
 4556 0801 70       		.byte	112
 4557 0802 70       		.byte	112
 4558 0803 70       		.byte	112
 4559 0804 70       		.byte	112
 4560 0805 70       		.byte	112
 4561 0806 FF       		.byte	-1
 4562 0807 FF       		.byte	-1
 4563 0808 FF       		.byte	-1
 4564 0809 70       		.byte	112
 4565 080a 70       		.byte	112
 4566 080b 70       		.byte	112
 4567 080c 70       		.byte	112
 4568 080d 70       		.byte	112
 4569 080e 70       		.byte	112
 4570 080f 00       		.byte	0
 4571 0810 00       		.byte	0
 4572 0811 00       		.byte	0
 4573 0812 00       		.byte	0
 4574 0813 00       		.byte	0
 4575 0814 00       		.byte	0
 4576 0815 1F       		.byte	31
 4577 0816 1F       		.byte	31
 4578 0817 1F       		.byte	31
 4579 0818 00       		.byte	0
 4580 0819 00       		.byte	0
 4581 081a 00       		.byte	0
 4582 081b 00       		.byte	0
 4583 081c 00       		.byte	0
 4584 081d 00       		.byte	0
 4585 081e 00       		.byte	0
 4586 081f 00       		.byte	0
 4587 0820 00       		.byte	0
 4588 0821 00       		.byte	0
 4589 0822 00       		.byte	0
 4590 0823 00       		.byte	0
 4591 0824 00       		.byte	0
 4592 0825 00       		.byte	0
 4593 0826 00       		.byte	0
 4594 0827 00       		.byte	0
 4595 0828 00       		.byte	0
 4596 0829 00       		.byte	0
 4597 082a 00       		.byte	0
 4598 082b 00       		.byte	0
 4599 082c 00       		.byte	0
 4600 082d 00       		.byte	0
 4601 082e 00       		.byte	0
 4602 082f 00       		.byte	0
 4603 0830 00       		.byte	0
 4604 0831 00       		.byte	0
 4605 0832 00       		.byte	0
 4606 0833 E0       		.byte	-32
 4607 0834 E0       		.byte	-32
 4608 0835 E0       		.byte	-32
 4609 0836 1C       		.byte	28
 4610 0837 1C       		.byte	28
 4611 0838 1C       		.byte	28
 4612 0839 00       		.byte	0
 4613 083a 00       		.byte	0
 4614 083b 00       		.byte	0
 4615 083c 00       		.byte	0
 4616 083d 00       		.byte	0
 4617 083e 00       		.byte	0
 4618 083f 00       		.byte	0
 4619 0840 00       		.byte	0
 4620 0841 00       		.byte	0
 4621 0842 70       		.byte	112
 4622 0843 70       		.byte	112
 4623 0844 70       		.byte	112
 4624 0845 70       		.byte	112
 4625 0846 70       		.byte	112
 4626 0847 70       		.byte	112
 4627 0848 70       		.byte	112
 4628 0849 70       		.byte	112
 4629 084a 70       		.byte	112
 4630 084b 00       		.byte	0
 4631 084c 00       		.byte	0
 4632 084d 00       		.byte	0
 4633 084e 00       		.byte	0
 4634 084f 00       		.byte	0
 4635 0850 00       		.byte	0
 4636 0851 00       		.byte	0
 4637 0852 00       		.byte	0
 4638 0853 00       		.byte	0
 4639 0854 00       		.byte	0
 4640 0855 00       		.byte	0
 4641 0856 00       		.byte	0
 4642 0857 00       		.byte	0
 4643 0858 00       		.byte	0
 4644 0859 00       		.byte	0
 4645 085a 00       		.byte	0
 4646 085b 00       		.byte	0
 4647 085c 00       		.byte	0
 4648 085d 00       		.byte	0
 4649 085e 00       		.byte	0
 4650 085f 00       		.byte	0
 4651 0860 00       		.byte	0
 4652 0861 00       		.byte	0
 4653 0862 00       		.byte	0
 4654 0863 E0       		.byte	-32
 4655 0864 E0       		.byte	-32
 4656 0865 E0       		.byte	-32
 4657 0866 00       		.byte	0
 4658 0867 00       		.byte	0
 4659 0868 00       		.byte	0
 4660 0869 00       		.byte	0
 4661 086a 00       		.byte	0
 4662 086b 00       		.byte	0
 4663 086c 00       		.byte	0
 4664 086d 00       		.byte	0
 4665 086e 00       		.byte	0
 4666 086f C0       		.byte	-64
 4667 0870 C0       		.byte	-64
 4668 0871 C0       		.byte	-64
 4669 0872 38       		.byte	56
 4670 0873 38       		.byte	56
 4671 0874 38       		.byte	56
 4672 0875 00       		.byte	0
 4673 0876 00       		.byte	0
 4674 0877 00       		.byte	0
 4675 0878 F0       		.byte	-16
 4676 0879 F0       		.byte	-16
 4677 087a F0       		.byte	-16
 4678 087b 0F       		.byte	15
 4679 087c 0F       		.byte	15
 4680 087d 0F       		.byte	15
 4681 087e 00       		.byte	0
 4682 087f 00       		.byte	0
 4683 0880 00       		.byte	0
 4684 0881 FC       		.byte	-4
 4685 0882 FC       		.byte	-4
 4686 0883 FC       		.byte	-4
 4687 0884 03       		.byte	3
 4688 0885 03       		.byte	3
 4689 0886 03       		.byte	3
 4690 0887 00       		.byte	0
 4691 0888 00       		.byte	0
 4692 0889 00       		.byte	0
 4693 088a 00       		.byte	0
 4694 088b 00       		.byte	0
 4695 088c 00       		.byte	0
 4696 088d 00       		.byte	0
 4697 088e 00       		.byte	0
 4698 088f 00       		.byte	0
 4699 0890 00       		.byte	0
 4700 0891 00       		.byte	0
 4701 0892 00       		.byte	0
 4702 0893 00       		.byte	0
 4703 0894 00       		.byte	0
 4704 0895 00       		.byte	0
 4705 0896 00       		.byte	0
 4706 0897 00       		.byte	0
 4707 0898 00       		.byte	0
 4708 0899 C0       		.byte	-64
 4709 089a C0       		.byte	-64
 4710 089b C0       		.byte	-64
 4711 089c 38       		.byte	56
 4712 089d 38       		.byte	56
 4713 089e 38       		.byte	56
 4714 089f 38       		.byte	56
 4715 08a0 38       		.byte	56
 4716 08a1 38       		.byte	56
 4717 08a2 C0       		.byte	-64
 4718 08a3 C0       		.byte	-64
 4719 08a4 C0       		.byte	-64
 4720 08a5 FF       		.byte	-1
 4721 08a6 FF       		.byte	-1
 4722 08a7 FF       		.byte	-1
 4723 08a8 00       		.byte	0
 4724 08a9 00       		.byte	0
 4725 08aa 00       		.byte	0
 4726 08ab 00       		.byte	0
 4727 08ac 00       		.byte	0
 4728 08ad 00       		.byte	0
 4729 08ae FF       		.byte	-1
 4730 08af FF       		.byte	-1
 4731 08b0 FF       		.byte	-1
 4732 08b1 1F       		.byte	31
 4733 08b2 1F       		.byte	31
 4734 08b3 1F       		.byte	31
 4735 08b4 E0       		.byte	-32
 4736 08b5 E0       		.byte	-32
 4737 08b6 E0       		.byte	-32
 4738 08b7 E0       		.byte	-32
 4739 08b8 E0       		.byte	-32
 4740 08b9 E0       		.byte	-32
 4741 08ba 1F       		.byte	31
 4742 08bb 1F       		.byte	31
 4743 08bc 1F       		.byte	31
 4744 08bd 00       		.byte	0
 4745 08be 00       		.byte	0
 4746 08bf 00       		.byte	0
 4747 08c0 00       		.byte	0
 4748 08c1 00       		.byte	0
 4749 08c2 00       		.byte	0
 4750 08c3 00       		.byte	0
 4751 08c4 00       		.byte	0
 4752 08c5 00       		.byte	0
 4753 08c6 00       		.byte	0
 4754 08c7 00       		.byte	0
 4755 08c8 00       		.byte	0
 4756 08c9 C0       		.byte	-64
 4757 08ca C0       		.byte	-64
 4758 08cb C0       		.byte	-64
 4759 08cc F8       		.byte	-8
 4760 08cd F8       		.byte	-8
 4761 08ce F8       		.byte	-8
 4762 08cf 01       		.byte	1
 4763 08d0 01       		.byte	1
 4764 08d1 01       		.byte	1
 4765 08d2 FF       		.byte	-1
 4766 08d3 FF       		.byte	-1
 4767 08d4 FF       		.byte	-1
 4768 08d5 00       		.byte	0
 4769 08d6 00       		.byte	0
 4770 08d7 00       		.byte	0
 4771 08d8 FF       		.byte	-1
 4772 08d9 FF       		.byte	-1
 4773 08da FF       		.byte	-1
 4774 08db 00       		.byte	0
 4775 08dc 00       		.byte	0
 4776 08dd 00       		.byte	0
 4777 08de 00       		.byte	0
 4778 08df 00       		.byte	0
 4779 08e0 00       		.byte	0
 4780 08e1 C0       		.byte	-64
 4781 08e2 C0       		.byte	-64
 4782 08e3 C0       		.byte	-64
 4783 08e4 38       		.byte	56
 4784 08e5 38       		.byte	56
 4785 08e6 38       		.byte	56
 4786 08e7 38       		.byte	56
 4787 08e8 38       		.byte	56
 4788 08e9 38       		.byte	56
 4789 08ea C0       		.byte	-64
 4790 08eb C0       		.byte	-64
 4791 08ec C0       		.byte	-64
 4792 08ed 01       		.byte	1
 4793 08ee 01       		.byte	1
 4794 08ef 01       		.byte	1
 4795 08f0 80       		.byte	-128
 4796 08f1 80       		.byte	-128
 4797 08f2 80       		.byte	-128
 4798 08f3 70       		.byte	112
 4799 08f4 70       		.byte	112
 4800 08f5 70       		.byte	112
 4801 08f6 0F       		.byte	15
 4802 08f7 0F       		.byte	15
 4803 08f8 0F       		.byte	15
 4804 08f9 FC       		.byte	-4
 4805 08fa FC       		.byte	-4
 4806 08fb FC       		.byte	-4
 4807 08fc E3       		.byte	-29
 4808 08fd E3       		.byte	-29
 4809 08fe E3       		.byte	-29
 4810 08ff E0       		.byte	-32
 4811 0900 E0       		.byte	-32
 4812 0901 E0       		.byte	-32
 4813 0902 E0       		.byte	-32
 4814 0903 E0       		.byte	-32
 4815 0904 E0       		.byte	-32
 4816 0905 00       		.byte	0
 4817 0906 00       		.byte	0
 4818 0907 00       		.byte	0
 4819 0908 00       		.byte	0
 4820 0909 00       		.byte	0
 4821 090a 00       		.byte	0
 4822 090b 00       		.byte	0
 4823 090c 00       		.byte	0
 4824 090d 00       		.byte	0
 4825 090e 00       		.byte	0
 4826 090f 00       		.byte	0
 4827 0910 00       		.byte	0
 4828 0911 38       		.byte	56
 4829 0912 38       		.byte	56
 4830 0913 38       		.byte	56
 4831 0914 38       		.byte	56
 4832 0915 38       		.byte	56
 4833 0916 38       		.byte	56
 4834 0917 38       		.byte	56
 4835 0918 38       		.byte	56
 4836 0919 38       		.byte	56
 4837 091a F8       		.byte	-8
 4838 091b F8       		.byte	-8
 4839 091c F8       		.byte	-8
 4840 091d 00       		.byte	0
 4841 091e 00       		.byte	0
 4842 091f 00       		.byte	0
 4843 0920 70       		.byte	112
 4844 0921 70       		.byte	112
 4845 0922 70       		.byte	112
 4846 0923 70       		.byte	112
 4847 0924 70       		.byte	112
 4848 0925 70       		.byte	112
 4849 0926 8F       		.byte	-113
 4850 0927 8F       		.byte	-113
 4851 0928 8F       		.byte	-113
 4852 0929 E0       		.byte	-32
 4853 092a E0       		.byte	-32
 4854 092b E0       		.byte	-32
 4855 092c E0       		.byte	-32
 4856 092d E0       		.byte	-32
 4857 092e E0       		.byte	-32
 4858 092f E0       		.byte	-32
 4859 0930 E0       		.byte	-32
 4860 0931 E0       		.byte	-32
 4861 0932 1F       		.byte	31
 4862 0933 1F       		.byte	31
 4863 0934 1F       		.byte	31
 4864 0935 00       		.byte	0
 4865 0936 00       		.byte	0
 4866 0937 00       		.byte	0
 4867 0938 00       		.byte	0
 4868 0939 00       		.byte	0
 4869 093a 00       		.byte	0
 4870 093b 00       		.byte	0
 4871 093c 00       		.byte	0
 4872 093d 00       		.byte	0
 4873 093e 00       		.byte	0
 4874 093f 00       		.byte	0
 4875 0940 00       		.byte	0
 4876 0941 F8       		.byte	-8
 4877 0942 F8       		.byte	-8
 4878 0943 F8       		.byte	-8
 4879 0944 00       		.byte	0
 4880 0945 00       		.byte	0
 4881 0946 00       		.byte	0
 4882 0947 00       		.byte	0
 4883 0948 00       		.byte	0
 4884 0949 00       		.byte	0
 4885 094a F8       		.byte	-8
 4886 094b F8       		.byte	-8
 4887 094c F8       		.byte	-8
 4888 094d 7F       		.byte	127
 4889 094e 7F       		.byte	127
 4890 094f 7F       		.byte	127
 4891 0950 70       		.byte	112
 4892 0951 70       		.byte	112
 4893 0952 70       		.byte	112
 4894 0953 70       		.byte	112
 4895 0954 70       		.byte	112
 4896 0955 70       		.byte	112
 4897 0956 FF       		.byte	-1
 4898 0957 FF       		.byte	-1
 4899 0958 FF       		.byte	-1
 4900 0959 00       		.byte	0
 4901 095a 00       		.byte	0
 4902 095b 00       		.byte	0
 4903 095c 00       		.byte	0
 4904 095d 00       		.byte	0
 4905 095e 00       		.byte	0
 4906 095f 00       		.byte	0
 4907 0960 00       		.byte	0
 4908 0961 00       		.byte	0
 4909 0962 FF       		.byte	-1
 4910 0963 FF       		.byte	-1
 4911 0964 FF       		.byte	-1
 4912 0965 00       		.byte	0
 4913 0966 00       		.byte	0
 4914 0967 00       		.byte	0
 4915 0968 00       		.byte	0
 4916 0969 00       		.byte	0
 4917 096a 00       		.byte	0
 4918 096b 00       		.byte	0
 4919 096c 00       		.byte	0
 4920 096d 00       		.byte	0
 4921 096e 00       		.byte	0
 4922 096f 00       		.byte	0
 4923 0970 00       		.byte	0
 4924 0971 F8       		.byte	-8
 4925 0972 F8       		.byte	-8
 4926 0973 F8       		.byte	-8
 4927 0974 38       		.byte	56
 4928 0975 38       		.byte	56
 4929 0976 38       		.byte	56
 4930 0977 38       		.byte	56
 4931 0978 38       		.byte	56
 4932 0979 38       		.byte	56
 4933 097a 38       		.byte	56
 4934 097b 38       		.byte	56
 4935 097c 38       		.byte	56
 4936 097d 7F       		.byte	127
 4937 097e 7F       		.byte	127
 4938 097f 7F       		.byte	127
 4939 0980 70       		.byte	112
 4940 0981 70       		.byte	112
 4941 0982 70       		.byte	112
 4942 0983 70       		.byte	112
 4943 0984 70       		.byte	112
 4944 0985 70       		.byte	112
 4945 0986 80       		.byte	-128
 4946 0987 80       		.byte	-128
 4947 0988 80       		.byte	-128
 4948 0989 E0       		.byte	-32
 4949 098a E0       		.byte	-32
 4950 098b E0       		.byte	-32
 4951 098c E0       		.byte	-32
 4952 098d E0       		.byte	-32
 4953 098e E0       		.byte	-32
 4954 098f E0       		.byte	-32
 4955 0990 E0       		.byte	-32
 4956 0991 E0       		.byte	-32
 4957 0992 1F       		.byte	31
 4958 0993 1F       		.byte	31
 4959 0994 1F       		.byte	31
 4960 0995 00       		.byte	0
 4961 0996 00       		.byte	0
 4962 0997 00       		.byte	0
 4963 0998 00       		.byte	0
 4964 0999 00       		.byte	0
 4965 099a 00       		.byte	0
 4966 099b 00       		.byte	0
 4967 099c 00       		.byte	0
 4968 099d 00       		.byte	0
 4969 099e 00       		.byte	0
 4970 099f 00       		.byte	0
 4971 09a0 00       		.byte	0
 4972 09a1 C0       		.byte	-64
 4973 09a2 C0       		.byte	-64
 4974 09a3 C0       		.byte	-64
 4975 09a4 38       		.byte	56
 4976 09a5 38       		.byte	56
 4977 09a6 38       		.byte	56
 4978 09a7 38       		.byte	56
 4979 09a8 38       		.byte	56
 4980 09a9 38       		.byte	56
 4981 09aa 00       		.byte	0
 4982 09ab 00       		.byte	0
 4983 09ac 00       		.byte	0
 4984 09ad FF       		.byte	-1
 4985 09ae FF       		.byte	-1
 4986 09af FF       		.byte	-1
 4987 09b0 70       		.byte	112
 4988 09b1 70       		.byte	112
 4989 09b2 70       		.byte	112
 4990 09b3 70       		.byte	112
 4991 09b4 70       		.byte	112
 4992 09b5 70       		.byte	112
 4993 09b6 80       		.byte	-128
 4994 09b7 80       		.byte	-128
 4995 09b8 80       		.byte	-128
 4996 09b9 1F       		.byte	31
 4997 09ba 1F       		.byte	31
 4998 09bb 1F       		.byte	31
 4999 09bc E0       		.byte	-32
 5000 09bd E0       		.byte	-32
 5001 09be E0       		.byte	-32
 5002 09bf E0       		.byte	-32
 5003 09c0 E0       		.byte	-32
 5004 09c1 E0       		.byte	-32
 5005 09c2 1F       		.byte	31
 5006 09c3 1F       		.byte	31
 5007 09c4 1F       		.byte	31
 5008 09c5 00       		.byte	0
 5009 09c6 00       		.byte	0
 5010 09c7 00       		.byte	0
 5011 09c8 00       		.byte	0
 5012 09c9 00       		.byte	0
 5013 09ca 00       		.byte	0
 5014 09cb 00       		.byte	0
 5015 09cc 00       		.byte	0
 5016 09cd 00       		.byte	0
 5017 09ce 00       		.byte	0
 5018 09cf 00       		.byte	0
 5019 09d0 00       		.byte	0
 5020 09d1 38       		.byte	56
 5021 09d2 38       		.byte	56
 5022 09d3 38       		.byte	56
 5023 09d4 38       		.byte	56
 5024 09d5 38       		.byte	56
 5025 09d6 38       		.byte	56
 5026 09d7 38       		.byte	56
 5027 09d8 38       		.byte	56
 5028 09d9 38       		.byte	56
 5029 09da F8       		.byte	-8
 5030 09db F8       		.byte	-8
 5031 09dc F8       		.byte	-8
 5032 09dd 00       		.byte	0
 5033 09de 00       		.byte	0
 5034 09df 00       		.byte	0
 5035 09e0 80       		.byte	-128
 5036 09e1 80       		.byte	-128
 5037 09e2 80       		.byte	-128
 5038 09e3 70       		.byte	112
 5039 09e4 70       		.byte	112
 5040 09e5 70       		.byte	112
 5041 09e6 0F       		.byte	15
 5042 09e7 0F       		.byte	15
 5043 09e8 0F       		.byte	15
 5044 09e9 00       		.byte	0
 5045 09ea 00       		.byte	0
 5046 09eb 00       		.byte	0
 5047 09ec FF       		.byte	-1
 5048 09ed FF       		.byte	-1
 5049 09ee FF       		.byte	-1
 5050 09ef 00       		.byte	0
 5051 09f0 00       		.byte	0
 5052 09f1 00       		.byte	0
 5053 09f2 00       		.byte	0
 5054 09f3 00       		.byte	0
 5055 09f4 00       		.byte	0
 5056 09f5 00       		.byte	0
 5057 09f6 00       		.byte	0
 5058 09f7 00       		.byte	0
 5059 09f8 00       		.byte	0
 5060 09f9 00       		.byte	0
 5061 09fa 00       		.byte	0
 5062 09fb 00       		.byte	0
 5063 09fc 00       		.byte	0
 5064 09fd 00       		.byte	0
 5065 09fe 00       		.byte	0
 5066 09ff 00       		.byte	0
 5067 0a00 00       		.byte	0
 5068 0a01 C0       		.byte	-64
 5069 0a02 C0       		.byte	-64
 5070 0a03 C0       		.byte	-64
 5071 0a04 38       		.byte	56
 5072 0a05 38       		.byte	56
 5073 0a06 38       		.byte	56
 5074 0a07 38       		.byte	56
 5075 0a08 38       		.byte	56
 5076 0a09 38       		.byte	56
 5077 0a0a C0       		.byte	-64
 5078 0a0b C0       		.byte	-64
 5079 0a0c C0       		.byte	-64
 5080 0a0d 8F       		.byte	-113
 5081 0a0e 8F       		.byte	-113
 5082 0a0f 8F       		.byte	-113
 5083 0a10 70       		.byte	112
 5084 0a11 70       		.byte	112
 5085 0a12 70       		.byte	112
 5086 0a13 70       		.byte	112
 5087 0a14 70       		.byte	112
 5088 0a15 70       		.byte	112
 5089 0a16 8F       		.byte	-113
 5090 0a17 8F       		.byte	-113
 5091 0a18 8F       		.byte	-113
 5092 0a19 1F       		.byte	31
 5093 0a1a 1F       		.byte	31
 5094 0a1b 1F       		.byte	31
 5095 0a1c E0       		.byte	-32
 5096 0a1d E0       		.byte	-32
 5097 0a1e E0       		.byte	-32
 5098 0a1f E0       		.byte	-32
 5099 0a20 E0       		.byte	-32
 5100 0a21 E0       		.byte	-32
 5101 0a22 1F       		.byte	31
 5102 0a23 1F       		.byte	31
 5103 0a24 1F       		.byte	31
 5104 0a25 00       		.byte	0
 5105 0a26 00       		.byte	0
 5106 0a27 00       		.byte	0
 5107 0a28 00       		.byte	0
 5108 0a29 00       		.byte	0
 5109 0a2a 00       		.byte	0
 5110 0a2b 00       		.byte	0
 5111 0a2c 00       		.byte	0
 5112 0a2d 00       		.byte	0
 5113 0a2e 00       		.byte	0
 5114 0a2f 00       		.byte	0
 5115 0a30 00       		.byte	0
 5116 0a31 C0       		.byte	-64
 5117 0a32 C0       		.byte	-64
 5118 0a33 C0       		.byte	-64
 5119 0a34 38       		.byte	56
 5120 0a35 38       		.byte	56
 5121 0a36 38       		.byte	56
 5122 0a37 38       		.byte	56
 5123 0a38 38       		.byte	56
 5124 0a39 38       		.byte	56
 5125 0a3a C0       		.byte	-64
 5126 0a3b C0       		.byte	-64
 5127 0a3c C0       		.byte	-64
 5128 0a3d 0F       		.byte	15
 5129 0a3e 0F       		.byte	15
 5130 0a3f 0F       		.byte	15
 5131 0a40 70       		.byte	112
 5132 0a41 70       		.byte	112
 5133 0a42 70       		.byte	112
 5134 0a43 70       		.byte	112
 5135 0a44 70       		.byte	112
 5136 0a45 70       		.byte	112
 5137 0a46 FF       		.byte	-1
 5138 0a47 FF       		.byte	-1
 5139 0a48 FF       		.byte	-1
 5140 0a49 E0       		.byte	-32
 5141 0a4a E0       		.byte	-32
 5142 0a4b E0       		.byte	-32
 5143 0a4c E0       		.byte	-32
 5144 0a4d E0       		.byte	-32
 5145 0a4e E0       		.byte	-32
 5146 0a4f E0       		.byte	-32
 5147 0a50 E0       		.byte	-32
 5148 0a51 E0       		.byte	-32
 5149 0a52 1F       		.byte	31
 5150 0a53 1F       		.byte	31
 5151 0a54 1F       		.byte	31
 5152 0a55 00       		.byte	0
 5153 0a56 00       		.byte	0
 5154 0a57 00       		.byte	0
 5155 0a58 00       		.byte	0
 5156 0a59 00       		.byte	0
 5157 0a5a 00       		.byte	0
 5158 0a5b 00       		.byte	0
 5159 0a5c 00       		.byte	0
 5160 0a5d 00       		.byte	0
 5161 0a5e 00       		.byte	0
 5162 0a5f 00       		.byte	0
 5163 0a60 00       		.byte	0
 5164 0a61 00       		.byte	0
 5165 0a62 00       		.byte	0
 5166 0a63 00       		.byte	0
 5167 0a64 80       		.byte	-128
 5168 0a65 80       		.byte	-128
 5169 0a66 80       		.byte	-128
 5170 0a67 E3       		.byte	-29
 5171 0a68 E3       		.byte	-29
 5172 0a69 E3       		.byte	-29
 5173 0a6a 00       		.byte	0
 5174 0a6b 00       		.byte	0
 5175 0a6c 00       		.byte	0
 5176 0a6d 00       		.byte	0
 5177 0a6e 00       		.byte	0
 5178 0a6f 00       		.byte	0
 5179 0a70 80       		.byte	-128
 5180 0a71 80       		.byte	-128
 5181 0a72 80       		.byte	-128
 5182 0a73 E3       		.byte	-29
 5183 0a74 E3       		.byte	-29
 5184 0a75 E3       		.byte	-29
 5185 0a76 1C       		.byte	28
 5186 0a77 1C       		.byte	28
 5187 0a78 1C       		.byte	28
 5188 0a79 00       		.byte	0
 5189 0a7a 00       		.byte	0
 5190 0a7b 00       		.byte	0
 5191 0a7c 00       		.byte	0
 5192 0a7d 00       		.byte	0
 5193 0a7e 00       		.byte	0
 5194 0a7f 00       		.byte	0
 5195 0a80 00       		.byte	0
 5196 0a81 00       		.byte	0
 5197 0a82 80       		.byte	-128
 5198 0a83 80       		.byte	-128
 5199 0a84 80       		.byte	-128
 5200 0a85 70       		.byte	112
 5201 0a86 70       		.byte	112
 5202 0a87 70       		.byte	112
 5203 0a88 0E       		.byte	14
 5204 0a89 0E       		.byte	14
 5205 0a8a 0E       		.byte	14
 5206 0a8b 03       		.byte	3
 5207 0a8c 03       		.byte	3
 5208 0a8d 03       		.byte	3
 5209 0a8e 1C       		.byte	28
 5210 0a8f 1C       		.byte	28
 5211 0a90 1C       		.byte	28
 5212 0a91 E0       		.byte	-32
 5213 0a92 E0       		.byte	-32
 5214 0a93 E0       		.byte	-32
 5215 0a94 00       		.byte	0
 5216 0a95 00       		.byte	0
 5217 0a96 00       		.byte	0
 5218 0a97 00       		.byte	0
 5219 0a98 00       		.byte	0
 5220 0a99 00       		.byte	0
 5221 0a9a 00       		.byte	0
 5222 0a9b 00       		.byte	0
 5223 0a9c 00       		.byte	0
 5224 0a9d 00       		.byte	0
 5225 0a9e 00       		.byte	0
 5226 0a9f 00       		.byte	0
 5227 0aa0 00       		.byte	0
 5228 0aa1 00       		.byte	0
 5229 0aa2 00       		.byte	0
 5230 0aa3 00       		.byte	0
 5231 0aa4 00       		.byte	0
 5232 0aa5 00       		.byte	0
 5233 0aa6 8E       		.byte	-114
 5234 0aa7 8E       		.byte	-114
 5235 0aa8 8E       		.byte	-114
 5236 0aa9 8E       		.byte	-114
 5237 0aaa 8E       		.byte	-114
 5238 0aab 8E       		.byte	-114
 5239 0aac 8E       		.byte	-114
 5240 0aad 8E       		.byte	-114
 5241 0aae 8E       		.byte	-114
 5242 0aaf 03       		.byte	3
 5243 0ab0 03       		.byte	3
 5244 0ab1 03       		.byte	3
 5245 0ab2 03       		.byte	3
 5246 0ab3 03       		.byte	3
 5247 0ab4 03       		.byte	3
 5248 0ab5 03       		.byte	3
 5249 0ab6 03       		.byte	3
 5250 0ab7 03       		.byte	3
 5251 0ab8 00       		.byte	0
 5252 0ab9 00       		.byte	0
 5253 0aba 00       		.byte	0
 5254 0abb 00       		.byte	0
 5255 0abc 00       		.byte	0
 5256 0abd 00       		.byte	0
 5257 0abe 00       		.byte	0
 5258 0abf 00       		.byte	0
 5259 0ac0 00       		.byte	0
 5260 0ac1 00       		.byte	0
 5261 0ac2 00       		.byte	0
 5262 0ac3 00       		.byte	0
 5263 0ac4 00       		.byte	0
 5264 0ac5 00       		.byte	0
 5265 0ac6 00       		.byte	0
 5266 0ac7 00       		.byte	0
 5267 0ac8 00       		.byte	0
 5268 0ac9 00       		.byte	0
 5269 0aca 0E       		.byte	14
 5270 0acb 0E       		.byte	14
 5271 0acc 0E       		.byte	14
 5272 0acd 70       		.byte	112
 5273 0ace 70       		.byte	112
 5274 0acf 70       		.byte	112
 5275 0ad0 80       		.byte	-128
 5276 0ad1 80       		.byte	-128
 5277 0ad2 80       		.byte	-128
 5278 0ad3 E0       		.byte	-32
 5279 0ad4 E0       		.byte	-32
 5280 0ad5 E0       		.byte	-32
 5281 0ad6 1C       		.byte	28
 5282 0ad7 1C       		.byte	28
 5283 0ad8 1C       		.byte	28
 5284 0ad9 03       		.byte	3
 5285 0ada 03       		.byte	3
 5286 0adb 03       		.byte	3
 5287 0adc 00       		.byte	0
 5288 0add 00       		.byte	0
 5289 0ade 00       		.byte	0
 5290 0adf 00       		.byte	0
 5291 0ae0 00       		.byte	0
 5292 0ae1 00       		.byte	0
 5293 0ae2 00       		.byte	0
 5294 0ae3 00       		.byte	0
 5295 0ae4 00       		.byte	0
 5296 0ae5 C0       		.byte	-64
 5297 0ae6 C0       		.byte	-64
 5298 0ae7 C0       		.byte	-64
 5299 0ae8 38       		.byte	56
 5300 0ae9 38       		.byte	56
 5301 0aea 38       		.byte	56
 5302 0aeb 38       		.byte	56
 5303 0aec 38       		.byte	56
 5304 0aed 38       		.byte	56
 5305 0aee 38       		.byte	56
 5306 0aef 38       		.byte	56
 5307 0af0 38       		.byte	56
 5308 0af1 C0       		.byte	-64
 5309 0af2 C0       		.byte	-64
 5310 0af3 C0       		.byte	-64
 5311 0af4 01       		.byte	1
 5312 0af5 01       		.byte	1
 5313 0af6 01       		.byte	1
 5314 0af7 00       		.byte	0
 5315 0af8 00       		.byte	0
 5316 0af9 00       		.byte	0
 5317 0afa 80       		.byte	-128
 5318 0afb 80       		.byte	-128
 5319 0afc 80       		.byte	-128
 5320 0afd 70       		.byte	112
 5321 0afe 70       		.byte	112
 5322 0aff 70       		.byte	112
 5323 0b00 0F       		.byte	15
 5324 0b01 0F       		.byte	15
 5325 0b02 0F       		.byte	15
 5326 0b03 00       		.byte	0
 5327 0b04 00       		.byte	0
 5328 0b05 00       		.byte	0
 5329 0b06 00       		.byte	0
 5330 0b07 00       		.byte	0
 5331 0b08 00       		.byte	0
 5332 0b09 E3       		.byte	-29
 5333 0b0a E3       		.byte	-29
 5334 0b0b E3       		.byte	-29
 5335 0b0c 00       		.byte	0
 5336 0b0d 00       		.byte	0
 5337 0b0e 00       		.byte	0
 5338 0b0f 00       		.byte	0
 5339 0b10 00       		.byte	0
 5340 0b11 00       		.byte	0
 5341 0b12 00       		.byte	0
 5342 0b13 00       		.byte	0
 5343 0b14 00       		.byte	0
 5344 0b15 00       		.byte	0
 5345 0b16 00       		.byte	0
 5346 0b17 00       		.byte	0
 5347 0b18 00       		.byte	0
 5348 0b19 00       		.byte	0
 5349 0b1a 00       		.byte	0
 5350 0b1b 00       		.byte	0
 5351 0b1c 00       		.byte	0
 5352 0b1d 00       		.byte	0
 5353 0b1e 00       		.byte	0
 5354 0b1f 00       		.byte	0
 5355 0b20 00       		.byte	0
 5356 0b21 C0       		.byte	-64
 5357 0b22 C0       		.byte	-64
 5358 0b23 C0       		.byte	-64
 5359 0b24 38       		.byte	56
 5360 0b25 38       		.byte	56
 5361 0b26 38       		.byte	56
 5362 0b27 38       		.byte	56
 5363 0b28 38       		.byte	56
 5364 0b29 38       		.byte	56
 5365 0b2a 38       		.byte	56
 5366 0b2b 38       		.byte	56
 5367 0b2c 38       		.byte	56
 5368 0b2d 38       		.byte	56
 5369 0b2e 38       		.byte	56
 5370 0b2f 38       		.byte	56
 5371 0b30 C0       		.byte	-64
 5372 0b31 C0       		.byte	-64
 5373 0b32 C0       		.byte	-64
 5374 0b33 FF       		.byte	-1
 5375 0b34 FF       		.byte	-1
 5376 0b35 FF       		.byte	-1
 5377 0b36 00       		.byte	0
 5378 0b37 00       		.byte	0
 5379 0b38 00       		.byte	0
 5380 0b39 FE       		.byte	-2
 5381 0b3a FE       		.byte	-2
 5382 0b3b FE       		.byte	-2
 5383 0b3c 8E       		.byte	-114
 5384 0b3d 8E       		.byte	-114
 5385 0b3e 8E       		.byte	-114
 5386 0b3f 80       		.byte	-128
 5387 0b40 80       		.byte	-128
 5388 0b41 80       		.byte	-128
 5389 0b42 FF       		.byte	-1
 5390 0b43 FF       		.byte	-1
 5391 0b44 FF       		.byte	-1
 5392 0b45 1F       		.byte	31
 5393 0b46 1F       		.byte	31
 5394 0b47 1F       		.byte	31
 5395 0b48 E0       		.byte	-32
 5396 0b49 E0       		.byte	-32
 5397 0b4a E0       		.byte	-32
 5398 0b4b E3       		.byte	-29
 5399 0b4c E3       		.byte	-29
 5400 0b4d E3       		.byte	-29
 5401 0b4e E3       		.byte	-29
 5402 0b4f E3       		.byte	-29
 5403 0b50 E3       		.byte	-29
 5404 0b51 E3       		.byte	-29
 5405 0b52 E3       		.byte	-29
 5406 0b53 E3       		.byte	-29
 5407 0b54 03       		.byte	3
 5408 0b55 03       		.byte	3
 5409 0b56 03       		.byte	3
 5410 0b57 00       		.byte	0
 5411 0b58 00       		.byte	0
 5412 0b59 00       		.byte	0
 5413 0b5a 00       		.byte	0
 5414 0b5b 00       		.byte	0
 5415 0b5c 00       		.byte	0
 5416 0b5d 00       		.byte	0
 5417 0b5e 00       		.byte	0
 5418 0b5f 00       		.byte	0
 5419 0b60 00       		.byte	0
 5420 0b61 00       		.byte	0
 5421 0b62 00       		.byte	0
 5422 0b63 00       		.byte	0
 5423 0b64 00       		.byte	0
 5424 0b65 00       		.byte	0
 5425 0b66 00       		.byte	0
 5426 0b67 00       		.byte	0
 5427 0b68 00       		.byte	0
 5428 0b69 C0       		.byte	-64
 5429 0b6a C0       		.byte	-64
 5430 0b6b C0       		.byte	-64
 5431 0b6c 38       		.byte	56
 5432 0b6d 38       		.byte	56
 5433 0b6e 38       		.byte	56
 5434 0b6f 38       		.byte	56
 5435 0b70 38       		.byte	56
 5436 0b71 38       		.byte	56
 5437 0b72 F8       		.byte	-8
 5438 0b73 F8       		.byte	-8
 5439 0b74 F8       		.byte	-8
 5440 0b75 FF       		.byte	-1
 5441 0b76 FF       		.byte	-1
 5442 0b77 FF       		.byte	-1
 5443 0b78 70       		.byte	112
 5444 0b79 70       		.byte	112
 5445 0b7a 70       		.byte	112
 5446 0b7b 70       		.byte	112
 5447 0b7c 70       		.byte	112
 5448 0b7d 70       		.byte	112
 5449 0b7e FF       		.byte	-1
 5450 0b7f FF       		.byte	-1
 5451 0b80 FF       		.byte	-1
 5452 0b81 FF       		.byte	-1
 5453 0b82 FF       		.byte	-1
 5454 0b83 FF       		.byte	-1
 5455 0b84 00       		.byte	0
 5456 0b85 00       		.byte	0
 5457 0b86 00       		.byte	0
 5458 0b87 00       		.byte	0
 5459 0b88 00       		.byte	0
 5460 0b89 00       		.byte	0
 5461 0b8a FF       		.byte	-1
 5462 0b8b FF       		.byte	-1
 5463 0b8c FF       		.byte	-1
 5464 0b8d 00       		.byte	0
 5465 0b8e 00       		.byte	0
 5466 0b8f 00       		.byte	0
 5467 0b90 00       		.byte	0
 5468 0b91 00       		.byte	0
 5469 0b92 00       		.byte	0
 5470 0b93 00       		.byte	0
 5471 0b94 00       		.byte	0
 5472 0b95 00       		.byte	0
 5473 0b96 00       		.byte	0
 5474 0b97 00       		.byte	0
 5475 0b98 00       		.byte	0
 5476 0b99 F8       		.byte	-8
 5477 0b9a F8       		.byte	-8
 5478 0b9b F8       		.byte	-8
 5479 0b9c 38       		.byte	56
 5480 0b9d 38       		.byte	56
 5481 0b9e 38       		.byte	56
 5482 0b9f 38       		.byte	56
 5483 0ba0 38       		.byte	56
 5484 0ba1 38       		.byte	56
 5485 0ba2 C0       		.byte	-64
 5486 0ba3 C0       		.byte	-64
 5487 0ba4 C0       		.byte	-64
 5488 0ba5 FF       		.byte	-1
 5489 0ba6 FF       		.byte	-1
 5490 0ba7 FF       		.byte	-1
 5491 0ba8 70       		.byte	112
 5492 0ba9 70       		.byte	112
 5493 0baa 70       		.byte	112
 5494 0bab 70       		.byte	112
 5495 0bac 70       		.byte	112
 5496 0bad 70       		.byte	112
 5497 0bae 8F       		.byte	-113
 5498 0baf 8F       		.byte	-113
 5499 0bb0 8F       		.byte	-113
 5500 0bb1 FF       		.byte	-1
 5501 0bb2 FF       		.byte	-1
 5502 0bb3 FF       		.byte	-1
 5503 0bb4 E0       		.byte	-32
 5504 0bb5 E0       		.byte	-32
 5505 0bb6 E0       		.byte	-32
 5506 0bb7 E0       		.byte	-32
 5507 0bb8 E0       		.byte	-32
 5508 0bb9 E0       		.byte	-32
 5509 0bba 1F       		.byte	31
 5510 0bbb 1F       		.byte	31
 5511 0bbc 1F       		.byte	31
 5512 0bbd 00       		.byte	0
 5513 0bbe 00       		.byte	0
 5514 0bbf 00       		.byte	0
 5515 0bc0 00       		.byte	0
 5516 0bc1 00       		.byte	0
 5517 0bc2 00       		.byte	0
 5518 0bc3 00       		.byte	0
 5519 0bc4 00       		.byte	0
 5520 0bc5 00       		.byte	0
 5521 0bc6 00       		.byte	0
 5522 0bc7 00       		.byte	0
 5523 0bc8 00       		.byte	0
 5524 0bc9 C0       		.byte	-64
 5525 0bca C0       		.byte	-64
 5526 0bcb C0       		.byte	-64
 5527 0bcc 38       		.byte	56
 5528 0bcd 38       		.byte	56
 5529 0bce 38       		.byte	56
 5530 0bcf 38       		.byte	56
 5531 0bd0 38       		.byte	56
 5532 0bd1 38       		.byte	56
 5533 0bd2 38       		.byte	56
 5534 0bd3 38       		.byte	56
 5535 0bd4 38       		.byte	56
 5536 0bd5 FF       		.byte	-1
 5537 0bd6 FF       		.byte	-1
 5538 0bd7 FF       		.byte	-1
 5539 0bd8 00       		.byte	0
 5540 0bd9 00       		.byte	0
 5541 0bda 00       		.byte	0
 5542 0bdb 00       		.byte	0
 5543 0bdc 00       		.byte	0
 5544 0bdd 00       		.byte	0
 5545 0bde 00       		.byte	0
 5546 0bdf 00       		.byte	0
 5547 0be0 00       		.byte	0
 5548 0be1 1F       		.byte	31
 5549 0be2 1F       		.byte	31
 5550 0be3 1F       		.byte	31
 5551 0be4 E0       		.byte	-32
 5552 0be5 E0       		.byte	-32
 5553 0be6 E0       		.byte	-32
 5554 0be7 E0       		.byte	-32
 5555 0be8 E0       		.byte	-32
 5556 0be9 E0       		.byte	-32
 5557 0bea E0       		.byte	-32
 5558 0beb E0       		.byte	-32
 5559 0bec E0       		.byte	-32
 5560 0bed 00       		.byte	0
 5561 0bee 00       		.byte	0
 5562 0bef 00       		.byte	0
 5563 0bf0 00       		.byte	0
 5564 0bf1 00       		.byte	0
 5565 0bf2 00       		.byte	0
 5566 0bf3 00       		.byte	0
 5567 0bf4 00       		.byte	0
 5568 0bf5 00       		.byte	0
 5569 0bf6 00       		.byte	0
 5570 0bf7 00       		.byte	0
 5571 0bf8 00       		.byte	0
 5572 0bf9 F8       		.byte	-8
 5573 0bfa F8       		.byte	-8
 5574 0bfb F8       		.byte	-8
 5575 0bfc 38       		.byte	56
 5576 0bfd 38       		.byte	56
 5577 0bfe 38       		.byte	56
 5578 0bff 38       		.byte	56
 5579 0c00 38       		.byte	56
 5580 0c01 38       		.byte	56
 5581 0c02 C0       		.byte	-64
 5582 0c03 C0       		.byte	-64
 5583 0c04 C0       		.byte	-64
 5584 0c05 FF       		.byte	-1
 5585 0c06 FF       		.byte	-1
 5586 0c07 FF       		.byte	-1
 5587 0c08 00       		.byte	0
 5588 0c09 00       		.byte	0
 5589 0c0a 00       		.byte	0
 5590 0c0b 00       		.byte	0
 5591 0c0c 00       		.byte	0
 5592 0c0d 00       		.byte	0
 5593 0c0e FF       		.byte	-1
 5594 0c0f FF       		.byte	-1
 5595 0c10 FF       		.byte	-1
 5596 0c11 FF       		.byte	-1
 5597 0c12 FF       		.byte	-1
 5598 0c13 FF       		.byte	-1
 5599 0c14 E0       		.byte	-32
 5600 0c15 E0       		.byte	-32
 5601 0c16 E0       		.byte	-32
 5602 0c17 E0       		.byte	-32
 5603 0c18 E0       		.byte	-32
 5604 0c19 E0       		.byte	-32
 5605 0c1a 1F       		.byte	31
 5606 0c1b 1F       		.byte	31
 5607 0c1c 1F       		.byte	31
 5608 0c1d 00       		.byte	0
 5609 0c1e 00       		.byte	0
 5610 0c1f 00       		.byte	0
 5611 0c20 00       		.byte	0
 5612 0c21 00       		.byte	0
 5613 0c22 00       		.byte	0
 5614 0c23 00       		.byte	0
 5615 0c24 00       		.byte	0
 5616 0c25 00       		.byte	0
 5617 0c26 00       		.byte	0
 5618 0c27 00       		.byte	0
 5619 0c28 00       		.byte	0
 5620 0c29 F8       		.byte	-8
 5621 0c2a F8       		.byte	-8
 5622 0c2b F8       		.byte	-8
 5623 0c2c 38       		.byte	56
 5624 0c2d 38       		.byte	56
 5625 0c2e 38       		.byte	56
 5626 0c2f 38       		.byte	56
 5627 0c30 38       		.byte	56
 5628 0c31 38       		.byte	56
 5629 0c32 38       		.byte	56
 5630 0c33 38       		.byte	56
 5631 0c34 38       		.byte	56
 5632 0c35 38       		.byte	56
 5633 0c36 FF       		.byte	-1
 5634 0c37 FF       		.byte	-1
 5635 0c38 FF       		.byte	-1
 5636 0c39 70       		.byte	112
 5637 0c3a 70       		.byte	112
 5638 0c3b 70       		.byte	112
 5639 0c3c 70       		.byte	112
 5640 0c3d 70       		.byte	112
 5641 0c3e 70       		.byte	112
 5642 0c3f 00       		.byte	0
 5643 0c40 00       		.byte	0
 5644 0c41 00       		.byte	0
 5645 0c42 00       		.byte	0
 5646 0c43 FF       		.byte	-1
 5647 0c44 FF       		.byte	-1
 5648 0c45 FF       		.byte	-1
 5649 0c46 E0       		.byte	-32
 5650 0c47 E0       		.byte	-32
 5651 0c48 E0       		.byte	-32
 5652 0c49 E0       		.byte	-32
 5653 0c4a E0       		.byte	-32
 5654 0c4b E0       		.byte	-32
 5655 0c4c E0       		.byte	-32
 5656 0c4d E0       		.byte	-32
 5657 0c4e E0       		.byte	-32
 5658 0c4f E0       		.byte	-32
 5659 0c50 00       		.byte	0
 5660 0c51 00       		.byte	0
 5661 0c52 00       		.byte	0
 5662 0c53 00       		.byte	0
 5663 0c54 00       		.byte	0
 5664 0c55 00       		.byte	0
 5665 0c56 00       		.byte	0
 5666 0c57 00       		.byte	0
 5667 0c58 00       		.byte	0
 5668 0c59 00       		.byte	0
 5669 0c5a 00       		.byte	0
 5670 0c5b 00       		.byte	0
 5671 0c5c 00       		.byte	0
 5672 0c5d F8       		.byte	-8
 5673 0c5e F8       		.byte	-8
 5674 0c5f F8       		.byte	-8
 5675 0c60 38       		.byte	56
 5676 0c61 38       		.byte	56
 5677 0c62 38       		.byte	56
 5678 0c63 38       		.byte	56
 5679 0c64 38       		.byte	56
 5680 0c65 38       		.byte	56
 5681 0c66 38       		.byte	56
 5682 0c67 38       		.byte	56
 5683 0c68 38       		.byte	56
 5684 0c69 38       		.byte	56
 5685 0c6a FF       		.byte	-1
 5686 0c6b FF       		.byte	-1
 5687 0c6c FF       		.byte	-1
 5688 0c6d 70       		.byte	112
 5689 0c6e 70       		.byte	112
 5690 0c6f 70       		.byte	112
 5691 0c70 70       		.byte	112
 5692 0c71 70       		.byte	112
 5693 0c72 70       		.byte	112
 5694 0c73 00       		.byte	0
 5695 0c74 00       		.byte	0
 5696 0c75 00       		.byte	0
 5697 0c76 00       		.byte	0
 5698 0c77 FF       		.byte	-1
 5699 0c78 FF       		.byte	-1
 5700 0c79 FF       		.byte	-1
 5701 0c7a 00       		.byte	0
 5702 0c7b 00       		.byte	0
 5703 0c7c 00       		.byte	0
 5704 0c7d 00       		.byte	0
 5705 0c7e 00       		.byte	0
 5706 0c7f 00       		.byte	0
 5707 0c80 00       		.byte	0
 5708 0c81 00       		.byte	0
 5709 0c82 00       		.byte	0
 5710 0c83 00       		.byte	0
 5711 0c84 00       		.byte	0
 5712 0c85 00       		.byte	0
 5713 0c86 00       		.byte	0
 5714 0c87 00       		.byte	0
 5715 0c88 00       		.byte	0
 5716 0c89 00       		.byte	0
 5717 0c8a 00       		.byte	0
 5718 0c8b 00       		.byte	0
 5719 0c8c 00       		.byte	0
 5720 0c8d 00       		.byte	0
 5721 0c8e 00       		.byte	0
 5722 0c8f 00       		.byte	0
 5723 0c90 00       		.byte	0
 5724 0c91 C0       		.byte	-64
 5725 0c92 C0       		.byte	-64
 5726 0c93 C0       		.byte	-64
 5727 0c94 38       		.byte	56
 5728 0c95 38       		.byte	56
 5729 0c96 38       		.byte	56
 5730 0c97 38       		.byte	56
 5731 0c98 38       		.byte	56
 5732 0c99 38       		.byte	56
 5733 0c9a 38       		.byte	56
 5734 0c9b 38       		.byte	56
 5735 0c9c 38       		.byte	56
 5736 0c9d FF       		.byte	-1
 5737 0c9e FF       		.byte	-1
 5738 0c9f FF       		.byte	-1
 5739 0ca0 00       		.byte	0
 5740 0ca1 00       		.byte	0
 5741 0ca2 00       		.byte	0
 5742 0ca3 00       		.byte	0
 5743 0ca4 00       		.byte	0
 5744 0ca5 00       		.byte	0
 5745 0ca6 F0       		.byte	-16
 5746 0ca7 F0       		.byte	-16
 5747 0ca8 F0       		.byte	-16
 5748 0ca9 1F       		.byte	31
 5749 0caa 1F       		.byte	31
 5750 0cab 1F       		.byte	31
 5751 0cac E0       		.byte	-32
 5752 0cad E0       		.byte	-32
 5753 0cae E0       		.byte	-32
 5754 0caf E0       		.byte	-32
 5755 0cb0 E0       		.byte	-32
 5756 0cb1 E0       		.byte	-32
 5757 0cb2 FF       		.byte	-1
 5758 0cb3 FF       		.byte	-1
 5759 0cb4 FF       		.byte	-1
 5760 0cb5 00       		.byte	0
 5761 0cb6 00       		.byte	0
 5762 0cb7 00       		.byte	0
 5763 0cb8 00       		.byte	0
 5764 0cb9 00       		.byte	0
 5765 0cba 00       		.byte	0
 5766 0cbb 00       		.byte	0
 5767 0cbc 00       		.byte	0
 5768 0cbd 00       		.byte	0
 5769 0cbe 00       		.byte	0
 5770 0cbf 00       		.byte	0
 5771 0cc0 00       		.byte	0
 5772 0cc1 F8       		.byte	-8
 5773 0cc2 F8       		.byte	-8
 5774 0cc3 F8       		.byte	-8
 5775 0cc4 00       		.byte	0
 5776 0cc5 00       		.byte	0
 5777 0cc6 00       		.byte	0
 5778 0cc7 00       		.byte	0
 5779 0cc8 00       		.byte	0
 5780 0cc9 00       		.byte	0
 5781 0cca F8       		.byte	-8
 5782 0ccb F8       		.byte	-8
 5783 0ccc F8       		.byte	-8
 5784 0ccd FF       		.byte	-1
 5785 0cce FF       		.byte	-1
 5786 0ccf FF       		.byte	-1
 5787 0cd0 70       		.byte	112
 5788 0cd1 70       		.byte	112
 5789 0cd2 70       		.byte	112
 5790 0cd3 70       		.byte	112
 5791 0cd4 70       		.byte	112
 5792 0cd5 70       		.byte	112
 5793 0cd6 FF       		.byte	-1
 5794 0cd7 FF       		.byte	-1
 5795 0cd8 FF       		.byte	-1
 5796 0cd9 FF       		.byte	-1
 5797 0cda FF       		.byte	-1
 5798 0cdb FF       		.byte	-1
 5799 0cdc 00       		.byte	0
 5800 0cdd 00       		.byte	0
 5801 0cde 00       		.byte	0
 5802 0cdf 00       		.byte	0
 5803 0ce0 00       		.byte	0
 5804 0ce1 00       		.byte	0
 5805 0ce2 FF       		.byte	-1
 5806 0ce3 FF       		.byte	-1
 5807 0ce4 FF       		.byte	-1
 5808 0ce5 00       		.byte	0
 5809 0ce6 00       		.byte	0
 5810 0ce7 00       		.byte	0
 5811 0ce8 00       		.byte	0
 5812 0ce9 00       		.byte	0
 5813 0cea 00       		.byte	0
 5814 0ceb 00       		.byte	0
 5815 0cec 00       		.byte	0
 5816 0ced 00       		.byte	0
 5817 0cee 00       		.byte	0
 5818 0cef 00       		.byte	0
 5819 0cf0 00       		.byte	0
 5820 0cf1 F8       		.byte	-8
 5821 0cf2 F8       		.byte	-8
 5822 0cf3 F8       		.byte	-8
 5823 0cf4 FF       		.byte	-1
 5824 0cf5 FF       		.byte	-1
 5825 0cf6 FF       		.byte	-1
 5826 0cf7 FF       		.byte	-1
 5827 0cf8 FF       		.byte	-1
 5828 0cf9 FF       		.byte	-1
 5829 0cfa 00       		.byte	0
 5830 0cfb 00       		.byte	0
 5831 0cfc 00       		.byte	0
 5832 0cfd 00       		.byte	0
 5833 0cfe 00       		.byte	0
 5834 0cff 00       		.byte	0
 5835 0d00 00       		.byte	0
 5836 0d01 00       		.byte	0
 5837 0d02 00       		.byte	0
 5838 0d03 00       		.byte	0
 5839 0d04 00       		.byte	0
 5840 0d05 00       		.byte	0
 5841 0d06 F8       		.byte	-8
 5842 0d07 F8       		.byte	-8
 5843 0d08 F8       		.byte	-8
 5844 0d09 80       		.byte	-128
 5845 0d0a 80       		.byte	-128
 5846 0d0b 80       		.byte	-128
 5847 0d0c 00       		.byte	0
 5848 0d0d 00       		.byte	0
 5849 0d0e 00       		.byte	0
 5850 0d0f 00       		.byte	0
 5851 0d10 00       		.byte	0
 5852 0d11 00       		.byte	0
 5853 0d12 FF       		.byte	-1
 5854 0d13 FF       		.byte	-1
 5855 0d14 FF       		.byte	-1
 5856 0d15 1F       		.byte	31
 5857 0d16 1F       		.byte	31
 5858 0d17 1F       		.byte	31
 5859 0d18 E0       		.byte	-32
 5860 0d19 E0       		.byte	-32
 5861 0d1a E0       		.byte	-32
 5862 0d1b E0       		.byte	-32
 5863 0d1c E0       		.byte	-32
 5864 0d1d E0       		.byte	-32
 5865 0d1e 1F       		.byte	31
 5866 0d1f 1F       		.byte	31
 5867 0d20 1F       		.byte	31
 5868 0d21 00       		.byte	0
 5869 0d22 00       		.byte	0
 5870 0d23 00       		.byte	0
 5871 0d24 00       		.byte	0
 5872 0d25 00       		.byte	0
 5873 0d26 00       		.byte	0
 5874 0d27 00       		.byte	0
 5875 0d28 00       		.byte	0
 5876 0d29 00       		.byte	0
 5877 0d2a 00       		.byte	0
 5878 0d2b 00       		.byte	0
 5879 0d2c 00       		.byte	0
 5880 0d2d F8       		.byte	-8
 5881 0d2e F8       		.byte	-8
 5882 0d2f F8       		.byte	-8
 5883 0d30 00       		.byte	0
 5884 0d31 00       		.byte	0
 5885 0d32 00       		.byte	0
 5886 0d33 00       		.byte	0
 5887 0d34 00       		.byte	0
 5888 0d35 00       		.byte	0
 5889 0d36 F8       		.byte	-8
 5890 0d37 F8       		.byte	-8
 5891 0d38 F8       		.byte	-8
 5892 0d39 FF       		.byte	-1
 5893 0d3a FF       		.byte	-1
 5894 0d3b FF       		.byte	-1
 5895 0d3c 70       		.byte	112
 5896 0d3d 70       		.byte	112
 5897 0d3e 70       		.byte	112
 5898 0d3f 70       		.byte	112
 5899 0d40 70       		.byte	112
 5900 0d41 70       		.byte	112
 5901 0d42 8F       		.byte	-113
 5902 0d43 8F       		.byte	-113
 5903 0d44 8F       		.byte	-113
 5904 0d45 FF       		.byte	-1
 5905 0d46 FF       		.byte	-1
 5906 0d47 FF       		.byte	-1
 5907 0d48 00       		.byte	0
 5908 0d49 00       		.byte	0
 5909 0d4a 00       		.byte	0
 5910 0d4b 00       		.byte	0
 5911 0d4c 00       		.byte	0
 5912 0d4d 00       		.byte	0
 5913 0d4e FF       		.byte	-1
 5914 0d4f FF       		.byte	-1
 5915 0d50 FF       		.byte	-1
 5916 0d51 00       		.byte	0
 5917 0d52 00       		.byte	0
 5918 0d53 00       		.byte	0
 5919 0d54 00       		.byte	0
 5920 0d55 00       		.byte	0
 5921 0d56 00       		.byte	0
 5922 0d57 00       		.byte	0
 5923 0d58 00       		.byte	0
 5924 0d59 00       		.byte	0
 5925 0d5a 00       		.byte	0
 5926 0d5b 00       		.byte	0
 5927 0d5c 00       		.byte	0
 5928 0d5d F8       		.byte	-8
 5929 0d5e F8       		.byte	-8
 5930 0d5f F8       		.byte	-8
 5931 0d60 00       		.byte	0
 5932 0d61 00       		.byte	0
 5933 0d62 00       		.byte	0
 5934 0d63 00       		.byte	0
 5935 0d64 00       		.byte	0
 5936 0d65 00       		.byte	0
 5937 0d66 FF       		.byte	-1
 5938 0d67 FF       		.byte	-1
 5939 0d68 FF       		.byte	-1
 5940 0d69 00       		.byte	0
 5941 0d6a 00       		.byte	0
 5942 0d6b 00       		.byte	0
 5943 0d6c 00       		.byte	0
 5944 0d6d 00       		.byte	0
 5945 0d6e 00       		.byte	0
 5946 0d6f FF       		.byte	-1
 5947 0d70 FF       		.byte	-1
 5948 0d71 FF       		.byte	-1
 5949 0d72 E0       		.byte	-32
 5950 0d73 E0       		.byte	-32
 5951 0d74 E0       		.byte	-32
 5952 0d75 E0       		.byte	-32
 5953 0d76 E0       		.byte	-32
 5954 0d77 E0       		.byte	-32
 5955 0d78 00       		.byte	0
 5956 0d79 00       		.byte	0
 5957 0d7a 00       		.byte	0
 5958 0d7b 00       		.byte	0
 5959 0d7c 00       		.byte	0
 5960 0d7d 00       		.byte	0
 5961 0d7e 00       		.byte	0
 5962 0d7f 00       		.byte	0
 5963 0d80 00       		.byte	0
 5964 0d81 F8       		.byte	-8
 5965 0d82 F8       		.byte	-8
 5966 0d83 F8       		.byte	-8
 5967 0d84 C0       		.byte	-64
 5968 0d85 C0       		.byte	-64
 5969 0d86 C0       		.byte	-64
 5970 0d87 00       		.byte	0
 5971 0d88 00       		.byte	0
 5972 0d89 00       		.byte	0
 5973 0d8a C0       		.byte	-64
 5974 0d8b C0       		.byte	-64
 5975 0d8c C0       		.byte	-64
 5976 0d8d F8       		.byte	-8
 5977 0d8e F8       		.byte	-8
 5978 0d8f F8       		.byte	-8
 5979 0d90 FF       		.byte	-1
 5980 0d91 FF       		.byte	-1
 5981 0d92 FF       		.byte	-1
 5982 0d93 01       		.byte	1
 5983 0d94 01       		.byte	1
 5984 0d95 01       		.byte	1
 5985 0d96 0E       		.byte	14
 5986 0d97 0E       		.byte	14
 5987 0d98 0E       		.byte	14
 5988 0d99 01       		.byte	1
 5989 0d9a 01       		.byte	1
 5990 0d9b 01       		.byte	1
 5991 0d9c FF       		.byte	-1
 5992 0d9d FF       		.byte	-1
 5993 0d9e FF       		.byte	-1
 5994 0d9f FF       		.byte	-1
 5995 0da0 FF       		.byte	-1
 5996 0da1 FF       		.byte	-1
 5997 0da2 00       		.byte	0
 5998 0da3 00       		.byte	0
 5999 0da4 00       		.byte	0
 6000 0da5 00       		.byte	0
 6001 0da6 00       		.byte	0
 6002 0da7 00       		.byte	0
 6003 0da8 00       		.byte	0
 6004 0da9 00       		.byte	0
 6005 0daa 00       		.byte	0
 6006 0dab FF       		.byte	-1
 6007 0dac FF       		.byte	-1
 6008 0dad FF       		.byte	-1
 6009 0dae 00       		.byte	0
 6010 0daf 00       		.byte	0
 6011 0db0 00       		.byte	0
 6012 0db1 00       		.byte	0
 6013 0db2 00       		.byte	0
 6014 0db3 00       		.byte	0
 6015 0db4 00       		.byte	0
 6016 0db5 00       		.byte	0
 6017 0db6 00       		.byte	0
 6018 0db7 00       		.byte	0
 6019 0db8 00       		.byte	0
 6020 0db9 00       		.byte	0
 6021 0dba 00       		.byte	0
 6022 0dbb 00       		.byte	0
 6023 0dbc 00       		.byte	0
 6024 0dbd F8       		.byte	-8
 6025 0dbe F8       		.byte	-8
 6026 0dbf F8       		.byte	-8
 6027 0dc0 00       		.byte	0
 6028 0dc1 00       		.byte	0
 6029 0dc2 00       		.byte	0
 6030 0dc3 00       		.byte	0
 6031 0dc4 00       		.byte	0
 6032 0dc5 00       		.byte	0
 6033 0dc6 F8       		.byte	-8
 6034 0dc7 F8       		.byte	-8
 6035 0dc8 F8       		.byte	-8
 6036 0dc9 FF       		.byte	-1
 6037 0dca FF       		.byte	-1
 6038 0dcb FF       		.byte	-1
 6039 0dcc 0E       		.byte	14
 6040 0dcd 0E       		.byte	14
 6041 0dce 0E       		.byte	14
 6042 0dcf 70       		.byte	112
 6043 0dd0 70       		.byte	112
 6044 0dd1 70       		.byte	112
 6045 0dd2 FF       		.byte	-1
 6046 0dd3 FF       		.byte	-1
 6047 0dd4 FF       		.byte	-1
 6048 0dd5 FF       		.byte	-1
 6049 0dd6 FF       		.byte	-1
 6050 0dd7 FF       		.byte	-1
 6051 0dd8 00       		.byte	0
 6052 0dd9 00       		.byte	0
 6053 0dda 00       		.byte	0
 6054 0ddb 00       		.byte	0
 6055 0ddc 00       		.byte	0
 6056 0ddd 00       		.byte	0
 6057 0dde FF       		.byte	-1
 6058 0ddf FF       		.byte	-1
 6059 0de0 FF       		.byte	-1
 6060 0de1 00       		.byte	0
 6061 0de2 00       		.byte	0
 6062 0de3 00       		.byte	0
 6063 0de4 00       		.byte	0
 6064 0de5 00       		.byte	0
 6065 0de6 00       		.byte	0
 6066 0de7 00       		.byte	0
 6067 0de8 00       		.byte	0
 6068 0de9 00       		.byte	0
 6069 0dea 00       		.byte	0
 6070 0deb 00       		.byte	0
 6071 0dec 00       		.byte	0
 6072 0ded C0       		.byte	-64
 6073 0dee C0       		.byte	-64
 6074 0def C0       		.byte	-64
 6075 0df0 38       		.byte	56
 6076 0df1 38       		.byte	56
 6077 0df2 38       		.byte	56
 6078 0df3 38       		.byte	56
 6079 0df4 38       		.byte	56
 6080 0df5 38       		.byte	56
 6081 0df6 C0       		.byte	-64
 6082 0df7 C0       		.byte	-64
 6083 0df8 C0       		.byte	-64
 6084 0df9 FF       		.byte	-1
 6085 0dfa FF       		.byte	-1
 6086 0dfb FF       		.byte	-1
 6087 0dfc 00       		.byte	0
 6088 0dfd 00       		.byte	0
 6089 0dfe 00       		.byte	0
 6090 0dff 00       		.byte	0
 6091 0e00 00       		.byte	0
 6092 0e01 00       		.byte	0
 6093 0e02 FF       		.byte	-1
 6094 0e03 FF       		.byte	-1
 6095 0e04 FF       		.byte	-1
 6096 0e05 1F       		.byte	31
 6097 0e06 1F       		.byte	31
 6098 0e07 1F       		.byte	31
 6099 0e08 E0       		.byte	-32
 6100 0e09 E0       		.byte	-32
 6101 0e0a E0       		.byte	-32
 6102 0e0b E0       		.byte	-32
 6103 0e0c E0       		.byte	-32
 6104 0e0d E0       		.byte	-32
 6105 0e0e 1F       		.byte	31
 6106 0e0f 1F       		.byte	31
 6107 0e10 1F       		.byte	31
 6108 0e11 00       		.byte	0
 6109 0e12 00       		.byte	0
 6110 0e13 00       		.byte	0
 6111 0e14 00       		.byte	0
 6112 0e15 00       		.byte	0
 6113 0e16 00       		.byte	0
 6114 0e17 00       		.byte	0
 6115 0e18 00       		.byte	0
 6116 0e19 00       		.byte	0
 6117 0e1a 00       		.byte	0
 6118 0e1b 00       		.byte	0
 6119 0e1c 00       		.byte	0
 6120 0e1d F8       		.byte	-8
 6121 0e1e F8       		.byte	-8
 6122 0e1f F8       		.byte	-8
 6123 0e20 38       		.byte	56
 6124 0e21 38       		.byte	56
 6125 0e22 38       		.byte	56
 6126 0e23 38       		.byte	56
 6127 0e24 38       		.byte	56
 6128 0e25 38       		.byte	56
 6129 0e26 C0       		.byte	-64
 6130 0e27 C0       		.byte	-64
 6131 0e28 C0       		.byte	-64
 6132 0e29 FF       		.byte	-1
 6133 0e2a FF       		.byte	-1
 6134 0e2b FF       		.byte	-1
 6135 0e2c 70       		.byte	112
 6136 0e2d 70       		.byte	112
 6137 0e2e 70       		.byte	112
 6138 0e2f 70       		.byte	112
 6139 0e30 70       		.byte	112
 6140 0e31 70       		.byte	112
 6141 0e32 0F       		.byte	15
 6142 0e33 0F       		.byte	15
 6143 0e34 0F       		.byte	15
 6144 0e35 FF       		.byte	-1
 6145 0e36 FF       		.byte	-1
 6146 0e37 FF       		.byte	-1
 6147 0e38 00       		.byte	0
 6148 0e39 00       		.byte	0
 6149 0e3a 00       		.byte	0
 6150 0e3b 00       		.byte	0
 6151 0e3c 00       		.byte	0
 6152 0e3d 00       		.byte	0
 6153 0e3e 00       		.byte	0
 6154 0e3f 00       		.byte	0
 6155 0e40 00       		.byte	0
 6156 0e41 00       		.byte	0
 6157 0e42 00       		.byte	0
 6158 0e43 00       		.byte	0
 6159 0e44 00       		.byte	0
 6160 0e45 00       		.byte	0
 6161 0e46 00       		.byte	0
 6162 0e47 00       		.byte	0
 6163 0e48 00       		.byte	0
 6164 0e49 00       		.byte	0
 6165 0e4a 00       		.byte	0
 6166 0e4b 00       		.byte	0
 6167 0e4c 00       		.byte	0
 6168 0e4d C0       		.byte	-64
 6169 0e4e C0       		.byte	-64
 6170 0e4f C0       		.byte	-64
 6171 0e50 38       		.byte	56
 6172 0e51 38       		.byte	56
 6173 0e52 38       		.byte	56
 6174 0e53 38       		.byte	56
 6175 0e54 38       		.byte	56
 6176 0e55 38       		.byte	56
 6177 0e56 C0       		.byte	-64
 6178 0e57 C0       		.byte	-64
 6179 0e58 C0       		.byte	-64
 6180 0e59 FF       		.byte	-1
 6181 0e5a FF       		.byte	-1
 6182 0e5b FF       		.byte	-1
 6183 0e5c 00       		.byte	0
 6184 0e5d 00       		.byte	0
 6185 0e5e 00       		.byte	0
 6186 0e5f 00       		.byte	0
 6187 0e60 00       		.byte	0
 6188 0e61 00       		.byte	0
 6189 0e62 FF       		.byte	-1
 6190 0e63 FF       		.byte	-1
 6191 0e64 FF       		.byte	-1
 6192 0e65 1F       		.byte	31
 6193 0e66 1F       		.byte	31
 6194 0e67 1F       		.byte	31
 6195 0e68 E0       		.byte	-32
 6196 0e69 E0       		.byte	-32
 6197 0e6a E0       		.byte	-32
 6198 0e6b FC       		.byte	-4
 6199 0e6c FC       		.byte	-4
 6200 0e6d FC       		.byte	-4
 6201 0e6e FF       		.byte	-1
 6202 0e6f FF       		.byte	-1
 6203 0e70 FF       		.byte	-1
 6204 0e71 00       		.byte	0
 6205 0e72 00       		.byte	0
 6206 0e73 00       		.byte	0
 6207 0e74 00       		.byte	0
 6208 0e75 00       		.byte	0
 6209 0e76 00       		.byte	0
 6210 0e77 00       		.byte	0
 6211 0e78 00       		.byte	0
 6212 0e79 00       		.byte	0
 6213 0e7a 00       		.byte	0
 6214 0e7b 00       		.byte	0
 6215 0e7c 00       		.byte	0
 6216 0e7d F8       		.byte	-8
 6217 0e7e F8       		.byte	-8
 6218 0e7f F8       		.byte	-8
 6219 0e80 38       		.byte	56
 6220 0e81 38       		.byte	56
 6221 0e82 38       		.byte	56
 6222 0e83 38       		.byte	56
 6223 0e84 38       		.byte	56
 6224 0e85 38       		.byte	56
 6225 0e86 C0       		.byte	-64
 6226 0e87 C0       		.byte	-64
 6227 0e88 C0       		.byte	-64
 6228 0e89 FF       		.byte	-1
 6229 0e8a FF       		.byte	-1
 6230 0e8b FF       		.byte	-1
 6231 0e8c 70       		.byte	112
 6232 0e8d 70       		.byte	112
 6233 0e8e 70       		.byte	112
 6234 0e8f 70       		.byte	112
 6235 0e90 70       		.byte	112
 6236 0e91 70       		.byte	112
 6237 0e92 8F       		.byte	-113
 6238 0e93 8F       		.byte	-113
 6239 0e94 8F       		.byte	-113
 6240 0e95 FF       		.byte	-1
 6241 0e96 FF       		.byte	-1
 6242 0e97 FF       		.byte	-1
 6243 0e98 00       		.byte	0
 6244 0e99 00       		.byte	0
 6245 0e9a 00       		.byte	0
 6246 0e9b 00       		.byte	0
 6247 0e9c 00       		.byte	0
 6248 0e9d 00       		.byte	0
 6249 0e9e FF       		.byte	-1
 6250 0e9f FF       		.byte	-1
 6251 0ea0 FF       		.byte	-1
 6252 0ea1 00       		.byte	0
 6253 0ea2 00       		.byte	0
 6254 0ea3 00       		.byte	0
 6255 0ea4 00       		.byte	0
 6256 0ea5 00       		.byte	0
 6257 0ea6 00       		.byte	0
 6258 0ea7 00       		.byte	0
 6259 0ea8 00       		.byte	0
 6260 0ea9 00       		.byte	0
 6261 0eaa 00       		.byte	0
 6262 0eab 00       		.byte	0
 6263 0eac 00       		.byte	0
 6264 0ead C0       		.byte	-64
 6265 0eae C0       		.byte	-64
 6266 0eaf C0       		.byte	-64
 6267 0eb0 38       		.byte	56
 6268 0eb1 38       		.byte	56
 6269 0eb2 38       		.byte	56
 6270 0eb3 38       		.byte	56
 6271 0eb4 38       		.byte	56
 6272 0eb5 38       		.byte	56
 6273 0eb6 38       		.byte	56
 6274 0eb7 38       		.byte	56
 6275 0eb8 38       		.byte	56
 6276 0eb9 0F       		.byte	15
 6277 0eba 0F       		.byte	15
 6278 0ebb 0F       		.byte	15
 6279 0ebc 70       		.byte	112
 6280 0ebd 70       		.byte	112
 6281 0ebe 70       		.byte	112
 6282 0ebf 70       		.byte	112
 6283 0ec0 70       		.byte	112
 6284 0ec1 70       		.byte	112
 6285 0ec2 80       		.byte	-128
 6286 0ec3 80       		.byte	-128
 6287 0ec4 80       		.byte	-128
 6288 0ec5 E0       		.byte	-32
 6289 0ec6 E0       		.byte	-32
 6290 0ec7 E0       		.byte	-32
 6291 0ec8 E0       		.byte	-32
 6292 0ec9 E0       		.byte	-32
 6293 0eca E0       		.byte	-32
 6294 0ecb E0       		.byte	-32
 6295 0ecc E0       		.byte	-32
 6296 0ecd E0       		.byte	-32
 6297 0ece 1F       		.byte	31
 6298 0ecf 1F       		.byte	31
 6299 0ed0 1F       		.byte	31
 6300 0ed1 00       		.byte	0
 6301 0ed2 00       		.byte	0
 6302 0ed3 00       		.byte	0
 6303 0ed4 00       		.byte	0
 6304 0ed5 00       		.byte	0
 6305 0ed6 00       		.byte	0
 6306 0ed7 00       		.byte	0
 6307 0ed8 00       		.byte	0
 6308 0ed9 00       		.byte	0
 6309 0eda 00       		.byte	0
 6310 0edb 00       		.byte	0
 6311 0edc 00       		.byte	0
 6312 0edd 38       		.byte	56
 6313 0ede 38       		.byte	56
 6314 0edf 38       		.byte	56
 6315 0ee0 38       		.byte	56
 6316 0ee1 38       		.byte	56
 6317 0ee2 38       		.byte	56
 6318 0ee3 F8       		.byte	-8
 6319 0ee4 F8       		.byte	-8
 6320 0ee5 F8       		.byte	-8
 6321 0ee6 38       		.byte	56
 6322 0ee7 38       		.byte	56
 6323 0ee8 38       		.byte	56
 6324 0ee9 38       		.byte	56
 6325 0eea 38       		.byte	56
 6326 0eeb 38       		.byte	56
 6327 0eec 00       		.byte	0
 6328 0eed 00       		.byte	0
 6329 0eee 00       		.byte	0
 6330 0eef 00       		.byte	0
 6331 0ef0 00       		.byte	0
 6332 0ef1 00       		.byte	0
 6333 0ef2 FF       		.byte	-1
 6334 0ef3 FF       		.byte	-1
 6335 0ef4 FF       		.byte	-1
 6336 0ef5 00       		.byte	0
 6337 0ef6 00       		.byte	0
 6338 0ef7 00       		.byte	0
 6339 0ef8 00       		.byte	0
 6340 0ef9 00       		.byte	0
 6341 0efa 00       		.byte	0
 6342 0efb 00       		.byte	0
 6343 0efc 00       		.byte	0
 6344 0efd 00       		.byte	0
 6345 0efe 00       		.byte	0
 6346 0eff 00       		.byte	0
 6347 0f00 00       		.byte	0
 6348 0f01 FF       		.byte	-1
 6349 0f02 FF       		.byte	-1
 6350 0f03 FF       		.byte	-1
 6351 0f04 00       		.byte	0
 6352 0f05 00       		.byte	0
 6353 0f06 00       		.byte	0
 6354 0f07 00       		.byte	0
 6355 0f08 00       		.byte	0
 6356 0f09 00       		.byte	0
 6357 0f0a 00       		.byte	0
 6358 0f0b 00       		.byte	0
 6359 0f0c 00       		.byte	0
 6360 0f0d 00       		.byte	0
 6361 0f0e 00       		.byte	0
 6362 0f0f 00       		.byte	0
 6363 0f10 00       		.byte	0
 6364 0f11 00       		.byte	0
 6365 0f12 00       		.byte	0
 6366 0f13 00       		.byte	0
 6367 0f14 00       		.byte	0
 6368 0f15 00       		.byte	0
 6369 0f16 00       		.byte	0
 6370 0f17 00       		.byte	0
 6371 0f18 00       		.byte	0
 6372 0f19 F8       		.byte	-8
 6373 0f1a F8       		.byte	-8
 6374 0f1b F8       		.byte	-8
 6375 0f1c 00       		.byte	0
 6376 0f1d 00       		.byte	0
 6377 0f1e 00       		.byte	0
 6378 0f1f 00       		.byte	0
 6379 0f20 00       		.byte	0
 6380 0f21 00       		.byte	0
 6381 0f22 F8       		.byte	-8
 6382 0f23 F8       		.byte	-8
 6383 0f24 F8       		.byte	-8
 6384 0f25 FF       		.byte	-1
 6385 0f26 FF       		.byte	-1
 6386 0f27 FF       		.byte	-1
 6387 0f28 00       		.byte	0
 6388 0f29 00       		.byte	0
 6389 0f2a 00       		.byte	0
 6390 0f2b 00       		.byte	0
 6391 0f2c 00       		.byte	0
 6392 0f2d 00       		.byte	0
 6393 0f2e FF       		.byte	-1
 6394 0f2f FF       		.byte	-1
 6395 0f30 FF       		.byte	-1
 6396 0f31 1F       		.byte	31
 6397 0f32 1F       		.byte	31
 6398 0f33 1F       		.byte	31
 6399 0f34 E0       		.byte	-32
 6400 0f35 E0       		.byte	-32
 6401 0f36 E0       		.byte	-32
 6402 0f37 E0       		.byte	-32
 6403 0f38 E0       		.byte	-32
 6404 0f39 E0       		.byte	-32
 6405 0f3a 1F       		.byte	31
 6406 0f3b 1F       		.byte	31
 6407 0f3c 1F       		.byte	31
 6408 0f3d 00       		.byte	0
 6409 0f3e 00       		.byte	0
 6410 0f3f 00       		.byte	0
 6411 0f40 00       		.byte	0
 6412 0f41 00       		.byte	0
 6413 0f42 00       		.byte	0
 6414 0f43 00       		.byte	0
 6415 0f44 00       		.byte	0
 6416 0f45 00       		.byte	0
 6417 0f46 00       		.byte	0
 6418 0f47 00       		.byte	0
 6419 0f48 00       		.byte	0
 6420 0f49 F8       		.byte	-8
 6421 0f4a F8       		.byte	-8
 6422 0f4b F8       		.byte	-8
 6423 0f4c 00       		.byte	0
 6424 0f4d 00       		.byte	0
 6425 0f4e 00       		.byte	0
 6426 0f4f 00       		.byte	0
 6427 0f50 00       		.byte	0
 6428 0f51 00       		.byte	0
 6429 0f52 F8       		.byte	-8
 6430 0f53 F8       		.byte	-8
 6431 0f54 F8       		.byte	-8
 6432 0f55 FF       		.byte	-1
 6433 0f56 FF       		.byte	-1
 6434 0f57 FF       		.byte	-1
 6435 0f58 00       		.byte	0
 6436 0f59 00       		.byte	0
 6437 0f5a 00       		.byte	0
 6438 0f5b 00       		.byte	0
 6439 0f5c 00       		.byte	0
 6440 0f5d 00       		.byte	0
 6441 0f5e FF       		.byte	-1
 6442 0f5f FF       		.byte	-1
 6443 0f60 FF       		.byte	-1
 6444 0f61 1F       		.byte	31
 6445 0f62 1F       		.byte	31
 6446 0f63 1F       		.byte	31
 6447 0f64 E0       		.byte	-32
 6448 0f65 E0       		.byte	-32
 6449 0f66 E0       		.byte	-32
 6450 0f67 E0       		.byte	-32
 6451 0f68 E0       		.byte	-32
 6452 0f69 E0       		.byte	-32
 6453 0f6a FF       		.byte	-1
 6454 0f6b FF       		.byte	-1
 6455 0f6c FF       		.byte	-1
 6456 0f6d 00       		.byte	0
 6457 0f6e 00       		.byte	0
 6458 0f6f 00       		.byte	0
 6459 0f70 00       		.byte	0
 6460 0f71 00       		.byte	0
 6461 0f72 00       		.byte	0
 6462 0f73 00       		.byte	0
 6463 0f74 00       		.byte	0
 6464 0f75 00       		.byte	0
 6465 0f76 00       		.byte	0
 6466 0f77 00       		.byte	0
 6467 0f78 00       		.byte	0
 6468 0f79 F8       		.byte	-8
 6469 0f7a F8       		.byte	-8
 6470 0f7b F8       		.byte	-8
 6471 0f7c 00       		.byte	0
 6472 0f7d 00       		.byte	0
 6473 0f7e 00       		.byte	0
 6474 0f7f 00       		.byte	0
 6475 0f80 00       		.byte	0
 6476 0f81 00       		.byte	0
 6477 0f82 00       		.byte	0
 6478 0f83 00       		.byte	0
 6479 0f84 00       		.byte	0
 6480 0f85 F8       		.byte	-8
 6481 0f86 F8       		.byte	-8
 6482 0f87 F8       		.byte	-8
 6483 0f88 FF       		.byte	-1
 6484 0f89 FF       		.byte	-1
 6485 0f8a FF       		.byte	-1
 6486 0f8b 00       		.byte	0
 6487 0f8c 00       		.byte	0
 6488 0f8d 00       		.byte	0
 6489 0f8e FE       		.byte	-2
 6490 0f8f FE       		.byte	-2
 6491 0f90 FE       		.byte	-2
 6492 0f91 00       		.byte	0
 6493 0f92 00       		.byte	0
 6494 0f93 00       		.byte	0
 6495 0f94 FF       		.byte	-1
 6496 0f95 FF       		.byte	-1
 6497 0f96 FF       		.byte	-1
 6498 0f97 1F       		.byte	31
 6499 0f98 1F       		.byte	31
 6500 0f99 1F       		.byte	31
 6501 0f9a E0       		.byte	-32
 6502 0f9b E0       		.byte	-32
 6503 0f9c E0       		.byte	-32
 6504 0f9d 1F       		.byte	31
 6505 0f9e 1F       		.byte	31
 6506 0f9f 1F       		.byte	31
 6507 0fa0 E0       		.byte	-32
 6508 0fa1 E0       		.byte	-32
 6509 0fa2 E0       		.byte	-32
 6510 0fa3 1F       		.byte	31
 6511 0fa4 1F       		.byte	31
 6512 0fa5 1F       		.byte	31
 6513 0fa6 00       		.byte	0
 6514 0fa7 00       		.byte	0
 6515 0fa8 00       		.byte	0
 6516 0fa9 00       		.byte	0
 6517 0faa 00       		.byte	0
 6518 0fab 00       		.byte	0
 6519 0fac 00       		.byte	0
 6520 0fad 00       		.byte	0
 6521 0fae 00       		.byte	0
 6522 0faf 00       		.byte	0
 6523 0fb0 00       		.byte	0
 6524 0fb1 00       		.byte	0
 6525 0fb2 00       		.byte	0
 6526 0fb3 00       		.byte	0
 6527 0fb4 00       		.byte	0
 6528 0fb5 F8       		.byte	-8
 6529 0fb6 F8       		.byte	-8
 6530 0fb7 F8       		.byte	-8
 6531 0fb8 00       		.byte	0
 6532 0fb9 00       		.byte	0
 6533 0fba 00       		.byte	0
 6534 0fbb 00       		.byte	0
 6535 0fbc 00       		.byte	0
 6536 0fbd 00       		.byte	0
 6537 0fbe F8       		.byte	-8
 6538 0fbf F8       		.byte	-8
 6539 0fc0 F8       		.byte	-8
 6540 0fc1 8F       		.byte	-113
 6541 0fc2 8F       		.byte	-113
 6542 0fc3 8F       		.byte	-113
 6543 0fc4 70       		.byte	112
 6544 0fc5 70       		.byte	112
 6545 0fc6 70       		.byte	112
 6546 0fc7 70       		.byte	112
 6547 0fc8 70       		.byte	112
 6548 0fc9 70       		.byte	112
 6549 0fca 8F       		.byte	-113
 6550 0fcb 8F       		.byte	-113
 6551 0fcc 8F       		.byte	-113
 6552 0fcd FF       		.byte	-1
 6553 0fce FF       		.byte	-1
 6554 0fcf FF       		.byte	-1
 6555 0fd0 00       		.byte	0
 6556 0fd1 00       		.byte	0
 6557 0fd2 00       		.byte	0
 6558 0fd3 00       		.byte	0
 6559 0fd4 00       		.byte	0
 6560 0fd5 00       		.byte	0
 6561 0fd6 FF       		.byte	-1
 6562 0fd7 FF       		.byte	-1
 6563 0fd8 FF       		.byte	-1
 6564 0fd9 00       		.byte	0
 6565 0fda 00       		.byte	0
 6566 0fdb 00       		.byte	0
 6567 0fdc 00       		.byte	0
 6568 0fdd 00       		.byte	0
 6569 0fde 00       		.byte	0
 6570 0fdf 00       		.byte	0
 6571 0fe0 00       		.byte	0
 6572 0fe1 00       		.byte	0
 6573 0fe2 00       		.byte	0
 6574 0fe3 00       		.byte	0
 6575 0fe4 00       		.byte	0
 6576 0fe5 F8       		.byte	-8
 6577 0fe6 F8       		.byte	-8
 6578 0fe7 F8       		.byte	-8
 6579 0fe8 00       		.byte	0
 6580 0fe9 00       		.byte	0
 6581 0fea 00       		.byte	0
 6582 0feb 00       		.byte	0
 6583 0fec 00       		.byte	0
 6584 0fed 00       		.byte	0
 6585 0fee 00       		.byte	0
 6586 0fef 00       		.byte	0
 6587 0ff0 00       		.byte	0
 6588 0ff1 F8       		.byte	-8
 6589 0ff2 F8       		.byte	-8
 6590 0ff3 F8       		.byte	-8
 6591 0ff4 01       		.byte	1
 6592 0ff5 01       		.byte	1
 6593 0ff6 01       		.byte	1
 6594 0ff7 0E       		.byte	14
 6595 0ff8 0E       		.byte	14
 6596 0ff9 0E       		.byte	14
 6597 0ffa F0       		.byte	-16
 6598 0ffb F0       		.byte	-16
 6599 0ffc F0       		.byte	-16
 6600 0ffd 0E       		.byte	14
 6601 0ffe 0E       		.byte	14
 6602 0fff 0E       		.byte	14
 6603 1000 01       		.byte	1
 6604 1001 01       		.byte	1
 6605 1002 01       		.byte	1
 6606 1003 00       		.byte	0
 6607 1004 00       		.byte	0
 6608 1005 00       		.byte	0
 6609 1006 00       		.byte	0
 6610 1007 00       		.byte	0
 6611 1008 00       		.byte	0
 6612 1009 FF       		.byte	-1
 6613 100a FF       		.byte	-1
 6614 100b FF       		.byte	-1
 6615 100c 00       		.byte	0
 6616 100d 00       		.byte	0
 6617 100e 00       		.byte	0
 6618 100f 00       		.byte	0
 6619 1010 00       		.byte	0
 6620 1011 00       		.byte	0
 6621 1012 00       		.byte	0
 6622 1013 00       		.byte	0
 6623 1014 00       		.byte	0
 6624 1015 00       		.byte	0
 6625 1016 00       		.byte	0
 6626 1017 00       		.byte	0
 6627 1018 00       		.byte	0
 6628 1019 00       		.byte	0
 6629 101a 00       		.byte	0
 6630 101b 00       		.byte	0
 6631 101c 00       		.byte	0
 6632 101d 00       		.byte	0
 6633 101e 00       		.byte	0
 6634 101f 00       		.byte	0
 6635 1020 00       		.byte	0
 6636 1021 38       		.byte	56
 6637 1022 38       		.byte	56
 6638 1023 38       		.byte	56
 6639 1024 38       		.byte	56
 6640 1025 38       		.byte	56
 6641 1026 38       		.byte	56
 6642 1027 38       		.byte	56
 6643 1028 38       		.byte	56
 6644 1029 38       		.byte	56
 6645 102a F8       		.byte	-8
 6646 102b F8       		.byte	-8
 6647 102c F8       		.byte	-8
 6648 102d 80       		.byte	-128
 6649 102e 80       		.byte	-128
 6650 102f 80       		.byte	-128
 6651 1030 70       		.byte	112
 6652 1031 70       		.byte	112
 6653 1032 70       		.byte	112
 6654 1033 0E       		.byte	14
 6655 1034 0E       		.byte	14
 6656 1035 0E       		.byte	14
 6657 1036 01       		.byte	1
 6658 1037 01       		.byte	1
 6659 1038 01       		.byte	1
 6660 1039 FF       		.byte	-1
 6661 103a FF       		.byte	-1
 6662 103b FF       		.byte	-1
 6663 103c E0       		.byte	-32
 6664 103d E0       		.byte	-32
 6665 103e E0       		.byte	-32
 6666 103f E0       		.byte	-32
 6667 1040 E0       		.byte	-32
 6668 1041 E0       		.byte	-32
 6669 1042 E0       		.byte	-32
 6670 1043 E0       		.byte	-32
 6671 1044 E0       		.byte	-32
 6672 1045 00       		.byte	0
 6673 1046 00       		.byte	0
 6674 1047 00       		.byte	0
 6675 1048 00       		.byte	0
 6676 1049 00       		.byte	0
 6677 104a 00       		.byte	0
 6678 104b 00       		.byte	0
 6679 104c 00       		.byte	0
 6680 104d 00       		.byte	0
 6681 104e 00       		.byte	0
 6682 104f 00       		.byte	0
 6683 1050 00       		.byte	0
 6684 1051 FF       		.byte	-1
 6685 1052 FF       		.byte	-1
 6686 1053 FF       		.byte	-1
 6687 1054 07       		.byte	7
 6688 1055 07       		.byte	7
 6689 1056 07       		.byte	7
 6690 1057 FF       		.byte	-1
 6691 1058 FF       		.byte	-1
 6692 1059 FF       		.byte	-1
 6693 105a 00       		.byte	0
 6694 105b 00       		.byte	0
 6695 105c 00       		.byte	0
 6696 105d FF       		.byte	-1
 6697 105e FF       		.byte	-1
 6698 105f FF       		.byte	-1
 6699 1060 00       		.byte	0
 6700 1061 00       		.byte	0
 6701 1062 00       		.byte	0
 6702 1063 1C       		.byte	28
 6703 1064 1C       		.byte	28
 6704 1065 1C       		.byte	28
 6705 1066 1C       		.byte	28
 6706 1067 1C       		.byte	28
 6707 1068 1C       		.byte	28
 6708 1069 38       		.byte	56
 6709 106a 38       		.byte	56
 6710 106b 38       		.byte	56
 6711 106c C0       		.byte	-64
 6712 106d C0       		.byte	-64
 6713 106e C0       		.byte	-64
 6714 106f 00       		.byte	0
 6715 1070 00       		.byte	0
 6716 1071 00       		.byte	0
 6717 1072 00       		.byte	0
 6718 1073 00       		.byte	0
 6719 1074 00       		.byte	0
 6720 1075 00       		.byte	0
 6721 1076 00       		.byte	0
 6722 1077 00       		.byte	0
 6723 1078 0F       		.byte	15
 6724 1079 0F       		.byte	15
 6725 107a 0F       		.byte	15
 6726 107b F0       		.byte	-16
 6727 107c F0       		.byte	-16
 6728 107d F0       		.byte	-16
 6729 107e 00       		.byte	0
 6730 107f 00       		.byte	0
 6731 1080 00       		.byte	0
 6732 1081 00       		.byte	0
 6733 1082 00       		.byte	0
 6734 1083 00       		.byte	0
 6735 1084 00       		.byte	0
 6736 1085 00       		.byte	0
 6737 1086 00       		.byte	0
 6738 1087 03       		.byte	3
 6739 1088 03       		.byte	3
 6740 1089 03       		.byte	3
 6741 108a FC       		.byte	-4
 6742 108b FC       		.byte	-4
 6743 108c FC       		.byte	-4
 6744 108d 00       		.byte	0
 6745 108e 00       		.byte	0
 6746 108f 00       		.byte	0
 6747 1090 00       		.byte	0
 6748 1091 00       		.byte	0
 6749 1092 00       		.byte	0
 6750 1093 00       		.byte	0
 6751 1094 00       		.byte	0
 6752 1095 00       		.byte	0
 6753 1096 00       		.byte	0
 6754 1097 00       		.byte	0
 6755 1098 00       		.byte	0
 6756 1099 07       		.byte	7
 6757 109a 07       		.byte	7
 6758 109b 07       		.byte	7
 6759 109c FF       		.byte	-1
 6760 109d FF       		.byte	-1
 6761 109e FF       		.byte	-1
 6762 109f 00       		.byte	0
 6763 10a0 00       		.byte	0
 6764 10a1 00       		.byte	0
 6765 10a2 FF       		.byte	-1
 6766 10a3 FF       		.byte	-1
 6767 10a4 FF       		.byte	-1
 6768 10a5 00       		.byte	0
 6769 10a6 00       		.byte	0
 6770 10a7 00       		.byte	0
 6771 10a8 FF       		.byte	-1
 6772 10a9 FF       		.byte	-1
 6773 10aa FF       		.byte	-1
 6774 10ab 1C       		.byte	28
 6775 10ac 1C       		.byte	28
 6776 10ad 1C       		.byte	28
 6777 10ae 1C       		.byte	28
 6778 10af 1C       		.byte	28
 6779 10b0 1C       		.byte	28
 6780 10b1 C0       		.byte	-64
 6781 10b2 C0       		.byte	-64
 6782 10b3 C0       		.byte	-64
 6783 10b4 38       		.byte	56
 6784 10b5 38       		.byte	56
 6785 10b6 38       		.byte	56
 6786 10b7 C0       		.byte	-64
 6787 10b8 C0       		.byte	-64
 6788 10b9 C0       		.byte	-64
 6789 10ba 01       		.byte	1
 6790 10bb 01       		.byte	1
 6791 10bc 01       		.byte	1
 6792 10bd 00       		.byte	0
 6793 10be 00       		.byte	0
 6794 10bf 00       		.byte	0
 6795 10c0 01       		.byte	1
 6796 10c1 01       		.byte	1
 6797 10c2 01       		.byte	1
 6798 10c3 00       		.byte	0
 6799 10c4 00       		.byte	0
 6800 10c5 00       		.byte	0
 6801 10c6 00       		.byte	0
 6802 10c7 00       		.byte	0
 6803 10c8 00       		.byte	0
 6804 10c9 00       		.byte	0
 6805 10ca 00       		.byte	0
 6806 10cb 00       		.byte	0
 6807 10cc 00       		.byte	0
 6808 10cd 00       		.byte	0
 6809 10ce 00       		.byte	0
 6810 10cf 00       		.byte	0
 6811 10d0 00       		.byte	0
 6812 10d1 00       		.byte	0
 6813 10d2 00       		.byte	0
 6814 10d3 00       		.byte	0
 6815 10d4 00       		.byte	0
 6816 10d5 00       		.byte	0
 6817 10d6 00       		.byte	0
 6818 10d7 00       		.byte	0
 6819 10d8 00       		.byte	0
 6820 10d9 00       		.byte	0
 6821 10da 00       		.byte	0
 6822 10db 00       		.byte	0
 6823 10dc 00       		.byte	0
 6824 10dd 00       		.byte	0
 6825 10de 00       		.byte	0
 6826 10df 00       		.byte	0
 6827 10e0 00       		.byte	0
 6828 10e1 00       		.byte	0
 6829 10e2 00       		.byte	0
 6830 10e3 00       		.byte	0
 6831 10e4 00       		.byte	0
 6832 10e5 00       		.byte	0
 6833 10e6 00       		.byte	0
 6834 10e7 E0       		.byte	-32
 6835 10e8 E0       		.byte	-32
 6836 10e9 E0       		.byte	-32
 6837 10ea E0       		.byte	-32
 6838 10eb E0       		.byte	-32
 6839 10ec E0       		.byte	-32
 6840 10ed E0       		.byte	-32
 6841 10ee E0       		.byte	-32
 6842 10ef E0       		.byte	-32
 6843 10f0 00       		.byte	0
 6844 10f1 00       		.byte	0
 6845 10f2 00       		.byte	0
 6846 10f3 00       		.byte	0
 6847 10f4 00       		.byte	0
 6848 10f5 00       		.byte	0
 6849 10f6 00       		.byte	0
 6850 10f7 00       		.byte	0
 6851 10f8 00       		.byte	0
 6852 10f9 F8       		.byte	-8
 6853 10fa F8       		.byte	-8
 6854 10fb F8       		.byte	-8
 6855 10fc 01       		.byte	1
 6856 10fd 01       		.byte	1
 6857 10fe 01       		.byte	1
 6858 10ff 00       		.byte	0
 6859 1100 00       		.byte	0
 6860 1101 00       		.byte	0
 6861 1102 00       		.byte	0
 6862 1103 00       		.byte	0
 6863 1104 00       		.byte	0
 6864 1105 00       		.byte	0
 6865 1106 00       		.byte	0
 6866 1107 00       		.byte	0
 6867 1108 00       		.byte	0
 6868 1109 00       		.byte	0
 6869 110a 00       		.byte	0
 6870 110b 00       		.byte	0
 6871 110c 00       		.byte	0
 6872 110d 00       		.byte	0
 6873 110e 00       		.byte	0
 6874 110f 00       		.byte	0
 6875 1110 00       		.byte	0
 6876 1111 00       		.byte	0
 6877 1112 00       		.byte	0
 6878 1113 00       		.byte	0
 6879 1114 8E       		.byte	-114
 6880 1115 8E       		.byte	-114
 6881 1116 8E       		.byte	-114
 6882 1117 8E       		.byte	-114
 6883 1118 8E       		.byte	-114
 6884 1119 8E       		.byte	-114
 6885 111a F0       		.byte	-16
 6886 111b F0       		.byte	-16
 6887 111c F0       		.byte	-16
 6888 111d 1C       		.byte	28
 6889 111e 1C       		.byte	28
 6890 111f 1C       		.byte	28
 6891 1120 E3       		.byte	-29
 6892 1121 E3       		.byte	-29
 6893 1122 E3       		.byte	-29
 6894 1123 E3       		.byte	-29
 6895 1124 E3       		.byte	-29
 6896 1125 E3       		.byte	-29
 6897 1126 FF       		.byte	-1
 6898 1127 FF       		.byte	-1
 6899 1128 FF       		.byte	-1
 6900 1129 00       		.byte	0
 6901 112a 00       		.byte	0
 6902 112b 00       		.byte	0
 6903 112c 00       		.byte	0
 6904 112d 00       		.byte	0
 6905 112e 00       		.byte	0
 6906 112f 00       		.byte	0
 6907 1130 00       		.byte	0
 6908 1131 00       		.byte	0
 6909 1132 00       		.byte	0
 6910 1133 00       		.byte	0
 6911 1134 00       		.byte	0
 6912 1135 F8       		.byte	-8
 6913 1136 F8       		.byte	-8
 6914 1137 F8       		.byte	-8
 6915 1138 00       		.byte	0
 6916 1139 00       		.byte	0
 6917 113a 00       		.byte	0
 6918 113b 00       		.byte	0
 6919 113c 00       		.byte	0
 6920 113d 00       		.byte	0
 6921 113e 00       		.byte	0
 6922 113f 00       		.byte	0
 6923 1140 00       		.byte	0
 6924 1141 FF       		.byte	-1
 6925 1142 FF       		.byte	-1
 6926 1143 FF       		.byte	-1
 6927 1144 0E       		.byte	14
 6928 1145 0E       		.byte	14
 6929 1146 0E       		.byte	14
 6930 1147 0E       		.byte	14
 6931 1148 0E       		.byte	14
 6932 1149 0E       		.byte	14
 6933 114a F0       		.byte	-16
 6934 114b F0       		.byte	-16
 6935 114c F0       		.byte	-16
 6936 114d FF       		.byte	-1
 6937 114e FF       		.byte	-1
 6938 114f FF       		.byte	-1
 6939 1150 E0       		.byte	-32
 6940 1151 E0       		.byte	-32
 6941 1152 E0       		.byte	-32
 6942 1153 E0       		.byte	-32
 6943 1154 E0       		.byte	-32
 6944 1155 E0       		.byte	-32
 6945 1156 1F       		.byte	31
 6946 1157 1F       		.byte	31
 6947 1158 1F       		.byte	31
 6948 1159 00       		.byte	0
 6949 115a 00       		.byte	0
 6950 115b 00       		.byte	0
 6951 115c 00       		.byte	0
 6952 115d 00       		.byte	0
 6953 115e 00       		.byte	0
 6954 115f 00       		.byte	0
 6955 1160 00       		.byte	0
 6956 1161 00       		.byte	0
 6957 1162 00       		.byte	0
 6958 1163 00       		.byte	0
 6959 1164 00       		.byte	0
 6960 1165 00       		.byte	0
 6961 1166 00       		.byte	0
 6962 1167 00       		.byte	0
 6963 1168 00       		.byte	0
 6964 1169 00       		.byte	0
 6965 116a 00       		.byte	0
 6966 116b 00       		.byte	0
 6967 116c 00       		.byte	0
 6968 116d 00       		.byte	0
 6969 116e 00       		.byte	0
 6970 116f 00       		.byte	0
 6971 1170 00       		.byte	0
 6972 1171 F0       		.byte	-16
 6973 1172 F0       		.byte	-16
 6974 1173 F0       		.byte	-16
 6975 1174 0E       		.byte	14
 6976 1175 0E       		.byte	14
 6977 1176 0E       		.byte	14
 6978 1177 0E       		.byte	14
 6979 1178 0E       		.byte	14
 6980 1179 0E       		.byte	14
 6981 117a 0E       		.byte	14
 6982 117b 0E       		.byte	14
 6983 117c 0E       		.byte	14
 6984 117d 1F       		.byte	31
 6985 117e 1F       		.byte	31
 6986 117f 1F       		.byte	31
 6987 1180 E0       		.byte	-32
 6988 1181 E0       		.byte	-32
 6989 1182 E0       		.byte	-32
 6990 1183 E0       		.byte	-32
 6991 1184 E0       		.byte	-32
 6992 1185 E0       		.byte	-32
 6993 1186 E0       		.byte	-32
 6994 1187 E0       		.byte	-32
 6995 1188 E0       		.byte	-32
 6996 1189 00       		.byte	0
 6997 118a 00       		.byte	0
 6998 118b 00       		.byte	0
 6999 118c 00       		.byte	0
 7000 118d 00       		.byte	0
 7001 118e 00       		.byte	0
 7002 118f 00       		.byte	0
 7003 1190 00       		.byte	0
 7004 1191 00       		.byte	0
 7005 1192 00       		.byte	0
 7006 1193 00       		.byte	0
 7007 1194 00       		.byte	0
 7008 1195 00       		.byte	0
 7009 1196 00       		.byte	0
 7010 1197 00       		.byte	0
 7011 1198 00       		.byte	0
 7012 1199 00       		.byte	0
 7013 119a 00       		.byte	0
 7014 119b 00       		.byte	0
 7015 119c 00       		.byte	0
 7016 119d 00       		.byte	0
 7017 119e F8       		.byte	-8
 7018 119f F8       		.byte	-8
 7019 11a0 F8       		.byte	-8
 7020 11a1 F0       		.byte	-16
 7021 11a2 F0       		.byte	-16
 7022 11a3 F0       		.byte	-16
 7023 11a4 0E       		.byte	14
 7024 11a5 0E       		.byte	14
 7025 11a6 0E       		.byte	14
 7026 11a7 0E       		.byte	14
 7027 11a8 0E       		.byte	14
 7028 11a9 0E       		.byte	14
 7029 11aa FF       		.byte	-1
 7030 11ab FF       		.byte	-1
 7031 11ac FF       		.byte	-1
 7032 11ad 1F       		.byte	31
 7033 11ae 1F       		.byte	31
 7034 11af 1F       		.byte	31
 7035 11b0 E0       		.byte	-32
 7036 11b1 E0       		.byte	-32
 7037 11b2 E0       		.byte	-32
 7038 11b3 E0       		.byte	-32
 7039 11b4 E0       		.byte	-32
 7040 11b5 E0       		.byte	-32
 7041 11b6 FF       		.byte	-1
 7042 11b7 FF       		.byte	-1
 7043 11b8 FF       		.byte	-1
 7044 11b9 00       		.byte	0
 7045 11ba 00       		.byte	0
 7046 11bb 00       		.byte	0
 7047 11bc 00       		.byte	0
 7048 11bd 00       		.byte	0
 7049 11be 00       		.byte	0
 7050 11bf 00       		.byte	0
 7051 11c0 00       		.byte	0
 7052 11c1 00       		.byte	0
 7053 11c2 00       		.byte	0
 7054 11c3 00       		.byte	0
 7055 11c4 00       		.byte	0
 7056 11c5 00       		.byte	0
 7057 11c6 00       		.byte	0
 7058 11c7 00       		.byte	0
 7059 11c8 00       		.byte	0
 7060 11c9 00       		.byte	0
 7061 11ca 00       		.byte	0
 7062 11cb 00       		.byte	0
 7063 11cc 00       		.byte	0
 7064 11cd 00       		.byte	0
 7065 11ce 00       		.byte	0
 7066 11cf 00       		.byte	0
 7067 11d0 00       		.byte	0
 7068 11d1 F0       		.byte	-16
 7069 11d2 F0       		.byte	-16
 7070 11d3 F0       		.byte	-16
 7071 11d4 8E       		.byte	-114
 7072 11d5 8E       		.byte	-114
 7073 11d6 8E       		.byte	-114
 7074 11d7 8E       		.byte	-114
 7075 11d8 8E       		.byte	-114
 7076 11d9 8E       		.byte	-114
 7077 11da F0       		.byte	-16
 7078 11db F0       		.byte	-16
 7079 11dc F0       		.byte	-16
 7080 11dd 1F       		.byte	31
 7081 11de 1F       		.byte	31
 7082 11df 1F       		.byte	31
 7083 11e0 E3       		.byte	-29
 7084 11e1 E3       		.byte	-29
 7085 11e2 E3       		.byte	-29
 7086 11e3 E3       		.byte	-29
 7087 11e4 E3       		.byte	-29
 7088 11e5 E3       		.byte	-29
 7089 11e6 E3       		.byte	-29
 7090 11e7 E3       		.byte	-29
 7091 11e8 E3       		.byte	-29
 7092 11e9 00       		.byte	0
 7093 11ea 00       		.byte	0
 7094 11eb 00       		.byte	0
 7095 11ec 00       		.byte	0
 7096 11ed 00       		.byte	0
 7097 11ee 00       		.byte	0
 7098 11ef 00       		.byte	0
 7099 11f0 00       		.byte	0
 7100 11f1 00       		.byte	0
 7101 11f2 00       		.byte	0
 7102 11f3 00       		.byte	0
 7103 11f4 00       		.byte	0
 7104 11f5 C0       		.byte	-64
 7105 11f6 C0       		.byte	-64
 7106 11f7 C0       		.byte	-64
 7107 11f8 38       		.byte	56
 7108 11f9 38       		.byte	56
 7109 11fa 38       		.byte	56
 7110 11fb 38       		.byte	56
 7111 11fc 38       		.byte	56
 7112 11fd 38       		.byte	56
 7113 11fe FF       		.byte	-1
 7114 11ff FF       		.byte	-1
 7115 1200 FF       		.byte	-1
 7116 1201 70       		.byte	112
 7117 1202 70       		.byte	112
 7118 1203 70       		.byte	112
 7119 1204 00       		.byte	0
 7120 1205 00       		.byte	0
 7121 1206 00       		.byte	0
 7122 1207 FF       		.byte	-1
 7123 1208 FF       		.byte	-1
 7124 1209 FF       		.byte	-1
 7125 120a 00       		.byte	0
 7126 120b 00       		.byte	0
 7127 120c 00       		.byte	0
 7128 120d 00       		.byte	0
 7129 120e 00       		.byte	0
 7130 120f 00       		.byte	0
 7131 1210 00       		.byte	0
 7132 1211 00       		.byte	0
 7133 1212 00       		.byte	0
 7134 1213 00       		.byte	0
 7135 1214 00       		.byte	0
 7136 1215 00       		.byte	0
 7137 1216 00       		.byte	0
 7138 1217 00       		.byte	0
 7139 1218 00       		.byte	0
 7140 1219 00       		.byte	0
 7141 121a 00       		.byte	0
 7142 121b 00       		.byte	0
 7143 121c 00       		.byte	0
 7144 121d 00       		.byte	0
 7145 121e 00       		.byte	0
 7146 121f 00       		.byte	0
 7147 1220 00       		.byte	0
 7148 1221 00       		.byte	0
 7149 1222 00       		.byte	0
 7150 1223 00       		.byte	0
 7151 1224 00       		.byte	0
 7152 1225 F0       		.byte	-16
 7153 1226 F0       		.byte	-16
 7154 1227 F0       		.byte	-16
 7155 1228 0E       		.byte	14
 7156 1229 0E       		.byte	14
 7157 122a 0E       		.byte	14
 7158 122b 0E       		.byte	14
 7159 122c 0E       		.byte	14
 7160 122d 0E       		.byte	14
 7161 122e F0       		.byte	-16
 7162 122f F0       		.byte	-16
 7163 1230 F0       		.byte	-16
 7164 1231 1F       		.byte	31
 7165 1232 1F       		.byte	31
 7166 1233 1F       		.byte	31
 7167 1234 E0       		.byte	-32
 7168 1235 E0       		.byte	-32
 7169 1236 E0       		.byte	-32
 7170 1237 E0       		.byte	-32
 7171 1238 E0       		.byte	-32
 7172 1239 E0       		.byte	-32
 7173 123a FF       		.byte	-1
 7174 123b FF       		.byte	-1
 7175 123c FF       		.byte	-1
 7176 123d E0       		.byte	-32
 7177 123e E0       		.byte	-32
 7178 123f E0       		.byte	-32
 7179 1240 E0       		.byte	-32
 7180 1241 E0       		.byte	-32
 7181 1242 E0       		.byte	-32
 7182 1243 E0       		.byte	-32
 7183 1244 E0       		.byte	-32
 7184 1245 E0       		.byte	-32
 7185 1246 1C       		.byte	28
 7186 1247 1C       		.byte	28
 7187 1248 1C       		.byte	28
 7188 1249 F8       		.byte	-8
 7189 124a F8       		.byte	-8
 7190 124b F8       		.byte	-8
 7191 124c 00       		.byte	0
 7192 124d 00       		.byte	0
 7193 124e 00       		.byte	0
 7194 124f 00       		.byte	0
 7195 1250 00       		.byte	0
 7196 1251 00       		.byte	0
 7197 1252 00       		.byte	0
 7198 1253 00       		.byte	0
 7199 1254 00       		.byte	0
 7200 1255 FF       		.byte	-1
 7201 1256 FF       		.byte	-1
 7202 1257 FF       		.byte	-1
 7203 1258 0E       		.byte	14
 7204 1259 0E       		.byte	14
 7205 125a 0E       		.byte	14
 7206 125b 0E       		.byte	14
 7207 125c 0E       		.byte	14
 7208 125d 0E       		.byte	14
 7209 125e F0       		.byte	-16
 7210 125f F0       		.byte	-16
 7211 1260 F0       		.byte	-16
 7212 1261 FF       		.byte	-1
 7213 1262 FF       		.byte	-1
 7214 1263 FF       		.byte	-1
 7215 1264 00       		.byte	0
 7216 1265 00       		.byte	0
 7217 1266 00       		.byte	0
 7218 1267 00       		.byte	0
 7219 1268 00       		.byte	0
 7220 1269 00       		.byte	0
 7221 126a FF       		.byte	-1
 7222 126b FF       		.byte	-1
 7223 126c FF       		.byte	-1
 7224 126d 00       		.byte	0
 7225 126e 00       		.byte	0
 7226 126f 00       		.byte	0
 7227 1270 00       		.byte	0
 7228 1271 00       		.byte	0
 7229 1272 00       		.byte	0
 7230 1273 00       		.byte	0
 7231 1274 00       		.byte	0
 7232 1275 00       		.byte	0
 7233 1276 00       		.byte	0
 7234 1277 00       		.byte	0
 7235 1278 00       		.byte	0
 7236 1279 38       		.byte	56
 7237 127a 38       		.byte	56
 7238 127b 38       		.byte	56
 7239 127c FE       		.byte	-2
 7240 127d FE       		.byte	-2
 7241 127e FE       		.byte	-2
 7242 127f FF       		.byte	-1
 7243 1280 FF       		.byte	-1
 7244 1281 FF       		.byte	-1
 7245 1282 00       		.byte	0
 7246 1283 00       		.byte	0
 7247 1284 00       		.byte	0
 7248 1285 00       		.byte	0
 7249 1286 00       		.byte	0
 7250 1287 00       		.byte	0
 7251 1288 38       		.byte	56
 7252 1289 38       		.byte	56
 7253 128a 38       		.byte	56
 7254 128b 00       		.byte	0
 7255 128c 00       		.byte	0
 7256 128d 00       		.byte	0
 7257 128e FE       		.byte	-2
 7258 128f FE       		.byte	-2
 7259 1290 FE       		.byte	-2
 7260 1291 00       		.byte	0
 7261 1292 00       		.byte	0
 7262 1293 00       		.byte	0
 7263 1294 FF       		.byte	-1
 7264 1295 FF       		.byte	-1
 7265 1296 FF       		.byte	-1
 7266 1297 E0       		.byte	-32
 7267 1298 E0       		.byte	-32
 7268 1299 E0       		.byte	-32
 7269 129a 1C       		.byte	28
 7270 129b 1C       		.byte	28
 7271 129c 1C       		.byte	28
 7272 129d F8       		.byte	-8
 7273 129e F8       		.byte	-8
 7274 129f F8       		.byte	-8
 7275 12a0 00       		.byte	0
 7276 12a1 00       		.byte	0
 7277 12a2 00       		.byte	0
 7278 12a3 00       		.byte	0
 7279 12a4 00       		.byte	0
 7280 12a5 00       		.byte	0
 7281 12a6 FF       		.byte	-1
 7282 12a7 FF       		.byte	-1
 7283 12a8 FF       		.byte	-1
 7284 12a9 80       		.byte	-128
 7285 12aa 80       		.byte	-128
 7286 12ab 80       		.byte	-128
 7287 12ac 7E       		.byte	126
 7288 12ad 7E       		.byte	126
 7289 12ae 7E       		.byte	126
 7290 12af FF       		.byte	-1
 7291 12b0 FF       		.byte	-1
 7292 12b1 FF       		.byte	-1
 7293 12b2 03       		.byte	3
 7294 12b3 03       		.byte	3
 7295 12b4 03       		.byte	3
 7296 12b5 FC       		.byte	-4
 7297 12b6 FC       		.byte	-4
 7298 12b7 FC       		.byte	-4
 7299 12b8 00       		.byte	0
 7300 12b9 00       		.byte	0
 7301 12ba 00       		.byte	0
 7302 12bb 00       		.byte	0
 7303 12bc 00       		.byte	0
 7304 12bd 00       		.byte	0
 7305 12be 00       		.byte	0
 7306 12bf 00       		.byte	0
 7307 12c0 00       		.byte	0
 7308 12c1 F8       		.byte	-8
 7309 12c2 F8       		.byte	-8
 7310 12c3 F8       		.byte	-8
 7311 12c4 FF       		.byte	-1
 7312 12c5 FF       		.byte	-1
 7313 12c6 FF       		.byte	-1
 7314 12c7 FF       		.byte	-1
 7315 12c8 FF       		.byte	-1
 7316 12c9 FF       		.byte	-1
 7317 12ca 00       		.byte	0
 7318 12cb 00       		.byte	0
 7319 12cc 00       		.byte	0
 7320 12cd 00       		.byte	0
 7321 12ce 00       		.byte	0
 7322 12cf 00       		.byte	0
 7323 12d0 00       		.byte	0
 7324 12d1 00       		.byte	0
 7325 12d2 00       		.byte	0
 7326 12d3 00       		.byte	0
 7327 12d4 00       		.byte	0
 7328 12d5 00       		.byte	0
 7329 12d6 00       		.byte	0
 7330 12d7 00       		.byte	0
 7331 12d8 00       		.byte	0
 7332 12d9 00       		.byte	0
 7333 12da 00       		.byte	0
 7334 12db 00       		.byte	0
 7335 12dc FE       		.byte	-2
 7336 12dd FE       		.byte	-2
 7337 12de FE       		.byte	-2
 7338 12df 0E       		.byte	14
 7339 12e0 0E       		.byte	14
 7340 12e1 0E       		.byte	14
 7341 12e2 FE       		.byte	-2
 7342 12e3 FE       		.byte	-2
 7343 12e4 FE       		.byte	-2
 7344 12e5 0E       		.byte	14
 7345 12e6 0E       		.byte	14
 7346 12e7 0E       		.byte	14
 7347 12e8 F0       		.byte	-16
 7348 12e9 F0       		.byte	-16
 7349 12ea F0       		.byte	-16
 7350 12eb FF       		.byte	-1
 7351 12ec FF       		.byte	-1
 7352 12ed FF       		.byte	-1
 7353 12ee 00       		.byte	0
 7354 12ef 00       		.byte	0
 7355 12f0 00       		.byte	0
 7356 12f1 FF       		.byte	-1
 7357 12f2 FF       		.byte	-1
 7358 12f3 FF       		.byte	-1
 7359 12f4 00       		.byte	0
 7360 12f5 00       		.byte	0
 7361 12f6 00       		.byte	0
 7362 12f7 FF       		.byte	-1
 7363 12f8 FF       		.byte	-1
 7364 12f9 FF       		.byte	-1
 7365 12fa 00       		.byte	0
 7366 12fb 00       		.byte	0
 7367 12fc 00       		.byte	0
 7368 12fd 00       		.byte	0
 7369 12fe 00       		.byte	0
 7370 12ff 00       		.byte	0
 7371 1300 00       		.byte	0
 7372 1301 00       		.byte	0
 7373 1302 00       		.byte	0
 7374 1303 00       		.byte	0
 7375 1304 00       		.byte	0
 7376 1305 00       		.byte	0
 7377 1306 00       		.byte	0
 7378 1307 00       		.byte	0
 7379 1308 00       		.byte	0
 7380 1309 00       		.byte	0
 7381 130a 00       		.byte	0
 7382 130b 00       		.byte	0
 7383 130c 00       		.byte	0
 7384 130d 00       		.byte	0
 7385 130e 00       		.byte	0
 7386 130f 00       		.byte	0
 7387 1310 00       		.byte	0
 7388 1311 00       		.byte	0
 7389 1312 00       		.byte	0
 7390 1313 00       		.byte	0
 7391 1314 00       		.byte	0
 7392 1315 FE       		.byte	-2
 7393 1316 FE       		.byte	-2
 7394 1317 FE       		.byte	-2
 7395 1318 0E       		.byte	14
 7396 1319 0E       		.byte	14
 7397 131a 0E       		.byte	14
 7398 131b 0E       		.byte	14
 7399 131c 0E       		.byte	14
 7400 131d 0E       		.byte	14
 7401 131e F0       		.byte	-16
 7402 131f F0       		.byte	-16
 7403 1320 F0       		.byte	-16
 7404 1321 FF       		.byte	-1
 7405 1322 FF       		.byte	-1
 7406 1323 FF       		.byte	-1
 7407 1324 00       		.byte	0
 7408 1325 00       		.byte	0
 7409 1326 00       		.byte	0
 7410 1327 00       		.byte	0
 7411 1328 00       		.byte	0
 7412 1329 00       		.byte	0
 7413 132a FF       		.byte	-1
 7414 132b FF       		.byte	-1
 7415 132c FF       		.byte	-1
 7416 132d 00       		.byte	0
 7417 132e 00       		.byte	0
 7418 132f 00       		.byte	0
 7419 1330 00       		.byte	0
 7420 1331 00       		.byte	0
 7421 1332 00       		.byte	0
 7422 1333 00       		.byte	0
 7423 1334 00       		.byte	0
 7424 1335 00       		.byte	0
 7425 1336 00       		.byte	0
 7426 1337 00       		.byte	0
 7427 1338 00       		.byte	0
 7428 1339 00       		.byte	0
 7429 133a 00       		.byte	0
 7430 133b 00       		.byte	0
 7431 133c 00       		.byte	0
 7432 133d 00       		.byte	0
 7433 133e 00       		.byte	0
 7434 133f 00       		.byte	0
 7435 1340 00       		.byte	0
 7436 1341 00       		.byte	0
 7437 1342 00       		.byte	0
 7438 1343 00       		.byte	0
 7439 1344 00       		.byte	0
 7440 1345 F0       		.byte	-16
 7441 1346 F0       		.byte	-16
 7442 1347 F0       		.byte	-16
 7443 1348 0E       		.byte	14
 7444 1349 0E       		.byte	14
 7445 134a 0E       		.byte	14
 7446 134b 0E       		.byte	14
 7447 134c 0E       		.byte	14
 7448 134d 0E       		.byte	14
 7449 134e F0       		.byte	-16
 7450 134f F0       		.byte	-16
 7451 1350 F0       		.byte	-16
 7452 1351 1F       		.byte	31
 7453 1352 1F       		.byte	31
 7454 1353 1F       		.byte	31
 7455 1354 E0       		.byte	-32
 7456 1355 E0       		.byte	-32
 7457 1356 E0       		.byte	-32
 7458 1357 E0       		.byte	-32
 7459 1358 E0       		.byte	-32
 7460 1359 E0       		.byte	-32
 7461 135a 1F       		.byte	31
 7462 135b 1F       		.byte	31
 7463 135c 1F       		.byte	31
 7464 135d 00       		.byte	0
 7465 135e 00       		.byte	0
 7466 135f 00       		.byte	0
 7467 1360 00       		.byte	0
 7468 1361 00       		.byte	0
 7469 1362 00       		.byte	0
 7470 1363 00       		.byte	0
 7471 1364 00       		.byte	0
 7472 1365 00       		.byte	0
 7473 1366 00       		.byte	0
 7474 1367 00       		.byte	0
 7475 1368 00       		.byte	0
 7476 1369 00       		.byte	0
 7477 136a 00       		.byte	0
 7478 136b 00       		.byte	0
 7479 136c 00       		.byte	0
 7480 136d 00       		.byte	0
 7481 136e 00       		.byte	0
 7482 136f 00       		.byte	0
 7483 1370 00       		.byte	0
 7484 1371 00       		.byte	0
 7485 1372 00       		.byte	0
 7486 1373 00       		.byte	0
 7487 1374 00       		.byte	0
 7488 1375 FE       		.byte	-2
 7489 1376 FE       		.byte	-2
 7490 1377 FE       		.byte	-2
 7491 1378 0E       		.byte	14
 7492 1379 0E       		.byte	14
 7493 137a 0E       		.byte	14
 7494 137b 0E       		.byte	14
 7495 137c 0E       		.byte	14
 7496 137d 0E       		.byte	14
 7497 137e F0       		.byte	-16
 7498 137f F0       		.byte	-16
 7499 1380 F0       		.byte	-16
 7500 1381 FF       		.byte	-1
 7501 1382 FF       		.byte	-1
 7502 1383 FF       		.byte	-1
 7503 1384 E0       		.byte	-32
 7504 1385 E0       		.byte	-32
 7505 1386 E0       		.byte	-32
 7506 1387 E0       		.byte	-32
 7507 1388 E0       		.byte	-32
 7508 1389 E0       		.byte	-32
 7509 138a 1F       		.byte	31
 7510 138b 1F       		.byte	31
 7511 138c 1F       		.byte	31
 7512 138d FC       		.byte	-4
 7513 138e FC       		.byte	-4
 7514 138f FC       		.byte	-4
 7515 1390 00       		.byte	0
 7516 1391 00       		.byte	0
 7517 1392 00       		.byte	0
 7518 1393 00       		.byte	0
 7519 1394 00       		.byte	0
 7520 1395 00       		.byte	0
 7521 1396 00       		.byte	0
 7522 1397 00       		.byte	0
 7523 1398 00       		.byte	0
 7524 1399 00       		.byte	0
 7525 139a 00       		.byte	0
 7526 139b 00       		.byte	0
 7527 139c 00       		.byte	0
 7528 139d 00       		.byte	0
 7529 139e 00       		.byte	0
 7530 139f 00       		.byte	0
 7531 13a0 00       		.byte	0
 7532 13a1 00       		.byte	0
 7533 13a2 00       		.byte	0
 7534 13a3 00       		.byte	0
 7535 13a4 00       		.byte	0
 7536 13a5 F0       		.byte	-16
 7537 13a6 F0       		.byte	-16
 7538 13a7 F0       		.byte	-16
 7539 13a8 0E       		.byte	14
 7540 13a9 0E       		.byte	14
 7541 13aa 0E       		.byte	14
 7542 13ab 0E       		.byte	14
 7543 13ac 0E       		.byte	14
 7544 13ad 0E       		.byte	14
 7545 13ae FE       		.byte	-2
 7546 13af FE       		.byte	-2
 7547 13b0 FE       		.byte	-2
 7548 13b1 1F       		.byte	31
 7549 13b2 1F       		.byte	31
 7550 13b3 1F       		.byte	31
 7551 13b4 E0       		.byte	-32
 7552 13b5 E0       		.byte	-32
 7553 13b6 E0       		.byte	-32
 7554 13b7 E0       		.byte	-32
 7555 13b8 E0       		.byte	-32
 7556 13b9 E0       		.byte	-32
 7557 13ba FF       		.byte	-1
 7558 13bb FF       		.byte	-1
 7559 13bc FF       		.byte	-1
 7560 13bd 00       		.byte	0
 7561 13be 00       		.byte	0
 7562 13bf 00       		.byte	0
 7563 13c0 00       		.byte	0
 7564 13c1 00       		.byte	0
 7565 13c2 00       		.byte	0
 7566 13c3 00       		.byte	0
 7567 13c4 00       		.byte	0
 7568 13c5 00       		.byte	0
 7569 13c6 FC       		.byte	-4
 7570 13c7 FC       		.byte	-4
 7571 13c8 FC       		.byte	-4
 7572 13c9 00       		.byte	0
 7573 13ca 00       		.byte	0
 7574 13cb 00       		.byte	0
 7575 13cc 00       		.byte	0
 7576 13cd 00       		.byte	0
 7577 13ce 00       		.byte	0
 7578 13cf 00       		.byte	0
 7579 13d0 00       		.byte	0
 7580 13d1 00       		.byte	0
 7581 13d2 F0       		.byte	-16
 7582 13d3 F0       		.byte	-16
 7583 13d4 F0       		.byte	-16
 7584 13d5 0E       		.byte	14
 7585 13d6 0E       		.byte	14
 7586 13d7 0E       		.byte	14
 7587 13d8 0E       		.byte	14
 7588 13d9 0E       		.byte	14
 7589 13da 0E       		.byte	14
 7590 13db FF       		.byte	-1
 7591 13dc FF       		.byte	-1
 7592 13dd FF       		.byte	-1
 7593 13de 00       		.byte	0
 7594 13df 00       		.byte	0
 7595 13e0 00       		.byte	0
 7596 13e1 00       		.byte	0
 7597 13e2 00       		.byte	0
 7598 13e3 00       		.byte	0
 7599 13e4 00       		.byte	0
 7600 13e5 00       		.byte	0
 7601 13e6 00       		.byte	0
 7602 13e7 00       		.byte	0
 7603 13e8 00       		.byte	0
 7604 13e9 00       		.byte	0
 7605 13ea 00       		.byte	0
 7606 13eb 00       		.byte	0
 7607 13ec 00       		.byte	0
 7608 13ed 00       		.byte	0
 7609 13ee 00       		.byte	0
 7610 13ef 00       		.byte	0
 7611 13f0 00       		.byte	0
 7612 13f1 00       		.byte	0
 7613 13f2 00       		.byte	0
 7614 13f3 00       		.byte	0
 7615 13f4 00       		.byte	0
 7616 13f5 00       		.byte	0
 7617 13f6 00       		.byte	0
 7618 13f7 00       		.byte	0
 7619 13f8 00       		.byte	0
 7620 13f9 70       		.byte	112
 7621 13fa 70       		.byte	112
 7622 13fb 70       		.byte	112
 7623 13fc 8E       		.byte	-114
 7624 13fd 8E       		.byte	-114
 7625 13fe 8E       		.byte	-114
 7626 13ff 8E       		.byte	-114
 7627 1400 8E       		.byte	-114
 7628 1401 8E       		.byte	-114
 7629 1402 0E       		.byte	14
 7630 1403 0E       		.byte	14
 7631 1404 0E       		.byte	14
 7632 1405 E0       		.byte	-32
 7633 1406 E0       		.byte	-32
 7634 1407 E0       		.byte	-32
 7635 1408 E3       		.byte	-29
 7636 1409 E3       		.byte	-29
 7637 140a E3       		.byte	-29
 7638 140b E3       		.byte	-29
 7639 140c E3       		.byte	-29
 7640 140d E3       		.byte	-29
 7641 140e 1C       		.byte	28
 7642 140f 1C       		.byte	28
 7643 1410 1C       		.byte	28
 7644 1411 00       		.byte	0
 7645 1412 00       		.byte	0
 7646 1413 00       		.byte	0
 7647 1414 00       		.byte	0
 7648 1415 00       		.byte	0
 7649 1416 00       		.byte	0
 7650 1417 00       		.byte	0
 7651 1418 00       		.byte	0
 7652 1419 00       		.byte	0
 7653 141a 00       		.byte	0
 7654 141b 00       		.byte	0
 7655 141c 00       		.byte	0
 7656 141d F8       		.byte	-8
 7657 141e F8       		.byte	-8
 7658 141f F8       		.byte	-8
 7659 1420 00       		.byte	0
 7660 1421 00       		.byte	0
 7661 1422 00       		.byte	0
 7662 1423 00       		.byte	0
 7663 1424 00       		.byte	0
 7664 1425 00       		.byte	0
 7665 1426 FF       		.byte	-1
 7666 1427 FF       		.byte	-1
 7667 1428 FF       		.byte	-1
 7668 1429 0E       		.byte	14
 7669 142a 0E       		.byte	14
 7670 142b 0E       		.byte	14
 7671 142c 00       		.byte	0
 7672 142d 00       		.byte	0
 7673 142e 00       		.byte	0
 7674 142f 1F       		.byte	31
 7675 1430 1F       		.byte	31
 7676 1431 1F       		.byte	31
 7677 1432 E0       		.byte	-32
 7678 1433 E0       		.byte	-32
 7679 1434 E0       		.byte	-32
 7680 1435 E0       		.byte	-32
 7681 1436 E0       		.byte	-32
 7682 1437 E0       		.byte	-32
 7683 1438 00       		.byte	0
 7684 1439 00       		.byte	0
 7685 143a 00       		.byte	0
 7686 143b 00       		.byte	0
 7687 143c 00       		.byte	0
 7688 143d 00       		.byte	0
 7689 143e 00       		.byte	0
 7690 143f 00       		.byte	0
 7691 1440 00       		.byte	0
 7692 1441 00       		.byte	0
 7693 1442 00       		.byte	0
 7694 1443 00       		.byte	0
 7695 1444 00       		.byte	0
 7696 1445 00       		.byte	0
 7697 1446 00       		.byte	0
 7698 1447 00       		.byte	0
 7699 1448 00       		.byte	0
 7700 1449 00       		.byte	0
 7701 144a 00       		.byte	0
 7702 144b 00       		.byte	0
 7703 144c 00       		.byte	0
 7704 144d FE       		.byte	-2
 7705 144e FE       		.byte	-2
 7706 144f FE       		.byte	-2
 7707 1450 00       		.byte	0
 7708 1451 00       		.byte	0
 7709 1452 00       		.byte	0
 7710 1453 00       		.byte	0
 7711 1454 00       		.byte	0
 7712 1455 00       		.byte	0
 7713 1456 FE       		.byte	-2
 7714 1457 FE       		.byte	-2
 7715 1458 FE       		.byte	-2
 7716 1459 1F       		.byte	31
 7717 145a 1F       		.byte	31
 7718 145b 1F       		.byte	31
 7719 145c E0       		.byte	-32
 7720 145d E0       		.byte	-32
 7721 145e E0       		.byte	-32
 7722 145f E0       		.byte	-32
 7723 1460 E0       		.byte	-32
 7724 1461 E0       		.byte	-32
 7725 1462 FF       		.byte	-1
 7726 1463 FF       		.byte	-1
 7727 1464 FF       		.byte	-1
 7728 1465 00       		.byte	0
 7729 1466 00       		.byte	0
 7730 1467 00       		.byte	0
 7731 1468 00       		.byte	0
 7732 1469 00       		.byte	0
 7733 146a 00       		.byte	0
 7734 146b 00       		.byte	0
 7735 146c 00       		.byte	0
 7736 146d 00       		.byte	0
 7737 146e 00       		.byte	0
 7738 146f 00       		.byte	0
 7739 1470 00       		.byte	0
 7740 1471 00       		.byte	0
 7741 1472 00       		.byte	0
 7742 1473 00       		.byte	0
 7743 1474 00       		.byte	0
 7744 1475 00       		.byte	0
 7745 1476 00       		.byte	0
 7746 1477 00       		.byte	0
 7747 1478 00       		.byte	0
 7748 1479 00       		.byte	0
 7749 147a 00       		.byte	0
 7750 147b 00       		.byte	0
 7751 147c 00       		.byte	0
 7752 147d FE       		.byte	-2
 7753 147e FE       		.byte	-2
 7754 147f FE       		.byte	-2
 7755 1480 00       		.byte	0
 7756 1481 00       		.byte	0
 7757 1482 00       		.byte	0
 7758 1483 00       		.byte	0
 7759 1484 00       		.byte	0
 7760 1485 00       		.byte	0
 7761 1486 FE       		.byte	-2
 7762 1487 FE       		.byte	-2
 7763 1488 FE       		.byte	-2
 7764 1489 03       		.byte	3
 7765 148a 03       		.byte	3
 7766 148b 03       		.byte	3
 7767 148c 1C       		.byte	28
 7768 148d 1C       		.byte	28
 7769 148e 1C       		.byte	28
 7770 148f E0       		.byte	-32
 7771 1490 E0       		.byte	-32
 7772 1491 E0       		.byte	-32
 7773 1492 FF       		.byte	-1
 7774 1493 FF       		.byte	-1
 7775 1494 FF       		.byte	-1
 7776 1495 00       		.byte	0
 7777 1496 00       		.byte	0
 7778 1497 00       		.byte	0
 7779 1498 00       		.byte	0
 7780 1499 00       		.byte	0
 7781 149a 00       		.byte	0
 7782 149b 00       		.byte	0
 7783 149c 00       		.byte	0
 7784 149d 00       		.byte	0
 7785 149e 00       		.byte	0
 7786 149f 00       		.byte	0
 7787 14a0 00       		.byte	0
 7788 14a1 00       		.byte	0
 7789 14a2 00       		.byte	0
 7790 14a3 00       		.byte	0
 7791 14a4 00       		.byte	0
 7792 14a5 00       		.byte	0
 7793 14a6 00       		.byte	0
 7794 14a7 00       		.byte	0
 7795 14a8 00       		.byte	0
 7796 14a9 00       		.byte	0
 7797 14aa 00       		.byte	0
 7798 14ab 00       		.byte	0
 7799 14ac 00       		.byte	0
 7800 14ad 00       		.byte	0
 7801 14ae 00       		.byte	0
 7802 14af 00       		.byte	0
 7803 14b0 FE       		.byte	-2
 7804 14b1 FE       		.byte	-2
 7805 14b2 FE       		.byte	-2
 7806 14b3 00       		.byte	0
 7807 14b4 00       		.byte	0
 7808 14b5 00       		.byte	0
 7809 14b6 00       		.byte	0
 7810 14b7 00       		.byte	0
 7811 14b8 00       		.byte	0
 7812 14b9 00       		.byte	0
 7813 14ba 00       		.byte	0
 7814 14bb 00       		.byte	0
 7815 14bc FE       		.byte	-2
 7816 14bd FE       		.byte	-2
 7817 14be FE       		.byte	-2
 7818 14bf 1F       		.byte	31
 7819 14c0 1F       		.byte	31
 7820 14c1 1F       		.byte	31
 7821 14c2 E0       		.byte	-32
 7822 14c3 E0       		.byte	-32
 7823 14c4 E0       		.byte	-32
 7824 14c5 1C       		.byte	28
 7825 14c6 1C       		.byte	28
 7826 14c7 1C       		.byte	28
 7827 14c8 E0       		.byte	-32
 7828 14c9 E0       		.byte	-32
 7829 14ca E0       		.byte	-32
 7830 14cb 1F       		.byte	31
 7831 14cc 1F       		.byte	31
 7832 14cd 1F       		.byte	31
 7833 14ce 00       		.byte	0
 7834 14cf 00       		.byte	0
 7835 14d0 00       		.byte	0
 7836 14d1 00       		.byte	0
 7837 14d2 00       		.byte	0
 7838 14d3 00       		.byte	0
 7839 14d4 00       		.byte	0
 7840 14d5 00       		.byte	0
 7841 14d6 00       		.byte	0
 7842 14d7 00       		.byte	0
 7843 14d8 00       		.byte	0
 7844 14d9 00       		.byte	0
 7845 14da 00       		.byte	0
 7846 14db 00       		.byte	0
 7847 14dc 00       		.byte	0
 7848 14dd 00       		.byte	0
 7849 14de 00       		.byte	0
 7850 14df 00       		.byte	0
 7851 14e0 00       		.byte	0
 7852 14e1 00       		.byte	0
 7853 14e2 00       		.byte	0
 7854 14e3 00       		.byte	0
 7855 14e4 00       		.byte	0
 7856 14e5 00       		.byte	0
 7857 14e6 00       		.byte	0
 7858 14e7 00       		.byte	0
 7859 14e8 00       		.byte	0
 7860 14e9 7E       		.byte	126
 7861 14ea 7E       		.byte	126
 7862 14eb 7E       		.byte	126
 7863 14ec 80       		.byte	-128
 7864 14ed 80       		.byte	-128
 7865 14ee 80       		.byte	-128
 7866 14ef 80       		.byte	-128
 7867 14f0 80       		.byte	-128
 7868 14f1 80       		.byte	-128
 7869 14f2 7E       		.byte	126
 7870 14f3 7E       		.byte	126
 7871 14f4 7E       		.byte	126
 7872 14f5 FC       		.byte	-4
 7873 14f6 FC       		.byte	-4
 7874 14f7 FC       		.byte	-4
 7875 14f8 03       		.byte	3
 7876 14f9 03       		.byte	3
 7877 14fa 03       		.byte	3
 7878 14fb 03       		.byte	3
 7879 14fc 03       		.byte	3
 7880 14fd 03       		.byte	3
 7881 14fe FC       		.byte	-4
 7882 14ff FC       		.byte	-4
 7883 1500 FC       		.byte	-4
 7884 1501 00       		.byte	0
 7885 1502 00       		.byte	0
 7886 1503 00       		.byte	0
 7887 1504 00       		.byte	0
 7888 1505 00       		.byte	0
 7889 1506 00       		.byte	0
 7890 1507 00       		.byte	0
 7891 1508 00       		.byte	0
 7892 1509 00       		.byte	0
 7893 150a 00       		.byte	0
 7894 150b 00       		.byte	0
 7895 150c 00       		.byte	0
 7896 150d 00       		.byte	0
 7897 150e 00       		.byte	0
 7898 150f 00       		.byte	0
 7899 1510 00       		.byte	0
 7900 1511 00       		.byte	0
 7901 1512 00       		.byte	0
 7902 1513 00       		.byte	0
 7903 1514 00       		.byte	0
 7904 1515 00       		.byte	0
 7905 1516 00       		.byte	0
 7906 1517 00       		.byte	0
 7907 1518 00       		.byte	0
 7908 1519 FE       		.byte	-2
 7909 151a FE       		.byte	-2
 7910 151b FE       		.byte	-2
 7911 151c 00       		.byte	0
 7912 151d 00       		.byte	0
 7913 151e 00       		.byte	0
 7914 151f 00       		.byte	0
 7915 1520 00       		.byte	0
 7916 1521 00       		.byte	0
 7917 1522 FE       		.byte	-2
 7918 1523 FE       		.byte	-2
 7919 1524 FE       		.byte	-2
 7920 1525 1F       		.byte	31
 7921 1526 1F       		.byte	31
 7922 1527 1F       		.byte	31
 7923 1528 E0       		.byte	-32
 7924 1529 E0       		.byte	-32
 7925 152a E0       		.byte	-32
 7926 152b E0       		.byte	-32
 7927 152c E0       		.byte	-32
 7928 152d E0       		.byte	-32
 7929 152e FF       		.byte	-1
 7930 152f FF       		.byte	-1
 7931 1530 FF       		.byte	-1
 7932 1531 E0       		.byte	-32
 7933 1532 E0       		.byte	-32
 7934 1533 E0       		.byte	-32
 7935 1534 E0       		.byte	-32
 7936 1535 E0       		.byte	-32
 7937 1536 E0       		.byte	-32
 7938 1537 E0       		.byte	-32
 7939 1538 E0       		.byte	-32
 7940 1539 E0       		.byte	-32
 7941 153a 1C       		.byte	28
 7942 153b 1C       		.byte	28
 7943 153c 1C       		.byte	28
 7944 153d 00       		.byte	0
 7945 153e 00       		.byte	0
 7946 153f 00       		.byte	0
 7947 1540 00       		.byte	0
 7948 1541 00       		.byte	0
 7949 1542 00       		.byte	0
 7950 1543 00       		.byte	0
 7951 1544 00       		.byte	0
 7952 1545 00       		.byte	0
 7953 1546 00       		.byte	0
 7954 1547 00       		.byte	0
 7955 1548 00       		.byte	0
 7956 1549 0E       		.byte	14
 7957 154a 0E       		.byte	14
 7958 154b 0E       		.byte	14
 7959 154c 8E       		.byte	-114
 7960 154d 8E       		.byte	-114
 7961 154e 8E       		.byte	-114
 7962 154f 8E       		.byte	-114
 7963 1550 8E       		.byte	-114
 7964 1551 8E       		.byte	-114
 7965 1552 7E       		.byte	126
 7966 1553 7E       		.byte	126
 7967 1554 7E       		.byte	126
 7968 1555 FC       		.byte	-4
 7969 1556 FC       		.byte	-4
 7970 1557 FC       		.byte	-4
 7971 1558 E3       		.byte	-29
 7972 1559 E3       		.byte	-29
 7973 155a E3       		.byte	-29
 7974 155b E3       		.byte	-29
 7975 155c E3       		.byte	-29
 7976 155d E3       		.byte	-29
 7977 155e E0       		.byte	-32
 7978 155f E0       		.byte	-32
 7979 1560 E0       		.byte	-32
 7980 1561 00       		.byte	0
 7981 1562 00       		.byte	0
 7982 1563 00       		.byte	0
 7983 1564 00       		.byte	0
 7984 1565 00       		.byte	0
 7985 1566 00       		.byte	0
 7986 1567 00       		.byte	0
 7987 1568 00       		.byte	0
 7988 1569 00       		.byte	0
 7989 156a 00       		.byte	0
 7990 156b 00       		.byte	0
 7991 156c 00       		.byte	0
 7992 156d 00       		.byte	0
 7993 156e 00       		.byte	0
 7994 156f 00       		.byte	0
 7995 1570 F8       		.byte	-8
 7996 1571 F8       		.byte	-8
 7997 1572 F8       		.byte	-8
 7998 1573 07       		.byte	7
 7999 1574 07       		.byte	7
 8000 1575 07       		.byte	7
 8001 1576 70       		.byte	112
 8002 1577 70       		.byte	112
 8003 1578 70       		.byte	112
 8004 1579 8F       		.byte	-113
 8005 157a 8F       		.byte	-113
 8006 157b 8F       		.byte	-113
 8007 157c 00       		.byte	0
 8008 157d 00       		.byte	0
 8009 157e 00       		.byte	0
 8010 157f 00       		.byte	0
 8011 1580 00       		.byte	0
 8012 1581 00       		.byte	0
 8013 1582 FF       		.byte	-1
 8014 1583 FF       		.byte	-1
 8015 1584 FF       		.byte	-1
 8016 1585 00       		.byte	0
 8017 1586 00       		.byte	0
 8018 1587 00       		.byte	0
 8019 1588 00       		.byte	0
 8020 1589 00       		.byte	0
 8021 158a 00       		.byte	0
 8022 158b 00       		.byte	0
 8023 158c 00       		.byte	0
 8024 158d 00       		.byte	0
 8025 158e 1C       		.byte	28
 8026 158f 1C       		.byte	28
 8027 1590 1C       		.byte	28
 8028 1591 F8       		.byte	-8
 8029 1592 F8       		.byte	-8
 8030 1593 F8       		.byte	-8
 8031 1594 FF       		.byte	-1
 8032 1595 FF       		.byte	-1
 8033 1596 FF       		.byte	-1
 8034 1597 FF       		.byte	-1
 8035 1598 FF       		.byte	-1
 8036 1599 FF       		.byte	-1
 8037 159a 00       		.byte	0
 8038 159b 00       		.byte	0
 8039 159c 00       		.byte	0
 8040 159d 07       		.byte	7
 8041 159e 07       		.byte	7
 8042 159f 07       		.byte	7
 8043 15a0 F8       		.byte	-8
 8044 15a1 F8       		.byte	-8
 8045 15a2 F8       		.byte	-8
 8046 15a3 00       		.byte	0
 8047 15a4 00       		.byte	0
 8048 15a5 00       		.byte	0
 8049 15a6 00       		.byte	0
 8050 15a7 00       		.byte	0
 8051 15a8 00       		.byte	0
 8052 15a9 8F       		.byte	-113
 8053 15aa 8F       		.byte	-113
 8054 15ab 8F       		.byte	-113
 8055 15ac 70       		.byte	112
 8056 15ad 70       		.byte	112
 8057 15ae 70       		.byte	112
 8058 15af 00       		.byte	0
 8059 15b0 00       		.byte	0
 8060 15b1 00       		.byte	0
 8061 15b2 FF       		.byte	-1
 8062 15b3 FF       		.byte	-1
 8063 15b4 FF       		.byte	-1
 8064 15b5 00       		.byte	0
 8065 15b6 00       		.byte	0
 8066 15b7 00       		.byte	0
 8067 15b8 1C       		.byte	28
 8068 15b9 1C       		.byte	28
 8069 15ba 1C       		.byte	28
 8070 15bb 00       		.byte	0
 8071 15bc 00       		.byte	0
 8072 15bd 00       		.byte	0
 8073 15be 00       		.byte	0
 8074 15bf 00       		.byte	0
 8075 15c0 00       		.byte	0
 8076 15c1 38       		.byte	56
 8077 15c2 38       		.byte	56
 8078 15c3 38       		.byte	56
 8079 15c4 38       		.byte	56
 8080 15c5 38       		.byte	56
 8081 15c6 38       		.byte	56
 8082 15c7 00       		.byte	0
 8083 15c8 00       		.byte	0
 8084 15c9 00       		.byte	0
 8085 15ca 00       		.byte	0
 8086 15cb 00       		.byte	0
 8087 15cc 00       		.byte	0
 8088 15cd 00       		.byte	0
 8089 15ce 00       		.byte	0
 8090 15cf 00       		.byte	0
 8091 15d0 00       		.byte	0
 8092 15d1 00       		.byte	0
 8093 15d2 00       		.byte	0
 8094 15d3 00       		.byte	0
 8095 15d4 00       		.byte	0
 8096 15d5 00       		.byte	0
 8097 15d6 00       		.byte	0
 8098 15d7 00       		.byte	0
 8099 15d8 00       		.byte	0
 8100              		.section	.rodata.str1.4,"aMS",%progbits,1
 8101              		.align	2
 8102              	.LC1:
 8103 0000 54554E45 		.ascii	"TUNER\000"
 8103      5200
 8104 0006 0000     		.space	2
 8105              	.LC2:
 8106 0008 4F4B00   		.ascii	"OK\000"
 8107 000b 00       		.space	1
 8108              	.LC3:
 8109 000c 43414E43 		.ascii	"CANCEL\000"
 8109      454C00
 8110 0013 00       		.space	1
 8111              	.LC4:
 8112 0014 59455300 		.ascii	"YES\000"
 8113              	.LC5:
 8114 0018 4E4F00   		.ascii	"NO\000"
 8115              		.ident	"GCC: (GNU Tools for Arm Embedded Processors 7-2018-q3-update) 7.3.1 20180622 (release) [AR
DEFINED SYMBOLS
                            *ABS*:0000000000000000 glcd_widget.c
     /tmp/ccORJZhi.s:13     .text:0000000000000000 $t
     /tmp/ccORJZhi.s:19     .text:0000000000000000 get_text_width
     /tmp/ccORJZhi.s:79     .text:0000000000000056 widget_textbox
     /tmp/ccORJZhi.s:107    .text:0000000000000086 $d
     /tmp/ccORJZhi.s:365    .text:000000000000026c widget_listbox
     /tmp/ccORJZhi.s:520    .text:00000000000003ba widget_listbox3
     /tmp/ccORJZhi.s:818    .text:0000000000000644 $d
     /tmp/ccORJZhi.s:820    .text:0000000000000648 $t
     /tmp/ccORJZhi.s:984    .text:00000000000007b4 $d
     /tmp/ccORJZhi.s:995    .text:00000000000007b8 $t
     /tmp/ccORJZhi.s:1002   .text:00000000000007b8 widget_bar_indicator
     /tmp/ccORJZhi.s:1078   .text:0000000000000870 $d
     /tmp/ccORJZhi.s:1082   .text:0000000000000874 $t
     /tmp/ccORJZhi.s:1089   .text:0000000000000874 widget_knob
     /tmp/ccORJZhi.s:1276   .text:0000000000000a1a $d
     /tmp/ccORJZhi.s:1292   .text:0000000000000a3a $t
     /tmp/ccORJZhi.s:1406   .text:0000000000000b20 $d
     /tmp/ccORJZhi.s:1409   .text:0000000000000b28 $t
     /tmp/ccORJZhi.s:1651   .text:0000000000000d06 widget_peakmeter
     /tmp/ccORJZhi.s:1929   .text:0000000000000f88 $d
     /tmp/ccORJZhi.s:1935   .text:0000000000000f9c $t
     /tmp/ccORJZhi.s:1942   .text:0000000000000f9c widget_tuner
     /tmp/ccORJZhi.s:2220   .text:0000000000001268 $d
     /tmp/ccORJZhi.s:2225   .text:0000000000001278 $t
     /tmp/ccORJZhi.s:2232   .text:0000000000001278 widget_popup
     /tmp/ccORJZhi.s:2322   .text:000000000000135c $d
     /tmp/ccORJZhi.s:2326   .text:0000000000001360 $t
     /tmp/ccORJZhi.s:2491   .text:00000000000014fc $d
     /tmp/ccORJZhi.s:2497   .rodata:0000000000000000 $d
     /tmp/ccORJZhi.s:2501   .rodata:0000000000000000 SMfont
     /tmp/ccORJZhi.s:2891   .rodata:0000000000000184 alterebro24
     /tmp/ccORJZhi.s:4030   .rodata:00000000000005f4 alterebro49
     /tmp/ccORJZhi.s:8101   .rodata.str1.4:0000000000000000 $d
     /tmp/ccORJZhi.s:124    .text:0000000000000097 $d
     /tmp/ccORJZhi.s:124    .text:0000000000000098 $t

UNDEFINED SYMBOLS
uc1701_text
uc1701_rect_fill
uc1701_rect_invert
strlen
__aeabi_i2f
__aeabi_fmul
__aeabi_fdiv
__aeabi_fadd
__aeabi_fcmplt
__aeabi_f2d
__aeabi_dsub
__aeabi_d2iz
__aeabi_dadd
floor
uc1701_rect
ceil
__aeabi_fsub
__aeabi_d2uiz
__aeabi_fcmpgt
__aeabi_dcmpgt
uc1701_hline
float_to_str
