   1              		.cpu cortex-m3
   2              		.eabi_attribute 20, 1
   3              		.eabi_attribute 21, 1
   4              		.eabi_attribute 23, 3
   5              		.eabi_attribute 24, 1
   6              		.eabi_attribute 25, 1
   7              		.eabi_attribute 26, 1
   8              		.eabi_attribute 30, 2
   9              		.eabi_attribute 34, 1
  10              		.eabi_attribute 18, 4
  11              		.file	"glcd_widget.c"
  12              		.text
  13              		.align	1
  14              		.p2align 2,,3
  15              		.syntax unified
  16              		.thumb
  17              		.thumb_func
  18              		.fpu softvfp
  20              	get_text_width:
  21              		@ args = 0, pretend = 0, frame = 0
  22              		@ frame_needed = 0, uses_anonymous_args = 0
  23              		@ link register save eliminated.
  24 0000 0A78     		ldrb	r2, [r1]	@ zero_extendqisi2
  25 0002 0378     		ldrb	r3, [r0]	@ zero_extendqisi2
  26 0004 7AB9     		cbnz	r2, .L5
  27 0006 4A78     		ldrb	r2, [r1, #1]	@ zero_extendqisi2
  28 0008 6AB9     		cbnz	r2, .L5
  29 000a F3B1     		cbz	r3, .L8
  30 000c 1346     		mov	r3, r2
  31 000e 8978     		ldrb	r1, [r1, #2]	@ zero_extendqisi2
  32 0010 0131     		adds	r1, r1, #1
  33 0012 C9B2     		uxtb	r1, r1
  34              	.L6:
  35 0014 10F8012F 		ldrb	r2, [r0, #1]!	@ zero_extendqisi2
  36 0018 0B44     		add	r3, r3, r1
  37 001a DBB2     		uxtb	r3, r3
  38 001c 002A     		cmp	r2, #0
  39 001e F9D1     		bne	.L6
  40 0020 013B     		subs	r3, r3, #1
  41 0022 D8B2     		uxtb	r0, r3
  42 0024 7047     		bx	lr
  43              	.L5:
  44 0026 83B1     		cbz	r3, .L8
  45 0028 0022     		movs	r2, #0
  46 002a 30B4     		push	{r4, r5}
  47 002c 0D79     		ldrb	r5, [r1, #4]	@ zero_extendqisi2
  48              	.L7:
  49 002e 5B1B     		subs	r3, r3, r5
  50 0030 0B44     		add	r3, r3, r1
  51 0032 9C79     		ldrb	r4, [r3, #6]	@ zero_extendqisi2
  52 0034 10F8013F 		ldrb	r3, [r0, #1]!	@ zero_extendqisi2
  53 0038 0134     		adds	r4, r4, #1
  54 003a 2244     		add	r2, r2, r4
  55 003c D2B2     		uxtb	r2, r2
  56 003e 002B     		cmp	r3, #0
  57 0040 F5D1     		bne	.L7
  58 0042 30BC     		pop	{r4, r5}
  59 0044 501E     		subs	r0, r2, #1
  60 0046 C0B2     		uxtb	r0, r0
  61 0048 7047     		bx	lr
  62              	.L8:
  63 004a FF20     		movs	r0, #255
  64 004c 7047     		bx	lr
  66              		.align	1
  67 004e 00BF     		.p2align 2,,3
  68              		.global	widget_textbox
  69              		.syntax unified
  70              		.thumb
  71              		.thumb_func
  72              		.fpu softvfp
  74              	widget_textbox:
  75              		@ args = 0, pretend = 0, frame = 64
  76              		@ frame_needed = 0, uses_anonymous_args = 0
  77 0050 2DE9F047 		push	{r4, r5, r6, r7, r8, r9, r10, lr}
  78 0054 8D68     		ldr	r5, [r1, #8]
  79 0056 92B0     		sub	sp, sp, #72
  80 0058 002D     		cmp	r5, #0
  81 005a 45D0     		beq	.L15
  82 005c 0B7D     		ldrb	r3, [r1, #20]	@ zero_extendqisi2
  83 005e 0746     		mov	r7, r0
  84 0060 0C46     		mov	r4, r1
  85 0062 8E78     		ldrb	r6, [r1, #2]	@ zero_extendqisi2
  86 0064 91F80380 		ldrb	r8, [r1, #3]	@ zero_extendqisi2
  87 0068 002B     		cmp	r3, #0
  88 006a 40D0     		beq	.L64
  89 006c 4246     		mov	r2, r8
  90 006e 3046     		mov	r0, r6
  91 0070 002E     		cmp	r6, #0
  92 0072 46D1     		bne	.L18
  93              	.L65:
  94 0074 A070     		strb	r0, [r4, #2]
  95              	.L19:
  96 0076 B8F1000F 		cmp	r8, #0
  97 007a 00D1     		bne	.L20
  98 007c E270     		strb	r2, [r4, #3]
  99              	.L20:
 100 007e 6379     		ldrb	r3, [r4, #5]	@ zero_extendqisi2
 101 0080 102B     		cmp	r3, #16
 102 0082 4DD8     		bhi	.L21
 103 0084 DFE813F0 		tbh	[pc, r3, lsl #1]
 104              	.L23:
 105 0088 FF00     		.2byte	(.L22-.L23)/2
 106 008a 4C00     		.2byte	(.L21-.L23)/2
 107 008c F700     		.2byte	(.L24-.L23)/2
 108 008e F000     		.2byte	(.L25-.L23)/2
 109 0090 4C00     		.2byte	(.L21-.L23)/2
 110 0092 E600     		.2byte	(.L26-.L23)/2
 111 0094 DE00     		.2byte	(.L27-.L23)/2
 112 0096 4C00     		.2byte	(.L21-.L23)/2
 113 0098 D900     		.2byte	(.L28-.L23)/2
 114 009a 4C00     		.2byte	(.L21-.L23)/2
 115 009c D200     		.2byte	(.L29-.L23)/2
 116 009e C800     		.2byte	(.L30-.L23)/2
 117 00a0 BF00     		.2byte	(.L31-.L23)/2
 118 00a2 B500     		.2byte	(.L32-.L23)/2
 119 00a4 AB00     		.2byte	(.L33-.L23)/2
 120 00a6 4200     		.2byte	(.L34-.L23)/2
 121 00a8 A100     		.2byte	(.L35-.L23)/2
 122              		.p2align 1
 123              	.L48:
 124 00aa 5146     		mov	r1, r10
 125              	.L42:
 126 00ac E3B1     		cbz	r3, .L15
 127 00ae 4FF00009 		mov	r9, #0
 128 00b2 D4F80C80 		ldr	r8, [r4, #12]
 129 00b6 12AB     		add	r3, sp, #72
 130 00b8 5D18     		adds	r5, r3, r1
 131 00ba 02A8     		add	r0, sp, #8
 132 00bc 4146     		mov	r1, r8
 133 00be 05F8409C 		strb	r9, [r5, #-64]
 134 00c2 FFF79DFF 		bl	get_text_width
 135 00c6 A378     		ldrb	r3, [r4, #2]	@ zero_extendqisi2
 136 00c8 6278     		ldrb	r2, [r4, #1]	@ zero_extendqisi2
 137 00ca 8342     		cmp	r3, r0
 138 00cc 38BF     		it	cc
 139 00ce 05F8419C 		strbcc	r9, [r5, #-65]
 140 00d2 CDF80080 		str	r8, [sp]
 141 00d6 2178     		ldrb	r1, [r4]	@ zero_extendqisi2
 142 00d8 2479     		ldrb	r4, [r4, #4]	@ zero_extendqisi2
 143 00da 3244     		add	r2, r2, r6
 144 00dc 02AB     		add	r3, sp, #8
 145 00de 3846     		mov	r0, r7
 146 00e0 D2B2     		uxtb	r2, r2
 147 00e2 0194     		str	r4, [sp, #4]
 148 00e4 FFF7FEFF 		bl	uc1701_text
 149              	.L15:
 150 00e8 12B0     		add	sp, sp, #72
 151              		@ sp needed
 152 00ea BDE8F087 		pop	{r4, r5, r6, r7, r8, r9, r10, pc}
 153              	.L64:
 154 00ee D1F80C90 		ldr	r9, [r1, #12]
 155 00f2 2846     		mov	r0, r5
 156 00f4 4946     		mov	r1, r9
 157 00f6 FFF783FF 		bl	get_text_width
 158 00fa 99F80320 		ldrb	r2, [r9, #3]	@ zero_extendqisi2
 159 00fe 002E     		cmp	r6, #0
 160 0100 B8D0     		beq	.L65
 161              	.L18:
 162 0102 B042     		cmp	r0, r6
 163 0104 28BF     		it	cs
 164 0106 3046     		movcs	r0, r6
 165 0108 C0B2     		uxtb	r0, r0
 166 010a B4E7     		b	.L19
 167              	.L34:
 168 010c A17C     		ldrb	r1, [r4, #18]	@ zero_extendqisi2
 169 010e 637C     		ldrb	r3, [r4, #17]	@ zero_extendqisi2
 170 0110 C1F13E01 		rsb	r1, r1, #62
 171              	.L63:
 172 0114 C3F14003 		rsb	r3, r3, #64
 173 0118 081A     		subs	r0, r1, r0
 174 011a 9A1A     		subs	r2, r3, r2
 175 011c 2070     		strb	r0, [r4]
 176 011e 6270     		strb	r2, [r4, #1]
 177              	.L21:
 178 0120 0021     		movs	r1, #0
 179 0122 4FF00209 		mov	r9, #2
 180 0126 0E46     		mov	r6, r1
 181 0128 0B46     		mov	r3, r1
 182 012a 8846     		mov	r8, r1
 183              	.L43:
 184 012c 95F800C0 		ldrb	ip, [r5]	@ zero_extendqisi2
 185 0130 BCF1000F 		cmp	ip, #0
 186 0134 BAD0     		beq	.L42
 187              	.L44:
 188 0136 E068     		ldr	r0, [r4, #12]
 189 0138 0278     		ldrb	r2, [r0]	@ zero_extendqisi2
 190 013a 0AB9     		cbnz	r2, .L36
 191 013c 4278     		ldrb	r2, [r0, #1]	@ zero_extendqisi2
 192 013e 2AB1     		cbz	r2, .L37
 193              	.L36:
 194 0140 0279     		ldrb	r2, [r0, #4]	@ zero_extendqisi2
 195 0142 C2F10602 		rsb	r2, r2, #6
 196 0146 6244     		add	r2, r2, ip
 197 0148 5FFA82F9 		uxtb	r9, r2
 198              	.L37:
 199 014c 10F80920 		ldrb	r2, [r0, r9]	@ zero_extendqisi2
 200 0150 0133     		adds	r3, r3, #1
 201 0152 1344     		add	r3, r3, r2
 202 0154 94F802E0 		ldrb	lr, [r4, #2]	@ zero_extendqisi2
 203 0158 0DF1480A 		add	r10, sp, #72
 204 015c 03F0FF03 		and	r3, r3, #255
 205 0160 4A1C     		adds	r2, r1, #1
 206 0162 9E45     		cmp	lr, r3
 207 0164 5144     		add	r1, r1, r10
 208 0166 01F840CC 		strb	ip, [r1, #-64]
 209 016a 5FFA82FA 		uxtb	r10, r2
 210 016e 0AD9     		bls	.L38
 211 0170 15F8012B 		ldrb	r2, [r5], #1	@ zero_extendqisi2
 212 0174 0A2A     		cmp	r2, #10
 213 0176 0AD0     		beq	.L41
 214 0178 95F800C0 		ldrb	ip, [r5]	@ zero_extendqisi2
 215 017c 5146     		mov	r1, r10
 216 017e BCF1000F 		cmp	ip, #0
 217 0182 D8D1     		bne	.L44
 218 0184 92E7     		b	.L42
 219              	.L38:
 220 0186 2A78     		ldrb	r2, [r5]	@ zero_extendqisi2
 221 0188 0A2A     		cmp	r2, #10
 222 018a 08BF     		it	eq
 223 018c 0135     		addeq	r5, r5, #1
 224              	.L41:
 225 018e 227D     		ldrb	r2, [r4, #20]	@ zero_extendqisi2
 226 0190 002A     		cmp	r2, #0
 227 0192 8AD0     		beq	.L48
 228 0194 6278     		ldrb	r2, [r4, #1]	@ zero_extendqisi2
 229 0196 2379     		ldrb	r3, [r4, #4]	@ zero_extendqisi2
 230 0198 0DF1480C 		add	ip, sp, #72
 231 019c 3244     		add	r2, r2, r6
 232 019e E244     		add	r10, r10, ip
 233 01a0 2178     		ldrb	r1, [r4]	@ zero_extendqisi2
 234 01a2 D2B2     		uxtb	r2, r2
 235 01a4 0090     		str	r0, [sp]
 236 01a6 0193     		str	r3, [sp, #4]
 237 01a8 3846     		mov	r0, r7
 238 01aa 02AB     		add	r3, sp, #8
 239 01ac 0AF8418C 		strb	r8, [r10, #-65]
 240 01b0 FFF7FEFF 		bl	uc1701_text
 241 01b4 E268     		ldr	r2, [r4, #12]
 242 01b6 E378     		ldrb	r3, [r4, #3]	@ zero_extendqisi2
 243 01b8 D278     		ldrb	r2, [r2, #3]	@ zero_extendqisi2
 244 01ba 0132     		adds	r2, r2, #1
 245 01bc 1644     		add	r6, r6, r2
 246 01be F6B2     		uxtb	r6, r6
 247 01c0 B342     		cmp	r3, r6
 248 01c2 91D3     		bcc	.L15
 249 01c4 0023     		movs	r3, #0
 250 01c6 1946     		mov	r1, r3
 251 01c8 B0E7     		b	.L43
 252              	.L35:
 253 01ca 637C     		ldrb	r3, [r4, #17]	@ zero_extendqisi2
 254 01cc E17C     		ldrb	r1, [r4, #19]	@ zero_extendqisi2
 255 01ce C3F14003 		rsb	r3, r3, #64
 256 01d2 9A1A     		subs	r2, r3, r2
 257 01d4 01F14003 		add	r3, r1, #64
 258 01d8 6270     		strb	r2, [r4, #1]
 259 01da 2370     		strb	r3, [r4]
 260 01dc A0E7     		b	.L21
 261              	.L33:
 262 01de 637C     		ldrb	r3, [r4, #17]	@ zero_extendqisi2
 263 01e0 4108     		lsrs	r1, r0, #1
 264 01e2 C3F14003 		rsb	r3, r3, #64
 265 01e6 C1F16001 		rsb	r1, r1, #96
 266 01ea 9A1A     		subs	r2, r3, r2
 267 01ec 2170     		strb	r1, [r4]
 268 01ee 6270     		strb	r2, [r4, #1]
 269 01f0 96E7     		b	.L21
 270              	.L32:
 271 01f2 637C     		ldrb	r3, [r4, #17]	@ zero_extendqisi2
 272 01f4 4108     		lsrs	r1, r0, #1
 273 01f6 C3F14003 		rsb	r3, r3, #64
 274 01fa C1F11F01 		rsb	r1, r1, #31
 275 01fe 9A1A     		subs	r2, r3, r2
 276 0200 2170     		strb	r1, [r4]
 277 0202 6270     		strb	r2, [r4, #1]
 278 0204 8CE7     		b	.L21
 279              	.L31:
 280 0206 6278     		ldrb	r2, [r4, #1]	@ zero_extendqisi2
 281 0208 217C     		ldrb	r1, [r4, #16]	@ zero_extendqisi2
 282 020a 4308     		lsrs	r3, r0, #1
 283 020c C3F14003 		rsb	r3, r3, #64
 284 0210 0A44     		add	r2, r2, r1
 285 0212 2370     		strb	r3, [r4]
 286 0214 6270     		strb	r2, [r4, #1]
 287 0216 83E7     		b	.L21
 288              	.L30:
 289 0218 A37C     		ldrb	r3, [r4, #18]	@ zero_extendqisi2
 290 021a 6278     		ldrb	r2, [r4, #1]	@ zero_extendqisi2
 291 021c C3F18003 		rsb	r3, r3, #128
 292 0220 181A     		subs	r0, r3, r0
 293 0222 237C     		ldrb	r3, [r4, #16]	@ zero_extendqisi2
 294 0224 2070     		strb	r0, [r4]
 295 0226 1344     		add	r3, r3, r2
 296 0228 6370     		strb	r3, [r4, #1]
 297 022a 79E7     		b	.L21
 298              	.L29:
 299 022c 6378     		ldrb	r3, [r4, #1]	@ zero_extendqisi2
 300 022e 217C     		ldrb	r1, [r4, #16]	@ zero_extendqisi2
 301 0230 E27C     		ldrb	r2, [r4, #19]	@ zero_extendqisi2
 302 0232 0B44     		add	r3, r3, r1
 303 0234 6370     		strb	r3, [r4, #1]
 304 0236 2270     		strb	r2, [r4]
 305 0238 72E7     		b	.L21
 306              	.L28:
 307 023a A17C     		ldrb	r1, [r4, #18]	@ zero_extendqisi2
 308 023c 637C     		ldrb	r3, [r4, #17]	@ zero_extendqisi2
 309 023e C1F18001 		rsb	r1, r1, #128
 310 0242 67E7     		b	.L63
 311              	.L27:
 312 0244 A37C     		ldrb	r3, [r4, #18]	@ zero_extendqisi2
 313 0246 227C     		ldrb	r2, [r4, #16]	@ zero_extendqisi2
 314 0248 C3F18003 		rsb	r3, r3, #128
 315 024c 181A     		subs	r0, r3, r0
 316 024e 2070     		strb	r0, [r4]
 317 0250 6270     		strb	r2, [r4, #1]
 318 0252 65E7     		b	.L21
 319              	.L26:
 320 0254 637C     		ldrb	r3, [r4, #17]	@ zero_extendqisi2
 321 0256 4108     		lsrs	r1, r0, #1
 322 0258 C3F14003 		rsb	r3, r3, #64
 323 025c C1F14001 		rsb	r1, r1, #64
 324 0260 9A1A     		subs	r2, r3, r2
 325 0262 2170     		strb	r1, [r4]
 326 0264 6270     		strb	r2, [r4, #1]
 327 0266 5BE7     		b	.L21
 328              	.L25:
 329 0268 4308     		lsrs	r3, r0, #1
 330 026a 227C     		ldrb	r2, [r4, #16]	@ zero_extendqisi2
 331 026c C3F14003 		rsb	r3, r3, #64
 332 0270 2370     		strb	r3, [r4]
 333 0272 6270     		strb	r2, [r4, #1]
 334 0274 54E7     		b	.L21
 335              	.L24:
 336 0276 637C     		ldrb	r3, [r4, #17]	@ zero_extendqisi2
 337 0278 E17C     		ldrb	r1, [r4, #19]	@ zero_extendqisi2
 338 027a C3F14003 		rsb	r3, r3, #64
 339 027e 9A1A     		subs	r2, r3, r2
 340 0280 6270     		strb	r2, [r4, #1]
 341 0282 2170     		strb	r1, [r4]
 342 0284 4CE7     		b	.L21
 343              	.L22:
 344 0286 E27C     		ldrb	r2, [r4, #19]	@ zero_extendqisi2
 345 0288 237C     		ldrb	r3, [r4, #16]	@ zero_extendqisi2
 346 028a 2270     		strb	r2, [r4]
 347 028c 6370     		strb	r3, [r4, #1]
 348 028e 47E7     		b	.L21
 350              		.align	1
 351              		.p2align 2,,3
 352              		.global	widget_listbox
 353              		.syntax unified
 354              		.thumb
 355              		.thumb_func
 356              		.fpu softvfp
 358              	widget_listbox:
 359              		@ args = 0, pretend = 0, frame = 72
 360              		@ frame_needed = 0, uses_anonymous_args = 0
 361 0290 2DE9F04F 		push	{r4, r5, r6, r7, r8, r9, r10, fp, lr}
 362 0294 0D79     		ldrb	r5, [r1, #4]	@ zero_extendqisi2
 363 0296 0C46     		mov	r4, r1
 364 0298 ED43     		mvns	r5, r5
 365 029a E678     		ldrb	r6, [r4, #3]	@ zero_extendqisi2
 366 029c 95B0     		sub	sp, sp, #84
 367 029e EDB2     		uxtb	r5, r5
 368 02a0 8B78     		ldrb	r3, [r1, #2]	@ zero_extendqisi2
 369 02a2 4A78     		ldrb	r2, [r1, #1]	@ zero_extendqisi2
 370 02a4 0978     		ldrb	r1, [r1]	@ zero_extendqisi2
 371 02a6 CDE90065 		strd	r6, r5, [sp]
 372 02aa 0290     		str	r0, [sp, #8]
 373 02ac FFF7FEFF 		bl	uc1701_rect_fill
 374 02b0 E368     		ldr	r3, [r4, #12]
 375 02b2 257C     		ldrb	r5, [r4, #16]	@ zero_extendqisi2
 376 02b4 93F80390 		ldrb	r9, [r3, #3]	@ zero_extendqisi2
 377 02b8 E178     		ldrb	r1, [r4, #3]	@ zero_extendqisi2
 378 02ba 09EB0503 		add	r3, r9, r5
 379 02be 91FBF3F1 		sdiv	r1, r1, r3
 380 02c2 CA43     		mvns	r2, r1
 381 02c4 5FFA81F8 		uxtb	r8, r1
 382 02c8 02F00102 		and	r2, r2, #1
 383 02cc C2EB5802 		rsb	r2, r2, r8, lsr #1
 384 02d0 94F805A0 		ldrb	r10, [r4, #5]	@ zero_extendqisi2
 385 02d4 D2B2     		uxtb	r2, r2
 386 02d6 9245     		cmp	r10, r2
 387 02d8 E379     		ldrb	r3, [r4, #7]	@ zero_extendqisi2
 388 02da 01D9     		bls	.L77
 389 02dc 4345     		cmp	r3, r8
 390 02de 57D8     		bhi	.L85
 391              	.L77:
 392 02e0 4FF0000B 		mov	fp, #0
 393              	.L68:
 394 02e4 9845     		cmp	r8, r3
 395 02e6 28BF     		it	cs
 396 02e8 9846     		movcs	r8, r3
 397 02ea 627C     		ldrb	r2, [r4, #17]	@ zero_extendqisi2
 398 02ec A07C     		ldrb	r0, [r4, #18]	@ zero_extendqisi2
 399 02ee 6178     		ldrb	r1, [r4, #1]	@ zero_extendqisi2
 400 02f0 0244     		add	r2, r2, r0
 401 02f2 4A44     		add	r2, r2, r9
 402 02f4 0D44     		add	r5, r5, r1
 403 02f6 D2B2     		uxtb	r2, r2
 404 02f8 0392     		str	r2, [sp, #12]
 405 02fa EDB2     		uxtb	r5, r5
 406 02fc B8F1000F 		cmp	r8, #0
 407 0300 24D0     		beq	.L66
 408 0302 0026     		movs	r6, #0
 409 0304 3746     		mov	r7, r6
 410 0306 00E0     		b	.L76
 411              	.L88:
 412 0308 E379     		ldrb	r3, [r4, #7]	@ zero_extendqisi2
 413              	.L76:
 414 030a BB42     		cmp	r3, r7
 415 030c 1AD9     		bls	.L70
 416 030e A179     		ldrb	r1, [r4, #6]	@ zero_extendqisi2
 417 0310 0BEB0602 		add	r2, fp, r6
 418 0314 A368     		ldr	r3, [r4, #8]
 419 0316 9142     		cmp	r1, r2
 420 0318 53F82230 		ldr	r3, [r3, r2, lsl #2]
 421 031c 19D0     		beq	.L86
 422              	.L71:
 423 031e 2178     		ldrb	r1, [r4]	@ zero_extendqisi2
 424 0320 94F813C0 		ldrb	ip, [r4, #19]	@ zero_extendqisi2
 425 0324 2079     		ldrb	r0, [r4, #4]	@ zero_extendqisi2
 426 0326 E268     		ldr	r2, [r4, #12]
 427 0328 6144     		add	r1, r1, ip
 428 032a CDE90020 		strd	r2, r0, [sp]
 429 032e C9B2     		uxtb	r1, r1
 430 0330 2A46     		mov	r2, r5
 431 0332 0298     		ldr	r0, [sp, #8]
 432 0334 FFF7FEFF 		bl	uc1701_text
 433 0338 BA45     		cmp	r10, r7
 434 033a 40D0     		beq	.L87
 435              	.L75:
 436 033c 237C     		ldrb	r3, [r4, #16]	@ zero_extendqisi2
 437 033e 4B44     		add	r3, r3, r9
 438 0340 1D44     		add	r5, r5, r3
 439 0342 EDB2     		uxtb	r5, r5
 440              	.L70:
 441 0344 0136     		adds	r6, r6, #1
 442 0346 F7B2     		uxtb	r7, r6
 443 0348 B845     		cmp	r8, r7
 444 034a DDD8     		bhi	.L88
 445              	.L66:
 446 034c 15B0     		add	sp, sp, #84
 447              		@ sp needed
 448 034e BDE8F08F 		pop	{r4, r5, r6, r7, r8, r9, r10, fp, pc}
 449              	.L86:
 450 0352 43F62062 		movw	r2, 15904	@ movhi
 451 0356 ADF81020 		strh	r2, [sp, #16]	@ movhi
 452 035a 4FF02002 		mov	r2, #32
 453 035e 8DF81220 		strb	r2, [sp, #18]
 454 0362 1978     		ldrb	r1, [r3]	@ zero_extendqisi2
 455 0364 49B3     		cbz	r1, .L79
 456 0366 0422     		movs	r2, #4
 457 0368 0DF11200 		add	r0, sp, #18
 458 036c 02E0     		b	.L74
 459              	.L90:
 460 036e 0132     		adds	r2, r2, #1
 461 0370 402A     		cmp	r2, #64
 462 0372 20D0     		beq	.L89
 463              	.L74:
 464 0374 00F8011F 		strb	r1, [r0, #1]!
 465 0378 13F8011F 		ldrb	r1, [r3, #1]!	@ zero_extendqisi2
 466 037c 0029     		cmp	r1, #0
 467 037e F6D1     		bne	.L90
 468              	.L72:
 469 0380 14AB     		add	r3, sp, #80
 470 0382 1A44     		add	r2, r2, r3
 471 0384 4FF00003 		mov	r3, #0
 472 0388 02F8403C 		strb	r3, [r2, #-64]
 473 038c 04AB     		add	r3, sp, #16
 474 038e C6E7     		b	.L71
 475              	.L85:
 476 0390 591A     		subs	r1, r3, r1
 477 0392 0029     		cmp	r1, #0
 478 0394 AAEB020B 		sub	fp, r10, r2
 479 0398 B8BF     		it	lt
 480 039a 4942     		rsblt	r1, r1, #0
 481 039c 5FFA8BFB 		uxtb	fp, fp
 482 03a0 8B45     		cmp	fp, r1
 483 03a2 06DD     		ble	.L78
 484 03a4 5FFA81FB 		uxtb	fp, r1
 485 03a8 AAEB0B0A 		sub	r10, r10, fp
 486 03ac 5FFA8AFA 		uxtb	r10, r10
 487 03b0 98E7     		b	.L68
 488              	.L78:
 489 03b2 9246     		mov	r10, r2
 490 03b4 96E7     		b	.L68
 491              	.L89:
 492 03b6 3F22     		movs	r2, #63
 493 03b8 E2E7     		b	.L72
 494              	.L79:
 495 03ba 0322     		movs	r2, #3
 496 03bc E0E7     		b	.L72
 497              	.L87:
 498 03be 627C     		ldrb	r2, [r4, #17]	@ zero_extendqisi2
 499 03c0 0398     		ldr	r0, [sp, #12]
 500 03c2 AA1A     		subs	r2, r5, r2
 501 03c4 A378     		ldrb	r3, [r4, #2]	@ zero_extendqisi2
 502 03c6 2178     		ldrb	r1, [r4]	@ zero_extendqisi2
 503 03c8 D2B2     		uxtb	r2, r2
 504 03ca 0090     		str	r0, [sp]
 505 03cc 0298     		ldr	r0, [sp, #8]
 506 03ce FFF7FEFF 		bl	uc1701_rect_invert
 507 03d2 B3E7     		b	.L75
 509              		.align	1
 510              		.p2align 2,,3
 511              		.global	widget_listbox3
 512              		.syntax unified
 513              		.thumb
 514              		.thumb_func
 515              		.fpu softvfp
 517              	widget_listbox3:
 518              		@ args = 0, pretend = 0, frame = 16
 519              		@ frame_needed = 0, uses_anonymous_args = 0
 520 03d4 2DE9F043 		push	{r4, r5, r6, r7, r8, r9, lr}
 521 03d8 0B79     		ldrb	r3, [r1, #4]	@ zero_extendqisi2
 522 03da 0C46     		mov	r4, r1
 523 03dc DB43     		mvns	r3, r3
 524 03de 4A78     		ldrb	r2, [r1, #1]	@ zero_extendqisi2
 525 03e0 E578     		ldrb	r5, [r4, #3]	@ zero_extendqisi2
 526 03e2 87B0     		sub	sp, sp, #28
 527 03e4 DBB2     		uxtb	r3, r3
 528 03e6 013A     		subs	r2, r2, #1
 529 03e8 0978     		ldrb	r1, [r1]	@ zero_extendqisi2
 530 03ea D2B2     		uxtb	r2, r2
 531 03ec 0193     		str	r3, [sp, #4]
 532 03ee 0095     		str	r5, [sp]
 533 03f0 8023     		movs	r3, #128
 534 03f2 0646     		mov	r6, r0
 535 03f4 FFF7FEFF 		bl	uc1701_rect_fill
 536 03f8 A769     		ldr	r7, [r4, #24]
 537 03fa 3846     		mov	r0, r7
 538 03fc FFF7FEFF 		bl	strlen
 539 0400 0A28     		cmp	r0, #10
 540 0402 40F2E180 		bls	.L92
 541 0406 0023     		movs	r3, #0
 542 0408 CDE90333 		strd	r3, r3, [sp, #12]
 543 040c 0593     		str	r3, [sp, #20]
 544 040e 3868     		ldr	r0, [r7]	@ unaligned
 545 0410 7968     		ldr	r1, [r7, #4]	@ unaligned
 546 0412 03AD     		add	r5, sp, #12
 547 0414 2B46     		mov	r3, r5
 548 0416 03C5     		stmia	r5!, {r0, r1}
 549 0418 6278     		ldrb	r2, [r4, #1]	@ zero_extendqisi2
 550 041a 2178     		ldrb	r1, [r4]	@ zero_extendqisi2
 551 041c 94F813C0 		ldrb	ip, [r4, #19]	@ zero_extendqisi2
 552 0420 3889     		ldrh	r0, [r7, #8]	@ unaligned
 553 0422 DFF84C93 		ldr	r9, .L105
 554 0426 2779     		ldrb	r7, [r4, #4]	@ zero_extendqisi2
 555 0428 6144     		add	r1, r1, ip
 556 042a 0432     		adds	r2, r2, #4
 557 042c CDE90097 		strd	r9, r7, [sp]
 558 0430 D2B2     		uxtb	r2, r2
 559 0432 2880     		strh	r0, [r5]	@ unaligned
 560 0434 C9B2     		uxtb	r1, r1
 561 0436 3046     		mov	r0, r6
 562 0438 FFF7FEFF 		bl	uc1701_text
 563 043c 2825     		movs	r5, #40
 564              	.L93:
 565 043e 4FF00108 		mov	r8, #1
 566 0442 E77C     		ldrb	r7, [r4, #19]	@ zero_extendqisi2
 567 0444 2178     		ldrb	r1, [r4]	@ zero_extendqisi2
 568 0446 6278     		ldrb	r2, [r4, #1]	@ zero_extendqisi2
 569 0448 3944     		add	r1, r1, r7
 570 044a 2079     		ldrb	r0, [r4, #4]	@ zero_extendqisi2
 571 044c 0631     		adds	r1, r1, #6
 572 044e 2944     		add	r1, r1, r5
 573 0450 0232     		adds	r2, r2, #2
 574 0452 C9B2     		uxtb	r1, r1
 575 0454 D2B2     		uxtb	r2, r2
 576 0456 4346     		mov	r3, r8
 577 0458 0190     		str	r0, [sp, #4]
 578 045a CDF80080 		str	r8, [sp]
 579 045e 3046     		mov	r0, r6
 580 0460 FFF7FEFF 		bl	uc1701_rect_fill
 581 0464 E37C     		ldrb	r3, [r4, #19]	@ zero_extendqisi2
 582 0466 2178     		ldrb	r1, [r4]	@ zero_extendqisi2
 583 0468 6278     		ldrb	r2, [r4, #1]	@ zero_extendqisi2
 584 046a 1944     		add	r1, r1, r3
 585 046c 2079     		ldrb	r0, [r4, #4]	@ zero_extendqisi2
 586 046e 0631     		adds	r1, r1, #6
 587 0470 2944     		add	r1, r1, r5
 588 0472 0A32     		adds	r2, r2, #10
 589 0474 C9B2     		uxtb	r1, r1
 590 0476 D2B2     		uxtb	r2, r2
 591 0478 4346     		mov	r3, r8
 592 047a 0190     		str	r0, [sp, #4]
 593 047c CDF80080 		str	r8, [sp]
 594 0480 3046     		mov	r0, r6
 595 0482 FFF7FEFF 		bl	uc1701_rect_fill
 596 0486 0920     		movs	r0, #9
 597 0488 E37C     		ldrb	r3, [r4, #19]	@ zero_extendqisi2
 598 048a 2178     		ldrb	r1, [r4]	@ zero_extendqisi2
 599 048c 6278     		ldrb	r2, [r4, #1]	@ zero_extendqisi2
 600 048e 1944     		add	r1, r1, r3
 601 0490 94F804C0 		ldrb	ip, [r4, #4]	@ zero_extendqisi2
 602 0494 0531     		adds	r1, r1, #5
 603 0496 2944     		add	r1, r1, r5
 604 0498 0232     		adds	r2, r2, #2
 605 049a CDE9000C 		strd	r0, ip, [sp]
 606 049e C9B2     		uxtb	r1, r1
 607 04a0 D2B2     		uxtb	r2, r2
 608 04a2 4346     		mov	r3, r8
 609 04a4 3046     		mov	r0, r6
 610 04a6 FFF7FEFF 		bl	uc1701_rect_fill
 611 04aa E37C     		ldrb	r3, [r4, #19]	@ zero_extendqisi2
 612 04ac 2178     		ldrb	r1, [r4]	@ zero_extendqisi2
 613 04ae 6278     		ldrb	r2, [r4, #1]	@ zero_extendqisi2
 614 04b0 1944     		add	r1, r1, r3
 615 04b2 0231     		adds	r1, r1, #2
 616 04b4 2379     		ldrb	r3, [r4, #4]	@ zero_extendqisi2
 617 04b6 2944     		add	r1, r1, r5
 618 04b8 0632     		adds	r2, r2, #6
 619 04ba 0193     		str	r3, [sp, #4]
 620 04bc CDF80080 		str	r8, [sp]
 621 04c0 0423     		movs	r3, #4
 622 04c2 C9B2     		uxtb	r1, r1
 623 04c4 D2B2     		uxtb	r2, r2
 624 04c6 3046     		mov	r0, r6
 625 04c8 C7F17607 		rsb	r7, r7, #118
 626 04cc FFF7FEFF 		bl	uc1701_rect_fill
 627 04d0 237D     		ldrb	r3, [r4, #20]	@ zero_extendqisi2
 628 04d2 7F1B     		subs	r7, r7, r5
 629 04d4 FFB2     		uxtb	r7, r7
 630 04d6 002B     		cmp	r3, #0
 631 04d8 40F08A80 		bne	.L94
 632 04dc E27C     		ldrb	r2, [r4, #19]	@ zero_extendqisi2
 633 04de 2178     		ldrb	r1, [r4]	@ zero_extendqisi2
 634 04e0 A379     		ldrb	r3, [r4, #6]	@ zero_extendqisi2
 635 04e2 1144     		add	r1, r1, r2
 636 04e4 0831     		adds	r1, r1, #8
 637 04e6 2944     		add	r1, r1, r5
 638 04e8 C9B2     		uxtb	r1, r1
 639 04ea 6278     		ldrb	r2, [r4, #1]	@ zero_extendqisi2
 640 04ec D4F808C0 		ldr	ip, [r4, #8]
 641 04f0 2079     		ldrb	r0, [r4, #4]	@ zero_extendqisi2
 642 04f2 002B     		cmp	r3, #0
 643 04f4 40F0EE80 		bne	.L104
 644 04f8 0732     		adds	r2, r2, #7
 645 04fa DCF80430 		ldr	r3, [ip, #4]
 646 04fe D2B2     		uxtb	r2, r2
 647 0500 CDE90090 		strd	r9, r0, [sp]
 648 0504 3046     		mov	r0, r6
 649 0506 FFF7FEFF 		bl	uc1701_text
 650 050a E07C     		ldrb	r0, [r4, #19]	@ zero_extendqisi2
 651 050c 2178     		ldrb	r1, [r4]	@ zero_extendqisi2
 652 050e A279     		ldrb	r2, [r4, #6]	@ zero_extendqisi2
 653 0510 0144     		add	r1, r1, r0
 654 0512 A368     		ldr	r3, [r4, #8]
 655 0514 2079     		ldrb	r0, [r4, #4]	@ zero_extendqisi2
 656 0516 1031     		adds	r1, r1, #16
 657 0518 2944     		add	r1, r1, r5
 658 051a 53F82230 		ldr	r3, [r3, r2, lsl #2]
 659 051e C9B2     		uxtb	r1, r1
 660 0520 6278     		ldrb	r2, [r4, #1]	@ zero_extendqisi2
 661 0522 CDE90090 		strd	r9, r0, [sp]
 662 0526 3046     		mov	r0, r6
 663 0528 FFF7FEFF 		bl	uc1701_text
 664 052c 0720     		movs	r0, #7
 665 052e 2178     		ldrb	r1, [r4]	@ zero_extendqisi2
 666 0530 E37C     		ldrb	r3, [r4, #19]	@ zero_extendqisi2
 667 0532 6278     		ldrb	r2, [r4, #1]	@ zero_extendqisi2
 668 0534 1944     		add	r1, r1, r3
 669 0536 0831     		adds	r1, r1, #8
 670 0538 2944     		add	r1, r1, r5
 671 053a 013A     		subs	r2, r2, #1
 672              	.L101:
 673 053c 3B46     		mov	r3, r7
 674 053e C9B2     		uxtb	r1, r1
 675 0540 D2B2     		uxtb	r2, r2
 676 0542 0090     		str	r0, [sp]
 677 0544 3046     		mov	r0, r6
 678 0546 FFF7FEFF 		bl	uc1701_rect_invert
 679 054a 2379     		ldrb	r3, [r4, #4]	@ zero_extendqisi2
 680 054c 0F21     		movs	r1, #15
 681 054e DB43     		mvns	r3, r3
 682 0550 6278     		ldrb	r2, [r4, #1]	@ zero_extendqisi2
 683 0552 DBB2     		uxtb	r3, r3
 684 0554 013A     		subs	r2, r2, #1
 685 0556 0193     		str	r3, [sp, #4]
 686 0558 D2B2     		uxtb	r2, r2
 687 055a 0091     		str	r1, [sp]
 688 055c 0823     		movs	r3, #8
 689 055e 7821     		movs	r1, #120
 690 0560 3046     		mov	r0, r6
 691 0562 FFF7FEFF 		bl	uc1701_rect_fill
 692 0566 0125     		movs	r5, #1
 693 0568 0721     		movs	r1, #7
 694 056a 6278     		ldrb	r2, [r4, #1]	@ zero_extendqisi2
 695 056c 2379     		ldrb	r3, [r4, #4]	@ zero_extendqisi2
 696 056e 0432     		adds	r2, r2, #4
 697 0570 CDE90013 		strd	r1, r3, [sp]
 698 0574 D2B2     		uxtb	r2, r2
 699 0576 2B46     		mov	r3, r5
 700 0578 7B21     		movs	r1, #123
 701 057a 3046     		mov	r0, r6
 702 057c FFF7FEFF 		bl	uc1701_rect_fill
 703 0580 6278     		ldrb	r2, [r4, #1]	@ zero_extendqisi2
 704 0582 2379     		ldrb	r3, [r4, #4]	@ zero_extendqisi2
 705 0584 0332     		adds	r2, r2, #3
 706 0586 D2B2     		uxtb	r2, r2
 707 0588 CDE90053 		strd	r5, r3, [sp]
 708 058c 7921     		movs	r1, #121
 709 058e 0523     		movs	r3, #5
 710 0590 3046     		mov	r0, r6
 711 0592 FFF7FEFF 		bl	uc1701_rect_fill
 712 0596 6278     		ldrb	r2, [r4, #1]	@ zero_extendqisi2
 713 0598 2379     		ldrb	r3, [r4, #4]	@ zero_extendqisi2
 714 059a 0232     		adds	r2, r2, #2
 715 059c D2B2     		uxtb	r2, r2
 716 059e 0193     		str	r3, [sp, #4]
 717 05a0 7A21     		movs	r1, #122
 718 05a2 0095     		str	r5, [sp]
 719 05a4 0323     		movs	r3, #3
 720 05a6 3046     		mov	r0, r6
 721 05a8 FFF7FEFF 		bl	uc1701_rect_fill
 722 05ac 6278     		ldrb	r2, [r4, #1]	@ zero_extendqisi2
 723 05ae 2179     		ldrb	r1, [r4, #4]	@ zero_extendqisi2
 724 05b0 2A44     		add	r2, r2, r5
 725              	.L103:
 726 05b2 0191     		str	r1, [sp, #4]
 727 05b4 0095     		str	r5, [sp]
 728 05b6 2B46     		mov	r3, r5
 729 05b8 3046     		mov	r0, r6
 730 05ba D2B2     		uxtb	r2, r2
 731 05bc 7B21     		movs	r1, #123
 732 05be FFF7FEFF 		bl	uc1701_rect_fill
 733              	.L91:
 734 05c2 07B0     		add	sp, sp, #28
 735              		@ sp needed
 736 05c4 BDE8F083 		pop	{r4, r5, r6, r7, r8, r9, pc}
 737              	.L92:
 738 05c8 E37C     		ldrb	r3, [r4, #19]	@ zero_extendqisi2
 739 05ca 6278     		ldrb	r2, [r4, #1]	@ zero_extendqisi2
 740 05cc 2178     		ldrb	r1, [r4]	@ zero_extendqisi2
 741 05ce 94F804C0 		ldrb	ip, [r4, #4]	@ zero_extendqisi2
 742 05d2 DFF89C91 		ldr	r9, .L105
 743 05d6 1944     		add	r1, r1, r3
 744 05d8 0432     		adds	r2, r2, #4
 745 05da 8500     		lsls	r5, r0, #2
 746 05dc 3B46     		mov	r3, r7
 747 05de D2B2     		uxtb	r2, r2
 748 05e0 C9B2     		uxtb	r1, r1
 749 05e2 CDE9009C 		strd	r9, ip, [sp]
 750 05e6 3046     		mov	r0, r6
 751 05e8 EDB2     		uxtb	r5, r5
 752 05ea FFF7FEFF 		bl	uc1701_text
 753 05ee 26E7     		b	.L93
 754              	.L94:
 755 05f0 012B     		cmp	r3, #1
 756 05f2 E6D1     		bne	.L91
 757 05f4 E37C     		ldrb	r3, [r4, #19]	@ zero_extendqisi2
 758 05f6 2178     		ldrb	r1, [r4]	@ zero_extendqisi2
 759 05f8 E079     		ldrb	r0, [r4, #7]	@ zero_extendqisi2
 760 05fa 1944     		add	r1, r1, r3
 761 05fc A379     		ldrb	r3, [r4, #6]	@ zero_extendqisi2
 762 05fe 0831     		adds	r1, r1, #8
 763 0600 0138     		subs	r0, r0, #1
 764 0602 2944     		add	r1, r1, r5
 765 0604 8342     		cmp	r3, r0
 766 0606 C9B2     		uxtb	r1, r1
 767 0608 6278     		ldrb	r2, [r4, #1]	@ zero_extendqisi2
 768 060a D4F808E0 		ldr	lr, [r4, #8]
 769 060e 94F804C0 		ldrb	ip, [r4, #4]	@ zero_extendqisi2
 770 0612 80F28680 		bge	.L98
 771 0616 0133     		adds	r3, r3, #1
 772 0618 0732     		adds	r2, r2, #7
 773 061a 5EF82330 		ldr	r3, [lr, r3, lsl #2]
 774 061e D2B2     		uxtb	r2, r2
 775 0620 CDE9009C 		strd	r9, ip, [sp]
 776 0624 3046     		mov	r0, r6
 777 0626 FFF7FEFF 		bl	uc1701_text
 778 062a E07C     		ldrb	r0, [r4, #19]	@ zero_extendqisi2
 779 062c 2178     		ldrb	r1, [r4]	@ zero_extendqisi2
 780 062e A279     		ldrb	r2, [r4, #6]	@ zero_extendqisi2
 781 0630 0144     		add	r1, r1, r0
 782 0632 A368     		ldr	r3, [r4, #8]
 783 0634 2079     		ldrb	r0, [r4, #4]	@ zero_extendqisi2
 784 0636 1031     		adds	r1, r1, #16
 785 0638 2944     		add	r1, r1, r5
 786 063a 53F82230 		ldr	r3, [r3, r2, lsl #2]
 787 063e C9B2     		uxtb	r1, r1
 788 0640 6278     		ldrb	r2, [r4, #1]	@ zero_extendqisi2
 789 0642 CDE90090 		strd	r9, r0, [sp]
 790 0646 3046     		mov	r0, r6
 791 0648 FFF7FEFF 		bl	uc1701_text
 792 064c 0720     		movs	r0, #7
 793 064e 2178     		ldrb	r1, [r4]	@ zero_extendqisi2
 794 0650 E37C     		ldrb	r3, [r4, #19]	@ zero_extendqisi2
 795 0652 6278     		ldrb	r2, [r4, #1]	@ zero_extendqisi2
 796 0654 1944     		add	r1, r1, r3
 797 0656 0831     		adds	r1, r1, #8
 798 0658 2944     		add	r1, r1, r5
 799 065a 013A     		subs	r2, r2, #1
 800              	.L102:
 801 065c 3B46     		mov	r3, r7
 802 065e C9B2     		uxtb	r1, r1
 803 0660 D2B2     		uxtb	r2, r2
 804 0662 0090     		str	r0, [sp]
 805 0664 3046     		mov	r0, r6
 806 0666 FFF7FEFF 		bl	uc1701_rect_invert
 807 066a 2379     		ldrb	r3, [r4, #4]	@ zero_extendqisi2
 808 066c 0F21     		movs	r1, #15
 809 066e DB43     		mvns	r3, r3
 810 0670 6278     		ldrb	r2, [r4, #1]	@ zero_extendqisi2
 811 0672 DBB2     		uxtb	r3, r3
 812 0674 013A     		subs	r2, r2, #1
 813 0676 0125     		movs	r5, #1
 814 0678 0193     		str	r3, [sp, #4]
 815 067a D2B2     		uxtb	r2, r2
 816 067c 0091     		str	r1, [sp]
 817 067e 0823     		movs	r3, #8
 818 0680 7821     		movs	r1, #120
 819 0682 3046     		mov	r0, r6
 820 0684 FFF7FEFF 		bl	uc1701_rect_fill
 821 0688 0721     		movs	r1, #7
 822 068a 6278     		ldrb	r2, [r4, #1]	@ zero_extendqisi2
 823 068c 2379     		ldrb	r3, [r4, #4]	@ zero_extendqisi2
 824 068e 2A44     		add	r2, r2, r5
 825 0690 CDE90013 		strd	r1, r3, [sp]
 826 0694 D2B2     		uxtb	r2, r2
 827 0696 2B46     		mov	r3, r5
 828 0698 7B21     		movs	r1, #123
 829 069a 3046     		mov	r0, r6
 830 069c FFF7FEFF 		bl	uc1701_rect_fill
 831 06a0 6278     		ldrb	r2, [r4, #1]	@ zero_extendqisi2
 832 06a2 2379     		ldrb	r3, [r4, #4]	@ zero_extendqisi2
 833 06a4 0832     		adds	r2, r2, #8
 834 06a6 D2B2     		uxtb	r2, r2
 835 06a8 CDE90053 		strd	r5, r3, [sp]
 836 06ac 7921     		movs	r1, #121
 837 06ae 0523     		movs	r3, #5
 838 06b0 3046     		mov	r0, r6
 839 06b2 FFF7FEFF 		bl	uc1701_rect_fill
 840 06b6 6278     		ldrb	r2, [r4, #1]	@ zero_extendqisi2
 841 06b8 2379     		ldrb	r3, [r4, #4]	@ zero_extendqisi2
 842 06ba 0932     		adds	r2, r2, #9
 843 06bc D2B2     		uxtb	r2, r2
 844 06be 0193     		str	r3, [sp, #4]
 845 06c0 7A21     		movs	r1, #122
 846 06c2 0095     		str	r5, [sp]
 847 06c4 0323     		movs	r3, #3
 848 06c6 3046     		mov	r0, r6
 849 06c8 FFF7FEFF 		bl	uc1701_rect_fill
 850 06cc 6278     		ldrb	r2, [r4, #1]	@ zero_extendqisi2
 851 06ce 2179     		ldrb	r1, [r4, #4]	@ zero_extendqisi2
 852 06d0 0A32     		adds	r2, r2, #10
 853 06d2 6EE7     		b	.L103
 854              	.L104:
 855 06d4 03F18043 		add	r3, r3, #1073741824
 856 06d8 013B     		subs	r3, r3, #1
 857 06da 5CF82330 		ldr	r3, [ip, r3, lsl #2]
 858 06de CDE90090 		strd	r9, r0, [sp]
 859 06e2 3046     		mov	r0, r6
 860 06e4 FFF7FEFF 		bl	uc1701_text
 861 06e8 E27C     		ldrb	r2, [r4, #19]	@ zero_extendqisi2
 862 06ea 2178     		ldrb	r1, [r4]	@ zero_extendqisi2
 863 06ec A079     		ldrb	r0, [r4, #6]	@ zero_extendqisi2
 864 06ee A368     		ldr	r3, [r4, #8]
 865 06f0 1144     		add	r1, r1, r2
 866 06f2 6278     		ldrb	r2, [r4, #1]	@ zero_extendqisi2
 867 06f4 53F82030 		ldr	r3, [r3, r0, lsl #2]
 868 06f8 1031     		adds	r1, r1, #16
 869 06fa 2079     		ldrb	r0, [r4, #4]	@ zero_extendqisi2
 870 06fc 2944     		add	r1, r1, r5
 871 06fe 0732     		adds	r2, r2, #7
 872 0700 C9B2     		uxtb	r1, r1
 873 0702 D2B2     		uxtb	r2, r2
 874 0704 0190     		str	r0, [sp, #4]
 875 0706 CDF80090 		str	r9, [sp]
 876 070a 3046     		mov	r0, r6
 877 070c FFF7FEFF 		bl	uc1701_text
 878 0710 2178     		ldrb	r1, [r4]	@ zero_extendqisi2
 879 0712 E37C     		ldrb	r3, [r4, #19]	@ zero_extendqisi2
 880 0714 6278     		ldrb	r2, [r4, #1]	@ zero_extendqisi2
 881 0716 1944     		add	r1, r1, r3
 882 0718 0831     		adds	r1, r1, #8
 883 071a 0720     		movs	r0, #7
 884 071c 2944     		add	r1, r1, r5
 885 071e 0632     		adds	r2, r2, #6
 886 0720 0CE7     		b	.L101
 887              	.L98:
 888 0722 03F18043 		add	r3, r3, #1073741824
 889 0726 013B     		subs	r3, r3, #1
 890 0728 5EF82330 		ldr	r3, [lr, r3, lsl #2]
 891 072c 3046     		mov	r0, r6
 892 072e CDE9009C 		strd	r9, ip, [sp]
 893 0732 FFF7FEFF 		bl	uc1701_text
 894 0736 E27C     		ldrb	r2, [r4, #19]	@ zero_extendqisi2
 895 0738 2178     		ldrb	r1, [r4]	@ zero_extendqisi2
 896 073a A079     		ldrb	r0, [r4, #6]	@ zero_extendqisi2
 897 073c A368     		ldr	r3, [r4, #8]
 898 073e 1144     		add	r1, r1, r2
 899 0740 6278     		ldrb	r2, [r4, #1]	@ zero_extendqisi2
 900 0742 53F82030 		ldr	r3, [r3, r0, lsl #2]
 901 0746 1031     		adds	r1, r1, #16
 902 0748 2079     		ldrb	r0, [r4, #4]	@ zero_extendqisi2
 903 074a 2944     		add	r1, r1, r5
 904 074c 0732     		adds	r2, r2, #7
 905 074e C9B2     		uxtb	r1, r1
 906 0750 D2B2     		uxtb	r2, r2
 907 0752 0190     		str	r0, [sp, #4]
 908 0754 CDF80090 		str	r9, [sp]
 909 0758 3046     		mov	r0, r6
 910 075a FFF7FEFF 		bl	uc1701_text
 911 075e 2178     		ldrb	r1, [r4]	@ zero_extendqisi2
 912 0760 E37C     		ldrb	r3, [r4, #19]	@ zero_extendqisi2
 913 0762 6278     		ldrb	r2, [r4, #1]	@ zero_extendqisi2
 914 0764 1944     		add	r1, r1, r3
 915 0766 0831     		adds	r1, r1, #8
 916 0768 0720     		movs	r0, #7
 917 076a 2944     		add	r1, r1, r5
 918 076c 0632     		adds	r2, r2, #6
 919 076e 75E7     		b	.L102
 920              	.L106:
 921              		.align	2
 922              	.L105:
 923 0770 00000000 		.word	.LANCHOR0
 925              		.global	__aeabi_i2f
 926              		.global	__aeabi_fmul
 927              		.global	__aeabi_fdiv
 928              		.global	__aeabi_fadd
 929              		.global	__aeabi_f2d
 930              		.global	__aeabi_fcmplt
 931              		.global	__aeabi_dsub
 932              		.global	__aeabi_d2iz
 933              		.global	__aeabi_dadd
 934              		.align	1
 935              		.p2align 2,,3
 936              		.global	widget_bar_indicator
 937              		.syntax unified
 938              		.thumb
 939              		.thumb_func
 940              		.fpu softvfp
 942              	widget_bar_indicator:
 943              		@ args = 0, pretend = 0, frame = 0
 944              		@ frame_needed = 0, uses_anonymous_args = 0
 945 0774 2DE9F04D 		push	{r4, r5, r6, r7, r8, r10, fp, lr}
 946 0778 0646     		mov	r6, r0
 947 077a 82B0     		sub	sp, sp, #8
 948 077c 91F90500 		ldrsb	r0, [r1, #5]
 949 0780 0C46     		mov	r4, r1
 950 0782 91F80380 		ldrb	r8, [r1, #3]	@ zero_extendqisi2
 951 0786 FFF7FEFF 		bl	__aeabi_i2f
 952 078a 0546     		mov	r5, r0
 953 078c A8F10300 		sub	r0, r8, #3
 954 0790 FFF7FEFF 		bl	__aeabi_i2f
 955 0794 0146     		mov	r1, r0
 956 0796 2846     		mov	r0, r5
 957 0798 FFF7FEFF 		bl	__aeabi_fmul
 958 079c 0546     		mov	r5, r0
 959 079e 94F90600 		ldrsb	r0, [r4, #6]
 960 07a2 FFF7FEFF 		bl	__aeabi_i2f
 961 07a6 0146     		mov	r1, r0
 962 07a8 2846     		mov	r0, r5
 963 07aa FFF7FEFF 		bl	__aeabi_fdiv
 964 07ae 4FF07E51 		mov	r1, #1065353216
 965 07b2 FFF7FEFF 		bl	__aeabi_fadd
 966 07b6 0546     		mov	r5, r0
 967 07b8 FFF7FEFF 		bl	__aeabi_f2d
 968 07bc 8246     		mov	r10, r0
 969 07be 8B46     		mov	fp, r1
 970 07c0 2846     		mov	r0, r5
 971 07c2 0021     		movs	r1, #0
 972 07c4 FFF7FEFF 		bl	__aeabi_fcmplt
 973 07c8 50BB     		cbnz	r0, .L114
 974 07ca 0022     		movs	r2, #0
 975 07cc 1A4B     		ldr	r3, .L115
 976 07ce 5046     		mov	r0, r10
 977 07d0 5946     		mov	r1, fp
 978 07d2 FFF7FEFF 		bl	__aeabi_dadd
 979 07d6 FFF7FEFF 		bl	floor
 980 07da FFF7FEFF 		bl	__aeabi_d2iz
 981 07de 0546     		mov	r5, r0
 982              	.L110:
 983 07e0 0127     		movs	r7, #1
 984 07e2 2079     		ldrb	r0, [r4, #4]	@ zero_extendqisi2
 985 07e4 6278     		ldrb	r2, [r4, #1]	@ zero_extendqisi2
 986 07e6 2178     		ldrb	r1, [r4]	@ zero_extendqisi2
 987 07e8 4346     		mov	r3, r8
 988 07ea CDE90007 		strd	r0, r7, [sp]
 989 07ee 3046     		mov	r0, r6
 990 07f0 FFF7FEFF 		bl	uc1701_rect
 991 07f4 BD42     		cmp	r5, r7
 992 07f6 2B46     		mov	r3, r5
 993 07f8 B8BF     		it	lt
 994 07fa 3B46     		movlt	r3, r7
 995 07fc 2579     		ldrb	r5, [r4, #4]	@ zero_extendqisi2
 996 07fe 6278     		ldrb	r2, [r4, #1]	@ zero_extendqisi2
 997 0800 2178     		ldrb	r1, [r4]	@ zero_extendqisi2
 998 0802 AC1E     		subs	r4, r5, #2
 999 0804 E4B2     		uxtb	r4, r4
 1000 0806 3A44     		add	r2, r2, r7
 1001 0808 3944     		add	r1, r1, r7
 1002 080a 0197     		str	r7, [sp, #4]
 1003 080c DBB2     		uxtb	r3, r3
 1004 080e 3046     		mov	r0, r6
 1005 0810 0094     		str	r4, [sp]
 1006 0812 D2B2     		uxtb	r2, r2
 1007 0814 C9B2     		uxtb	r1, r1
 1008 0816 FFF7FEFF 		bl	uc1701_rect_fill
 1009 081a 02B0     		add	sp, sp, #8
 1010              		@ sp needed
 1011 081c BDE8F08D 		pop	{r4, r5, r6, r7, r8, r10, fp, pc}
 1012              	.L114:
 1013 0820 0022     		movs	r2, #0
 1014 0822 054B     		ldr	r3, .L115
 1015 0824 5046     		mov	r0, r10
 1016 0826 5946     		mov	r1, fp
 1017 0828 FFF7FEFF 		bl	__aeabi_dsub
 1018 082c FFF7FEFF 		bl	ceil
 1019 0830 FFF7FEFF 		bl	__aeabi_d2iz
 1020 0834 0546     		mov	r5, r0
 1021 0836 D3E7     		b	.L110
 1022              	.L116:
 1023              		.align	2
 1024              	.L115:
 1025 0838 0000E03F 		.word	1071644672
 1027              		.global	__aeabi_fsub
 1028              		.global	__aeabi_d2uiz
 1029              		.align	1
 1030              		.p2align 2,,3
 1031              		.global	widget_knob
 1032              		.syntax unified
 1033              		.thumb
 1034              		.thumb_func
 1035              		.fpu softvfp
 1037              	widget_knob:
 1038              		@ args = 0, pretend = 0, frame = 0
 1039              		@ frame_needed = 0, uses_anonymous_args = 0
 1040 083c 2DE9F043 		push	{r4, r5, r6, r7, r8, r9, lr}
 1041 0840 0C46     		mov	r4, r1
 1042 0842 8D68     		ldr	r5, [r1, #8]	@ float
 1043 0844 83B0     		sub	sp, sp, #12
 1044 0846 2946     		mov	r1, r5
 1045 0848 0646     		mov	r6, r0
 1046 084a 2069     		ldr	r0, [r4, #16]	@ float
 1047 084c FFF7FEFF 		bl	__aeabi_fsub
 1048 0850 A749     		ldr	r1, .L154
 1049 0852 FFF7FEFF 		bl	__aeabi_fmul
 1050 0856 2946     		mov	r1, r5
 1051 0858 0746     		mov	r7, r0
 1052 085a E068     		ldr	r0, [r4, #12]	@ float
 1053 085c FFF7FEFF 		bl	__aeabi_fsub
 1054 0860 0146     		mov	r1, r0
 1055 0862 3846     		mov	r0, r7
 1056 0864 FFF7FEFF 		bl	__aeabi_fdiv
 1057 0868 4FF07E51 		mov	r1, #1065353216
 1058 086c FFF7FEFF 		bl	__aeabi_fadd
 1059 0870 0546     		mov	r5, r0
 1060 0872 FFF7FEFF 		bl	__aeabi_f2d
 1061 0876 8046     		mov	r8, r0
 1062 0878 8946     		mov	r9, r1
 1063 087a 2846     		mov	r0, r5
 1064 087c 0021     		movs	r1, #0
 1065 087e FFF7FEFF 		bl	__aeabi_fcmplt
 1066 0882 0028     		cmp	r0, #0
 1067 0884 40F0EB80 		bne	.L153
 1068 0888 0022     		movs	r2, #0
 1069 088a 9A4B     		ldr	r3, .L154+4
 1070 088c 4046     		mov	r0, r8
 1071 088e 4946     		mov	r1, r9
 1072 0890 FFF7FEFF 		bl	__aeabi_dadd
 1073 0894 FFF7FEFF 		bl	floor
 1074 0898 FFF7FEFF 		bl	__aeabi_d2uiz
 1075 089c C7B2     		uxtb	r7, r0
 1076              	.L120:
 1077 089e 0125     		movs	r5, #1
 1078 08a0 4FF00508 		mov	r8, #5
 1079 08a4 6278     		ldrb	r2, [r4, #1]	@ zero_extendqisi2
 1080 08a6 2178     		ldrb	r1, [r4]	@ zero_extendqisi2
 1081 08a8 A378     		ldrb	r3, [r4, #2]	@ zero_extendqisi2
 1082 08aa 053A     		subs	r2, r2, #5
 1083 08ac 0239     		subs	r1, r1, #2
 1084 08ae D2B2     		uxtb	r2, r2
 1085 08b0 C9B2     		uxtb	r1, r1
 1086 08b2 CDE90053 		strd	r5, r3, [sp]
 1087 08b6 3046     		mov	r0, r6
 1088 08b8 4346     		mov	r3, r8
 1089 08ba FFF7FEFF 		bl	uc1701_rect_fill
 1090 08be 6278     		ldrb	r2, [r4, #1]	@ zero_extendqisi2
 1091 08c0 2178     		ldrb	r1, [r4]	@ zero_extendqisi2
 1092 08c2 A378     		ldrb	r3, [r4, #2]	@ zero_extendqisi2
 1093 08c4 4244     		add	r2, r2, r8
 1094 08c6 0239     		subs	r1, r1, #2
 1095 08c8 D2B2     		uxtb	r2, r2
 1096 08ca C9B2     		uxtb	r1, r1
 1097 08cc 0193     		str	r3, [sp, #4]
 1098 08ce 3046     		mov	r0, r6
 1099 08d0 4346     		mov	r3, r8
 1100 08d2 0095     		str	r5, [sp]
 1101 08d4 FFF7FEFF 		bl	uc1701_rect_fill
 1102 08d8 6278     		ldrb	r2, [r4, #1]	@ zero_extendqisi2
 1103 08da 2178     		ldrb	r1, [r4]	@ zero_extendqisi2
 1104 08dc A078     		ldrb	r0, [r4, #2]	@ zero_extendqisi2
 1105 08de 023A     		subs	r2, r2, #2
 1106 08e0 0539     		subs	r1, r1, #5
 1107 08e2 D2B2     		uxtb	r2, r2
 1108 08e4 C9B2     		uxtb	r1, r1
 1109 08e6 2B46     		mov	r3, r5
 1110 08e8 CDE90080 		strd	r8, r0, [sp]
 1111 08ec 3046     		mov	r0, r6
 1112 08ee FFF7FEFF 		bl	uc1701_rect_fill
 1113 08f2 6278     		ldrb	r2, [r4, #1]	@ zero_extendqisi2
 1114 08f4 2178     		ldrb	r1, [r4]	@ zero_extendqisi2
 1115 08f6 A078     		ldrb	r0, [r4, #2]	@ zero_extendqisi2
 1116 08f8 023A     		subs	r2, r2, #2
 1117 08fa 4144     		add	r1, r1, r8
 1118 08fc D2B2     		uxtb	r2, r2
 1119 08fe C9B2     		uxtb	r1, r1
 1120 0900 2B46     		mov	r3, r5
 1121 0902 0190     		str	r0, [sp, #4]
 1122 0904 CDF80080 		str	r8, [sp]
 1123 0908 3046     		mov	r0, r6
 1124 090a FFF7FEFF 		bl	uc1701_rect_fill
 1125 090e 6278     		ldrb	r2, [r4, #1]	@ zero_extendqisi2
 1126 0910 2178     		ldrb	r1, [r4]	@ zero_extendqisi2
 1127 0912 A078     		ldrb	r0, [r4, #2]	@ zero_extendqisi2
 1128 0914 043A     		subs	r2, r2, #4
 1129 0916 0339     		subs	r1, r1, #3
 1130 0918 D2B2     		uxtb	r2, r2
 1131 091a C9B2     		uxtb	r1, r1
 1132 091c 2B46     		mov	r3, r5
 1133 091e 0190     		str	r0, [sp, #4]
 1134 0920 0095     		str	r5, [sp]
 1135 0922 3046     		mov	r0, r6
 1136 0924 FFF7FEFF 		bl	uc1701_rect_fill
 1137 0928 6278     		ldrb	r2, [r4, #1]	@ zero_extendqisi2
 1138 092a 2178     		ldrb	r1, [r4]	@ zero_extendqisi2
 1139 092c A078     		ldrb	r0, [r4, #2]	@ zero_extendqisi2
 1140 092e 033A     		subs	r2, r2, #3
 1141 0930 0439     		subs	r1, r1, #4
 1142 0932 D2B2     		uxtb	r2, r2
 1143 0934 C9B2     		uxtb	r1, r1
 1144 0936 2B46     		mov	r3, r5
 1145 0938 0190     		str	r0, [sp, #4]
 1146 093a 0095     		str	r5, [sp]
 1147 093c 3046     		mov	r0, r6
 1148 093e FFF7FEFF 		bl	uc1701_rect_fill
 1149 0942 6278     		ldrb	r2, [r4, #1]	@ zero_extendqisi2
 1150 0944 2178     		ldrb	r1, [r4]	@ zero_extendqisi2
 1151 0946 A078     		ldrb	r0, [r4, #2]	@ zero_extendqisi2
 1152 0948 033A     		subs	r2, r2, #3
 1153 094a 0431     		adds	r1, r1, #4
 1154 094c D2B2     		uxtb	r2, r2
 1155 094e C9B2     		uxtb	r1, r1
 1156 0950 2B46     		mov	r3, r5
 1157 0952 0190     		str	r0, [sp, #4]
 1158 0954 0095     		str	r5, [sp]
 1159 0956 3046     		mov	r0, r6
 1160 0958 FFF7FEFF 		bl	uc1701_rect_fill
 1161 095c 6278     		ldrb	r2, [r4, #1]	@ zero_extendqisi2
 1162 095e 2178     		ldrb	r1, [r4]	@ zero_extendqisi2
 1163 0960 A078     		ldrb	r0, [r4, #2]	@ zero_extendqisi2
 1164 0962 043A     		subs	r2, r2, #4
 1165 0964 0331     		adds	r1, r1, #3
 1166 0966 D2B2     		uxtb	r2, r2
 1167 0968 C9B2     		uxtb	r1, r1
 1168 096a 2B46     		mov	r3, r5
 1169 096c 0190     		str	r0, [sp, #4]
 1170 096e 0095     		str	r5, [sp]
 1171 0970 3046     		mov	r0, r6
 1172 0972 FFF7FEFF 		bl	uc1701_rect_fill
 1173 0976 6278     		ldrb	r2, [r4, #1]	@ zero_extendqisi2
 1174 0978 2178     		ldrb	r1, [r4]	@ zero_extendqisi2
 1175 097a A078     		ldrb	r0, [r4, #2]	@ zero_extendqisi2
 1176 097c 0332     		adds	r2, r2, #3
 1177 097e 0431     		adds	r1, r1, #4
 1178 0980 D2B2     		uxtb	r2, r2
 1179 0982 C9B2     		uxtb	r1, r1
 1180 0984 2B46     		mov	r3, r5
 1181 0986 0190     		str	r0, [sp, #4]
 1182 0988 0095     		str	r5, [sp]
 1183 098a 3046     		mov	r0, r6
 1184 098c FFF7FEFF 		bl	uc1701_rect_fill
 1185 0990 6278     		ldrb	r2, [r4, #1]	@ zero_extendqisi2
 1186 0992 2178     		ldrb	r1, [r4]	@ zero_extendqisi2
 1187 0994 A078     		ldrb	r0, [r4, #2]	@ zero_extendqisi2
 1188 0996 0432     		adds	r2, r2, #4
 1189 0998 0331     		adds	r1, r1, #3
 1190 099a D2B2     		uxtb	r2, r2
 1191 099c C9B2     		uxtb	r1, r1
 1192 099e 2B46     		mov	r3, r5
 1193 09a0 0190     		str	r0, [sp, #4]
 1194 09a2 0095     		str	r5, [sp]
 1195 09a4 3046     		mov	r0, r6
 1196 09a6 FFF7FEFF 		bl	uc1701_rect_fill
 1197 09aa 6278     		ldrb	r2, [r4, #1]	@ zero_extendqisi2
 1198 09ac 2178     		ldrb	r1, [r4]	@ zero_extendqisi2
 1199 09ae A078     		ldrb	r0, [r4, #2]	@ zero_extendqisi2
 1200 09b0 0332     		adds	r2, r2, #3
 1201 09b2 0439     		subs	r1, r1, #4
 1202 09b4 D2B2     		uxtb	r2, r2
 1203 09b6 C9B2     		uxtb	r1, r1
 1204 09b8 2B46     		mov	r3, r5
 1205 09ba 0190     		str	r0, [sp, #4]
 1206 09bc 0095     		str	r5, [sp]
 1207 09be 3046     		mov	r0, r6
 1208 09c0 FFF7FEFF 		bl	uc1701_rect_fill
 1209 09c4 6278     		ldrb	r2, [r4, #1]	@ zero_extendqisi2
 1210 09c6 2178     		ldrb	r1, [r4]	@ zero_extendqisi2
 1211 09c8 A078     		ldrb	r0, [r4, #2]	@ zero_extendqisi2
 1212 09ca 0432     		adds	r2, r2, #4
 1213 09cc 0339     		subs	r1, r1, #3
 1214 09ce 0190     		str	r0, [sp, #4]
 1215 09d0 0095     		str	r5, [sp]
 1216 09d2 3046     		mov	r0, r6
 1217 09d4 2B46     		mov	r3, r5
 1218 09d6 D2B2     		uxtb	r2, r2
 1219 09d8 C9B2     		uxtb	r1, r1
 1220 09da FFF7FEFF 		bl	uc1701_rect_fill
 1221 09de 781E     		subs	r0, r7, #1
 1222 09e0 0F28     		cmp	r0, #15
 1223 09e2 1FD8     		bhi	.L121
 1224 09e4 DFE810F0 		tbh	[pc, r0, lsl #1]
 1225              	.L123:
 1226 09e8 4700     		.2byte	(.L122-.L123)/2
 1227 09ea 4E00     		.2byte	(.L124-.L123)/2
 1228 09ec 6A00     		.2byte	(.L125-.L123)/2
 1229 09ee 7E00     		.2byte	(.L126-.L123)/2
 1230 09f0 8800     		.2byte	(.L127-.L123)/2
 1231 09f2 8F00     		.2byte	(.L128-.L123)/2
 1232 09f4 A200     		.2byte	(.L129-.L123)/2
 1233 09f6 B600     		.2byte	(.L130-.L123)/2
 1234 09f8 C500     		.2byte	(.L131-.L123)/2
 1235 09fa CC00     		.2byte	(.L132-.L123)/2
 1236 09fc E800     		.2byte	(.L133-.L123)/2
 1237 09fe FD00     		.2byte	(.L134-.L123)/2
 1238 0a00 0401     		.2byte	(.L135-.L123)/2
 1239 0a02 0A01     		.2byte	(.L136-.L123)/2
 1240 0a04 1E01     		.2byte	(.L137-.L123)/2
 1241 0a06 1000     		.2byte	(.L138-.L123)/2
 1242              		.p2align 1
 1243              	.L138:
 1244 0a08 0220     		movs	r0, #2
 1245 0a0a 6278     		ldrb	r2, [r4, #1]	@ zero_extendqisi2
 1246 0a0c 2178     		ldrb	r1, [r4]	@ zero_extendqisi2
 1247 0a0e A378     		ldrb	r3, [r4, #2]	@ zero_extendqisi2
 1248 0a10 0244     		add	r2, r2, r0
 1249 0a12 0131     		adds	r1, r1, #1
 1250              	.L146:
 1251 0a14 D2B2     		uxtb	r2, r2
 1252              	.L148:
 1253 0a16 CDE90003 		strd	r0, r3, [sp]
 1254 0a1a C9B2     		uxtb	r1, r1
 1255 0a1c 0123     		movs	r3, #1
 1256 0a1e 3046     		mov	r0, r6
 1257 0a20 FFF7FEFF 		bl	uc1701_rect_fill
 1258              	.L121:
 1259 0a24 2379     		ldrb	r3, [r4, #4]	@ zero_extendqisi2
 1260 0a26 BBB1     		cbz	r3, .L117
 1261 0a28 0125     		movs	r5, #1
 1262 0a2a 0327     		movs	r7, #3
 1263 0a2c 2178     		ldrb	r1, [r4]	@ zero_extendqisi2
 1264 0a2e A378     		ldrb	r3, [r4, #2]	@ zero_extendqisi2
 1265 0a30 0139     		subs	r1, r1, #1
 1266 0a32 6278     		ldrb	r2, [r4, #1]	@ zero_extendqisi2
 1267 0a34 C9B2     		uxtb	r1, r1
 1268 0a36 CDE90053 		strd	r5, r3, [sp]
 1269 0a3a 3046     		mov	r0, r6
 1270 0a3c 0323     		movs	r3, #3
 1271 0a3e FFF7FEFF 		bl	uc1701_rect_fill
 1272 0a42 6278     		ldrb	r2, [r4, #1]	@ zero_extendqisi2
 1273 0a44 2178     		ldrb	r1, [r4]	@ zero_extendqisi2
 1274 0a46 A478     		ldrb	r4, [r4, #2]	@ zero_extendqisi2
 1275 0a48 013A     		subs	r2, r2, #1
 1276 0a4a 2B46     		mov	r3, r5
 1277 0a4c 3046     		mov	r0, r6
 1278 0a4e D2B2     		uxtb	r2, r2
 1279 0a50 CDE90074 		strd	r7, r4, [sp]
 1280 0a54 FFF7FEFF 		bl	uc1701_rect_fill
 1281              	.L117:
 1282 0a58 03B0     		add	sp, sp, #12
 1283              		@ sp needed
 1284 0a5a BDE8F083 		pop	{r4, r5, r6, r7, r8, r9, pc}
 1285              	.L153:
 1286 0a5e 0022     		movs	r2, #0
 1287 0a60 244B     		ldr	r3, .L154+4
 1288 0a62 4046     		mov	r0, r8
 1289 0a64 4946     		mov	r1, r9
 1290 0a66 FFF7FEFF 		bl	__aeabi_dsub
 1291 0a6a FFF7FEFF 		bl	ceil
 1292 0a6e FFF7FEFF 		bl	__aeabi_d2uiz
 1293 0a72 C7B2     		uxtb	r7, r0
 1294 0a74 13E7     		b	.L120
 1295              	.L122:
 1296 0a76 0220     		movs	r0, #2
 1297 0a78 6278     		ldrb	r2, [r4, #1]	@ zero_extendqisi2
 1298 0a7a 2178     		ldrb	r1, [r4]	@ zero_extendqisi2
 1299 0a7c A378     		ldrb	r3, [r4, #2]	@ zero_extendqisi2
 1300 0a7e 0244     		add	r2, r2, r0
 1301 0a80 0139     		subs	r1, r1, #1
 1302 0a82 C7E7     		b	.L146
 1303              	.L124:
 1304 0a84 0125     		movs	r5, #1
 1305 0a86 6278     		ldrb	r2, [r4, #1]	@ zero_extendqisi2
 1306 0a88 2178     		ldrb	r1, [r4]	@ zero_extendqisi2
 1307 0a8a A378     		ldrb	r3, [r4, #2]	@ zero_extendqisi2
 1308 0a8c 0232     		adds	r2, r2, #2
 1309 0a8e 0239     		subs	r1, r1, #2
 1310 0a90 D2B2     		uxtb	r2, r2
 1311 0a92 C9B2     		uxtb	r1, r1
 1312 0a94 CDE90053 		strd	r5, r3, [sp]
 1313 0a98 3046     		mov	r0, r6
 1314 0a9a 0223     		movs	r3, #2
 1315 0a9c FFF7FEFF 		bl	uc1701_rect_fill
 1316 0aa0 6278     		ldrb	r2, [r4, #1]	@ zero_extendqisi2
 1317 0aa2 2178     		ldrb	r1, [r4]	@ zero_extendqisi2
 1318 0aa4 A078     		ldrb	r0, [r4, #2]	@ zero_extendqisi2
 1319 0aa6 0332     		adds	r2, r2, #3
 1320 0aa8 0139     		subs	r1, r1, #1
 1321              	.L147:
 1322 0aaa 0190     		str	r0, [sp, #4]
 1323 0aac 0095     		str	r5, [sp]
 1324 0aae 2B46     		mov	r3, r5
 1325 0ab0 D2B2     		uxtb	r2, r2
 1326 0ab2 C9B2     		uxtb	r1, r1
 1327 0ab4 3046     		mov	r0, r6
 1328 0ab6 FFF7FEFF 		bl	uc1701_rect_fill
 1329 0aba B3E7     		b	.L121
 1330              	.L125:
 1331 0abc 0125     		movs	r5, #1
 1332 0abe 6278     		ldrb	r2, [r4, #1]	@ zero_extendqisi2
 1333 0ac0 2178     		ldrb	r1, [r4]	@ zero_extendqisi2
 1334 0ac2 A378     		ldrb	r3, [r4, #2]	@ zero_extendqisi2
 1335 0ac4 2A44     		add	r2, r2, r5
 1336 0ac6 0339     		subs	r1, r1, #3
 1337 0ac8 D2B2     		uxtb	r2, r2
 1338 0aca C9B2     		uxtb	r1, r1
 1339 0acc CDE90053 		strd	r5, r3, [sp]
 1340 0ad0 3046     		mov	r0, r6
 1341 0ad2 0223     		movs	r3, #2
 1342 0ad4 FFF7FEFF 		bl	uc1701_rect_fill
 1343 0ad8 6278     		ldrb	r2, [r4, #1]	@ zero_extendqisi2
 1344 0ada 2178     		ldrb	r1, [r4]	@ zero_extendqisi2
 1345 0adc A078     		ldrb	r0, [r4, #2]	@ zero_extendqisi2
 1346 0ade 0232     		adds	r2, r2, #2
 1347              	.L152:
 1348 0ae0 0239     		subs	r1, r1, #2
 1349 0ae2 E2E7     		b	.L147
 1350              	.L126:
 1351 0ae4 2178     		ldrb	r1, [r4]	@ zero_extendqisi2
 1352 0ae6 0220     		movs	r0, #2
 1353 0ae8 6278     		ldrb	r2, [r4, #1]	@ zero_extendqisi2
 1354 0aea A378     		ldrb	r3, [r4, #2]	@ zero_extendqisi2
 1355 0aec 0339     		subs	r1, r1, #3
 1356 0aee 92E7     		b	.L148
 1357              	.L155:
 1358              		.align	2
 1359              	.L154:
 1360 0af0 00007041 		.word	1097859072
 1361 0af4 0000E03F 		.word	1071644672
 1362              	.L127:
 1363 0af8 6278     		ldrb	r2, [r4, #1]	@ zero_extendqisi2
 1364 0afa 2178     		ldrb	r1, [r4]	@ zero_extendqisi2
 1365 0afc 0220     		movs	r0, #2
 1366 0afe A378     		ldrb	r3, [r4, #2]	@ zero_extendqisi2
 1367 0b00 013A     		subs	r2, r2, #1
 1368 0b02 0339     		subs	r1, r1, #3
 1369 0b04 86E7     		b	.L146
 1370              	.L128:
 1371 0b06 0125     		movs	r5, #1
 1372 0b08 6278     		ldrb	r2, [r4, #1]	@ zero_extendqisi2
 1373 0b0a 2178     		ldrb	r1, [r4]	@ zero_extendqisi2
 1374 0b0c A378     		ldrb	r3, [r4, #2]	@ zero_extendqisi2
 1375 0b0e 013A     		subs	r2, r2, #1
 1376 0b10 0339     		subs	r1, r1, #3
 1377 0b12 D2B2     		uxtb	r2, r2
 1378 0b14 C9B2     		uxtb	r1, r1
 1379 0b16 CDE90053 		strd	r5, r3, [sp]
 1380 0b1a 3046     		mov	r0, r6
 1381 0b1c 0223     		movs	r3, #2
 1382 0b1e FFF7FEFF 		bl	uc1701_rect_fill
 1383 0b22 6278     		ldrb	r2, [r4, #1]	@ zero_extendqisi2
 1384 0b24 2178     		ldrb	r1, [r4]	@ zero_extendqisi2
 1385 0b26 A078     		ldrb	r0, [r4, #2]	@ zero_extendqisi2
 1386 0b28 023A     		subs	r2, r2, #2
 1387 0b2a D9E7     		b	.L152
 1388              	.L129:
 1389 0b2c 0125     		movs	r5, #1
 1390 0b2e 6278     		ldrb	r2, [r4, #1]	@ zero_extendqisi2
 1391 0b30 2178     		ldrb	r1, [r4]	@ zero_extendqisi2
 1392 0b32 A378     		ldrb	r3, [r4, #2]	@ zero_extendqisi2
 1393 0b34 023A     		subs	r2, r2, #2
 1394 0b36 0239     		subs	r1, r1, #2
 1395 0b38 D2B2     		uxtb	r2, r2
 1396 0b3a C9B2     		uxtb	r1, r1
 1397 0b3c CDE90053 		strd	r5, r3, [sp]
 1398 0b40 3046     		mov	r0, r6
 1399 0b42 0223     		movs	r3, #2
 1400 0b44 FFF7FEFF 		bl	uc1701_rect_fill
 1401 0b48 6278     		ldrb	r2, [r4, #1]	@ zero_extendqisi2
 1402 0b4a 2178     		ldrb	r1, [r4]	@ zero_extendqisi2
 1403 0b4c A078     		ldrb	r0, [r4, #2]	@ zero_extendqisi2
 1404 0b4e 033A     		subs	r2, r2, #3
 1405 0b50 0139     		subs	r1, r1, #1
 1406 0b52 AAE7     		b	.L147
 1407              	.L130:
 1408 0b54 0120     		movs	r0, #1
 1409 0b56 6278     		ldrb	r2, [r4, #1]	@ zero_extendqisi2
 1410 0b58 2178     		ldrb	r1, [r4]	@ zero_extendqisi2
 1411 0b5a 033A     		subs	r2, r2, #3
 1412 0b5c 0139     		subs	r1, r1, #1
 1413 0b5e A378     		ldrb	r3, [r4, #2]	@ zero_extendqisi2
 1414 0b60 D2B2     		uxtb	r2, r2
 1415 0b62 C9B2     		uxtb	r1, r1
 1416              	.L151:
 1417 0b64 CDE90003 		strd	r0, r3, [sp]
 1418 0b68 0223     		movs	r3, #2
 1419 0b6a 3046     		mov	r0, r6
 1420 0b6c FFF7FEFF 		bl	uc1701_rect_fill
 1421 0b70 58E7     		b	.L121
 1422              	.L131:
 1423 0b72 6278     		ldrb	r2, [r4, #1]	@ zero_extendqisi2
 1424 0b74 0120     		movs	r0, #1
 1425 0b76 033A     		subs	r2, r2, #3
 1426 0b78 2178     		ldrb	r1, [r4]	@ zero_extendqisi2
 1427 0b7a A378     		ldrb	r3, [r4, #2]	@ zero_extendqisi2
 1428 0b7c D2B2     		uxtb	r2, r2
 1429 0b7e F1E7     		b	.L151
 1430              	.L132:
 1431 0b80 0220     		movs	r0, #2
 1432 0b82 6278     		ldrb	r2, [r4, #1]	@ zero_extendqisi2
 1433 0b84 2178     		ldrb	r1, [r4]	@ zero_extendqisi2
 1434 0b86 A378     		ldrb	r3, [r4, #2]	@ zero_extendqisi2
 1435 0b88 033A     		subs	r2, r2, #3
 1436 0b8a 0131     		adds	r1, r1, #1
 1437 0b8c CDE90003 		strd	r0, r3, [sp]
 1438 0b90 D2B2     		uxtb	r2, r2
 1439 0b92 C9B2     		uxtb	r1, r1
 1440 0b94 0123     		movs	r3, #1
 1441 0b96 3046     		mov	r0, r6
 1442 0b98 FFF7FEFF 		bl	uc1701_rect_fill
 1443 0b9c 0123     		movs	r3, #1
 1444 0b9e 6278     		ldrb	r2, [r4, #1]	@ zero_extendqisi2
 1445 0ba0 2178     		ldrb	r1, [r4]	@ zero_extendqisi2
 1446 0ba2 A078     		ldrb	r0, [r4, #2]	@ zero_extendqisi2
 1447 0ba4 023A     		subs	r2, r2, #2
 1448              	.L150:
 1449 0ba6 0231     		adds	r1, r1, #2
 1450              	.L149:
 1451 0ba8 CDE90030 		strd	r3, r0, [sp]
 1452 0bac D2B2     		uxtb	r2, r2
 1453 0bae C9B2     		uxtb	r1, r1
 1454 0bb0 3046     		mov	r0, r6
 1455 0bb2 FFF7FEFF 		bl	uc1701_rect_fill
 1456 0bb6 35E7     		b	.L121
 1457              	.L133:
 1458 0bb8 0220     		movs	r0, #2
 1459 0bba 6278     		ldrb	r2, [r4, #1]	@ zero_extendqisi2
 1460 0bbc 2178     		ldrb	r1, [r4]	@ zero_extendqisi2
 1461 0bbe A378     		ldrb	r3, [r4, #2]	@ zero_extendqisi2
 1462 0bc0 0144     		add	r1, r1, r0
 1463 0bc2 023A     		subs	r2, r2, #2
 1464 0bc4 CDE90003 		strd	r0, r3, [sp]
 1465 0bc8 D2B2     		uxtb	r2, r2
 1466 0bca C9B2     		uxtb	r1, r1
 1467 0bcc 0123     		movs	r3, #1
 1468 0bce 3046     		mov	r0, r6
 1469 0bd0 FFF7FEFF 		bl	uc1701_rect_fill
 1470 0bd4 6278     		ldrb	r2, [r4, #1]	@ zero_extendqisi2
 1471 0bd6 2178     		ldrb	r1, [r4]	@ zero_extendqisi2
 1472 0bd8 0123     		movs	r3, #1
 1473 0bda A078     		ldrb	r0, [r4, #2]	@ zero_extendqisi2
 1474 0bdc 013A     		subs	r2, r2, #1
 1475 0bde 0331     		adds	r1, r1, #3
 1476 0be0 E2E7     		b	.L149
 1477              	.L134:
 1478 0be2 6278     		ldrb	r2, [r4, #1]	@ zero_extendqisi2
 1479 0be4 2178     		ldrb	r1, [r4]	@ zero_extendqisi2
 1480 0be6 0220     		movs	r0, #2
 1481 0be8 A378     		ldrb	r3, [r4, #2]	@ zero_extendqisi2
 1482 0bea 013A     		subs	r2, r2, #1
 1483 0bec 0331     		adds	r1, r1, #3
 1484 0bee 11E7     		b	.L146
 1485              	.L135:
 1486 0bf0 2178     		ldrb	r1, [r4]	@ zero_extendqisi2
 1487 0bf2 0220     		movs	r0, #2
 1488 0bf4 6278     		ldrb	r2, [r4, #1]	@ zero_extendqisi2
 1489 0bf6 A378     		ldrb	r3, [r4, #2]	@ zero_extendqisi2
 1490 0bf8 0331     		adds	r1, r1, #3
 1491 0bfa 0CE7     		b	.L148
 1492              	.L136:
 1493 0bfc 0125     		movs	r5, #1
 1494 0bfe 6278     		ldrb	r2, [r4, #1]	@ zero_extendqisi2
 1495 0c00 2178     		ldrb	r1, [r4]	@ zero_extendqisi2
 1496 0c02 A378     		ldrb	r3, [r4, #2]	@ zero_extendqisi2
 1497 0c04 2A44     		add	r2, r2, r5
 1498 0c06 0231     		adds	r1, r1, #2
 1499 0c08 D2B2     		uxtb	r2, r2
 1500 0c0a C9B2     		uxtb	r1, r1
 1501 0c0c CDE90053 		strd	r5, r3, [sp]
 1502 0c10 3046     		mov	r0, r6
 1503 0c12 0223     		movs	r3, #2
 1504 0c14 FFF7FEFF 		bl	uc1701_rect_fill
 1505 0c18 6278     		ldrb	r2, [r4, #1]	@ zero_extendqisi2
 1506 0c1a 2178     		ldrb	r1, [r4]	@ zero_extendqisi2
 1507 0c1c A078     		ldrb	r0, [r4, #2]	@ zero_extendqisi2
 1508 0c1e 0232     		adds	r2, r2, #2
 1509 0c20 0231     		adds	r1, r1, #2
 1510 0c22 42E7     		b	.L147
 1511              	.L137:
 1512 0c24 0220     		movs	r0, #2
 1513 0c26 6278     		ldrb	r2, [r4, #1]	@ zero_extendqisi2
 1514 0c28 2178     		ldrb	r1, [r4]	@ zero_extendqisi2
 1515 0c2a A378     		ldrb	r3, [r4, #2]	@ zero_extendqisi2
 1516 0c2c 0244     		add	r2, r2, r0
 1517 0c2e 0131     		adds	r1, r1, #1
 1518 0c30 CDE90003 		strd	r0, r3, [sp]
 1519 0c34 D2B2     		uxtb	r2, r2
 1520 0c36 C9B2     		uxtb	r1, r1
 1521 0c38 0123     		movs	r3, #1
 1522 0c3a 3046     		mov	r0, r6
 1523 0c3c FFF7FEFF 		bl	uc1701_rect_fill
 1524 0c40 6278     		ldrb	r2, [r4, #1]	@ zero_extendqisi2
 1525 0c42 0123     		movs	r3, #1
 1526 0c44 2178     		ldrb	r1, [r4]	@ zero_extendqisi2
 1527 0c46 A078     		ldrb	r0, [r4, #2]	@ zero_extendqisi2
 1528 0c48 0232     		adds	r2, r2, #2
 1529 0c4a ACE7     		b	.L150
 1531              		.global	__aeabi_fcmpgt
 1532              		.global	__aeabi_dcmpgt
 1533              		.align	1
 1534              		.p2align 2,,3
 1535              		.global	widget_peakmeter
 1536              		.syntax unified
 1537              		.thumb
 1538              		.thumb_func
 1539              		.fpu softvfp
 1541              	widget_peakmeter:
 1542              		@ args = 0, pretend = 0, frame = 8
 1543              		@ frame_needed = 0, uses_anonymous_args = 0
 1544 0c4c 2DE9F047 		push	{r4, r5, r6, r7, r8, r9, r10, lr}
 1545 0c50 1668     		ldr	r6, [r2]	@ float
 1546 0c52 8C4B     		ldr	r3, .L202
 1547 0c54 84B0     		sub	sp, sp, #16
 1548 0c56 0546     		mov	r5, r0
 1549 0c58 0C46     		mov	r4, r1
 1550 0c5a 3046     		mov	r0, r6
 1551 0c5c 0021     		movs	r1, #0
 1552 0c5e 1746     		mov	r7, r2
 1553 0c60 0393     		str	r3, [sp, #12]
 1554 0c62 FFF7FEFF 		bl	__aeabi_fcmpgt
 1555 0c66 0028     		cmp	r0, #0
 1556 0c68 5DD0     		beq	.L192
 1557 0c6a 4FF00008 		mov	r8, #0
 1558 0c6e DFF82C92 		ldr	r9, .L202+24
 1559              	.L158:
 1560 0c72 0022     		movs	r2, #0
 1561 0c74 844B     		ldr	r3, .L202+4
 1562 0c76 4046     		mov	r0, r8
 1563 0c78 4946     		mov	r1, r9
 1564 0c7a FFF7FEFF 		bl	__aeabi_dadd
 1565 0c7e FFF7FEFF 		bl	floor
 1566 0c82 FFF7FEFF 		bl	__aeabi_d2uiz
 1567 0c86 C6B2     		uxtb	r6, r0
 1568              	.L160:
 1569 0c88 002C     		cmp	r4, #0
 1570 0c8a 58D0     		beq	.L193
 1571 0c8c 012C     		cmp	r4, #1
 1572 0c8e 00F0BB80 		beq	.L194
 1573 0c92 022C     		cmp	r4, #2
 1574 0c94 00F09680 		beq	.L195
 1575 0c98 032C     		cmp	r4, #3
 1576 0c9a 00F0C080 		beq	.L196
 1577              	.L162:
 1578 0c9e 162E     		cmp	r6, #22
 1579 0ca0 58D8     		bhi	.L197
 1580              	.L165:
 1581 0ca2 002E     		cmp	r6, #0
 1582 0ca4 40F0C680 		bne	.L198
 1583              	.L167:
 1584 0ca8 7E68     		ldr	r6, [r7, #4]	@ float
 1585 0caa 3968     		ldr	r1, [r7]	@ float
 1586 0cac 3046     		mov	r0, r6
 1587 0cae FFF7FEFF 		bl	__aeabi_fcmpgt
 1588 0cb2 0028     		cmp	r0, #0
 1589 0cb4 34D0     		beq	.L156
 1590 0cb6 3046     		mov	r0, r6
 1591 0cb8 7449     		ldr	r1, .L202+8
 1592 0cba FFF7FEFF 		bl	__aeabi_fmul
 1593 0cbe 7449     		ldr	r1, .L202+12
 1594 0cc0 FFF7FEFF 		bl	__aeabi_fdiv
 1595 0cc4 8246     		mov	r10, r0
 1596 0cc6 FFF7FEFF 		bl	__aeabi_f2d
 1597 0cca 0646     		mov	r6, r0
 1598 0ccc 0F46     		mov	r7, r1
 1599 0cce 5046     		mov	r0, r10
 1600 0cd0 0021     		movs	r1, #0
 1601 0cd2 FFF7FEFF 		bl	__aeabi_fcmplt
 1602 0cd6 0022     		movs	r2, #0
 1603 0cd8 6B4B     		ldr	r3, .L202+4
 1604 0cda 0028     		cmp	r0, #0
 1605 0cdc 7DD1     		bne	.L199
 1606 0cde 3046     		mov	r0, r6
 1607 0ce0 3946     		mov	r1, r7
 1608 0ce2 FFF7FEFF 		bl	__aeabi_dadd
 1609 0ce6 FFF7FEFF 		bl	floor
 1610 0cea 0022     		movs	r2, #0
 1611 0cec 0023     		movs	r3, #0
 1612 0cee 8046     		mov	r8, r0
 1613 0cf0 8946     		mov	r9, r1
 1614 0cf2 FFF7FEFF 		bl	__aeabi_dcmpgt
 1615 0cf6 0028     		cmp	r0, #0
 1616 0cf8 4DD0     		beq	.L200
 1617              	.L174:
 1618 0cfa 0022     		movs	r2, #0
 1619 0cfc 654B     		ldr	r3, .L202+16
 1620 0cfe 4046     		mov	r0, r8
 1621 0d00 4946     		mov	r1, r9
 1622 0d02 FFF7FEFF 		bl	__aeabi_dadd
 1623 0d06 FFF7FEFF 		bl	__aeabi_d2uiz
 1624 0d0a C2B2     		uxtb	r2, r0
 1625              	.L176:
 1626 0d0c 0123     		movs	r3, #1
 1627 0d0e 04A9     		add	r1, sp, #16
 1628 0d10 0C44     		add	r4, r4, r1
 1629 0d12 14F8041C 		ldrb	r1, [r4, #-4]	@ zero_extendqisi2
 1630 0d16 2846     		mov	r0, r5
 1631 0d18 0093     		str	r3, [sp]
 1632 0d1a 1023     		movs	r3, #16
 1633 0d1c FFF7FEFF 		bl	uc1701_hline
 1634              	.L156:
 1635 0d20 04B0     		add	sp, sp, #16
 1636              		@ sp needed
 1637 0d22 BDE8F087 		pop	{r4, r5, r6, r7, r8, r9, r10, pc}
 1638              	.L192:
 1639 0d26 5C49     		ldr	r1, .L202+20
 1640 0d28 3046     		mov	r0, r6
 1641 0d2a FFF7FEFF 		bl	__aeabi_fcmplt
 1642 0d2e 0028     		cmp	r0, #0
 1643 0d30 00F08580 		beq	.L201
 1644 0d34 4FF00008 		mov	r8, #0
 1645 0d38 4FF00009 		mov	r9, #0
 1646 0d3c 99E7     		b	.L158
 1647              	.L193:
 1648 0d3e 2A23     		movs	r3, #42
 1649 0d40 0D22     		movs	r2, #13
 1650 0d42 CDE90034 		strd	r3, r4, [sp]
 1651 0d46 0421     		movs	r1, #4
 1652 0d48 1023     		movs	r3, #16
 1653 0d4a 2846     		mov	r0, r5
 1654 0d4c FFF7FEFF 		bl	uc1701_rect_fill
 1655 0d50 162E     		cmp	r6, #22
 1656 0d52 A6D9     		bls	.L165
 1657              	.L197:
 1658 0d54 0120     		movs	r0, #1
 1659 0d56 04AA     		add	r2, sp, #16
 1660 0d58 2244     		add	r2, r2, r4
 1661 0d5a A6F11603 		sub	r3, r6, #22
 1662 0d5e 12F8048C 		ldrb	r8, [r2, #-4]	@ zero_extendqisi2
 1663 0d62 DBB2     		uxtb	r3, r3
 1664 0d64 C3F12102 		rsb	r2, r3, #33
 1665 0d68 0093     		str	r3, [sp]
 1666 0d6a 0190     		str	r0, [sp, #4]
 1667 0d6c D2B2     		uxtb	r2, r2
 1668 0d6e 4146     		mov	r1, r8
 1669 0d70 1023     		movs	r3, #16
 1670 0d72 2846     		mov	r0, r5
 1671 0d74 FFF7FEFF 		bl	uc1701_rect_fill
 1672              	.L166:
 1673 0d78 162E     		cmp	r6, #22
 1674 0d7a 28BF     		it	cs
 1675 0d7c 1626     		movcs	r6, #22
 1676 0d7e 0423     		movs	r3, #4
 1677 0d80 C6F13702 		rsb	r2, r6, #55
 1678 0d84 0193     		str	r3, [sp, #4]
 1679 0d86 0096     		str	r6, [sp]
 1680 0d88 D2B2     		uxtb	r2, r2
 1681 0d8a 4146     		mov	r1, r8
 1682 0d8c 1023     		movs	r3, #16
 1683 0d8e 2846     		mov	r0, r5
 1684 0d90 FFF7FEFF 		bl	uc1701_rect_fill
 1685 0d94 88E7     		b	.L167
 1686              	.L200:
 1687 0d96 5046     		mov	r0, r10
 1688 0d98 0021     		movs	r1, #0
 1689 0d9a FFF7FEFF 		bl	__aeabi_fcmplt
 1690 0d9e 50BB     		cbnz	r0, .L173
 1691 0da0 0022     		movs	r2, #0
 1692 0da2 394B     		ldr	r3, .L202+4
 1693 0da4 3046     		mov	r0, r6
 1694 0da6 3946     		mov	r1, r7
 1695 0da8 FFF7FEFF 		bl	__aeabi_dadd
 1696 0dac FFF7FEFF 		bl	floor
 1697              	.L191:
 1698 0db0 0246     		mov	r2, r0
 1699 0db2 0B46     		mov	r3, r1
 1700 0db4 0020     		movs	r0, #0
 1701 0db6 3749     		ldr	r1, .L202+16
 1702 0db8 FFF7FEFF 		bl	__aeabi_dsub
 1703 0dbc FFF7FEFF 		bl	__aeabi_d2uiz
 1704 0dc0 C2B2     		uxtb	r2, r0
 1705 0dc2 A3E7     		b	.L176
 1706              	.L195:
 1707 0dc4 2A23     		movs	r3, #42
 1708 0dc6 0022     		movs	r2, #0
 1709 0dc8 3921     		movs	r1, #57
 1710 0dca CDE90032 		strd	r3, r2, [sp]
 1711 0dce 2846     		mov	r0, r5
 1712 0dd0 1023     		movs	r3, #16
 1713 0dd2 0D22     		movs	r2, #13
 1714 0dd4 FFF7FEFF 		bl	uc1701_rect_fill
 1715 0dd8 61E7     		b	.L162
 1716              	.L199:
 1717 0dda 3046     		mov	r0, r6
 1718 0ddc 3946     		mov	r1, r7
 1719 0dde FFF7FEFF 		bl	__aeabi_dsub
 1720 0de2 FFF7FEFF 		bl	ceil
 1721 0de6 0022     		movs	r2, #0
 1722 0de8 0023     		movs	r3, #0
 1723 0dea 8046     		mov	r8, r0
 1724 0dec 8946     		mov	r9, r1
 1725 0dee FFF7FEFF 		bl	__aeabi_dcmpgt
 1726 0df2 0028     		cmp	r0, #0
 1727 0df4 81D1     		bne	.L174
 1728              	.L173:
 1729 0df6 0022     		movs	r2, #0
 1730 0df8 234B     		ldr	r3, .L202+4
 1731 0dfa 3046     		mov	r0, r6
 1732 0dfc 3946     		mov	r1, r7
 1733 0dfe FFF7FEFF 		bl	__aeabi_dsub
 1734 0e02 FFF7FEFF 		bl	ceil
 1735 0e06 D3E7     		b	.L191
 1736              	.L194:
 1737 0e08 2A23     		movs	r3, #42
 1738 0e0a 0022     		movs	r2, #0
 1739 0e0c 1E21     		movs	r1, #30
 1740 0e0e CDE90032 		strd	r3, r2, [sp]
 1741 0e12 2846     		mov	r0, r5
 1742 0e14 1023     		movs	r3, #16
 1743 0e16 0D22     		movs	r2, #13
 1744 0e18 FFF7FEFF 		bl	uc1701_rect_fill
 1745 0e1c 3FE7     		b	.L162
 1746              	.L196:
 1747 0e1e 2A23     		movs	r3, #42
 1748 0e20 0022     		movs	r2, #0
 1749 0e22 5321     		movs	r1, #83
 1750 0e24 CDE90032 		strd	r3, r2, [sp]
 1751 0e28 2846     		mov	r0, r5
 1752 0e2a 1023     		movs	r3, #16
 1753 0e2c 0D22     		movs	r2, #13
 1754 0e2e FFF7FEFF 		bl	uc1701_rect_fill
 1755 0e32 34E7     		b	.L162
 1756              	.L198:
 1757 0e34 04AB     		add	r3, sp, #16
 1758 0e36 2344     		add	r3, r3, r4
 1759 0e38 13F8048C 		ldrb	r8, [r3, #-4]	@ zero_extendqisi2
 1760 0e3c 9CE7     		b	.L166
 1761              	.L201:
 1762 0e3e 3046     		mov	r0, r6
 1763 0e40 1349     		ldr	r1, .L202+12
 1764 0e42 FFF7FEFF 		bl	__aeabi_fadd
 1765 0e46 1149     		ldr	r1, .L202+8
 1766 0e48 FFF7FEFF 		bl	__aeabi_fmul
 1767 0e4c 1049     		ldr	r1, .L202+12
 1768 0e4e FFF7FEFF 		bl	__aeabi_fdiv
 1769 0e52 0646     		mov	r6, r0
 1770 0e54 FFF7FEFF 		bl	__aeabi_f2d
 1771 0e58 8046     		mov	r8, r0
 1772 0e5a 8946     		mov	r9, r1
 1773 0e5c 3046     		mov	r0, r6
 1774 0e5e 0021     		movs	r1, #0
 1775 0e60 FFF7FEFF 		bl	__aeabi_fcmplt
 1776 0e64 0028     		cmp	r0, #0
 1777 0e66 3FF404AF 		beq	.L158
 1778 0e6a 0022     		movs	r2, #0
 1779 0e6c 064B     		ldr	r3, .L202+4
 1780 0e6e 4046     		mov	r0, r8
 1781 0e70 4946     		mov	r1, r9
 1782 0e72 FFF7FEFF 		bl	__aeabi_dsub
 1783 0e76 FFF7FEFF 		bl	ceil
 1784 0e7a FFF7FEFF 		bl	__aeabi_d2uiz
 1785 0e7e C6B2     		uxtb	r6, r0
 1786 0e80 02E7     		b	.L160
 1787              	.L203:
 1788 0e82 00BF     		.align	2
 1789              	.L202:
 1790 0e84 041E3953 		.word	1396252164
 1791 0e88 0000E03F 		.word	1071644672
 1792 0e8c 00002842 		.word	1109917696
 1793 0e90 0000F041 		.word	1106247680
 1794 0e94 00002A40 		.word	1076494336
 1795 0e98 0000F0C1 		.word	-1041235968
 1796 0e9c 00004540 		.word	1078263808
 1798              		.align	1
 1799              		.p2align 2,,3
 1800              		.global	widget_tuner
 1801              		.syntax unified
 1802              		.thumb
 1803              		.thumb_func
 1804              		.fpu softvfp
 1806              	widget_tuner:
 1807              		@ args = 0, pretend = 0, frame = 128
 1808              		@ frame_needed = 0, uses_anonymous_args = 0
 1809 0ea0 2DE9F04F 		push	{r4, r5, r6, r7, r8, r9, r10, fp, lr}
 1810 0ea4 0025     		movs	r5, #0
 1811 0ea6 0924     		movs	r4, #9
 1812 0ea8 0646     		mov	r6, r0
 1813 0eaa 4FF00208 		mov	r8, #2
 1814 0eae A3B0     		sub	sp, sp, #140
 1815 0eb0 0F46     		mov	r7, r1
 1816 0eb2 2A46     		mov	r2, r5
 1817 0eb4 2946     		mov	r1, r5
 1818 0eb6 0094     		str	r4, [sp]
 1819 0eb8 8023     		movs	r3, #128
 1820 0eba 0195     		str	r5, [sp, #4]
 1821 0ebc FFF7FEFF 		bl	uc1701_rect_fill
 1822 0ec0 2246     		mov	r2, r4
 1823 0ec2 2946     		mov	r1, r5
 1824 0ec4 3046     		mov	r0, r6
 1825 0ec6 CDF80080 		str	r8, [sp]
 1826 0eca 8023     		movs	r3, #128
 1827 0ecc FFF7FEFF 		bl	uc1701_hline
 1828 0ed0 4FF00109 		mov	r9, #1
 1829 0ed4 0322     		movs	r2, #3
 1830 0ed6 8D4C     		ldr	r4, .L221
 1831 0ed8 8D4B     		ldr	r3, .L221+4
 1832 0eda 3046     		mov	r0, r6
 1833 0edc 0AA9     		add	r1, sp, #40
 1834 0ede CDE90C34 		strd	r3, r4, [sp, #48]
 1835 0ee2 8DF82D20 		strb	r2, [sp, #45]
 1836 0ee6 8DF82C90 		strb	r9, [sp, #44]
 1837 0eea 8DF83C50 		strb	r5, [sp, #60]
 1838 0eee 0E95     		str	r5, [sp, #56]
 1839 0ef0 0A95     		str	r5, [sp, #40]
 1840 0ef2 FFF7FEFF 		bl	widget_textbox
 1841 0ef6 0C23     		movs	r3, #12
 1842 0ef8 0DF1080B 		add	fp, sp, #8
 1843 0efc 2946     		mov	r1, r5
 1844 0efe 3046     		mov	r0, r6
 1845 0f00 0093     		str	r3, [sp]
 1846 0f02 3322     		movs	r2, #51
 1847 0f04 8023     		movs	r3, #128
 1848 0f06 0195     		str	r5, [sp, #4]
 1849 0f08 FFF7FEFF 		bl	uc1701_rect_fill
 1850 0f0c 4346     		mov	r3, r8
 1851 0f0e 5946     		mov	r1, fp
 1852 0f10 1022     		movs	r2, #16
 1853 0f12 3868     		ldr	r0, [r7]	@ float
 1854 0f14 FFF7FEFF 		bl	float_to_str
 1855 0f18 4FF0480E 		mov	lr, #72
 1856 0f1c 7A21     		movs	r1, #122
 1857 0f1e 4FF0330A 		mov	r10, #51
 1858 0f22 4FF00A0C 		mov	ip, #10
 1859 0f26 4FF08072 		mov	r2, #16777216
 1860 0f2a C0B2     		uxtb	r0, r0
 1861 0f2c 00EB0903 		add	r3, r0, r9
 1862 0f30 04F5C278 		add	r8, r4, #388
 1863 0f34 DBB2     		uxtb	r3, r3
 1864 0f36 22AC     		add	r4, sp, #136
 1865 0f38 1C44     		add	r4, r4, r3
 1866 0f3a CDF848B0 		str	fp, [sp, #72]
 1867 0f3e 831C     		adds	r3, r0, #2
 1868 0f40 0DF1880B 		add	fp, sp, #136
 1869 0f44 5844     		add	r0, r0, fp
 1870 0f46 DBB2     		uxtb	r3, r3
 1871 0f48 00F880EC 		strb	lr, [r0, #-128]
 1872 0f4c 5B44     		add	r3, r3, fp
 1873 0f4e 04F8801C 		strb	r1, [r4, #-128]
 1874 0f52 3046     		mov	r0, r6
 1875 0f54 10A9     		add	r1, sp, #64
 1876 0f56 CDF84C80 		str	r8, [sp, #76]
 1877 0f5a 8DF84490 		strb	r9, [sp, #68]
 1878 0f5e 8DF845C0 		strb	ip, [sp, #69]
 1879 0f62 03F8805C 		strb	r5, [r3, #-128]
 1880 0f66 8DF841A0 		strb	r10, [sp, #65]
 1881 0f6a 1492     		str	r2, [sp, #80]
 1882 0f6c 8DF85450 		strb	r5, [sp, #84]
 1883 0f70 8DF84350 		strb	r5, [sp, #67]
 1884 0f74 8DF84250 		strb	r5, [sp, #66]
 1885 0f78 FFF7FEFF 		bl	widget_textbox
 1886 0f7c 4FF48032 		mov	r2, #65536
 1887 0f80 42F2540E 		movw	lr, #8276
 1888 0f84 4FF00B0C 		mov	ip, #11
 1889 0f88 4C46     		mov	r4, r9
 1890 0f8a 7B7A     		ldrb	r3, [r7, #9]	@ zero_extendqisi2
 1891 0f8c CDF86480 		str	r8, [sp, #100]
 1892 0f90 DFF88881 		ldr	r8, .L221+16
 1893 0f94 3033     		adds	r3, r3, #48
 1894 0f96 8DF85C90 		strb	r9, [sp, #92]
 1895 0f9a 3046     		mov	r0, r6
 1896 0f9c 0DF11809 		add	r9, sp, #24
 1897 0fa0 16A9     		add	r1, sp, #88
 1898 0fa2 8DF859A0 		strb	r10, [sp, #89]
 1899 0fa6 8DF81E30 		strb	r3, [sp, #30]
 1900 0faa 1A92     		str	r2, [sp, #104]
 1901 0fac CDF81880 		str	r8, [sp, #24]
 1902 0fb0 CDF86090 		str	r9, [sp, #96]
 1903 0fb4 8DF81F50 		strb	r5, [sp, #31]
 1904 0fb8 8DF86C50 		strb	r5, [sp, #108]
 1905 0fbc 8DF85B50 		strb	r5, [sp, #91]
 1906 0fc0 8DF85A50 		strb	r5, [sp, #90]
 1907 0fc4 ADF81CE0 		strh	lr, [sp, #28]	@ movhi
 1908 0fc8 8DF85DC0 		strb	ip, [sp, #93]
 1909 0fcc FFF7FEFF 		bl	widget_textbox
 1910 0fd0 97F90830 		ldrsb	r3, [r7, #8]
 1911 0fd4 4F4A     		ldr	r2, .L221+8
 1912 0fd6 83EAE378 		eor	r8, r3, r3, asr #31
 1913 0fda A8EBE378 		sub	r8, r8, r3, asr #31
 1914 0fde 08F10508 		add	r8, r8, #5
 1915 0fe2 A2FB0828 		umull	r2, r8, r2, r8
 1916 0fe6 002B     		cmp	r3, #0
 1917 0fe8 4FEAD808 		lsr	r8, r8, #3
 1918 0fec A346     		mov	fp, r4
 1919 0fee 4FF0150A 		mov	r10, #21
 1920 0ff2 5FFA88F9 		uxtb	r9, r8
 1921 0ff6 C8F10502 		rsb	r2, r8, #5
 1922 0ffa 01DA     		bge	.L205
 1923 0ffc AA42     		cmp	r2, r5
 1924 0ffe 1EDD     		ble	.L218
 1925              	.L205:
 1926 1000 0023     		movs	r3, #0
 1927 1002 CDE900A3 		strd	r10, r3, [sp]
 1928              	.L216:
 1929 1006 2146     		mov	r1, r4
 1930 1008 0423     		movs	r3, #4
 1931 100a 1522     		movs	r2, #21
 1932 100c 3046     		mov	r0, r6
 1933 100e FFF7FEFF 		bl	uc1701_rect_fill
 1934 1012 2146     		mov	r1, r4
 1935 1014 0734     		adds	r4, r4, #7
 1936 1016 CDE900AB 		strd	r10, fp, [sp]
 1937 101a 0423     		movs	r3, #4
 1938 101c 1522     		movs	r2, #21
 1939 101e 3046     		mov	r0, r6
 1940 1020 E4B2     		uxtb	r4, r4
 1941 1022 FFF7FEFF 		bl	uc1701_rect
 1942 1026 242C     		cmp	r4, #36
 1943 1028 05F10105 		add	r5, r5, #1
 1944 102c 0AD0     		beq	.L213
 1945 102e 97F90830 		ldrsb	r3, [r7, #8]
 1946 1032 C8F10502 		rsb	r2, r8, #5
 1947 1036 002B     		cmp	r3, #0
 1948 1038 E2DA     		bge	.L205
 1949 103a AA42     		cmp	r2, r5
 1950 103c E0DC     		bgt	.L205
 1951              	.L218:
 1952 103e CDE900AB 		strd	r10, fp, [sp]
 1953 1042 E0E7     		b	.L216
 1954              	.L213:
 1955 1044 0025     		movs	r5, #0
 1956 1046 5F24     		movs	r4, #95
 1957 1048 4FF0150A 		mov	r10, #21
 1958 104c 4FF0010B 		mov	fp, #1
 1959              	.L207:
 1960 1050 97F90830 		ldrsb	r3, [r7, #8]
 1961 1054 EAB2     		uxtb	r2, r5
 1962 1056 002B     		cmp	r3, #0
 1963 1058 01DD     		ble	.L209
 1964 105a 9145     		cmp	r9, r2
 1965 105c 49D8     		bhi	.L219
 1966              	.L209:
 1967 105e 0023     		movs	r3, #0
 1968 1060 CDE900A3 		strd	r10, r3, [sp]
 1969              	.L217:
 1970 1064 2146     		mov	r1, r4
 1971 1066 0423     		movs	r3, #4
 1972 1068 1522     		movs	r2, #21
 1973 106a 3046     		mov	r0, r6
 1974 106c FFF7FEFF 		bl	uc1701_rect_fill
 1975 1070 2146     		mov	r1, r4
 1976 1072 0734     		adds	r4, r4, #7
 1977 1074 CDE900AB 		strd	r10, fp, [sp]
 1978 1078 0423     		movs	r3, #4
 1979 107a 1522     		movs	r2, #21
 1980 107c 3046     		mov	r0, r6
 1981 107e E4B2     		uxtb	r4, r4
 1982 1080 FFF7FEFF 		bl	uc1701_rect
 1983 1084 822C     		cmp	r4, #130
 1984 1086 05F10105 		add	r5, r5, #1
 1985 108a E1D1     		bne	.L207
 1986 108c 0024     		movs	r4, #0
 1987 108e 1D25     		movs	r5, #29
 1988 1090 3823     		movs	r3, #56
 1989 1092 1122     		movs	r2, #17
 1990 1094 2421     		movs	r1, #36
 1991 1096 3046     		mov	r0, r6
 1992 1098 CDE90054 		strd	r5, r4, [sp]
 1993 109c FFF7FEFF 		bl	uc1701_rect_fill
 1994 10a0 4FF00C09 		mov	r9, #12
 1995 10a4 4FF40072 		mov	r2, #512
 1996 10a8 4FF0120C 		mov	ip, #18
 1997 10ac 7F68     		ldr	r7, [r7, #4]
 1998 10ae 1A4B     		ldr	r3, .L221+12
 1999 10b0 1CA9     		add	r1, sp, #112
 2000 10b2 3046     		mov	r0, r6
 2001 10b4 8DF88440 		strb	r4, [sp, #132]
 2002 10b8 8DF87340 		strb	r4, [sp, #115]
 2003 10bc 8DF87240 		strb	r4, [sp, #114]
 2004 10c0 1E97     		str	r7, [sp, #120]
 2005 10c2 8DF874B0 		strb	fp, [sp, #116]
 2006 10c6 8DF87590 		strb	r9, [sp, #117]
 2007 10ca 2092     		str	r2, [sp, #128]
 2008 10cc 8DF871C0 		strb	ip, [sp, #113]
 2009 10d0 1F93     		str	r3, [sp, #124]
 2010 10d2 FFF7FEFF 		bl	widget_textbox
 2011 10d6 B8F1000F 		cmp	r8, #0
 2012 10da 0DD0     		beq	.L220
 2013 10dc CDE9005B 		strd	r5, fp, [sp]
 2014 10e0 3046     		mov	r0, r6
 2015 10e2 3823     		movs	r3, #56
 2016 10e4 1122     		movs	r2, #17
 2017 10e6 2421     		movs	r1, #36
 2018 10e8 FFF7FEFF 		bl	uc1701_rect
 2019 10ec 23B0     		add	sp, sp, #140
 2020              		@ sp needed
 2021 10ee BDE8F08F 		pop	{r4, r5, r6, r7, r8, r9, r10, fp, pc}
 2022              	.L219:
 2023 10f2 CDE900AB 		strd	r10, fp, [sp]
 2024 10f6 B5E7     		b	.L217
 2025              	.L220:
 2026 10f8 0095     		str	r5, [sp]
 2027 10fa 3046     		mov	r0, r6
 2028 10fc 3823     		movs	r3, #56
 2029 10fe 1122     		movs	r2, #17
 2030 1100 2421     		movs	r1, #36
 2031 1102 FFF7FEFF 		bl	uc1701_rect_invert
 2032 1106 23B0     		add	sp, sp, #140
 2033              		@ sp needed
 2034 1108 BDE8F08F 		pop	{r4, r5, r6, r7, r8, r9, r10, fp, pc}
 2035              	.L222:
 2036              		.align	2
 2037              	.L221:
 2038 110c 00000000 		.word	.LANCHOR0
 2039 1110 00000000 		.word	.LC1
 2040 1114 CDCCCCCC 		.word	-858993459
 2041 1118 F4050000 		.word	.LANCHOR0+1524
 2042 111c 494E5055 		.word	1431326281
 2044              		.align	1
 2045              		.p2align 2,,3
 2046              		.global	widget_popup
 2047              		.syntax unified
 2048              		.thumb
 2049              		.thumb_func
 2050              		.fpu softvfp
 2052              	widget_popup:
 2053              		@ args = 0, pretend = 0, frame = 48
 2054              		@ frame_needed = 0, uses_anonymous_args = 0
 2055 1120 2DE9F04F 		push	{r4, r5, r6, r7, r8, r9, r10, fp, lr}
 2056 1124 0C46     		mov	r4, r1
 2057 1126 0027     		movs	r7, #0
 2058 1128 0126     		movs	r6, #1
 2059 112a 0546     		mov	r5, r0
 2060 112c 94F803C0 		ldrb	ip, [r4, #3]	@ zero_extendqisi2
 2061 1130 8FB0     		sub	sp, sp, #60
 2062 1132 8B78     		ldrb	r3, [r1, #2]	@ zero_extendqisi2
 2063 1134 4A78     		ldrb	r2, [r1, #1]	@ zero_extendqisi2
 2064 1136 0978     		ldrb	r1, [r1]	@ zero_extendqisi2
 2065 1138 CDE900C7 		strd	ip, r7, [sp]
 2066 113c FFF7FEFF 		bl	uc1701_rect_fill
 2067 1140 E078     		ldrb	r0, [r4, #3]	@ zero_extendqisi2
 2068 1142 A378     		ldrb	r3, [r4, #2]	@ zero_extendqisi2
 2069 1144 6278     		ldrb	r2, [r4, #1]	@ zero_extendqisi2
 2070 1146 2178     		ldrb	r1, [r4]	@ zero_extendqisi2
 2071 1148 0090     		str	r0, [sp]
 2072 114a 0196     		str	r6, [sp, #4]
 2073 114c 2846     		mov	r0, r5
 2074 114e FFF7FEFF 		bl	uc1701_rect
 2075 1152 D4E90123 		ldrd	r2, r3, [r4, #4]
 2076 1156 4FF0030E 		mov	lr, #3
 2077 115a 4FF4B06C 		mov	ip, #1408
 2078 115e 2846     		mov	r0, r5
 2079 1160 02A9     		add	r1, sp, #8
 2080 1162 CDE90432 		strd	r3, r2, [sp, #16]
 2081 1166 8DF80DE0 		strb	lr, [sp, #13]
 2082 116a 8DF81C70 		strb	r7, [sp, #28]
 2083 116e 0696     		str	r6, [sp, #24]
 2084 1170 8DF80C60 		strb	r6, [sp, #12]
 2085 1174 ADF80AC0 		strh	ip, [sp, #10]	@ movhi
 2086 1178 FFF7FEFF 		bl	widget_textbox
 2087 117c 4FF0060C 		mov	ip, #6
 2088 1180 A378     		ldrb	r3, [r4, #2]	@ zero_extendqisi2
 2089 1182 6278     		ldrb	r2, [r4, #1]	@ zero_extendqisi2
 2090 1184 2178     		ldrb	r1, [r4]	@ zero_extendqisi2
 2091 1186 3244     		add	r2, r2, r6
 2092 1188 3144     		add	r1, r1, r6
 2093 118a 023B     		subs	r3, r3, #2
 2094 118c DBB2     		uxtb	r3, r3
 2095 118e D2B2     		uxtb	r2, r2
 2096 1190 C9B2     		uxtb	r1, r1
 2097 1192 2846     		mov	r0, r5
 2098 1194 CDF800C0 		str	ip, [sp]
 2099 1198 FFF7FEFF 		bl	uc1701_rect_invert
 2100 119c 0922     		movs	r2, #9
 2101 119e 6368     		ldr	r3, [r4, #4]
 2102 11a0 0C97     		str	r7, [sp, #48]
 2103 11a2 8DF82460 		strb	r6, [sp, #36]
 2104 11a6 8DF83460 		strb	r6, [sp, #52]
 2105 11aa 8DF82520 		strb	r2, [sp, #37]
 2106 11ae 0B93     		str	r3, [sp, #44]
 2107 11b0 DB78     		ldrb	r3, [r3, #3]	@ zero_extendqisi2
 2108 11b2 6178     		ldrb	r1, [r4, #1]	@ zero_extendqisi2
 2109 11b4 2778     		ldrb	r7, [r4]	@ zero_extendqisi2
 2110 11b6 A278     		ldrb	r2, [r4, #2]	@ zero_extendqisi2
 2111 11b8 03EB060C 		add	ip, r3, r6
 2112 11bc 0331     		adds	r1, r1, #3
 2113 11be E668     		ldr	r6, [r4, #12]
 2114 11c0 0B44     		add	r3, r3, r1
 2115 11c2 043A     		subs	r2, r2, #4
 2116 11c4 4FEACC0C 		lsl	ip, ip, #3
 2117 11c8 0237     		adds	r7, r7, #2
 2118 11ca 2846     		mov	r0, r5
 2119 11cc 08A9     		add	r1, sp, #32
 2120 11ce 8DF82220 		strb	r2, [sp, #34]
 2121 11d2 8DF823C0 		strb	ip, [sp, #35]
 2122 11d6 8DF82130 		strb	r3, [sp, #33]
 2123 11da 8DF82070 		strb	r7, [sp, #32]
 2124 11de 0A96     		str	r6, [sp, #40]
 2125 11e0 FFF7FEFF 		bl	widget_textbox
 2126 11e4 227C     		ldrb	r2, [r4, #16]	@ zero_extendqisi2
 2127 11e6 032A     		cmp	r2, #3
 2128 11e8 76D8     		bhi	.L224
 2129 11ea DFE802F0 		tbb	[pc, r2]
 2130              	.L226:
 2131 11ee 80       		.byte	(.L225-.L226)/2
 2132 11ef 02       		.byte	(.L227-.L226)/2
 2133 11f0 80       		.byte	(.L225-.L226)/2
 2134 11f1 02       		.byte	(.L227-.L226)/2
 2135              		.p2align 1
 2136              	.L227:
 2137 11f2 654B     		ldr	r3, .L239
 2138 11f4 6549     		ldr	r1, .L239+4
 2139 11f6 D4F80490 		ldr	r9, [r4, #4]
 2140 11fa 012A     		cmp	r2, #1
 2141 11fc 0CBF     		ite	eq
 2142 11fe 8B46     		moveq	fp, r1
 2143 1200 9B46     		movne	fp, r3
 2144 1202 4946     		mov	r1, r9
 2145 1204 5846     		mov	r0, fp
 2146 1206 FEF7FBFE 		bl	get_text_width
 2147 120a 8246     		mov	r10, r0
 2148 120c 0120     		movs	r0, #1
 2149 120e A178     		ldrb	r1, [r4, #2]	@ zero_extendqisi2
 2150 1210 2678     		ldrb	r6, [r4]	@ zero_extendqisi2
 2151 1212 99F80380 		ldrb	r8, [r9, #3]	@ zero_extendqisi2
 2152 1216 E278     		ldrb	r2, [r4, #3]	@ zero_extendqisi2
 2153 1218 6778     		ldrb	r7, [r4, #1]	@ zero_extendqisi2
 2154 121a 06EB9106 		add	r6, r6, r1, lsr #2
 2155 121e 0AF10801 		add	r1, r10, #8
 2156 1222 C1F34601 		ubfx	r1, r1, #1, #7
 2157 1226 08F10208 		add	r8, r8, #2
 2158 122a 1744     		add	r7, r7, r2
 2159 122c 761A     		subs	r6, r6, r1
 2160 122e 5FFA88F8 		uxtb	r8, r8
 2161 1232 A7EB0807 		sub	r7, r7, r8
 2162 1236 F6B2     		uxtb	r6, r6
 2163 1238 FFB2     		uxtb	r7, r7
 2164 123a 311D     		adds	r1, r6, #4
 2165 123c 5B46     		mov	r3, fp
 2166 123e 0190     		str	r0, [sp, #4]
 2167 1240 CDF80090 		str	r9, [sp]
 2168 1244 3A46     		mov	r2, r7
 2169 1246 C9B2     		uxtb	r1, r1
 2170 1248 2846     		mov	r0, r5
 2171 124a FFF7FEFF 		bl	uc1701_text
 2172 124e 637C     		ldrb	r3, [r4, #17]	@ zero_extendqisi2
 2173 1250 002B     		cmp	r3, #0
 2174 1252 00F08C80 		beq	.L238
 2175              	.L231:
 2176 1256 94F810B0 		ldrb	fp, [r4, #16]	@ zero_extendqisi2
 2177 125a 4D4A     		ldr	r2, .L239+8
 2178 125c 4D4B     		ldr	r3, .L239+12
 2179 125e D4F804A0 		ldr	r10, [r4, #4]
 2180 1262 BBF1010F 		cmp	fp, #1
 2181 1266 0CBF     		ite	eq
 2182 1268 9346     		moveq	fp, r2
 2183 126a 9B46     		movne	fp, r3
 2184 126c 5146     		mov	r1, r10
 2185 126e 5846     		mov	r0, fp
 2186 1270 FEF7C6FE 		bl	get_text_width
 2187 1274 8146     		mov	r9, r0
 2188 1276 0120     		movs	r0, #1
 2189 1278 A178     		ldrb	r1, [r4, #2]	@ zero_extendqisi2
 2190 127a 2678     		ldrb	r6, [r4]	@ zero_extendqisi2
 2191 127c 9AF80380 		ldrb	r8, [r10, #3]	@ zero_extendqisi2
 2192 1280 0E44     		add	r6, r6, r1
 2193 1282 E278     		ldrb	r2, [r4, #3]	@ zero_extendqisi2
 2194 1284 6778     		ldrb	r7, [r4, #1]	@ zero_extendqisi2
 2195 1286 A6EB9106 		sub	r6, r6, r1, lsr #2
 2196 128a 09F10801 		add	r1, r9, #8
 2197 128e C1F34601 		ubfx	r1, r1, #1, #7
 2198 1292 08F10208 		add	r8, r8, #2
 2199 1296 1744     		add	r7, r7, r2
 2200 1298 761A     		subs	r6, r6, r1
 2201 129a 5FFA88F8 		uxtb	r8, r8
 2202 129e A7EB0807 		sub	r7, r7, r8
 2203 12a2 F6B2     		uxtb	r6, r6
 2204 12a4 FFB2     		uxtb	r7, r7
 2205 12a6 311D     		adds	r1, r6, #4
 2206 12a8 5B46     		mov	r3, fp
 2207 12aa 0190     		str	r0, [sp, #4]
 2208 12ac CDF800A0 		str	r10, [sp]
 2209 12b0 3A46     		mov	r2, r7
 2210 12b2 C9B2     		uxtb	r1, r1
 2211 12b4 2846     		mov	r0, r5
 2212 12b6 FFF7FEFF 		bl	uc1701_text
 2213 12ba 637C     		ldrb	r3, [r4, #17]	@ zero_extendqisi2
 2214 12bc 012B     		cmp	r3, #1
 2215 12be 0BD1     		bne	.L224
 2216 12c0 09F10603 		add	r3, r9, #6
 2217 12c4 7A1E     		subs	r2, r7, #1
 2218 12c6 711C     		adds	r1, r6, #1
 2219 12c8 DBB2     		uxtb	r3, r3
 2220 12ca D2B2     		uxtb	r2, r2
 2221 12cc C9B2     		uxtb	r1, r1
 2222 12ce CDF80080 		str	r8, [sp]
 2223 12d2 2846     		mov	r0, r5
 2224 12d4 FFF7FEFF 		bl	uc1701_rect_invert
 2225              	.L224:
 2226 12d8 0123     		movs	r3, #1
 2227 12da 2846     		mov	r0, r5
 2228 12dc 0093     		str	r3, [sp]
 2229 12de 3F22     		movs	r2, #63
 2230 12e0 8023     		movs	r3, #128
 2231 12e2 0021     		movs	r1, #0
 2232 12e4 FFF7FEFF 		bl	uc1701_hline
 2233 12e8 0FB0     		add	sp, sp, #60
 2234              		@ sp needed
 2235 12ea BDE8F08F 		pop	{r4, r5, r6, r7, r8, r9, r10, fp, pc}
 2236              	.L225:
 2237 12ee 274B     		ldr	r3, .L239+4
 2238 12f0 274E     		ldr	r6, .L239+8
 2239 12f2 D4F804A0 		ldr	r10, [r4, #4]
 2240 12f6 002A     		cmp	r2, #0
 2241 12f8 08BF     		it	eq
 2242 12fa 1E46     		moveq	r6, r3
 2243 12fc 5146     		mov	r1, r10
 2244 12fe 3046     		mov	r0, r6
 2245 1300 FEF77EFE 		bl	get_text_width
 2246 1304 8346     		mov	fp, r0
 2247 1306 0120     		movs	r0, #1
 2248 1308 A178     		ldrb	r1, [r4, #2]	@ zero_extendqisi2
 2249 130a 2778     		ldrb	r7, [r4]	@ zero_extendqisi2
 2250 130c 9AF80390 		ldrb	r9, [r10, #3]	@ zero_extendqisi2
 2251 1310 E278     		ldrb	r2, [r4, #3]	@ zero_extendqisi2
 2252 1312 94F80180 		ldrb	r8, [r4, #1]	@ zero_extendqisi2
 2253 1316 07EB5107 		add	r7, r7, r1, lsr #1
 2254 131a 0BF10801 		add	r1, fp, #8
 2255 131e C1F34601 		ubfx	r1, r1, #1, #7
 2256 1322 09F10209 		add	r9, r9, #2
 2257 1326 9044     		add	r8, r8, r2
 2258 1328 7F1A     		subs	r7, r7, r1
 2259 132a 5FFA89F9 		uxtb	r9, r9
 2260 132e A8EB0908 		sub	r8, r8, r9
 2261 1332 FFB2     		uxtb	r7, r7
 2262 1334 5FFA88F8 		uxtb	r8, r8
 2263 1338 391D     		adds	r1, r7, #4
 2264 133a 3346     		mov	r3, r6
 2265 133c 0190     		str	r0, [sp, #4]
 2266 133e CDF800A0 		str	r10, [sp]
 2267 1342 4246     		mov	r2, r8
 2268 1344 C9B2     		uxtb	r1, r1
 2269 1346 2846     		mov	r0, r5
 2270 1348 FFF7FEFF 		bl	uc1701_text
 2271 134c 637C     		ldrb	r3, [r4, #17]	@ zero_extendqisi2
 2272 134e 002B     		cmp	r3, #0
 2273 1350 C2D1     		bne	.L224
 2274 1352 0BF10603 		add	r3, fp, #6
 2275 1356 08F1FF32 		add	r2, r8, #-1
 2276 135a 791C     		adds	r1, r7, #1
 2277 135c DBB2     		uxtb	r3, r3
 2278 135e D2B2     		uxtb	r2, r2
 2279 1360 C9B2     		uxtb	r1, r1
 2280 1362 CDF80090 		str	r9, [sp]
 2281 1366 2846     		mov	r0, r5
 2282 1368 FFF7FEFF 		bl	uc1701_rect_invert
 2283 136c B4E7     		b	.L224
 2284              	.L238:
 2285 136e 0AF10603 		add	r3, r10, #6
 2286 1372 7A1E     		subs	r2, r7, #1
 2287 1374 711C     		adds	r1, r6, #1
 2288 1376 DBB2     		uxtb	r3, r3
 2289 1378 D2B2     		uxtb	r2, r2
 2290 137a C9B2     		uxtb	r1, r1
 2291 137c CDF80080 		str	r8, [sp]
 2292 1380 2846     		mov	r0, r5
 2293 1382 FFF7FEFF 		bl	uc1701_rect_invert
 2294 1386 66E7     		b	.L231
 2295              	.L240:
 2296              		.align	2
 2297              	.L239:
 2298 1388 14000000 		.word	.LC4
 2299 138c 08000000 		.word	.LC2
 2300 1390 0C000000 		.word	.LC3
 2301 1394 18000000 		.word	.LC5
 2303              		.section	.rodata
 2304              		.align	2
 2305              		.set	.LANCHOR0,. + 0
 2308              	SMfont:
 2309 0000 B8       		.byte	-72
 2310 0001 01       		.byte	1
 2311 0002 03       		.byte	3
 2312 0003 05       		.byte	5
 2313 0004 20       		.byte	32
 2314 0005 5F       		.byte	95
 2315 0006 03       		.byte	3
 2316 0007 03       		.byte	3
 2317 0008 03       		.byte	3
 2318 0009 03       		.byte	3
 2319 000a 03       		.byte	3
 2320 000b 03       		.byte	3
 2321 000c 03       		.byte	3
 2322 000d 03       		.byte	3
 2323 000e 03       		.byte	3
 2324 000f 03       		.byte	3
 2325 0010 03       		.byte	3
 2326 0011 03       		.byte	3
 2327 0012 03       		.byte	3
 2328 0013 03       		.byte	3
 2329 0014 03       		.byte	3
 2330 0015 03       		.byte	3
 2331 0016 03       		.byte	3
 2332 0017 03       		.byte	3
 2333 0018 03       		.byte	3
 2334 0019 03       		.byte	3
 2335 001a 03       		.byte	3
 2336 001b 03       		.byte	3
 2337 001c 03       		.byte	3
 2338 001d 03       		.byte	3
 2339 001e 03       		.byte	3
 2340 001f 03       		.byte	3
 2341 0020 03       		.byte	3
 2342 0021 03       		.byte	3
 2343 0022 03       		.byte	3
 2344 0023 03       		.byte	3
 2345 0024 03       		.byte	3
 2346 0025 03       		.byte	3
 2347 0026 03       		.byte	3
 2348 0027 03       		.byte	3
 2349 0028 03       		.byte	3
 2350 0029 03       		.byte	3
 2351 002a 03       		.byte	3
 2352 002b 03       		.byte	3
 2353 002c 03       		.byte	3
 2354 002d 03       		.byte	3
 2355 002e 03       		.byte	3
 2356 002f 03       		.byte	3
 2357 0030 03       		.byte	3
 2358 0031 03       		.byte	3
 2359 0032 03       		.byte	3
 2360 0033 03       		.byte	3
 2361 0034 03       		.byte	3
 2362 0035 03       		.byte	3
 2363 0036 03       		.byte	3
 2364 0037 03       		.byte	3
 2365 0038 03       		.byte	3
 2366 0039 03       		.byte	3
 2367 003a 03       		.byte	3
 2368 003b 03       		.byte	3
 2369 003c 03       		.byte	3
 2370 003d 03       		.byte	3
 2371 003e 03       		.byte	3
 2372 003f 03       		.byte	3
 2373 0040 03       		.byte	3
 2374 0041 03       		.byte	3
 2375 0042 03       		.byte	3
 2376 0043 03       		.byte	3
 2377 0044 03       		.byte	3
 2378 0045 03       		.byte	3
 2379 0046 03       		.byte	3
 2380 0047 03       		.byte	3
 2381 0048 03       		.byte	3
 2382 0049 03       		.byte	3
 2383 004a 03       		.byte	3
 2384 004b 03       		.byte	3
 2385 004c 03       		.byte	3
 2386 004d 03       		.byte	3
 2387 004e 03       		.byte	3
 2388 004f 03       		.byte	3
 2389 0050 03       		.byte	3
 2390 0051 03       		.byte	3
 2391 0052 03       		.byte	3
 2392 0053 03       		.byte	3
 2393 0054 03       		.byte	3
 2394 0055 03       		.byte	3
 2395 0056 03       		.byte	3
 2396 0057 03       		.byte	3
 2397 0058 03       		.byte	3
 2398 0059 03       		.byte	3
 2399 005a 03       		.byte	3
 2400 005b 03       		.byte	3
 2401 005c 03       		.byte	3
 2402 005d 03       		.byte	3
 2403 005e 03       		.byte	3
 2404 005f 03       		.byte	3
 2405 0060 03       		.byte	3
 2406 0061 03       		.byte	3
 2407 0062 03       		.byte	3
 2408 0063 03       		.byte	3
 2409 0064 03       		.byte	3
 2410 0065 00       		.byte	0
 2411 0066 00       		.byte	0
 2412 0067 00       		.byte	0
 2413 0068 00       		.byte	0
 2414 0069 17       		.byte	23
 2415 006a 00       		.byte	0
 2416 006b 01       		.byte	1
 2417 006c 00       		.byte	0
 2418 006d 01       		.byte	1
 2419 006e 1F       		.byte	31
 2420 006f 0A       		.byte	10
 2421 0070 1F       		.byte	31
 2422 0071 0A       		.byte	10
 2423 0072 1F       		.byte	31
 2424 0073 05       		.byte	5
 2425 0074 09       		.byte	9
 2426 0075 04       		.byte	4
 2427 0076 12       		.byte	18
 2428 0077 0A       		.byte	10
 2429 0078 15       		.byte	21
 2430 0079 1A       		.byte	26
 2431 007a 03       		.byte	3
 2432 007b 00       		.byte	0
 2433 007c 00       		.byte	0
 2434 007d 0E       		.byte	14
 2435 007e 11       		.byte	17
 2436 007f 00       		.byte	0
 2437 0080 00       		.byte	0
 2438 0081 11       		.byte	17
 2439 0082 0E       		.byte	14
 2440 0083 15       		.byte	21
 2441 0084 0E       		.byte	14
 2442 0085 15       		.byte	21
 2443 0086 04       		.byte	4
 2444 0087 0E       		.byte	14
 2445 0088 04       		.byte	4
 2446 0089 00       		.byte	0
 2447 008a 10       		.byte	16
 2448 008b 08       		.byte	8
 2449 008c 04       		.byte	4
 2450 008d 04       		.byte	4
 2451 008e 04       		.byte	4
 2452 008f 00       		.byte	0
 2453 0090 10       		.byte	16
 2454 0091 00       		.byte	0
 2455 0092 08       		.byte	8
 2456 0093 04       		.byte	4
 2457 0094 02       		.byte	2
 2458 0095 1F       		.byte	31
 2459 0096 11       		.byte	17
 2460 0097 1F       		.byte	31
 2461 0098 00       		.byte	0
 2462 0099 1F       		.byte	31
 2463 009a 00       		.byte	0
 2464 009b 1D       		.byte	29
 2465 009c 15       		.byte	21
 2466 009d 17       		.byte	23
 2467 009e 15       		.byte	21
 2468 009f 15       		.byte	21
 2469 00a0 1F       		.byte	31
 2470 00a1 07       		.byte	7
 2471 00a2 04       		.byte	4
 2472 00a3 1F       		.byte	31
 2473 00a4 17       		.byte	23
 2474 00a5 15       		.byte	21
 2475 00a6 1D       		.byte	29
 2476 00a7 1F       		.byte	31
 2477 00a8 15       		.byte	21
 2478 00a9 1D       		.byte	29
 2479 00aa 01       		.byte	1
 2480 00ab 01       		.byte	1
 2481 00ac 1F       		.byte	31
 2482 00ad 1F       		.byte	31
 2483 00ae 15       		.byte	21
 2484 00af 1F       		.byte	31
 2485 00b0 17       		.byte	23
 2486 00b1 15       		.byte	21
 2487 00b2 1F       		.byte	31
 2488 00b3 00       		.byte	0
 2489 00b4 0A       		.byte	10
 2490 00b5 00       		.byte	0
 2491 00b6 10       		.byte	16
 2492 00b7 0A       		.byte	10
 2493 00b8 00       		.byte	0
 2494 00b9 04       		.byte	4
 2495 00ba 0A       		.byte	10
 2496 00bb 11       		.byte	17
 2497 00bc 0A       		.byte	10
 2498 00bd 0A       		.byte	10
 2499 00be 0A       		.byte	10
 2500 00bf 11       		.byte	17
 2501 00c0 0A       		.byte	10
 2502 00c1 04       		.byte	4
 2503 00c2 01       		.byte	1
 2504 00c3 15       		.byte	21
 2505 00c4 03       		.byte	3
 2506 00c5 0E       		.byte	14
 2507 00c6 15       		.byte	21
 2508 00c7 16       		.byte	22
 2509 00c8 1E       		.byte	30
 2510 00c9 05       		.byte	5
 2511 00ca 1E       		.byte	30
 2512 00cb 1F       		.byte	31
 2513 00cc 15       		.byte	21
 2514 00cd 0A       		.byte	10
 2515 00ce 0E       		.byte	14
 2516 00cf 11       		.byte	17
 2517 00d0 11       		.byte	17
 2518 00d1 1F       		.byte	31
 2519 00d2 11       		.byte	17
 2520 00d3 0E       		.byte	14
 2521 00d4 1F       		.byte	31
 2522 00d5 15       		.byte	21
 2523 00d6 15       		.byte	21
 2524 00d7 1F       		.byte	31
 2525 00d8 05       		.byte	5
 2526 00d9 05       		.byte	5
 2527 00da 0E       		.byte	14
 2528 00db 11       		.byte	17
 2529 00dc 1D       		.byte	29
 2530 00dd 1F       		.byte	31
 2531 00de 04       		.byte	4
 2532 00df 1F       		.byte	31
 2533 00e0 00       		.byte	0
 2534 00e1 1F       		.byte	31
 2535 00e2 00       		.byte	0
 2536 00e3 08       		.byte	8
 2537 00e4 10       		.byte	16
 2538 00e5 0F       		.byte	15
 2539 00e6 1F       		.byte	31
 2540 00e7 04       		.byte	4
 2541 00e8 1B       		.byte	27
 2542 00e9 1F       		.byte	31
 2543 00ea 10       		.byte	16
 2544 00eb 10       		.byte	16
 2545 00ec 1F       		.byte	31
 2546 00ed 06       		.byte	6
 2547 00ee 1F       		.byte	31
 2548 00ef 1F       		.byte	31
 2549 00f0 0E       		.byte	14
 2550 00f1 1F       		.byte	31
 2551 00f2 0E       		.byte	14
 2552 00f3 11       		.byte	17
 2553 00f4 0E       		.byte	14
 2554 00f5 1F       		.byte	31
 2555 00f6 05       		.byte	5
 2556 00f7 07       		.byte	7
 2557 00f8 0E       		.byte	14
 2558 00f9 19       		.byte	25
 2559 00fa 1E       		.byte	30
 2560 00fb 1F       		.byte	31
 2561 00fc 0D       		.byte	13
 2562 00fd 16       		.byte	22
 2563 00fe 12       		.byte	18
 2564 00ff 15       		.byte	21
 2565 0100 09       		.byte	9
 2566 0101 01       		.byte	1
 2567 0102 1F       		.byte	31
 2568 0103 01       		.byte	1
 2569 0104 0F       		.byte	15
 2570 0105 10       		.byte	16
 2571 0106 1F       		.byte	31
 2572 0107 0F       		.byte	15
 2573 0108 10       		.byte	16
 2574 0109 0F       		.byte	15
 2575 010a 1F       		.byte	31
 2576 010b 0C       		.byte	12
 2577 010c 1F       		.byte	31
 2578 010d 1B       		.byte	27
 2579 010e 04       		.byte	4
 2580 010f 1B       		.byte	27
 2581 0110 07       		.byte	7
 2582 0111 1C       		.byte	28
 2583 0112 07       		.byte	7
 2584 0113 19       		.byte	25
 2585 0114 15       		.byte	21
 2586 0115 13       		.byte	19
 2587 0116 1F       		.byte	31
 2588 0117 11       		.byte	17
 2589 0118 00       		.byte	0
 2590 0119 02       		.byte	2
 2591 011a 04       		.byte	4
 2592 011b 08       		.byte	8
 2593 011c 00       		.byte	0
 2594 011d 11       		.byte	17
 2595 011e 1F       		.byte	31
 2596 011f 02       		.byte	2
 2597 0120 01       		.byte	1
 2598 0121 02       		.byte	2
 2599 0122 04       		.byte	4
 2600 0123 04       		.byte	4
 2601 0124 04       		.byte	4
 2602 0125 00       		.byte	0
 2603 0126 02       		.byte	2
 2604 0127 02       		.byte	2
 2605 0128 1E       		.byte	30
 2606 0129 05       		.byte	5
 2607 012a 1E       		.byte	30
 2608 012b 1F       		.byte	31
 2609 012c 15       		.byte	21
 2610 012d 0A       		.byte	10
 2611 012e 0E       		.byte	14
 2612 012f 11       		.byte	17
 2613 0130 11       		.byte	17
 2614 0131 1F       		.byte	31
 2615 0132 11       		.byte	17
 2616 0133 0E       		.byte	14
 2617 0134 1F       		.byte	31
 2618 0135 15       		.byte	21
 2619 0136 15       		.byte	21
 2620 0137 1F       		.byte	31
 2621 0138 05       		.byte	5
 2622 0139 05       		.byte	5
 2623 013a 0E       		.byte	14
 2624 013b 11       		.byte	17
 2625 013c 1D       		.byte	29
 2626 013d 1F       		.byte	31
 2627 013e 04       		.byte	4
 2628 013f 1F       		.byte	31
 2629 0140 00       		.byte	0
 2630 0141 1F       		.byte	31
 2631 0142 00       		.byte	0
 2632 0143 08       		.byte	8
 2633 0144 10       		.byte	16
 2634 0145 0F       		.byte	15
 2635 0146 1F       		.byte	31
 2636 0147 04       		.byte	4
 2637 0148 1B       		.byte	27
 2638 0149 1F       		.byte	31
 2639 014a 10       		.byte	16
 2640 014b 10       		.byte	16
 2641 014c 1F       		.byte	31
 2642 014d 06       		.byte	6
 2643 014e 1F       		.byte	31
 2644 014f 1F       		.byte	31
 2645 0150 0E       		.byte	14
 2646 0151 1F       		.byte	31
 2647 0152 0E       		.byte	14
 2648 0153 11       		.byte	17
 2649 0154 0E       		.byte	14
 2650 0155 1F       		.byte	31
 2651 0156 05       		.byte	5
 2652 0157 07       		.byte	7
 2653 0158 0E       		.byte	14
 2654 0159 19       		.byte	25
 2655 015a 1E       		.byte	30
 2656 015b 1F       		.byte	31
 2657 015c 0D       		.byte	13
 2658 015d 16       		.byte	22
 2659 015e 12       		.byte	18
 2660 015f 15       		.byte	21
 2661 0160 09       		.byte	9
 2662 0161 01       		.byte	1
 2663 0162 1F       		.byte	31
 2664 0163 01       		.byte	1
 2665 0164 0F       		.byte	15
 2666 0165 10       		.byte	16
 2667 0166 1F       		.byte	31
 2668 0167 0F       		.byte	15
 2669 0168 10       		.byte	16
 2670 0169 0F       		.byte	15
 2671 016a 1F       		.byte	31
 2672 016b 0C       		.byte	12
 2673 016c 1F       		.byte	31
 2674 016d 1B       		.byte	27
 2675 016e 04       		.byte	4
 2676 016f 1B       		.byte	27
 2677 0170 07       		.byte	7
 2678 0171 1C       		.byte	28
 2679 0172 07       		.byte	7
 2680 0173 19       		.byte	25
 2681 0174 15       		.byte	21
 2682 0175 13       		.byte	19
 2683 0176 04       		.byte	4
 2684 0177 1B       		.byte	27
 2685 0178 11       		.byte	17
 2686 0179 00       		.byte	0
 2687 017a 1F       		.byte	31
 2688 017b 00       		.byte	0
 2689 017c 11       		.byte	17
 2690 017d 1B       		.byte	27
 2691 017e 04       		.byte	4
 2692 017f 04       		.byte	4
 2693 0180 06       		.byte	6
 2694 0181 02       		.byte	2
 2695 0182 0000     		.space	2
 2698              	alterebro24:
 2699 0184 1E       		.byte	30
 2700 0185 83       		.byte	-125
 2701 0186 0A       		.byte	10
 2702 0187 0F       		.byte	15
 2703 0188 20       		.byte	32
 2704 0189 5F       		.byte	95
 2705 018a 03       		.byte	3
 2706 018b 02       		.byte	2
 2707 018c 05       		.byte	5
 2708 018d 08       		.byte	8
 2709 018e 08       		.byte	8
 2710 018f 0B       		.byte	11
 2711 0190 08       		.byte	8
 2712 0191 02       		.byte	2
 2713 0192 03       		.byte	3
 2714 0193 03       		.byte	3
 2715 0194 05       		.byte	5
 2716 0195 08       		.byte	8
 2717 0196 02       		.byte	2
 2718 0197 05       		.byte	5
 2719 0198 02       		.byte	2
 2720 0199 06       		.byte	6
 2721 019a 06       		.byte	6
 2722 019b 03       		.byte	3
 2723 019c 06       		.byte	6
 2724 019d 06       		.byte	6
 2725 019e 06       		.byte	6
 2726 019f 06       		.byte	6
 2727 01a0 06       		.byte	6
 2728 01a1 06       		.byte	6
 2729 01a2 06       		.byte	6
 2730 01a3 06       		.byte	6
 2731 01a4 02       		.byte	2
 2732 01a5 02       		.byte	2
 2733 01a6 05       		.byte	5
 2734 01a7 05       		.byte	5
 2735 01a8 05       		.byte	5
 2736 01a9 08       		.byte	8
 2737 01aa 09       		.byte	9
 2738 01ab 06       		.byte	6
 2739 01ac 06       		.byte	6
 2740 01ad 06       		.byte	6
 2741 01ae 06       		.byte	6
 2742 01af 06       		.byte	6
 2743 01b0 06       		.byte	6
 2744 01b1 06       		.byte	6
 2745 01b2 06       		.byte	6
 2746 01b3 02       		.byte	2
 2747 01b4 06       		.byte	6
 2748 01b5 06       		.byte	6
 2749 01b6 05       		.byte	5
 2750 01b7 08       		.byte	8
 2751 01b8 06       		.byte	6
 2752 01b9 06       		.byte	6
 2753 01ba 06       		.byte	6
 2754 01bb 06       		.byte	6
 2755 01bc 06       		.byte	6
 2756 01bd 06       		.byte	6
 2757 01be 08       		.byte	8
 2758 01bf 06       		.byte	6
 2759 01c0 06       		.byte	6
 2760 01c1 08       		.byte	8
 2761 01c2 06       		.byte	6
 2762 01c3 08       		.byte	8
 2763 01c4 06       		.byte	6
 2764 01c5 03       		.byte	3
 2765 01c6 06       		.byte	6
 2766 01c7 03       		.byte	3
 2767 01c8 05       		.byte	5
 2768 01c9 05       		.byte	5
 2769 01ca 02       		.byte	2
 2770 01cb 06       		.byte	6
 2771 01cc 06       		.byte	6
 2772 01cd 06       		.byte	6
 2773 01ce 06       		.byte	6
 2774 01cf 06       		.byte	6
 2775 01d0 05       		.byte	5
 2776 01d1 06       		.byte	6
 2777 01d2 06       		.byte	6
 2778 01d3 02       		.byte	2
 2779 01d4 03       		.byte	3
 2780 01d5 05       		.byte	5
 2781 01d6 02       		.byte	2
 2782 01d7 08       		.byte	8
 2783 01d8 06       		.byte	6
 2784 01d9 06       		.byte	6
 2785 01da 06       		.byte	6
 2786 01db 06       		.byte	6
 2787 01dc 05       		.byte	5
 2788 01dd 06       		.byte	6
 2789 01de 05       		.byte	5
 2790 01df 06       		.byte	6
 2791 01e0 06       		.byte	6
 2792 01e1 08       		.byte	8
 2793 01e2 06       		.byte	6
 2794 01e3 06       		.byte	6
 2795 01e4 06       		.byte	6
 2796 01e5 05       		.byte	5
 2797 01e6 02       		.byte	2
 2798 01e7 05       		.byte	5
 2799 01e8 03       		.byte	3
 2800 01e9 00       		.byte	0
 2801 01ea 00       		.byte	0
 2802 01eb 00       		.byte	0
 2803 01ec 00       		.byte	0
 2804 01ed 00       		.byte	0
 2805 01ee 00       		.byte	0
 2806 01ef FE       		.byte	-2
 2807 01f0 FE       		.byte	-2
 2808 01f1 1A       		.byte	26
 2809 01f2 1A       		.byte	26
 2810 01f3 1E       		.byte	30
 2811 01f4 1E       		.byte	30
 2812 01f5 00       		.byte	0
 2813 01f6 1E       		.byte	30
 2814 01f7 1E       		.byte	30
 2815 01f8 00       		.byte	0
 2816 01f9 00       		.byte	0
 2817 01fa 00       		.byte	0
 2818 01fb 00       		.byte	0
 2819 01fc 00       		.byte	0
 2820 01fd B0       		.byte	-80
 2821 01fe F8       		.byte	-8
 2822 01ff F8       		.byte	-8
 2823 0200 B0       		.byte	-80
 2824 0201 F8       		.byte	-8
 2825 0202 F8       		.byte	-8
 2826 0203 B0       		.byte	-80
 2827 0204 B0       		.byte	-80
 2828 0205 02       		.byte	2
 2829 0206 0E       		.byte	14
 2830 0207 0E       		.byte	14
 2831 0208 02       		.byte	2
 2832 0209 0E       		.byte	14
 2833 020a 0E       		.byte	14
 2834 020b 02       		.byte	2
 2835 020c 02       		.byte	2
 2836 020d 38       		.byte	56
 2837 020e FE       		.byte	-2
 2838 020f C6       		.byte	-58
 2839 0210 FF       		.byte	-1
 2840 0211 FF       		.byte	-1
 2841 0212 C6       		.byte	-58
 2842 0213 86       		.byte	-122
 2843 0214 86       		.byte	-122
 2844 0215 18       		.byte	24
 2845 0216 18       		.byte	24
 2846 0217 18       		.byte	24
 2847 0218 7E       		.byte	126
 2848 0219 7E       		.byte	126
 2849 021a 18       		.byte	24
 2850 021b 0E       		.byte	14
 2851 021c 0E       		.byte	14
 2852 021d 18       		.byte	24
 2853 021e 3E       		.byte	62
 2854 021f 36       		.byte	54
 2855 0220 98       		.byte	-104
 2856 0221 D8       		.byte	-40
 2857 0222 C0       		.byte	-64
 2858 0223 30       		.byte	48
 2859 0224 B8       		.byte	-72
 2860 0225 98       		.byte	-104
 2861 0226 06       		.byte	6
 2862 0227 06       		.byte	6
 2863 0228 18       		.byte	24
 2864 0229 1C       		.byte	28
 2865 022a 0C       		.byte	12
 2866 022b 02       		.byte	2
 2867 022c 02       		.byte	2
 2868 022d 00       		.byte	0
 2869 022e 0C       		.byte	12
 2870 022f 1E       		.byte	30
 2871 0230 1A       		.byte	26
 2872 0231 0C       		.byte	12
 2873 0232 0C       		.byte	12
 2874 0233 B8       		.byte	-72
 2875 0234 FE       		.byte	-2
 2876 0235 C6       		.byte	-58
 2877 0236 B6       		.byte	-74
 2878 0237 BE       		.byte	-66
 2879 0238 18       		.byte	24
 2880 0239 C0       		.byte	-64
 2881 023a C0       		.byte	-64
 2882 023b 0E       		.byte	14
 2883 023c 1E       		.byte	30
 2884 023d 18       		.byte	24
 2885 023e 1A       		.byte	26
 2886 023f 1E       		.byte	30
 2887 0240 0C       		.byte	12
 2888 0241 1A       		.byte	26
 2889 0242 1A       		.byte	26
 2890 0243 1E       		.byte	30
 2891 0244 1E       		.byte	30
 2892 0245 00       		.byte	0
 2893 0246 00       		.byte	0
 2894 0247 FE       		.byte	-2
 2895 0248 FF       		.byte	-1
 2896 0249 03       		.byte	3
 2897 024a 1E       		.byte	30
 2898 024b 7E       		.byte	126
 2899 024c 60       		.byte	96
 2900 024d 03       		.byte	3
 2901 024e FF       		.byte	-1
 2902 024f FE       		.byte	-2
 2903 0250 60       		.byte	96
 2904 0251 7E       		.byte	126
 2905 0252 1E       		.byte	30
 2906 0253 36       		.byte	54
 2907 0254 3E       		.byte	62
 2908 0255 18       		.byte	24
 2909 0256 36       		.byte	54
 2910 0257 36       		.byte	54
 2911 0258 00       		.byte	0
 2912 0259 00       		.byte	0
 2913 025a 00       		.byte	0
 2914 025b 00       		.byte	0
 2915 025c 00       		.byte	0
 2916 025d C0       		.byte	-64
 2917 025e C0       		.byte	-64
 2918 025f C0       		.byte	-64
 2919 0260 F8       		.byte	-8
 2920 0261 F8       		.byte	-8
 2921 0262 C0       		.byte	-64
 2922 0263 C0       		.byte	-64
 2923 0264 C0       		.byte	-64
 2924 0265 00       		.byte	0
 2925 0266 00       		.byte	0
 2926 0267 00       		.byte	0
 2927 0268 0E       		.byte	14
 2928 0269 0E       		.byte	14
 2929 026a 00       		.byte	0
 2930 026b 00       		.byte	0
 2931 026c 00       		.byte	0
 2932 026d 00       		.byte	0
 2933 026e 00       		.byte	0
 2934 026f 78       		.byte	120
 2935 0270 78       		.byte	120
 2936 0271 C0       		.byte	-64
 2937 0272 C0       		.byte	-64
 2938 0273 C0       		.byte	-64
 2939 0274 C0       		.byte	-64
 2940 0275 C0       		.byte	-64
 2941 0276 00       		.byte	0
 2942 0277 00       		.byte	0
 2943 0278 00       		.byte	0
 2944 0279 00       		.byte	0
 2945 027a 00       		.byte	0
 2946 027b 00       		.byte	0
 2947 027c 00       		.byte	0
 2948 027d 18       		.byte	24
 2949 027e 18       		.byte	24
 2950 027f 00       		.byte	0
 2951 0280 C0       		.byte	-64
 2952 0281 C0       		.byte	-64
 2953 0282 38       		.byte	56
 2954 0283 3E       		.byte	62
 2955 0284 06       		.byte	6
 2956 0285 1C       		.byte	28
 2957 0286 1E       		.byte	30
 2958 0287 02       		.byte	2
 2959 0288 00       		.byte	0
 2960 0289 00       		.byte	0
 2961 028a 00       		.byte	0
 2962 028b F8       		.byte	-8
 2963 028c FE       		.byte	-2
 2964 028d 06       		.byte	6
 2965 028e 06       		.byte	6
 2966 028f FE       		.byte	-2
 2967 0290 F8       		.byte	-8
 2968 0291 0E       		.byte	14
 2969 0292 1E       		.byte	30
 2970 0293 18       		.byte	24
 2971 0294 18       		.byte	24
 2972 0295 1E       		.byte	30
 2973 0296 0E       		.byte	14
 2974 0297 18       		.byte	24
 2975 0298 FE       		.byte	-2
 2976 0299 FE       		.byte	-2
 2977 029a 00       		.byte	0
 2978 029b 1E       		.byte	30
 2979 029c 1E       		.byte	30
 2980 029d 18       		.byte	24
 2981 029e 9E       		.byte	-98
 2982 029f 86       		.byte	-122
 2983 02a0 C6       		.byte	-58
 2984 02a1 FE       		.byte	-2
 2985 02a2 38       		.byte	56
 2986 02a3 1C       		.byte	28
 2987 02a4 1E       		.byte	30
 2988 02a5 1A       		.byte	26
 2989 02a6 18       		.byte	24
 2990 02a7 18       		.byte	24
 2991 02a8 18       		.byte	24
 2992 02a9 06       		.byte	6
 2993 02aa C6       		.byte	-58
 2994 02ab C6       		.byte	-58
 2995 02ac C6       		.byte	-58
 2996 02ad FE       		.byte	-2
 2997 02ae BE       		.byte	-66
 2998 02af 18       		.byte	24
 2999 02b0 18       		.byte	24
 3000 02b1 18       		.byte	24
 3001 02b2 18       		.byte	24
 3002 02b3 1E       		.byte	30
 3003 02b4 0E       		.byte	14
 3004 02b5 FE       		.byte	-2
 3005 02b6 FE       		.byte	-2
 3006 02b7 C0       		.byte	-64
 3007 02b8 C0       		.byte	-64
 3008 02b9 FE       		.byte	-2
 3009 02ba FE       		.byte	-2
 3010 02bb 00       		.byte	0
 3011 02bc 00       		.byte	0
 3012 02bd 00       		.byte	0
 3013 02be 00       		.byte	0
 3014 02bf 1E       		.byte	30
 3015 02c0 1E       		.byte	30
 3016 02c1 FE       		.byte	-2
 3017 02c2 FE       		.byte	-2
 3018 02c3 C6       		.byte	-58
 3019 02c4 C6       		.byte	-58
 3020 02c5 C6       		.byte	-58
 3021 02c6 86       		.byte	-122
 3022 02c7 18       		.byte	24
 3023 02c8 18       		.byte	24
 3024 02c9 18       		.byte	24
 3025 02ca 18       		.byte	24
 3026 02cb 1E       		.byte	30
 3027 02cc 0E       		.byte	14
 3028 02cd F8       		.byte	-8
 3029 02ce FE       		.byte	-2
 3030 02cf C6       		.byte	-58
 3031 02d0 C6       		.byte	-58
 3032 02d1 C6       		.byte	-58
 3033 02d2 80       		.byte	-128
 3034 02d3 0E       		.byte	14
 3035 02d4 1E       		.byte	30
 3036 02d5 18       		.byte	24
 3037 02d6 18       		.byte	24
 3038 02d7 1E       		.byte	30
 3039 02d8 0E       		.byte	14
 3040 02d9 06       		.byte	6
 3041 02da 86       		.byte	-122
 3042 02db 86       		.byte	-122
 3043 02dc C6       		.byte	-58
 3044 02dd FE       		.byte	-2
 3045 02de 3E       		.byte	62
 3046 02df 00       		.byte	0
 3047 02e0 1E       		.byte	30
 3048 02e1 1E       		.byte	30
 3049 02e2 00       		.byte	0
 3050 02e3 00       		.byte	0
 3051 02e4 00       		.byte	0
 3052 02e5 B8       		.byte	-72
 3053 02e6 FE       		.byte	-2
 3054 02e7 C6       		.byte	-58
 3055 02e8 C6       		.byte	-58
 3056 02e9 FE       		.byte	-2
 3057 02ea B8       		.byte	-72
 3058 02eb 0E       		.byte	14
 3059 02ec 1E       		.byte	30
 3060 02ed 18       		.byte	24
 3061 02ee 18       		.byte	24
 3062 02ef 1E       		.byte	30
 3063 02f0 0E       		.byte	14
 3064 02f1 38       		.byte	56
 3065 02f2 FE       		.byte	-2
 3066 02f3 C6       		.byte	-58
 3067 02f4 C6       		.byte	-58
 3068 02f5 FE       		.byte	-2
 3069 02f6 F8       		.byte	-8
 3070 02f7 18       		.byte	24
 3071 02f8 18       		.byte	24
 3072 02f9 18       		.byte	24
 3073 02fa 18       		.byte	24
 3074 02fb 1E       		.byte	30
 3075 02fc 0E       		.byte	14
 3076 02fd 80       		.byte	-128
 3077 02fe 80       		.byte	-128
 3078 02ff 1A       		.byte	26
 3079 0300 1A       		.byte	26
 3080 0301 80       		.byte	-128
 3081 0302 80       		.byte	-128
 3082 0303 7A       		.byte	122
 3083 0304 7A       		.byte	122
 3084 0305 80       		.byte	-128
 3085 0306 C0       		.byte	-64
 3086 0307 C0       		.byte	-64
 3087 0308 30       		.byte	48
 3088 0309 30       		.byte	48
 3089 030a 02       		.byte	2
 3090 030b 0E       		.byte	14
 3091 030c 0C       		.byte	12
 3092 030d 18       		.byte	24
 3093 030e 18       		.byte	24
 3094 030f B0       		.byte	-80
 3095 0310 B0       		.byte	-80
 3096 0311 B0       		.byte	-80
 3097 0312 B0       		.byte	-80
 3098 0313 B0       		.byte	-80
 3099 0314 02       		.byte	2
 3100 0315 02       		.byte	2
 3101 0316 02       		.byte	2
 3102 0317 02       		.byte	2
 3103 0318 02       		.byte	2
 3104 0319 30       		.byte	48
 3105 031a F0       		.byte	-16
 3106 031b C0       		.byte	-64
 3107 031c 80       		.byte	-128
 3108 031d 80       		.byte	-128
 3109 031e 18       		.byte	24
 3110 031f 1C       		.byte	28
 3111 0320 0C       		.byte	12
 3112 0321 02       		.byte	2
 3113 0322 02       		.byte	2
 3114 0323 18       		.byte	24
 3115 0324 1E       		.byte	30
 3116 0325 06       		.byte	6
 3117 0326 86       		.byte	-122
 3118 0327 C6       		.byte	-58
 3119 0328 C6       		.byte	-58
 3120 0329 38       		.byte	56
 3121 032a 38       		.byte	56
 3122 032b 00       		.byte	0
 3123 032c 00       		.byte	0
 3124 032d 00       		.byte	0
 3125 032e 1A       		.byte	26
 3126 032f 1A       		.byte	26
 3127 0330 00       		.byte	0
 3128 0331 00       		.byte	0
 3129 0332 00       		.byte	0
 3130 0333 F8       		.byte	-8
 3131 0334 FE       		.byte	-2
 3132 0335 06       		.byte	6
 3133 0336 F6       		.byte	-10
 3134 0337 F6       		.byte	-10
 3135 0338 B6       		.byte	-74
 3136 0339 86       		.byte	-122
 3137 033a FE       		.byte	-2
 3138 033b F8       		.byte	-8
 3139 033c 0E       		.byte	14
 3140 033d 1E       		.byte	30
 3141 033e 18       		.byte	24
 3142 033f 1A       		.byte	26
 3143 0340 1A       		.byte	26
 3144 0341 1A       		.byte	26
 3145 0342 1A       		.byte	26
 3146 0343 1A       		.byte	26
 3147 0344 02       		.byte	2
 3148 0345 F8       		.byte	-8
 3149 0346 FE       		.byte	-2
 3150 0347 C6       		.byte	-58
 3151 0348 C6       		.byte	-58
 3152 0349 FE       		.byte	-2
 3153 034a FE       		.byte	-2
 3154 034b 1E       		.byte	30
 3155 034c 1E       		.byte	30
 3156 034d 00       		.byte	0
 3157 034e 00       		.byte	0
 3158 034f 1E       		.byte	30
 3159 0350 1E       		.byte	30
 3160 0351 FE       		.byte	-2
 3161 0352 FE       		.byte	-2
 3162 0353 C6       		.byte	-58
 3163 0354 C6       		.byte	-58
 3164 0355 FE       		.byte	-2
 3165 0356 B8       		.byte	-72
 3166 0357 1E       		.byte	30
 3167 0358 1E       		.byte	30
 3168 0359 18       		.byte	24
 3169 035a 18       		.byte	24
 3170 035b 1E       		.byte	30
 3171 035c 0E       		.byte	14
 3172 035d F8       		.byte	-8
 3173 035e FE       		.byte	-2
 3174 035f 06       		.byte	6
 3175 0360 06       		.byte	6
 3176 0361 06       		.byte	6
 3177 0362 06       		.byte	6
 3178 0363 0E       		.byte	14
 3179 0364 1E       		.byte	30
 3180 0365 18       		.byte	24
 3181 0366 18       		.byte	24
 3182 0367 18       		.byte	24
 3183 0368 18       		.byte	24
 3184 0369 FE       		.byte	-2
 3185 036a FE       		.byte	-2
 3186 036b 06       		.byte	6
 3187 036c 06       		.byte	6
 3188 036d FE       		.byte	-2
 3189 036e F8       		.byte	-8
 3190 036f 1E       		.byte	30
 3191 0370 1E       		.byte	30
 3192 0371 18       		.byte	24
 3193 0372 18       		.byte	24
 3194 0373 1E       		.byte	30
 3195 0374 0E       		.byte	14
 3196 0375 FE       		.byte	-2
 3197 0376 FE       		.byte	-2
 3198 0377 C6       		.byte	-58
 3199 0378 C6       		.byte	-58
 3200 0379 C6       		.byte	-58
 3201 037a 06       		.byte	6
 3202 037b 1E       		.byte	30
 3203 037c 1E       		.byte	30
 3204 037d 18       		.byte	24
 3205 037e 18       		.byte	24
 3206 037f 18       		.byte	24
 3207 0380 18       		.byte	24
 3208 0381 FE       		.byte	-2
 3209 0382 FE       		.byte	-2
 3210 0383 C6       		.byte	-58
 3211 0384 C6       		.byte	-58
 3212 0385 C6       		.byte	-58
 3213 0386 06       		.byte	6
 3214 0387 1E       		.byte	30
 3215 0388 1E       		.byte	30
 3216 0389 00       		.byte	0
 3217 038a 00       		.byte	0
 3218 038b 00       		.byte	0
 3219 038c 00       		.byte	0
 3220 038d F8       		.byte	-8
 3221 038e FE       		.byte	-2
 3222 038f 06       		.byte	6
 3223 0390 06       		.byte	6
 3224 0391 C6       		.byte	-58
 3225 0392 C6       		.byte	-58
 3226 0393 0E       		.byte	14
 3227 0394 1E       		.byte	30
 3228 0395 18       		.byte	24
 3229 0396 18       		.byte	24
 3230 0397 1E       		.byte	30
 3231 0398 1E       		.byte	30
 3232 0399 FE       		.byte	-2
 3233 039a FE       		.byte	-2
 3234 039b C0       		.byte	-64
 3235 039c C0       		.byte	-64
 3236 039d FE       		.byte	-2
 3237 039e FE       		.byte	-2
 3238 039f 1E       		.byte	30
 3239 03a0 1E       		.byte	30
 3240 03a1 00       		.byte	0
 3241 03a2 00       		.byte	0
 3242 03a3 1E       		.byte	30
 3243 03a4 1E       		.byte	30
 3244 03a5 FE       		.byte	-2
 3245 03a6 FE       		.byte	-2
 3246 03a7 1E       		.byte	30
 3247 03a8 1E       		.byte	30
 3248 03a9 80       		.byte	-128
 3249 03aa 80       		.byte	-128
 3250 03ab 00       		.byte	0
 3251 03ac 00       		.byte	0
 3252 03ad FE       		.byte	-2
 3253 03ae FE       		.byte	-2
 3254 03af 0E       		.byte	14
 3255 03b0 1E       		.byte	30
 3256 03b1 18       		.byte	24
 3257 03b2 18       		.byte	24
 3258 03b3 1E       		.byte	30
 3259 03b4 0E       		.byte	14
 3260 03b5 FE       		.byte	-2
 3261 03b6 FE       		.byte	-2
 3262 03b7 C0       		.byte	-64
 3263 03b8 C0       		.byte	-64
 3264 03b9 FE       		.byte	-2
 3265 03ba BE       		.byte	-66
 3266 03bb 1E       		.byte	30
 3267 03bc 1E       		.byte	30
 3268 03bd 00       		.byte	0
 3269 03be 00       		.byte	0
 3270 03bf 1E       		.byte	30
 3271 03c0 1E       		.byte	30
 3272 03c1 FE       		.byte	-2
 3273 03c2 FE       		.byte	-2
 3274 03c3 00       		.byte	0
 3275 03c4 00       		.byte	0
 3276 03c5 00       		.byte	0
 3277 03c6 1E       		.byte	30
 3278 03c7 1E       		.byte	30
 3279 03c8 18       		.byte	24
 3280 03c9 18       		.byte	24
 3281 03ca 18       		.byte	24
 3282 03cb FE       		.byte	-2
 3283 03cc FE       		.byte	-2
 3284 03cd 18       		.byte	24
 3285 03ce 30       		.byte	48
 3286 03cf 38       		.byte	56
 3287 03d0 18       		.byte	24
 3288 03d1 FE       		.byte	-2
 3289 03d2 FE       		.byte	-2
 3290 03d3 1E       		.byte	30
 3291 03d4 1E       		.byte	30
 3292 03d5 00       		.byte	0
 3293 03d6 00       		.byte	0
 3294 03d7 00       		.byte	0
 3295 03d8 00       		.byte	0
 3296 03d9 1E       		.byte	30
 3297 03da 1E       		.byte	30
 3298 03db FE       		.byte	-2
 3299 03dc FE       		.byte	-2
 3300 03dd 30       		.byte	48
 3301 03de C0       		.byte	-64
 3302 03df FE       		.byte	-2
 3303 03e0 FE       		.byte	-2
 3304 03e1 1E       		.byte	30
 3305 03e2 1E       		.byte	30
 3306 03e3 00       		.byte	0
 3307 03e4 00       		.byte	0
 3308 03e5 1E       		.byte	30
 3309 03e6 1E       		.byte	30
 3310 03e7 F8       		.byte	-8
 3311 03e8 FE       		.byte	-2
 3312 03e9 06       		.byte	6
 3313 03ea 06       		.byte	6
 3314 03eb FE       		.byte	-2
 3315 03ec F8       		.byte	-8
 3316 03ed 0E       		.byte	14
 3317 03ee 1E       		.byte	30
 3318 03ef 18       		.byte	24
 3319 03f0 18       		.byte	24
 3320 03f1 1E       		.byte	30
 3321 03f2 0E       		.byte	14
 3322 03f3 FE       		.byte	-2
 3323 03f4 FE       		.byte	-2
 3324 03f5 C6       		.byte	-58
 3325 03f6 C6       		.byte	-58
 3326 03f7 FE       		.byte	-2
 3327 03f8 38       		.byte	56
 3328 03f9 1E       		.byte	30
 3329 03fa 1E       		.byte	30
 3330 03fb 00       		.byte	0
 3331 03fc 00       		.byte	0
 3332 03fd 00       		.byte	0
 3333 03fe 00       		.byte	0
 3334 03ff F8       		.byte	-8
 3335 0400 FE       		.byte	-2
 3336 0401 06       		.byte	6
 3337 0402 06       		.byte	6
 3338 0403 FE       		.byte	-2
 3339 0404 F8       		.byte	-8
 3340 0405 0E       		.byte	14
 3341 0406 1E       		.byte	30
 3342 0407 18       		.byte	24
 3343 0408 1C       		.byte	28
 3344 0409 1E       		.byte	30
 3345 040a 1E       		.byte	30
 3346 040b FE       		.byte	-2
 3347 040c FE       		.byte	-2
 3348 040d C6       		.byte	-58
 3349 040e C6       		.byte	-58
 3350 040f FE       		.byte	-2
 3351 0410 B8       		.byte	-72
 3352 0411 1E       		.byte	30
 3353 0412 1E       		.byte	30
 3354 0413 00       		.byte	0
 3355 0414 00       		.byte	0
 3356 0415 1E       		.byte	30
 3357 0416 1E       		.byte	30
 3358 0417 38       		.byte	56
 3359 0418 FE       		.byte	-2
 3360 0419 C6       		.byte	-58
 3361 041a C6       		.byte	-58
 3362 041b C6       		.byte	-58
 3363 041c 86       		.byte	-122
 3364 041d 18       		.byte	24
 3365 041e 18       		.byte	24
 3366 041f 18       		.byte	24
 3367 0420 18       		.byte	24
 3368 0421 1E       		.byte	30
 3369 0422 0E       		.byte	14
 3370 0423 06       		.byte	6
 3371 0424 06       		.byte	6
 3372 0425 06       		.byte	6
 3373 0426 FE       		.byte	-2
 3374 0427 FE       		.byte	-2
 3375 0428 06       		.byte	6
 3376 0429 06       		.byte	6
 3377 042a 06       		.byte	6
 3378 042b 00       		.byte	0
 3379 042c 00       		.byte	0
 3380 042d 00       		.byte	0
 3381 042e 1E       		.byte	30
 3382 042f 1E       		.byte	30
 3383 0430 00       		.byte	0
 3384 0431 00       		.byte	0
 3385 0432 00       		.byte	0
 3386 0433 FE       		.byte	-2
 3387 0434 FE       		.byte	-2
 3388 0435 00       		.byte	0
 3389 0436 00       		.byte	0
 3390 0437 FE       		.byte	-2
 3391 0438 FE       		.byte	-2
 3392 0439 0E       		.byte	14
 3393 043a 1E       		.byte	30
 3394 043b 18       		.byte	24
 3395 043c 18       		.byte	24
 3396 043d 1E       		.byte	30
 3397 043e 0E       		.byte	14
 3398 043f FE       		.byte	-2
 3399 0440 FE       		.byte	-2
 3400 0441 00       		.byte	0
 3401 0442 00       		.byte	0
 3402 0443 FE       		.byte	-2
 3403 0444 FE       		.byte	-2
 3404 0445 0E       		.byte	14
 3405 0446 1E       		.byte	30
 3406 0447 18       		.byte	24
 3407 0448 18       		.byte	24
 3408 0449 1E       		.byte	30
 3409 044a 1E       		.byte	30
 3410 044b FE       		.byte	-2
 3411 044c FE       		.byte	-2
 3412 044d 00       		.byte	0
 3413 044e F0       		.byte	-16
 3414 044f F0       		.byte	-16
 3415 0450 00       		.byte	0
 3416 0451 FE       		.byte	-2
 3417 0452 FE       		.byte	-2
 3418 0453 0E       		.byte	14
 3419 0454 1E       		.byte	30
 3420 0455 18       		.byte	24
 3421 0456 0E       		.byte	14
 3422 0457 1E       		.byte	30
 3423 0458 18       		.byte	24
 3424 0459 0E       		.byte	14
 3425 045a 0E       		.byte	14
 3426 045b BE       		.byte	-66
 3427 045c FE       		.byte	-2
 3428 045d C0       		.byte	-64
 3429 045e C0       		.byte	-64
 3430 045f FE       		.byte	-2
 3431 0460 BE       		.byte	-66
 3432 0461 1E       		.byte	30
 3433 0462 1E       		.byte	30
 3434 0463 00       		.byte	0
 3435 0464 00       		.byte	0
 3436 0465 1E       		.byte	30
 3437 0466 1E       		.byte	30
 3438 0467 1E       		.byte	30
 3439 0468 3E       		.byte	62
 3440 0469 30       		.byte	48
 3441 046a C0       		.byte	-64
 3442 046b F0       		.byte	-16
 3443 046c 30       		.byte	48
 3444 046d 1E       		.byte	30
 3445 046e 1E       		.byte	30
 3446 046f 00       		.byte	0
 3447 0470 00       		.byte	0
 3448 0471 00       		.byte	0
 3449 0472 1E       		.byte	30
 3450 0473 1E       		.byte	30
 3451 0474 00       		.byte	0
 3452 0475 00       		.byte	0
 3453 0476 00       		.byte	0
 3454 0477 86       		.byte	-122
 3455 0478 C6       		.byte	-58
 3456 0479 C6       		.byte	-58
 3457 047a 36       		.byte	54
 3458 047b 3E       		.byte	62
 3459 047c 1E       		.byte	30
 3460 047d 1E       		.byte	30
 3461 047e 1E       		.byte	30
 3462 047f 18       		.byte	24
 3463 0480 18       		.byte	24
 3464 0481 18       		.byte	24
 3465 0482 18       		.byte	24
 3466 0483 FF       		.byte	-1
 3467 0484 FF       		.byte	-1
 3468 0485 03       		.byte	3
 3469 0486 7E       		.byte	126
 3470 0487 7E       		.byte	126
 3471 0488 60       		.byte	96
 3472 0489 06       		.byte	6
 3473 048a 3E       		.byte	62
 3474 048b 38       		.byte	56
 3475 048c C0       		.byte	-64
 3476 048d C0       		.byte	-64
 3477 048e 00       		.byte	0
 3478 048f 00       		.byte	0
 3479 0490 00       		.byte	0
 3480 0491 00       		.byte	0
 3481 0492 02       		.byte	2
 3482 0493 1E       		.byte	30
 3483 0494 1C       		.byte	28
 3484 0495 03       		.byte	3
 3485 0496 FF       		.byte	-1
 3486 0497 FF       		.byte	-1
 3487 0498 60       		.byte	96
 3488 0499 7E       		.byte	126
 3489 049a 7E       		.byte	126
 3490 049b 18       		.byte	24
 3491 049c 1E       		.byte	30
 3492 049d 06       		.byte	6
 3493 049e 18       		.byte	24
 3494 049f 18       		.byte	24
 3495 04a0 00       		.byte	0
 3496 04a1 00       		.byte	0
 3497 04a2 00       		.byte	0
 3498 04a3 00       		.byte	0
 3499 04a4 00       		.byte	0
 3500 04a5 00       		.byte	0
 3501 04a6 00       		.byte	0
 3502 04a7 00       		.byte	0
 3503 04a8 00       		.byte	0
 3504 04a9 00       		.byte	0
 3505 04aa 18       		.byte	24
 3506 04ab 18       		.byte	24
 3507 04ac 18       		.byte	24
 3508 04ad 18       		.byte	24
 3509 04ae 18       		.byte	24
 3510 04af 1E       		.byte	30
 3511 04b0 1E       		.byte	30
 3512 04b1 00       		.byte	0
 3513 04b2 00       		.byte	0
 3514 04b3 00       		.byte	0
 3515 04b4 B0       		.byte	-80
 3516 04b5 B0       		.byte	-80
 3517 04b6 B0       		.byte	-80
 3518 04b7 F0       		.byte	-16
 3519 04b8 C0       		.byte	-64
 3520 04b9 0C       		.byte	12
 3521 04ba 1E       		.byte	30
 3522 04bb 1A       		.byte	26
 3523 04bc 1A       		.byte	26
 3524 04bd 1E       		.byte	30
 3525 04be 1E       		.byte	30
 3526 04bf FE       		.byte	-2
 3527 04c0 FE       		.byte	-2
 3528 04c1 30       		.byte	48
 3529 04c2 30       		.byte	48
 3530 04c3 F0       		.byte	-16
 3531 04c4 C0       		.byte	-64
 3532 04c5 1E       		.byte	30
 3533 04c6 1E       		.byte	30
 3534 04c7 18       		.byte	24
 3535 04c8 18       		.byte	24
 3536 04c9 1E       		.byte	30
 3537 04ca 0E       		.byte	14
 3538 04cb C0       		.byte	-64
 3539 04cc F0       		.byte	-16
 3540 04cd 30       		.byte	48
 3541 04ce 30       		.byte	48
 3542 04cf 30       		.byte	48
 3543 04d0 30       		.byte	48
 3544 04d1 0E       		.byte	14
 3545 04d2 1E       		.byte	30
 3546 04d3 18       		.byte	24
 3547 04d4 18       		.byte	24
 3548 04d5 18       		.byte	24
 3549 04d6 18       		.byte	24
 3550 04d7 C0       		.byte	-64
 3551 04d8 F0       		.byte	-16
 3552 04d9 30       		.byte	48
 3553 04da 30       		.byte	48
 3554 04db FE       		.byte	-2
 3555 04dc FE       		.byte	-2
 3556 04dd 0E       		.byte	14
 3557 04de 1E       		.byte	30
 3558 04df 18       		.byte	24
 3559 04e0 18       		.byte	24
 3560 04e1 1E       		.byte	30
 3561 04e2 1E       		.byte	30
 3562 04e3 C0       		.byte	-64
 3563 04e4 F0       		.byte	-16
 3564 04e5 B0       		.byte	-80
 3565 04e6 B0       		.byte	-80
 3566 04e7 F0       		.byte	-16
 3567 04e8 C0       		.byte	-64
 3568 04e9 0E       		.byte	14
 3569 04ea 1E       		.byte	30
 3570 04eb 1A       		.byte	26
 3571 04ec 1A       		.byte	26
 3572 04ed 1A       		.byte	26
 3573 04ee 1A       		.byte	26
 3574 04ef F8       		.byte	-8
 3575 04f0 FE       		.byte	-2
 3576 04f1 C6       		.byte	-58
 3577 04f2 06       		.byte	6
 3578 04f3 06       		.byte	6
 3579 04f4 1E       		.byte	30
 3580 04f5 1E       		.byte	30
 3581 04f6 00       		.byte	0
 3582 04f7 00       		.byte	0
 3583 04f8 00       		.byte	0
 3584 04f9 C0       		.byte	-64
 3585 04fa F0       		.byte	-16
 3586 04fb 30       		.byte	48
 3587 04fc 30       		.byte	48
 3588 04fd F0       		.byte	-16
 3589 04fe C0       		.byte	-64
 3590 04ff CE       		.byte	-50
 3591 0500 DE       		.byte	-34
 3592 0501 D8       		.byte	-40
 3593 0502 D8       		.byte	-40
 3594 0503 FE       		.byte	-2
 3595 0504 7E       		.byte	126
 3596 0505 FE       		.byte	-2
 3597 0506 FE       		.byte	-2
 3598 0507 30       		.byte	48
 3599 0508 30       		.byte	48
 3600 0509 F0       		.byte	-16
 3601 050a C0       		.byte	-64
 3602 050b 1E       		.byte	30
 3603 050c 1E       		.byte	30
 3604 050d 00       		.byte	0
 3605 050e 00       		.byte	0
 3606 050f 1E       		.byte	30
 3607 0510 1E       		.byte	30
 3608 0511 F6       		.byte	-10
 3609 0512 F6       		.byte	-10
 3610 0513 1E       		.byte	30
 3611 0514 1E       		.byte	30
 3612 0515 00       		.byte	0
 3613 0516 F6       		.byte	-10
 3614 0517 F6       		.byte	-10
 3615 0518 C0       		.byte	-64
 3616 0519 FE       		.byte	-2
 3617 051a 7E       		.byte	126
 3618 051b FE       		.byte	-2
 3619 051c FE       		.byte	-2
 3620 051d 80       		.byte	-128
 3621 051e F0       		.byte	-16
 3622 051f F0       		.byte	-16
 3623 0520 1E       		.byte	30
 3624 0521 1E       		.byte	30
 3625 0522 02       		.byte	2
 3626 0523 1C       		.byte	28
 3627 0524 1C       		.byte	28
 3628 0525 FE       		.byte	-2
 3629 0526 FE       		.byte	-2
 3630 0527 1E       		.byte	30
 3631 0528 1E       		.byte	30
 3632 0529 F0       		.byte	-16
 3633 052a F0       		.byte	-16
 3634 052b 30       		.byte	48
 3635 052c F0       		.byte	-16
 3636 052d F0       		.byte	-16
 3637 052e 30       		.byte	48
 3638 052f C0       		.byte	-64
 3639 0530 C0       		.byte	-64
 3640 0531 1E       		.byte	30
 3641 0532 1E       		.byte	30
 3642 0533 00       		.byte	0
 3643 0534 1E       		.byte	30
 3644 0535 1E       		.byte	30
 3645 0536 00       		.byte	0
 3646 0537 1E       		.byte	30
 3647 0538 1E       		.byte	30
 3648 0539 F0       		.byte	-16
 3649 053a F0       		.byte	-16
 3650 053b 30       		.byte	48
 3651 053c 30       		.byte	48
 3652 053d F0       		.byte	-16
 3653 053e C0       		.byte	-64
 3654 053f 1E       		.byte	30
 3655 0540 1E       		.byte	30
 3656 0541 00       		.byte	0
 3657 0542 00       		.byte	0
 3658 0543 1E       		.byte	30
 3659 0544 1E       		.byte	30
 3660 0545 C0       		.byte	-64
 3661 0546 F0       		.byte	-16
 3662 0547 30       		.byte	48
 3663 0548 30       		.byte	48
 3664 0549 F0       		.byte	-16
 3665 054a C0       		.byte	-64
 3666 054b 0E       		.byte	14
 3667 054c 1E       		.byte	30
 3668 054d 18       		.byte	24
 3669 054e 18       		.byte	24
 3670 054f 1E       		.byte	30
 3671 0550 0E       		.byte	14
 3672 0551 F0       		.byte	-16
 3673 0552 F0       		.byte	-16
 3674 0553 30       		.byte	48
 3675 0554 30       		.byte	48
 3676 0555 F0       		.byte	-16
 3677 0556 C0       		.byte	-64
 3678 0557 FE       		.byte	-2
 3679 0558 FE       		.byte	-2
 3680 0559 18       		.byte	24
 3681 055a 18       		.byte	24
 3682 055b 1E       		.byte	30
 3683 055c 0E       		.byte	14
 3684 055d C0       		.byte	-64
 3685 055e F0       		.byte	-16
 3686 055f 30       		.byte	48
 3687 0560 30       		.byte	48
 3688 0561 F0       		.byte	-16
 3689 0562 F0       		.byte	-16
 3690 0563 0E       		.byte	14
 3691 0564 1E       		.byte	30
 3692 0565 18       		.byte	24
 3693 0566 18       		.byte	24
 3694 0567 FE       		.byte	-2
 3695 0568 FE       		.byte	-2
 3696 0569 C0       		.byte	-64
 3697 056a F0       		.byte	-16
 3698 056b 30       		.byte	48
 3699 056c 30       		.byte	48
 3700 056d 30       		.byte	48
 3701 056e 1E       		.byte	30
 3702 056f 1E       		.byte	30
 3703 0570 00       		.byte	0
 3704 0571 00       		.byte	0
 3705 0572 00       		.byte	0
 3706 0573 C0       		.byte	-64
 3707 0574 F0       		.byte	-16
 3708 0575 B0       		.byte	-80
 3709 0576 B0       		.byte	-80
 3710 0577 B0       		.byte	-80
 3711 0578 30       		.byte	48
 3712 0579 18       		.byte	24
 3713 057a 1A       		.byte	26
 3714 057b 1A       		.byte	26
 3715 057c 1A       		.byte	26
 3716 057d 1E       		.byte	30
 3717 057e 0C       		.byte	12
 3718 057f FE       		.byte	-2
 3719 0580 FE       		.byte	-2
 3720 0581 30       		.byte	48
 3721 0582 00       		.byte	0
 3722 0583 00       		.byte	0
 3723 0584 0E       		.byte	14
 3724 0585 1E       		.byte	30
 3725 0586 18       		.byte	24
 3726 0587 18       		.byte	24
 3727 0588 18       		.byte	24
 3728 0589 F0       		.byte	-16
 3729 058a F0       		.byte	-16
 3730 058b 00       		.byte	0
 3731 058c 00       		.byte	0
 3732 058d F0       		.byte	-16
 3733 058e F0       		.byte	-16
 3734 058f 0E       		.byte	14
 3735 0590 1E       		.byte	30
 3736 0591 18       		.byte	24
 3737 0592 18       		.byte	24
 3738 0593 1E       		.byte	30
 3739 0594 1E       		.byte	30
 3740 0595 F0       		.byte	-16
 3741 0596 F0       		.byte	-16
 3742 0597 00       		.byte	0
 3743 0598 00       		.byte	0
 3744 0599 F0       		.byte	-16
 3745 059a F0       		.byte	-16
 3746 059b 02       		.byte	2
 3747 059c 0E       		.byte	14
 3748 059d 0C       		.byte	12
 3749 059e 18       		.byte	24
 3750 059f 1E       		.byte	30
 3751 05a0 1E       		.byte	30
 3752 05a1 F0       		.byte	-16
 3753 05a2 F0       		.byte	-16
 3754 05a3 00       		.byte	0
 3755 05a4 00       		.byte	0
 3756 05a5 00       		.byte	0
 3757 05a6 00       		.byte	0
 3758 05a7 F0       		.byte	-16
 3759 05a8 F0       		.byte	-16
 3760 05a9 0E       		.byte	14
 3761 05aa 1E       		.byte	30
 3762 05ab 18       		.byte	24
 3763 05ac 0C       		.byte	12
 3764 05ad 1C       		.byte	28
 3765 05ae 18       		.byte	24
 3766 05af 0E       		.byte	14
 3767 05b0 0E       		.byte	14
 3768 05b1 F0       		.byte	-16
 3769 05b2 F0       		.byte	-16
 3770 05b3 80       		.byte	-128
 3771 05b4 80       		.byte	-128
 3772 05b5 F0       		.byte	-16
 3773 05b6 F0       		.byte	-16
 3774 05b7 1C       		.byte	28
 3775 05b8 1E       		.byte	30
 3776 05b9 02       		.byte	2
 3777 05ba 02       		.byte	2
 3778 05bb 1E       		.byte	30
 3779 05bc 1C       		.byte	28
 3780 05bd F0       		.byte	-16
 3781 05be F0       		.byte	-16
 3782 05bf 00       		.byte	0
 3783 05c0 00       		.byte	0
 3784 05c1 F0       		.byte	-16
 3785 05c2 F0       		.byte	-16
 3786 05c3 CE       		.byte	-50
 3787 05c4 DE       		.byte	-34
 3788 05c5 D8       		.byte	-40
 3789 05c6 D8       		.byte	-40
 3790 05c7 FE       		.byte	-2
 3791 05c8 7E       		.byte	126
 3792 05c9 30       		.byte	48
 3793 05ca B0       		.byte	-80
 3794 05cb B0       		.byte	-80
 3795 05cc B0       		.byte	-80
 3796 05cd F0       		.byte	-16
 3797 05ce F0       		.byte	-16
 3798 05cf 1C       		.byte	28
 3799 05d0 1E       		.byte	30
 3800 05d1 1A       		.byte	26
 3801 05d2 1A       		.byte	26
 3802 05d3 1A       		.byte	26
 3803 05d4 18       		.byte	24
 3804 05d5 C0       		.byte	-64
 3805 05d6 FE       		.byte	-2
 3806 05d7 BE       		.byte	-66
 3807 05d8 03       		.byte	3
 3808 05d9 03       		.byte	3
 3809 05da 00       		.byte	0
 3810 05db 1E       		.byte	30
 3811 05dc 1E       		.byte	30
 3812 05dd 60       		.byte	96
 3813 05de 60       		.byte	96
 3814 05df FE       		.byte	-2
 3815 05e0 FE       		.byte	-2
 3816 05e1 1E       		.byte	30
 3817 05e2 1E       		.byte	30
 3818 05e3 03       		.byte	3
 3819 05e4 BF       		.byte	-65
 3820 05e5 BE       		.byte	-66
 3821 05e6 C0       		.byte	-64
 3822 05e7 C0       		.byte	-64
 3823 05e8 60       		.byte	96
 3824 05e9 7E       		.byte	126
 3825 05ea 1E       		.byte	30
 3826 05eb 00       		.byte	0
 3827 05ec 00       		.byte	0
 3828 05ed 06       		.byte	6
 3829 05ee 06       		.byte	6
 3830 05ef 06       		.byte	6
 3831 05f0 00       		.byte	0
 3832 05f1 00       		.byte	0
 3833 05f2 00       		.byte	0
 3834 05f3 00       		.space	1
 3837              	alterebro49:
 3838 05f4 74       		.byte	116
 3839 05f5 A5       		.byte	-91
 3840 05f6 0A       		.byte	10
 3841 05f7 1E       		.byte	30
 3842 05f8 20       		.byte	32
 3843 05f9 5F       		.byte	95
 3844 05fa 00       		.byte	0
 3845 05fb 03       		.byte	3
 3846 05fc 09       		.byte	9
 3847 05fd 0F       		.byte	15
 3848 05fe 0F       		.byte	15
 3849 05ff 15       		.byte	21
 3850 0600 0F       		.byte	15
 3851 0601 03       		.byte	3
 3852 0602 06       		.byte	6
 3853 0603 06       		.byte	6
 3854 0604 09       		.byte	9
 3855 0605 0F       		.byte	15
 3856 0606 03       		.byte	3
 3857 0607 09       		.byte	9
 3858 0608 03       		.byte	3
 3859 0609 0C       		.byte	12
 3860 060a 0C       		.byte	12
 3861 060b 06       		.byte	6
 3862 060c 0C       		.byte	12
 3863 060d 0C       		.byte	12
 3864 060e 0C       		.byte	12
 3865 060f 0C       		.byte	12
 3866 0610 0C       		.byte	12
 3867 0611 0C       		.byte	12
 3868 0612 0C       		.byte	12
 3869 0613 0C       		.byte	12
 3870 0614 03       		.byte	3
 3871 0615 03       		.byte	3
 3872 0616 09       		.byte	9
 3873 0617 09       		.byte	9
 3874 0618 09       		.byte	9
 3875 0619 0F       		.byte	15
 3876 061a 12       		.byte	18
 3877 061b 0C       		.byte	12
 3878 061c 0C       		.byte	12
 3879 061d 0C       		.byte	12
 3880 061e 0C       		.byte	12
 3881 061f 0D       		.byte	13
 3882 0620 0D       		.byte	13
 3883 0621 0C       		.byte	12
 3884 0622 0C       		.byte	12
 3885 0623 03       		.byte	3
 3886 0624 0C       		.byte	12
 3887 0625 0C       		.byte	12
 3888 0626 09       		.byte	9
 3889 0627 0F       		.byte	15
 3890 0628 0C       		.byte	12
 3891 0629 0C       		.byte	12
 3892 062a 0C       		.byte	12
 3893 062b 0C       		.byte	12
 3894 062c 0C       		.byte	12
 3895 062d 0C       		.byte	12
 3896 062e 0F       		.byte	15
 3897 062f 0C       		.byte	12
 3898 0630 0C       		.byte	12
 3899 0631 0F       		.byte	15
 3900 0632 0C       		.byte	12
 3901 0633 0F       		.byte	15
 3902 0634 0C       		.byte	12
 3903 0635 06       		.byte	6
 3904 0636 0C       		.byte	12
 3905 0637 06       		.byte	6
 3906 0638 09       		.byte	9
 3907 0639 09       		.byte	9
 3908 063a 03       		.byte	3
 3909 063b 0C       		.byte	12
 3910 063c 0C       		.byte	12
 3911 063d 0C       		.byte	12
 3912 063e 0C       		.byte	12
 3913 063f 0C       		.byte	12
 3914 0640 09       		.byte	9
 3915 0641 0C       		.byte	12
 3916 0642 0C       		.byte	12
 3917 0643 03       		.byte	3
 3918 0644 06       		.byte	6
 3919 0645 09       		.byte	9
 3920 0646 03       		.byte	3
 3921 0647 0F       		.byte	15
 3922 0648 0C       		.byte	12
 3923 0649 0C       		.byte	12
 3924 064a 0C       		.byte	12
 3925 064b 0C       		.byte	12
 3926 064c 09       		.byte	9
 3927 064d 0C       		.byte	12
 3928 064e 09       		.byte	9
 3929 064f 0C       		.byte	12
 3930 0650 0C       		.byte	12
 3931 0651 0F       		.byte	15
 3932 0652 0C       		.byte	12
 3933 0653 0C       		.byte	12
 3934 0654 0C       		.byte	12
 3935 0655 09       		.byte	9
 3936 0656 03       		.byte	3
 3937 0657 09       		.byte	9
 3938 0658 06       		.byte	6
 3939 0659 F8       		.byte	-8
 3940 065a F8       		.byte	-8
 3941 065b F8       		.byte	-8
 3942 065c FF       		.byte	-1
 3943 065d FF       		.byte	-1
 3944 065e FF       		.byte	-1
 3945 065f E3       		.byte	-29
 3946 0660 E3       		.byte	-29
 3947 0661 E3       		.byte	-29
 3948 0662 00       		.byte	0
 3949 0663 00       		.byte	0
 3950 0664 00       		.byte	0
 3951 0665 F8       		.byte	-8
 3952 0666 F8       		.byte	-8
 3953 0667 F8       		.byte	-8
 3954 0668 00       		.byte	0
 3955 0669 00       		.byte	0
 3956 066a 00       		.byte	0
 3957 066b F8       		.byte	-8
 3958 066c F8       		.byte	-8
 3959 066d F8       		.byte	-8
 3960 066e 01       		.byte	1
 3961 066f 01       		.byte	1
 3962 0670 01       		.byte	1
 3963 0671 00       		.byte	0
 3964 0672 00       		.byte	0
 3965 0673 00       		.byte	0
 3966 0674 01       		.byte	1
 3967 0675 01       		.byte	1
 3968 0676 01       		.byte	1
 3969 0677 00       		.byte	0
 3970 0678 00       		.byte	0
 3971 0679 00       		.byte	0
 3972 067a 00       		.byte	0
 3973 067b 00       		.byte	0
 3974 067c 00       		.byte	0
 3975 067d 00       		.byte	0
 3976 067e 00       		.byte	0
 3977 067f 00       		.byte	0
 3978 0680 00       		.byte	0
 3979 0681 00       		.byte	0
 3980 0682 00       		.byte	0
 3981 0683 00       		.byte	0
 3982 0684 00       		.byte	0
 3983 0685 00       		.byte	0
 3984 0686 00       		.byte	0
 3985 0687 00       		.byte	0
 3986 0688 00       		.byte	0
 3987 0689 00       		.byte	0
 3988 068a 00       		.byte	0
 3989 068b 00       		.byte	0
 3990 068c C0       		.byte	-64
 3991 068d C0       		.byte	-64
 3992 068e C0       		.byte	-64
 3993 068f 00       		.byte	0
 3994 0690 00       		.byte	0
 3995 0691 00       		.byte	0
 3996 0692 C0       		.byte	-64
 3997 0693 C0       		.byte	-64
 3998 0694 C0       		.byte	-64
 3999 0695 00       		.byte	0
 4000 0696 00       		.byte	0
 4001 0697 00       		.byte	0
 4002 0698 8E       		.byte	-114
 4003 0699 8E       		.byte	-114
 4004 069a 8E       		.byte	-114
 4005 069b FF       		.byte	-1
 4006 069c FF       		.byte	-1
 4007 069d FF       		.byte	-1
 4008 069e 8E       		.byte	-114
 4009 069f 8E       		.byte	-114
 4010 06a0 8E       		.byte	-114
 4011 06a1 FF       		.byte	-1
 4012 06a2 FF       		.byte	-1
 4013 06a3 FF       		.byte	-1
 4014 06a4 8E       		.byte	-114
 4015 06a5 8E       		.byte	-114
 4016 06a6 8E       		.byte	-114
 4017 06a7 03       		.byte	3
 4018 06a8 03       		.byte	3
 4019 06a9 03       		.byte	3
 4020 06aa 1F       		.byte	31
 4021 06ab 1F       		.byte	31
 4022 06ac 1F       		.byte	31
 4023 06ad 03       		.byte	3
 4024 06ae 03       		.byte	3
 4025 06af 03       		.byte	3
 4026 06b0 1F       		.byte	31
 4027 06b1 1F       		.byte	31
 4028 06b2 1F       		.byte	31
 4029 06b3 03       		.byte	3
 4030 06b4 03       		.byte	3
 4031 06b5 03       		.byte	3
 4032 06b6 00       		.byte	0
 4033 06b7 00       		.byte	0
 4034 06b8 00       		.byte	0
 4035 06b9 00       		.byte	0
 4036 06ba 00       		.byte	0
 4037 06bb 00       		.byte	0
 4038 06bc 00       		.byte	0
 4039 06bd 00       		.byte	0
 4040 06be 00       		.byte	0
 4041 06bf 00       		.byte	0
 4042 06c0 00       		.byte	0
 4043 06c1 00       		.byte	0
 4044 06c2 00       		.byte	0
 4045 06c3 00       		.byte	0
 4046 06c4 00       		.byte	0
 4047 06c5 C0       		.byte	-64
 4048 06c6 C0       		.byte	-64
 4049 06c7 C0       		.byte	-64
 4050 06c8 38       		.byte	56
 4051 06c9 38       		.byte	56
 4052 06ca 38       		.byte	56
 4053 06cb FF       		.byte	-1
 4054 06cc FF       		.byte	-1
 4055 06cd FF       		.byte	-1
 4056 06ce 38       		.byte	56
 4057 06cf 38       		.byte	56
 4058 06d0 38       		.byte	56
 4059 06d1 38       		.byte	56
 4060 06d2 38       		.byte	56
 4061 06d3 38       		.byte	56
 4062 06d4 0F       		.byte	15
 4063 06d5 0F       		.byte	15
 4064 06d6 0F       		.byte	15
 4065 06d7 70       		.byte	112
 4066 06d8 70       		.byte	112
 4067 06d9 70       		.byte	112
 4068 06da FF       		.byte	-1
 4069 06db FF       		.byte	-1
 4070 06dc FF       		.byte	-1
 4071 06dd 70       		.byte	112
 4072 06de 70       		.byte	112
 4073 06df 70       		.byte	112
 4074 06e0 80       		.byte	-128
 4075 06e1 80       		.byte	-128
 4076 06e2 80       		.byte	-128
 4077 06e3 E0       		.byte	-32
 4078 06e4 E0       		.byte	-32
 4079 06e5 E0       		.byte	-32
 4080 06e6 E0       		.byte	-32
 4081 06e7 E0       		.byte	-32
 4082 06e8 E0       		.byte	-32
 4083 06e9 FF       		.byte	-1
 4084 06ea FF       		.byte	-1
 4085 06eb FF       		.byte	-1
 4086 06ec E0       		.byte	-32
 4087 06ed E0       		.byte	-32
 4088 06ee E0       		.byte	-32
 4089 06ef 1F       		.byte	31
 4090 06f0 1F       		.byte	31
 4091 06f1 1F       		.byte	31
 4092 06f2 00       		.byte	0
 4093 06f3 00       		.byte	0
 4094 06f4 00       		.byte	0
 4095 06f5 00       		.byte	0
 4096 06f6 00       		.byte	0
 4097 06f7 00       		.byte	0
 4098 06f8 1C       		.byte	28
 4099 06f9 1C       		.byte	28
 4100 06fa 1C       		.byte	28
 4101 06fb 00       		.byte	0
 4102 06fc 00       		.byte	0
 4103 06fd 00       		.byte	0
 4104 06fe 00       		.byte	0
 4105 06ff 00       		.byte	0
 4106 0700 00       		.byte	0
 4107 0701 C0       		.byte	-64
 4108 0702 C0       		.byte	-64
 4109 0703 C0       		.byte	-64
 4110 0704 38       		.byte	56
 4111 0705 38       		.byte	56
 4112 0706 38       		.byte	56
 4113 0707 C0       		.byte	-64
 4114 0708 C0       		.byte	-64
 4115 0709 C0       		.byte	-64
 4116 070a 00       		.byte	0
 4117 070b 00       		.byte	0
 4118 070c 00       		.byte	0
 4119 070d 00       		.byte	0
 4120 070e 00       		.byte	0
 4121 070f 00       		.byte	0
 4122 0710 C0       		.byte	-64
 4123 0711 C0       		.byte	-64
 4124 0712 C0       		.byte	-64
 4125 0713 38       		.byte	56
 4126 0714 38       		.byte	56
 4127 0715 38       		.byte	56
 4128 0716 01       		.byte	1
 4129 0717 01       		.byte	1
 4130 0718 01       		.byte	1
 4131 0719 0E       		.byte	14
 4132 071a 0E       		.byte	14
 4133 071b 0E       		.byte	14
 4134 071c 81       		.byte	-127
 4135 071d 81       		.byte	-127
 4136 071e 81       		.byte	-127
 4137 071f 70       		.byte	112
 4138 0720 70       		.byte	112
 4139 0721 70       		.byte	112
 4140 0722 0E       		.byte	14
 4141 0723 0E       		.byte	14
 4142 0724 0E       		.byte	14
 4143 0725 81       		.byte	-127
 4144 0726 81       		.byte	-127
 4145 0727 81       		.byte	-127
 4146 0728 00       		.byte	0
 4147 0729 00       		.byte	0
 4148 072a 00       		.byte	0
 4149 072b E0       		.byte	-32
 4150 072c E0       		.byte	-32
 4151 072d E0       		.byte	-32
 4152 072e 1C       		.byte	28
 4153 072f 1C       		.byte	28
 4154 0730 1C       		.byte	28
 4155 0731 03       		.byte	3
 4156 0732 03       		.byte	3
 4157 0733 03       		.byte	3
 4158 0734 00       		.byte	0
 4159 0735 00       		.byte	0
 4160 0736 00       		.byte	0
 4161 0737 1C       		.byte	28
 4162 0738 1C       		.byte	28
 4163 0739 1C       		.byte	28
 4164 073a E3       		.byte	-29
 4165 073b E3       		.byte	-29
 4166 073c E3       		.byte	-29
 4167 073d 1C       		.byte	28
 4168 073e 1C       		.byte	28
 4169 073f 1C       		.byte	28
 4170 0740 00       		.byte	0
 4171 0741 00       		.byte	0
 4172 0742 00       		.byte	0
 4173 0743 00       		.byte	0
 4174 0744 00       		.byte	0
 4175 0745 00       		.byte	0
 4176 0746 00       		.byte	0
 4177 0747 00       		.byte	0
 4178 0748 00       		.byte	0
 4179 0749 00       		.byte	0
 4180 074a 00       		.byte	0
 4181 074b 00       		.byte	0
 4182 074c 00       		.byte	0
 4183 074d 00       		.byte	0
 4184 074e 00       		.byte	0
 4185 074f 00       		.byte	0
 4186 0750 00       		.byte	0
 4187 0751 00       		.byte	0
 4188 0752 00       		.byte	0
 4189 0753 00       		.byte	0
 4190 0754 00       		.byte	0
 4191 0755 C0       		.byte	-64
 4192 0756 C0       		.byte	-64
 4193 0757 C0       		.byte	-64
 4194 0758 38       		.byte	56
 4195 0759 38       		.byte	56
 4196 075a 38       		.byte	56
 4197 075b 38       		.byte	56
 4198 075c 38       		.byte	56
 4199 075d 38       		.byte	56
 4200 075e C0       		.byte	-64
 4201 075f C0       		.byte	-64
 4202 0760 C0       		.byte	-64
 4203 0761 00       		.byte	0
 4204 0762 00       		.byte	0
 4205 0763 00       		.byte	0
 4206 0764 8F       		.byte	-113
 4207 0765 8F       		.byte	-113
 4208 0766 8F       		.byte	-113
 4209 0767 70       		.byte	112
 4210 0768 70       		.byte	112
 4211 0769 70       		.byte	112
 4212 076a 8E       		.byte	-114
 4213 076b 8E       		.byte	-114
 4214 076c 8E       		.byte	-114
 4215 076d 01       		.byte	1
 4216 076e 01       		.byte	1
 4217 076f 01       		.byte	1
 4218 0770 F0       		.byte	-16
 4219 0771 F0       		.byte	-16
 4220 0772 F0       		.byte	-16
 4221 0773 1F       		.byte	31
 4222 0774 1F       		.byte	31
 4223 0775 1F       		.byte	31
 4224 0776 E0       		.byte	-32
 4225 0777 E0       		.byte	-32
 4226 0778 E0       		.byte	-32
 4227 0779 E3       		.byte	-29
 4228 077a E3       		.byte	-29
 4229 077b E3       		.byte	-29
 4230 077c 1C       		.byte	28
 4231 077d 1C       		.byte	28
 4232 077e 1C       		.byte	28
 4233 077f E3       		.byte	-29
 4234 0780 E3       		.byte	-29
 4235 0781 E3       		.byte	-29
 4236 0782 00       		.byte	0
 4237 0783 00       		.byte	0
 4238 0784 00       		.byte	0
 4239 0785 00       		.byte	0
 4240 0786 00       		.byte	0
 4241 0787 00       		.byte	0
 4242 0788 00       		.byte	0
 4243 0789 00       		.byte	0
 4244 078a 00       		.byte	0
 4245 078b 00       		.byte	0
 4246 078c 00       		.byte	0
 4247 078d 00       		.byte	0
 4248 078e 00       		.byte	0
 4249 078f 00       		.byte	0
 4250 0790 00       		.byte	0
 4251 0791 F8       		.byte	-8
 4252 0792 F8       		.byte	-8
 4253 0793 F8       		.byte	-8
 4254 0794 01       		.byte	1
 4255 0795 01       		.byte	1
 4256 0796 01       		.byte	1
 4257 0797 00       		.byte	0
 4258 0798 00       		.byte	0
 4259 0799 00       		.byte	0
 4260 079a 00       		.byte	0
 4261 079b 00       		.byte	0
 4262 079c 00       		.byte	0
 4263 079d F8       		.byte	-8
 4264 079e F8       		.byte	-8
 4265 079f F8       		.byte	-8
 4266 07a0 07       		.byte	7
 4267 07a1 07       		.byte	7
 4268 07a2 07       		.byte	7
 4269 07a3 FF       		.byte	-1
 4270 07a4 FF       		.byte	-1
 4271 07a5 FF       		.byte	-1
 4272 07a6 00       		.byte	0
 4273 07a7 00       		.byte	0
 4274 07a8 00       		.byte	0
 4275 07a9 FF       		.byte	-1
 4276 07aa FF       		.byte	-1
 4277 07ab FF       		.byte	-1
 4278 07ac 00       		.byte	0
 4279 07ad 00       		.byte	0
 4280 07ae 00       		.byte	0
 4281 07af 00       		.byte	0
 4282 07b0 00       		.byte	0
 4283 07b1 00       		.byte	0
 4284 07b2 1C       		.byte	28
 4285 07b3 1C       		.byte	28
 4286 07b4 1C       		.byte	28
 4287 07b5 07       		.byte	7
 4288 07b6 07       		.byte	7
 4289 07b7 07       		.byte	7
 4290 07b8 F8       		.byte	-8
 4291 07b9 F8       		.byte	-8
 4292 07ba F8       		.byte	-8
 4293 07bb 00       		.byte	0
 4294 07bc 00       		.byte	0
 4295 07bd 00       		.byte	0
 4296 07be FF       		.byte	-1
 4297 07bf FF       		.byte	-1
 4298 07c0 FF       		.byte	-1
 4299 07c1 00       		.byte	0
 4300 07c2 00       		.byte	0
 4301 07c3 00       		.byte	0
 4302 07c4 FF       		.byte	-1
 4303 07c5 FF       		.byte	-1
 4304 07c6 FF       		.byte	-1
 4305 07c7 1C       		.byte	28
 4306 07c8 1C       		.byte	28
 4307 07c9 1C       		.byte	28
 4308 07ca 00       		.byte	0
 4309 07cb 00       		.byte	0
 4310 07cc 00       		.byte	0
 4311 07cd 38       		.byte	56
 4312 07ce 38       		.byte	56
 4313 07cf 38       		.byte	56
 4314 07d0 C0       		.byte	-64
 4315 07d1 C0       		.byte	-64
 4316 07d2 C0       		.byte	-64
 4317 07d3 38       		.byte	56
 4318 07d4 38       		.byte	56
 4319 07d5 38       		.byte	56
 4320 07d6 0E       		.byte	14
 4321 07d7 0E       		.byte	14
 4322 07d8 0E       		.byte	14
 4323 07d9 01       		.byte	1
 4324 07da 01       		.byte	1
 4325 07db 01       		.byte	1
 4326 07dc 0E       		.byte	14
 4327 07dd 0E       		.byte	14
 4328 07de 0E       		.byte	14
 4329 07df 00       		.byte	0
 4330 07e0 00       		.byte	0
 4331 07e1 00       		.byte	0
 4332 07e2 00       		.byte	0
 4333 07e3 00       		.byte	0
 4334 07e4 00       		.byte	0
 4335 07e5 00       		.byte	0
 4336 07e6 00       		.byte	0
 4337 07e7 00       		.byte	0
 4338 07e8 00       		.byte	0
 4339 07e9 00       		.byte	0
 4340 07ea 00       		.byte	0
 4341 07eb 00       		.byte	0
 4342 07ec 00       		.byte	0
 4343 07ed 00       		.byte	0
 4344 07ee 00       		.byte	0
 4345 07ef 00       		.byte	0
 4346 07f0 00       		.byte	0
 4347 07f1 00       		.byte	0
 4348 07f2 00       		.byte	0
 4349 07f3 00       		.byte	0
 4350 07f4 00       		.byte	0
 4351 07f5 00       		.byte	0
 4352 07f6 00       		.byte	0
 4353 07f7 C0       		.byte	-64
 4354 07f8 C0       		.byte	-64
 4355 07f9 C0       		.byte	-64
 4356 07fa 00       		.byte	0
 4357 07fb 00       		.byte	0
 4358 07fc 00       		.byte	0
 4359 07fd 00       		.byte	0
 4360 07fe 00       		.byte	0
 4361 07ff 00       		.byte	0
 4362 0800 70       		.byte	112
 4363 0801 70       		.byte	112
 4364 0802 70       		.byte	112
 4365 0803 70       		.byte	112
 4366 0804 70       		.byte	112
 4367 0805 70       		.byte	112
 4368 0806 FF       		.byte	-1
 4369 0807 FF       		.byte	-1
 4370 0808 FF       		.byte	-1
 4371 0809 70       		.byte	112
 4372 080a 70       		.byte	112
 4373 080b 70       		.byte	112
 4374 080c 70       		.byte	112
 4375 080d 70       		.byte	112
 4376 080e 70       		.byte	112
 4377 080f 00       		.byte	0
 4378 0810 00       		.byte	0
 4379 0811 00       		.byte	0
 4380 0812 00       		.byte	0
 4381 0813 00       		.byte	0
 4382 0814 00       		.byte	0
 4383 0815 1F       		.byte	31
 4384 0816 1F       		.byte	31
 4385 0817 1F       		.byte	31
 4386 0818 00       		.byte	0
 4387 0819 00       		.byte	0
 4388 081a 00       		.byte	0
 4389 081b 00       		.byte	0
 4390 081c 00       		.byte	0
 4391 081d 00       		.byte	0
 4392 081e 00       		.byte	0
 4393 081f 00       		.byte	0
 4394 0820 00       		.byte	0
 4395 0821 00       		.byte	0
 4396 0822 00       		.byte	0
 4397 0823 00       		.byte	0
 4398 0824 00       		.byte	0
 4399 0825 00       		.byte	0
 4400 0826 00       		.byte	0
 4401 0827 00       		.byte	0
 4402 0828 00       		.byte	0
 4403 0829 00       		.byte	0
 4404 082a 00       		.byte	0
 4405 082b 00       		.byte	0
 4406 082c 00       		.byte	0
 4407 082d 00       		.byte	0
 4408 082e 00       		.byte	0
 4409 082f 00       		.byte	0
 4410 0830 00       		.byte	0
 4411 0831 00       		.byte	0
 4412 0832 00       		.byte	0
 4413 0833 E0       		.byte	-32
 4414 0834 E0       		.byte	-32
 4415 0835 E0       		.byte	-32
 4416 0836 1C       		.byte	28
 4417 0837 1C       		.byte	28
 4418 0838 1C       		.byte	28
 4419 0839 00       		.byte	0
 4420 083a 00       		.byte	0
 4421 083b 00       		.byte	0
 4422 083c 00       		.byte	0
 4423 083d 00       		.byte	0
 4424 083e 00       		.byte	0
 4425 083f 00       		.byte	0
 4426 0840 00       		.byte	0
 4427 0841 00       		.byte	0
 4428 0842 70       		.byte	112
 4429 0843 70       		.byte	112
 4430 0844 70       		.byte	112
 4431 0845 70       		.byte	112
 4432 0846 70       		.byte	112
 4433 0847 70       		.byte	112
 4434 0848 70       		.byte	112
 4435 0849 70       		.byte	112
 4436 084a 70       		.byte	112
 4437 084b 00       		.byte	0
 4438 084c 00       		.byte	0
 4439 084d 00       		.byte	0
 4440 084e 00       		.byte	0
 4441 084f 00       		.byte	0
 4442 0850 00       		.byte	0
 4443 0851 00       		.byte	0
 4444 0852 00       		.byte	0
 4445 0853 00       		.byte	0
 4446 0854 00       		.byte	0
 4447 0855 00       		.byte	0
 4448 0856 00       		.byte	0
 4449 0857 00       		.byte	0
 4450 0858 00       		.byte	0
 4451 0859 00       		.byte	0
 4452 085a 00       		.byte	0
 4453 085b 00       		.byte	0
 4454 085c 00       		.byte	0
 4455 085d 00       		.byte	0
 4456 085e 00       		.byte	0
 4457 085f 00       		.byte	0
 4458 0860 00       		.byte	0
 4459 0861 00       		.byte	0
 4460 0862 00       		.byte	0
 4461 0863 E0       		.byte	-32
 4462 0864 E0       		.byte	-32
 4463 0865 E0       		.byte	-32
 4464 0866 00       		.byte	0
 4465 0867 00       		.byte	0
 4466 0868 00       		.byte	0
 4467 0869 00       		.byte	0
 4468 086a 00       		.byte	0
 4469 086b 00       		.byte	0
 4470 086c 00       		.byte	0
 4471 086d 00       		.byte	0
 4472 086e 00       		.byte	0
 4473 086f C0       		.byte	-64
 4474 0870 C0       		.byte	-64
 4475 0871 C0       		.byte	-64
 4476 0872 38       		.byte	56
 4477 0873 38       		.byte	56
 4478 0874 38       		.byte	56
 4479 0875 00       		.byte	0
 4480 0876 00       		.byte	0
 4481 0877 00       		.byte	0
 4482 0878 F0       		.byte	-16
 4483 0879 F0       		.byte	-16
 4484 087a F0       		.byte	-16
 4485 087b 0F       		.byte	15
 4486 087c 0F       		.byte	15
 4487 087d 0F       		.byte	15
 4488 087e 00       		.byte	0
 4489 087f 00       		.byte	0
 4490 0880 00       		.byte	0
 4491 0881 FC       		.byte	-4
 4492 0882 FC       		.byte	-4
 4493 0883 FC       		.byte	-4
 4494 0884 03       		.byte	3
 4495 0885 03       		.byte	3
 4496 0886 03       		.byte	3
 4497 0887 00       		.byte	0
 4498 0888 00       		.byte	0
 4499 0889 00       		.byte	0
 4500 088a 00       		.byte	0
 4501 088b 00       		.byte	0
 4502 088c 00       		.byte	0
 4503 088d 00       		.byte	0
 4504 088e 00       		.byte	0
 4505 088f 00       		.byte	0
 4506 0890 00       		.byte	0
 4507 0891 00       		.byte	0
 4508 0892 00       		.byte	0
 4509 0893 00       		.byte	0
 4510 0894 00       		.byte	0
 4511 0895 00       		.byte	0
 4512 0896 00       		.byte	0
 4513 0897 00       		.byte	0
 4514 0898 00       		.byte	0
 4515 0899 C0       		.byte	-64
 4516 089a C0       		.byte	-64
 4517 089b C0       		.byte	-64
 4518 089c 38       		.byte	56
 4519 089d 38       		.byte	56
 4520 089e 38       		.byte	56
 4521 089f 38       		.byte	56
 4522 08a0 38       		.byte	56
 4523 08a1 38       		.byte	56
 4524 08a2 C0       		.byte	-64
 4525 08a3 C0       		.byte	-64
 4526 08a4 C0       		.byte	-64
 4527 08a5 FF       		.byte	-1
 4528 08a6 FF       		.byte	-1
 4529 08a7 FF       		.byte	-1
 4530 08a8 00       		.byte	0
 4531 08a9 00       		.byte	0
 4532 08aa 00       		.byte	0
 4533 08ab 00       		.byte	0
 4534 08ac 00       		.byte	0
 4535 08ad 00       		.byte	0
 4536 08ae FF       		.byte	-1
 4537 08af FF       		.byte	-1
 4538 08b0 FF       		.byte	-1
 4539 08b1 1F       		.byte	31
 4540 08b2 1F       		.byte	31
 4541 08b3 1F       		.byte	31
 4542 08b4 E0       		.byte	-32
 4543 08b5 E0       		.byte	-32
 4544 08b6 E0       		.byte	-32
 4545 08b7 E0       		.byte	-32
 4546 08b8 E0       		.byte	-32
 4547 08b9 E0       		.byte	-32
 4548 08ba 1F       		.byte	31
 4549 08bb 1F       		.byte	31
 4550 08bc 1F       		.byte	31
 4551 08bd 00       		.byte	0
 4552 08be 00       		.byte	0
 4553 08bf 00       		.byte	0
 4554 08c0 00       		.byte	0
 4555 08c1 00       		.byte	0
 4556 08c2 00       		.byte	0
 4557 08c3 00       		.byte	0
 4558 08c4 00       		.byte	0
 4559 08c5 00       		.byte	0
 4560 08c6 00       		.byte	0
 4561 08c7 00       		.byte	0
 4562 08c8 00       		.byte	0
 4563 08c9 C0       		.byte	-64
 4564 08ca C0       		.byte	-64
 4565 08cb C0       		.byte	-64
 4566 08cc F8       		.byte	-8
 4567 08cd F8       		.byte	-8
 4568 08ce F8       		.byte	-8
 4569 08cf 01       		.byte	1
 4570 08d0 01       		.byte	1
 4571 08d1 01       		.byte	1
 4572 08d2 FF       		.byte	-1
 4573 08d3 FF       		.byte	-1
 4574 08d4 FF       		.byte	-1
 4575 08d5 00       		.byte	0
 4576 08d6 00       		.byte	0
 4577 08d7 00       		.byte	0
 4578 08d8 FF       		.byte	-1
 4579 08d9 FF       		.byte	-1
 4580 08da FF       		.byte	-1
 4581 08db 00       		.byte	0
 4582 08dc 00       		.byte	0
 4583 08dd 00       		.byte	0
 4584 08de 00       		.byte	0
 4585 08df 00       		.byte	0
 4586 08e0 00       		.byte	0
 4587 08e1 C0       		.byte	-64
 4588 08e2 C0       		.byte	-64
 4589 08e3 C0       		.byte	-64
 4590 08e4 38       		.byte	56
 4591 08e5 38       		.byte	56
 4592 08e6 38       		.byte	56
 4593 08e7 38       		.byte	56
 4594 08e8 38       		.byte	56
 4595 08e9 38       		.byte	56
 4596 08ea C0       		.byte	-64
 4597 08eb C0       		.byte	-64
 4598 08ec C0       		.byte	-64
 4599 08ed 01       		.byte	1
 4600 08ee 01       		.byte	1
 4601 08ef 01       		.byte	1
 4602 08f0 80       		.byte	-128
 4603 08f1 80       		.byte	-128
 4604 08f2 80       		.byte	-128
 4605 08f3 70       		.byte	112
 4606 08f4 70       		.byte	112
 4607 08f5 70       		.byte	112
 4608 08f6 0F       		.byte	15
 4609 08f7 0F       		.byte	15
 4610 08f8 0F       		.byte	15
 4611 08f9 FC       		.byte	-4
 4612 08fa FC       		.byte	-4
 4613 08fb FC       		.byte	-4
 4614 08fc E3       		.byte	-29
 4615 08fd E3       		.byte	-29
 4616 08fe E3       		.byte	-29
 4617 08ff E0       		.byte	-32
 4618 0900 E0       		.byte	-32
 4619 0901 E0       		.byte	-32
 4620 0902 E0       		.byte	-32
 4621 0903 E0       		.byte	-32
 4622 0904 E0       		.byte	-32
 4623 0905 00       		.byte	0
 4624 0906 00       		.byte	0
 4625 0907 00       		.byte	0
 4626 0908 00       		.byte	0
 4627 0909 00       		.byte	0
 4628 090a 00       		.byte	0
 4629 090b 00       		.byte	0
 4630 090c 00       		.byte	0
 4631 090d 00       		.byte	0
 4632 090e 00       		.byte	0
 4633 090f 00       		.byte	0
 4634 0910 00       		.byte	0
 4635 0911 38       		.byte	56
 4636 0912 38       		.byte	56
 4637 0913 38       		.byte	56
 4638 0914 38       		.byte	56
 4639 0915 38       		.byte	56
 4640 0916 38       		.byte	56
 4641 0917 38       		.byte	56
 4642 0918 38       		.byte	56
 4643 0919 38       		.byte	56
 4644 091a F8       		.byte	-8
 4645 091b F8       		.byte	-8
 4646 091c F8       		.byte	-8
 4647 091d 00       		.byte	0
 4648 091e 00       		.byte	0
 4649 091f 00       		.byte	0
 4650 0920 70       		.byte	112
 4651 0921 70       		.byte	112
 4652 0922 70       		.byte	112
 4653 0923 70       		.byte	112
 4654 0924 70       		.byte	112
 4655 0925 70       		.byte	112
 4656 0926 8F       		.byte	-113
 4657 0927 8F       		.byte	-113
 4658 0928 8F       		.byte	-113
 4659 0929 E0       		.byte	-32
 4660 092a E0       		.byte	-32
 4661 092b E0       		.byte	-32
 4662 092c E0       		.byte	-32
 4663 092d E0       		.byte	-32
 4664 092e E0       		.byte	-32
 4665 092f E0       		.byte	-32
 4666 0930 E0       		.byte	-32
 4667 0931 E0       		.byte	-32
 4668 0932 1F       		.byte	31
 4669 0933 1F       		.byte	31
 4670 0934 1F       		.byte	31
 4671 0935 00       		.byte	0
 4672 0936 00       		.byte	0
 4673 0937 00       		.byte	0
 4674 0938 00       		.byte	0
 4675 0939 00       		.byte	0
 4676 093a 00       		.byte	0
 4677 093b 00       		.byte	0
 4678 093c 00       		.byte	0
 4679 093d 00       		.byte	0
 4680 093e 00       		.byte	0
 4681 093f 00       		.byte	0
 4682 0940 00       		.byte	0
 4683 0941 F8       		.byte	-8
 4684 0942 F8       		.byte	-8
 4685 0943 F8       		.byte	-8
 4686 0944 00       		.byte	0
 4687 0945 00       		.byte	0
 4688 0946 00       		.byte	0
 4689 0947 00       		.byte	0
 4690 0948 00       		.byte	0
 4691 0949 00       		.byte	0
 4692 094a F8       		.byte	-8
 4693 094b F8       		.byte	-8
 4694 094c F8       		.byte	-8
 4695 094d 7F       		.byte	127
 4696 094e 7F       		.byte	127
 4697 094f 7F       		.byte	127
 4698 0950 70       		.byte	112
 4699 0951 70       		.byte	112
 4700 0952 70       		.byte	112
 4701 0953 70       		.byte	112
 4702 0954 70       		.byte	112
 4703 0955 70       		.byte	112
 4704 0956 FF       		.byte	-1
 4705 0957 FF       		.byte	-1
 4706 0958 FF       		.byte	-1
 4707 0959 00       		.byte	0
 4708 095a 00       		.byte	0
 4709 095b 00       		.byte	0
 4710 095c 00       		.byte	0
 4711 095d 00       		.byte	0
 4712 095e 00       		.byte	0
 4713 095f 00       		.byte	0
 4714 0960 00       		.byte	0
 4715 0961 00       		.byte	0
 4716 0962 FF       		.byte	-1
 4717 0963 FF       		.byte	-1
 4718 0964 FF       		.byte	-1
 4719 0965 00       		.byte	0
 4720 0966 00       		.byte	0
 4721 0967 00       		.byte	0
 4722 0968 00       		.byte	0
 4723 0969 00       		.byte	0
 4724 096a 00       		.byte	0
 4725 096b 00       		.byte	0
 4726 096c 00       		.byte	0
 4727 096d 00       		.byte	0
 4728 096e 00       		.byte	0
 4729 096f 00       		.byte	0
 4730 0970 00       		.byte	0
 4731 0971 F8       		.byte	-8
 4732 0972 F8       		.byte	-8
 4733 0973 F8       		.byte	-8
 4734 0974 38       		.byte	56
 4735 0975 38       		.byte	56
 4736 0976 38       		.byte	56
 4737 0977 38       		.byte	56
 4738 0978 38       		.byte	56
 4739 0979 38       		.byte	56
 4740 097a 38       		.byte	56
 4741 097b 38       		.byte	56
 4742 097c 38       		.byte	56
 4743 097d 7F       		.byte	127
 4744 097e 7F       		.byte	127
 4745 097f 7F       		.byte	127
 4746 0980 70       		.byte	112
 4747 0981 70       		.byte	112
 4748 0982 70       		.byte	112
 4749 0983 70       		.byte	112
 4750 0984 70       		.byte	112
 4751 0985 70       		.byte	112
 4752 0986 80       		.byte	-128
 4753 0987 80       		.byte	-128
 4754 0988 80       		.byte	-128
 4755 0989 E0       		.byte	-32
 4756 098a E0       		.byte	-32
 4757 098b E0       		.byte	-32
 4758 098c E0       		.byte	-32
 4759 098d E0       		.byte	-32
 4760 098e E0       		.byte	-32
 4761 098f E0       		.byte	-32
 4762 0990 E0       		.byte	-32
 4763 0991 E0       		.byte	-32
 4764 0992 1F       		.byte	31
 4765 0993 1F       		.byte	31
 4766 0994 1F       		.byte	31
 4767 0995 00       		.byte	0
 4768 0996 00       		.byte	0
 4769 0997 00       		.byte	0
 4770 0998 00       		.byte	0
 4771 0999 00       		.byte	0
 4772 099a 00       		.byte	0
 4773 099b 00       		.byte	0
 4774 099c 00       		.byte	0
 4775 099d 00       		.byte	0
 4776 099e 00       		.byte	0
 4777 099f 00       		.byte	0
 4778 09a0 00       		.byte	0
 4779 09a1 C0       		.byte	-64
 4780 09a2 C0       		.byte	-64
 4781 09a3 C0       		.byte	-64
 4782 09a4 38       		.byte	56
 4783 09a5 38       		.byte	56
 4784 09a6 38       		.byte	56
 4785 09a7 38       		.byte	56
 4786 09a8 38       		.byte	56
 4787 09a9 38       		.byte	56
 4788 09aa 00       		.byte	0
 4789 09ab 00       		.byte	0
 4790 09ac 00       		.byte	0
 4791 09ad FF       		.byte	-1
 4792 09ae FF       		.byte	-1
 4793 09af FF       		.byte	-1
 4794 09b0 70       		.byte	112
 4795 09b1 70       		.byte	112
 4796 09b2 70       		.byte	112
 4797 09b3 70       		.byte	112
 4798 09b4 70       		.byte	112
 4799 09b5 70       		.byte	112
 4800 09b6 80       		.byte	-128
 4801 09b7 80       		.byte	-128
 4802 09b8 80       		.byte	-128
 4803 09b9 1F       		.byte	31
 4804 09ba 1F       		.byte	31
 4805 09bb 1F       		.byte	31
 4806 09bc E0       		.byte	-32
 4807 09bd E0       		.byte	-32
 4808 09be E0       		.byte	-32
 4809 09bf E0       		.byte	-32
 4810 09c0 E0       		.byte	-32
 4811 09c1 E0       		.byte	-32
 4812 09c2 1F       		.byte	31
 4813 09c3 1F       		.byte	31
 4814 09c4 1F       		.byte	31
 4815 09c5 00       		.byte	0
 4816 09c6 00       		.byte	0
 4817 09c7 00       		.byte	0
 4818 09c8 00       		.byte	0
 4819 09c9 00       		.byte	0
 4820 09ca 00       		.byte	0
 4821 09cb 00       		.byte	0
 4822 09cc 00       		.byte	0
 4823 09cd 00       		.byte	0
 4824 09ce 00       		.byte	0
 4825 09cf 00       		.byte	0
 4826 09d0 00       		.byte	0
 4827 09d1 38       		.byte	56
 4828 09d2 38       		.byte	56
 4829 09d3 38       		.byte	56
 4830 09d4 38       		.byte	56
 4831 09d5 38       		.byte	56
 4832 09d6 38       		.byte	56
 4833 09d7 38       		.byte	56
 4834 09d8 38       		.byte	56
 4835 09d9 38       		.byte	56
 4836 09da F8       		.byte	-8
 4837 09db F8       		.byte	-8
 4838 09dc F8       		.byte	-8
 4839 09dd 00       		.byte	0
 4840 09de 00       		.byte	0
 4841 09df 00       		.byte	0
 4842 09e0 80       		.byte	-128
 4843 09e1 80       		.byte	-128
 4844 09e2 80       		.byte	-128
 4845 09e3 70       		.byte	112
 4846 09e4 70       		.byte	112
 4847 09e5 70       		.byte	112
 4848 09e6 0F       		.byte	15
 4849 09e7 0F       		.byte	15
 4850 09e8 0F       		.byte	15
 4851 09e9 00       		.byte	0
 4852 09ea 00       		.byte	0
 4853 09eb 00       		.byte	0
 4854 09ec FF       		.byte	-1
 4855 09ed FF       		.byte	-1
 4856 09ee FF       		.byte	-1
 4857 09ef 00       		.byte	0
 4858 09f0 00       		.byte	0
 4859 09f1 00       		.byte	0
 4860 09f2 00       		.byte	0
 4861 09f3 00       		.byte	0
 4862 09f4 00       		.byte	0
 4863 09f5 00       		.byte	0
 4864 09f6 00       		.byte	0
 4865 09f7 00       		.byte	0
 4866 09f8 00       		.byte	0
 4867 09f9 00       		.byte	0
 4868 09fa 00       		.byte	0
 4869 09fb 00       		.byte	0
 4870 09fc 00       		.byte	0
 4871 09fd 00       		.byte	0
 4872 09fe 00       		.byte	0
 4873 09ff 00       		.byte	0
 4874 0a00 00       		.byte	0
 4875 0a01 C0       		.byte	-64
 4876 0a02 C0       		.byte	-64
 4877 0a03 C0       		.byte	-64
 4878 0a04 38       		.byte	56
 4879 0a05 38       		.byte	56
 4880 0a06 38       		.byte	56
 4881 0a07 38       		.byte	56
 4882 0a08 38       		.byte	56
 4883 0a09 38       		.byte	56
 4884 0a0a C0       		.byte	-64
 4885 0a0b C0       		.byte	-64
 4886 0a0c C0       		.byte	-64
 4887 0a0d 8F       		.byte	-113
 4888 0a0e 8F       		.byte	-113
 4889 0a0f 8F       		.byte	-113
 4890 0a10 70       		.byte	112
 4891 0a11 70       		.byte	112
 4892 0a12 70       		.byte	112
 4893 0a13 70       		.byte	112
 4894 0a14 70       		.byte	112
 4895 0a15 70       		.byte	112
 4896 0a16 8F       		.byte	-113
 4897 0a17 8F       		.byte	-113
 4898 0a18 8F       		.byte	-113
 4899 0a19 1F       		.byte	31
 4900 0a1a 1F       		.byte	31
 4901 0a1b 1F       		.byte	31
 4902 0a1c E0       		.byte	-32
 4903 0a1d E0       		.byte	-32
 4904 0a1e E0       		.byte	-32
 4905 0a1f E0       		.byte	-32
 4906 0a20 E0       		.byte	-32
 4907 0a21 E0       		.byte	-32
 4908 0a22 1F       		.byte	31
 4909 0a23 1F       		.byte	31
 4910 0a24 1F       		.byte	31
 4911 0a25 00       		.byte	0
 4912 0a26 00       		.byte	0
 4913 0a27 00       		.byte	0
 4914 0a28 00       		.byte	0
 4915 0a29 00       		.byte	0
 4916 0a2a 00       		.byte	0
 4917 0a2b 00       		.byte	0
 4918 0a2c 00       		.byte	0
 4919 0a2d 00       		.byte	0
 4920 0a2e 00       		.byte	0
 4921 0a2f 00       		.byte	0
 4922 0a30 00       		.byte	0
 4923 0a31 C0       		.byte	-64
 4924 0a32 C0       		.byte	-64
 4925 0a33 C0       		.byte	-64
 4926 0a34 38       		.byte	56
 4927 0a35 38       		.byte	56
 4928 0a36 38       		.byte	56
 4929 0a37 38       		.byte	56
 4930 0a38 38       		.byte	56
 4931 0a39 38       		.byte	56
 4932 0a3a C0       		.byte	-64
 4933 0a3b C0       		.byte	-64
 4934 0a3c C0       		.byte	-64
 4935 0a3d 0F       		.byte	15
 4936 0a3e 0F       		.byte	15
 4937 0a3f 0F       		.byte	15
 4938 0a40 70       		.byte	112
 4939 0a41 70       		.byte	112
 4940 0a42 70       		.byte	112
 4941 0a43 70       		.byte	112
 4942 0a44 70       		.byte	112
 4943 0a45 70       		.byte	112
 4944 0a46 FF       		.byte	-1
 4945 0a47 FF       		.byte	-1
 4946 0a48 FF       		.byte	-1
 4947 0a49 E0       		.byte	-32
 4948 0a4a E0       		.byte	-32
 4949 0a4b E0       		.byte	-32
 4950 0a4c E0       		.byte	-32
 4951 0a4d E0       		.byte	-32
 4952 0a4e E0       		.byte	-32
 4953 0a4f E0       		.byte	-32
 4954 0a50 E0       		.byte	-32
 4955 0a51 E0       		.byte	-32
 4956 0a52 1F       		.byte	31
 4957 0a53 1F       		.byte	31
 4958 0a54 1F       		.byte	31
 4959 0a55 00       		.byte	0
 4960 0a56 00       		.byte	0
 4961 0a57 00       		.byte	0
 4962 0a58 00       		.byte	0
 4963 0a59 00       		.byte	0
 4964 0a5a 00       		.byte	0
 4965 0a5b 00       		.byte	0
 4966 0a5c 00       		.byte	0
 4967 0a5d 00       		.byte	0
 4968 0a5e 00       		.byte	0
 4969 0a5f 00       		.byte	0
 4970 0a60 00       		.byte	0
 4971 0a61 00       		.byte	0
 4972 0a62 00       		.byte	0
 4973 0a63 00       		.byte	0
 4974 0a64 80       		.byte	-128
 4975 0a65 80       		.byte	-128
 4976 0a66 80       		.byte	-128
 4977 0a67 E3       		.byte	-29
 4978 0a68 E3       		.byte	-29
 4979 0a69 E3       		.byte	-29
 4980 0a6a 00       		.byte	0
 4981 0a6b 00       		.byte	0
 4982 0a6c 00       		.byte	0
 4983 0a6d 00       		.byte	0
 4984 0a6e 00       		.byte	0
 4985 0a6f 00       		.byte	0
 4986 0a70 80       		.byte	-128
 4987 0a71 80       		.byte	-128
 4988 0a72 80       		.byte	-128
 4989 0a73 E3       		.byte	-29
 4990 0a74 E3       		.byte	-29
 4991 0a75 E3       		.byte	-29
 4992 0a76 1C       		.byte	28
 4993 0a77 1C       		.byte	28
 4994 0a78 1C       		.byte	28
 4995 0a79 00       		.byte	0
 4996 0a7a 00       		.byte	0
 4997 0a7b 00       		.byte	0
 4998 0a7c 00       		.byte	0
 4999 0a7d 00       		.byte	0
 5000 0a7e 00       		.byte	0
 5001 0a7f 00       		.byte	0
 5002 0a80 00       		.byte	0
 5003 0a81 00       		.byte	0
 5004 0a82 80       		.byte	-128
 5005 0a83 80       		.byte	-128
 5006 0a84 80       		.byte	-128
 5007 0a85 70       		.byte	112
 5008 0a86 70       		.byte	112
 5009 0a87 70       		.byte	112
 5010 0a88 0E       		.byte	14
 5011 0a89 0E       		.byte	14
 5012 0a8a 0E       		.byte	14
 5013 0a8b 03       		.byte	3
 5014 0a8c 03       		.byte	3
 5015 0a8d 03       		.byte	3
 5016 0a8e 1C       		.byte	28
 5017 0a8f 1C       		.byte	28
 5018 0a90 1C       		.byte	28
 5019 0a91 E0       		.byte	-32
 5020 0a92 E0       		.byte	-32
 5021 0a93 E0       		.byte	-32
 5022 0a94 00       		.byte	0
 5023 0a95 00       		.byte	0
 5024 0a96 00       		.byte	0
 5025 0a97 00       		.byte	0
 5026 0a98 00       		.byte	0
 5027 0a99 00       		.byte	0
 5028 0a9a 00       		.byte	0
 5029 0a9b 00       		.byte	0
 5030 0a9c 00       		.byte	0
 5031 0a9d 00       		.byte	0
 5032 0a9e 00       		.byte	0
 5033 0a9f 00       		.byte	0
 5034 0aa0 00       		.byte	0
 5035 0aa1 00       		.byte	0
 5036 0aa2 00       		.byte	0
 5037 0aa3 00       		.byte	0
 5038 0aa4 00       		.byte	0
 5039 0aa5 00       		.byte	0
 5040 0aa6 8E       		.byte	-114
 5041 0aa7 8E       		.byte	-114
 5042 0aa8 8E       		.byte	-114
 5043 0aa9 8E       		.byte	-114
 5044 0aaa 8E       		.byte	-114
 5045 0aab 8E       		.byte	-114
 5046 0aac 8E       		.byte	-114
 5047 0aad 8E       		.byte	-114
 5048 0aae 8E       		.byte	-114
 5049 0aaf 03       		.byte	3
 5050 0ab0 03       		.byte	3
 5051 0ab1 03       		.byte	3
 5052 0ab2 03       		.byte	3
 5053 0ab3 03       		.byte	3
 5054 0ab4 03       		.byte	3
 5055 0ab5 03       		.byte	3
 5056 0ab6 03       		.byte	3
 5057 0ab7 03       		.byte	3
 5058 0ab8 00       		.byte	0
 5059 0ab9 00       		.byte	0
 5060 0aba 00       		.byte	0
 5061 0abb 00       		.byte	0
 5062 0abc 00       		.byte	0
 5063 0abd 00       		.byte	0
 5064 0abe 00       		.byte	0
 5065 0abf 00       		.byte	0
 5066 0ac0 00       		.byte	0
 5067 0ac1 00       		.byte	0
 5068 0ac2 00       		.byte	0
 5069 0ac3 00       		.byte	0
 5070 0ac4 00       		.byte	0
 5071 0ac5 00       		.byte	0
 5072 0ac6 00       		.byte	0
 5073 0ac7 00       		.byte	0
 5074 0ac8 00       		.byte	0
 5075 0ac9 00       		.byte	0
 5076 0aca 0E       		.byte	14
 5077 0acb 0E       		.byte	14
 5078 0acc 0E       		.byte	14
 5079 0acd 70       		.byte	112
 5080 0ace 70       		.byte	112
 5081 0acf 70       		.byte	112
 5082 0ad0 80       		.byte	-128
 5083 0ad1 80       		.byte	-128
 5084 0ad2 80       		.byte	-128
 5085 0ad3 E0       		.byte	-32
 5086 0ad4 E0       		.byte	-32
 5087 0ad5 E0       		.byte	-32
 5088 0ad6 1C       		.byte	28
 5089 0ad7 1C       		.byte	28
 5090 0ad8 1C       		.byte	28
 5091 0ad9 03       		.byte	3
 5092 0ada 03       		.byte	3
 5093 0adb 03       		.byte	3
 5094 0adc 00       		.byte	0
 5095 0add 00       		.byte	0
 5096 0ade 00       		.byte	0
 5097 0adf 00       		.byte	0
 5098 0ae0 00       		.byte	0
 5099 0ae1 00       		.byte	0
 5100 0ae2 00       		.byte	0
 5101 0ae3 00       		.byte	0
 5102 0ae4 00       		.byte	0
 5103 0ae5 C0       		.byte	-64
 5104 0ae6 C0       		.byte	-64
 5105 0ae7 C0       		.byte	-64
 5106 0ae8 38       		.byte	56
 5107 0ae9 38       		.byte	56
 5108 0aea 38       		.byte	56
 5109 0aeb 38       		.byte	56
 5110 0aec 38       		.byte	56
 5111 0aed 38       		.byte	56
 5112 0aee 38       		.byte	56
 5113 0aef 38       		.byte	56
 5114 0af0 38       		.byte	56
 5115 0af1 C0       		.byte	-64
 5116 0af2 C0       		.byte	-64
 5117 0af3 C0       		.byte	-64
 5118 0af4 01       		.byte	1
 5119 0af5 01       		.byte	1
 5120 0af6 01       		.byte	1
 5121 0af7 00       		.byte	0
 5122 0af8 00       		.byte	0
 5123 0af9 00       		.byte	0
 5124 0afa 80       		.byte	-128
 5125 0afb 80       		.byte	-128
 5126 0afc 80       		.byte	-128
 5127 0afd 70       		.byte	112
 5128 0afe 70       		.byte	112
 5129 0aff 70       		.byte	112
 5130 0b00 0F       		.byte	15
 5131 0b01 0F       		.byte	15
 5132 0b02 0F       		.byte	15
 5133 0b03 00       		.byte	0
 5134 0b04 00       		.byte	0
 5135 0b05 00       		.byte	0
 5136 0b06 00       		.byte	0
 5137 0b07 00       		.byte	0
 5138 0b08 00       		.byte	0
 5139 0b09 E3       		.byte	-29
 5140 0b0a E3       		.byte	-29
 5141 0b0b E3       		.byte	-29
 5142 0b0c 00       		.byte	0
 5143 0b0d 00       		.byte	0
 5144 0b0e 00       		.byte	0
 5145 0b0f 00       		.byte	0
 5146 0b10 00       		.byte	0
 5147 0b11 00       		.byte	0
 5148 0b12 00       		.byte	0
 5149 0b13 00       		.byte	0
 5150 0b14 00       		.byte	0
 5151 0b15 00       		.byte	0
 5152 0b16 00       		.byte	0
 5153 0b17 00       		.byte	0
 5154 0b18 00       		.byte	0
 5155 0b19 00       		.byte	0
 5156 0b1a 00       		.byte	0
 5157 0b1b 00       		.byte	0
 5158 0b1c 00       		.byte	0
 5159 0b1d 00       		.byte	0
 5160 0b1e 00       		.byte	0
 5161 0b1f 00       		.byte	0
 5162 0b20 00       		.byte	0
 5163 0b21 C0       		.byte	-64
 5164 0b22 C0       		.byte	-64
 5165 0b23 C0       		.byte	-64
 5166 0b24 38       		.byte	56
 5167 0b25 38       		.byte	56
 5168 0b26 38       		.byte	56
 5169 0b27 38       		.byte	56
 5170 0b28 38       		.byte	56
 5171 0b29 38       		.byte	56
 5172 0b2a 38       		.byte	56
 5173 0b2b 38       		.byte	56
 5174 0b2c 38       		.byte	56
 5175 0b2d 38       		.byte	56
 5176 0b2e 38       		.byte	56
 5177 0b2f 38       		.byte	56
 5178 0b30 C0       		.byte	-64
 5179 0b31 C0       		.byte	-64
 5180 0b32 C0       		.byte	-64
 5181 0b33 FF       		.byte	-1
 5182 0b34 FF       		.byte	-1
 5183 0b35 FF       		.byte	-1
 5184 0b36 00       		.byte	0
 5185 0b37 00       		.byte	0
 5186 0b38 00       		.byte	0
 5187 0b39 FE       		.byte	-2
 5188 0b3a FE       		.byte	-2
 5189 0b3b FE       		.byte	-2
 5190 0b3c 8E       		.byte	-114
 5191 0b3d 8E       		.byte	-114
 5192 0b3e 8E       		.byte	-114
 5193 0b3f 80       		.byte	-128
 5194 0b40 80       		.byte	-128
 5195 0b41 80       		.byte	-128
 5196 0b42 FF       		.byte	-1
 5197 0b43 FF       		.byte	-1
 5198 0b44 FF       		.byte	-1
 5199 0b45 1F       		.byte	31
 5200 0b46 1F       		.byte	31
 5201 0b47 1F       		.byte	31
 5202 0b48 E0       		.byte	-32
 5203 0b49 E0       		.byte	-32
 5204 0b4a E0       		.byte	-32
 5205 0b4b E3       		.byte	-29
 5206 0b4c E3       		.byte	-29
 5207 0b4d E3       		.byte	-29
 5208 0b4e E3       		.byte	-29
 5209 0b4f E3       		.byte	-29
 5210 0b50 E3       		.byte	-29
 5211 0b51 E3       		.byte	-29
 5212 0b52 E3       		.byte	-29
 5213 0b53 E3       		.byte	-29
 5214 0b54 03       		.byte	3
 5215 0b55 03       		.byte	3
 5216 0b56 03       		.byte	3
 5217 0b57 00       		.byte	0
 5218 0b58 00       		.byte	0
 5219 0b59 00       		.byte	0
 5220 0b5a 00       		.byte	0
 5221 0b5b 00       		.byte	0
 5222 0b5c 00       		.byte	0
 5223 0b5d 00       		.byte	0
 5224 0b5e 00       		.byte	0
 5225 0b5f 00       		.byte	0
 5226 0b60 00       		.byte	0
 5227 0b61 00       		.byte	0
 5228 0b62 00       		.byte	0
 5229 0b63 00       		.byte	0
 5230 0b64 00       		.byte	0
 5231 0b65 00       		.byte	0
 5232 0b66 00       		.byte	0
 5233 0b67 00       		.byte	0
 5234 0b68 00       		.byte	0
 5235 0b69 C0       		.byte	-64
 5236 0b6a C0       		.byte	-64
 5237 0b6b C0       		.byte	-64
 5238 0b6c 38       		.byte	56
 5239 0b6d 38       		.byte	56
 5240 0b6e 38       		.byte	56
 5241 0b6f 38       		.byte	56
 5242 0b70 38       		.byte	56
 5243 0b71 38       		.byte	56
 5244 0b72 F8       		.byte	-8
 5245 0b73 F8       		.byte	-8
 5246 0b74 F8       		.byte	-8
 5247 0b75 FF       		.byte	-1
 5248 0b76 FF       		.byte	-1
 5249 0b77 FF       		.byte	-1
 5250 0b78 70       		.byte	112
 5251 0b79 70       		.byte	112
 5252 0b7a 70       		.byte	112
 5253 0b7b 70       		.byte	112
 5254 0b7c 70       		.byte	112
 5255 0b7d 70       		.byte	112
 5256 0b7e FF       		.byte	-1
 5257 0b7f FF       		.byte	-1
 5258 0b80 FF       		.byte	-1
 5259 0b81 FF       		.byte	-1
 5260 0b82 FF       		.byte	-1
 5261 0b83 FF       		.byte	-1
 5262 0b84 00       		.byte	0
 5263 0b85 00       		.byte	0
 5264 0b86 00       		.byte	0
 5265 0b87 00       		.byte	0
 5266 0b88 00       		.byte	0
 5267 0b89 00       		.byte	0
 5268 0b8a FF       		.byte	-1
 5269 0b8b FF       		.byte	-1
 5270 0b8c FF       		.byte	-1
 5271 0b8d 00       		.byte	0
 5272 0b8e 00       		.byte	0
 5273 0b8f 00       		.byte	0
 5274 0b90 00       		.byte	0
 5275 0b91 00       		.byte	0
 5276 0b92 00       		.byte	0
 5277 0b93 00       		.byte	0
 5278 0b94 00       		.byte	0
 5279 0b95 00       		.byte	0
 5280 0b96 00       		.byte	0
 5281 0b97 00       		.byte	0
 5282 0b98 00       		.byte	0
 5283 0b99 F8       		.byte	-8
 5284 0b9a F8       		.byte	-8
 5285 0b9b F8       		.byte	-8
 5286 0b9c 38       		.byte	56
 5287 0b9d 38       		.byte	56
 5288 0b9e 38       		.byte	56
 5289 0b9f 38       		.byte	56
 5290 0ba0 38       		.byte	56
 5291 0ba1 38       		.byte	56
 5292 0ba2 C0       		.byte	-64
 5293 0ba3 C0       		.byte	-64
 5294 0ba4 C0       		.byte	-64
 5295 0ba5 FF       		.byte	-1
 5296 0ba6 FF       		.byte	-1
 5297 0ba7 FF       		.byte	-1
 5298 0ba8 70       		.byte	112
 5299 0ba9 70       		.byte	112
 5300 0baa 70       		.byte	112
 5301 0bab 70       		.byte	112
 5302 0bac 70       		.byte	112
 5303 0bad 70       		.byte	112
 5304 0bae 8F       		.byte	-113
 5305 0baf 8F       		.byte	-113
 5306 0bb0 8F       		.byte	-113
 5307 0bb1 FF       		.byte	-1
 5308 0bb2 FF       		.byte	-1
 5309 0bb3 FF       		.byte	-1
 5310 0bb4 E0       		.byte	-32
 5311 0bb5 E0       		.byte	-32
 5312 0bb6 E0       		.byte	-32
 5313 0bb7 E0       		.byte	-32
 5314 0bb8 E0       		.byte	-32
 5315 0bb9 E0       		.byte	-32
 5316 0bba 1F       		.byte	31
 5317 0bbb 1F       		.byte	31
 5318 0bbc 1F       		.byte	31
 5319 0bbd 00       		.byte	0
 5320 0bbe 00       		.byte	0
 5321 0bbf 00       		.byte	0
 5322 0bc0 00       		.byte	0
 5323 0bc1 00       		.byte	0
 5324 0bc2 00       		.byte	0
 5325 0bc3 00       		.byte	0
 5326 0bc4 00       		.byte	0
 5327 0bc5 00       		.byte	0
 5328 0bc6 00       		.byte	0
 5329 0bc7 00       		.byte	0
 5330 0bc8 00       		.byte	0
 5331 0bc9 C0       		.byte	-64
 5332 0bca C0       		.byte	-64
 5333 0bcb C0       		.byte	-64
 5334 0bcc 38       		.byte	56
 5335 0bcd 38       		.byte	56
 5336 0bce 38       		.byte	56
 5337 0bcf 38       		.byte	56
 5338 0bd0 38       		.byte	56
 5339 0bd1 38       		.byte	56
 5340 0bd2 38       		.byte	56
 5341 0bd3 38       		.byte	56
 5342 0bd4 38       		.byte	56
 5343 0bd5 FF       		.byte	-1
 5344 0bd6 FF       		.byte	-1
 5345 0bd7 FF       		.byte	-1
 5346 0bd8 00       		.byte	0
 5347 0bd9 00       		.byte	0
 5348 0bda 00       		.byte	0
 5349 0bdb 00       		.byte	0
 5350 0bdc 00       		.byte	0
 5351 0bdd 00       		.byte	0
 5352 0bde 00       		.byte	0
 5353 0bdf 00       		.byte	0
 5354 0be0 00       		.byte	0
 5355 0be1 1F       		.byte	31
 5356 0be2 1F       		.byte	31
 5357 0be3 1F       		.byte	31
 5358 0be4 E0       		.byte	-32
 5359 0be5 E0       		.byte	-32
 5360 0be6 E0       		.byte	-32
 5361 0be7 E0       		.byte	-32
 5362 0be8 E0       		.byte	-32
 5363 0be9 E0       		.byte	-32
 5364 0bea E0       		.byte	-32
 5365 0beb E0       		.byte	-32
 5366 0bec E0       		.byte	-32
 5367 0bed 00       		.byte	0
 5368 0bee 00       		.byte	0
 5369 0bef 00       		.byte	0
 5370 0bf0 00       		.byte	0
 5371 0bf1 00       		.byte	0
 5372 0bf2 00       		.byte	0
 5373 0bf3 00       		.byte	0
 5374 0bf4 00       		.byte	0
 5375 0bf5 00       		.byte	0
 5376 0bf6 00       		.byte	0
 5377 0bf7 00       		.byte	0
 5378 0bf8 00       		.byte	0
 5379 0bf9 F8       		.byte	-8
 5380 0bfa F8       		.byte	-8
 5381 0bfb F8       		.byte	-8
 5382 0bfc 38       		.byte	56
 5383 0bfd 38       		.byte	56
 5384 0bfe 38       		.byte	56
 5385 0bff 38       		.byte	56
 5386 0c00 38       		.byte	56
 5387 0c01 38       		.byte	56
 5388 0c02 C0       		.byte	-64
 5389 0c03 C0       		.byte	-64
 5390 0c04 C0       		.byte	-64
 5391 0c05 FF       		.byte	-1
 5392 0c06 FF       		.byte	-1
 5393 0c07 FF       		.byte	-1
 5394 0c08 00       		.byte	0
 5395 0c09 00       		.byte	0
 5396 0c0a 00       		.byte	0
 5397 0c0b 00       		.byte	0
 5398 0c0c 00       		.byte	0
 5399 0c0d 00       		.byte	0
 5400 0c0e FF       		.byte	-1
 5401 0c0f FF       		.byte	-1
 5402 0c10 FF       		.byte	-1
 5403 0c11 FF       		.byte	-1
 5404 0c12 FF       		.byte	-1
 5405 0c13 FF       		.byte	-1
 5406 0c14 E0       		.byte	-32
 5407 0c15 E0       		.byte	-32
 5408 0c16 E0       		.byte	-32
 5409 0c17 E0       		.byte	-32
 5410 0c18 E0       		.byte	-32
 5411 0c19 E0       		.byte	-32
 5412 0c1a 1F       		.byte	31
 5413 0c1b 1F       		.byte	31
 5414 0c1c 1F       		.byte	31
 5415 0c1d 00       		.byte	0
 5416 0c1e 00       		.byte	0
 5417 0c1f 00       		.byte	0
 5418 0c20 00       		.byte	0
 5419 0c21 00       		.byte	0
 5420 0c22 00       		.byte	0
 5421 0c23 00       		.byte	0
 5422 0c24 00       		.byte	0
 5423 0c25 00       		.byte	0
 5424 0c26 00       		.byte	0
 5425 0c27 00       		.byte	0
 5426 0c28 00       		.byte	0
 5427 0c29 F8       		.byte	-8
 5428 0c2a F8       		.byte	-8
 5429 0c2b F8       		.byte	-8
 5430 0c2c 38       		.byte	56
 5431 0c2d 38       		.byte	56
 5432 0c2e 38       		.byte	56
 5433 0c2f 38       		.byte	56
 5434 0c30 38       		.byte	56
 5435 0c31 38       		.byte	56
 5436 0c32 38       		.byte	56
 5437 0c33 38       		.byte	56
 5438 0c34 38       		.byte	56
 5439 0c35 38       		.byte	56
 5440 0c36 FF       		.byte	-1
 5441 0c37 FF       		.byte	-1
 5442 0c38 FF       		.byte	-1
 5443 0c39 70       		.byte	112
 5444 0c3a 70       		.byte	112
 5445 0c3b 70       		.byte	112
 5446 0c3c 70       		.byte	112
 5447 0c3d 70       		.byte	112
 5448 0c3e 70       		.byte	112
 5449 0c3f 00       		.byte	0
 5450 0c40 00       		.byte	0
 5451 0c41 00       		.byte	0
 5452 0c42 00       		.byte	0
 5453 0c43 FF       		.byte	-1
 5454 0c44 FF       		.byte	-1
 5455 0c45 FF       		.byte	-1
 5456 0c46 E0       		.byte	-32
 5457 0c47 E0       		.byte	-32
 5458 0c48 E0       		.byte	-32
 5459 0c49 E0       		.byte	-32
 5460 0c4a E0       		.byte	-32
 5461 0c4b E0       		.byte	-32
 5462 0c4c E0       		.byte	-32
 5463 0c4d E0       		.byte	-32
 5464 0c4e E0       		.byte	-32
 5465 0c4f E0       		.byte	-32
 5466 0c50 00       		.byte	0
 5467 0c51 00       		.byte	0
 5468 0c52 00       		.byte	0
 5469 0c53 00       		.byte	0
 5470 0c54 00       		.byte	0
 5471 0c55 00       		.byte	0
 5472 0c56 00       		.byte	0
 5473 0c57 00       		.byte	0
 5474 0c58 00       		.byte	0
 5475 0c59 00       		.byte	0
 5476 0c5a 00       		.byte	0
 5477 0c5b 00       		.byte	0
 5478 0c5c 00       		.byte	0
 5479 0c5d F8       		.byte	-8
 5480 0c5e F8       		.byte	-8
 5481 0c5f F8       		.byte	-8
 5482 0c60 38       		.byte	56
 5483 0c61 38       		.byte	56
 5484 0c62 38       		.byte	56
 5485 0c63 38       		.byte	56
 5486 0c64 38       		.byte	56
 5487 0c65 38       		.byte	56
 5488 0c66 38       		.byte	56
 5489 0c67 38       		.byte	56
 5490 0c68 38       		.byte	56
 5491 0c69 38       		.byte	56
 5492 0c6a FF       		.byte	-1
 5493 0c6b FF       		.byte	-1
 5494 0c6c FF       		.byte	-1
 5495 0c6d 70       		.byte	112
 5496 0c6e 70       		.byte	112
 5497 0c6f 70       		.byte	112
 5498 0c70 70       		.byte	112
 5499 0c71 70       		.byte	112
 5500 0c72 70       		.byte	112
 5501 0c73 00       		.byte	0
 5502 0c74 00       		.byte	0
 5503 0c75 00       		.byte	0
 5504 0c76 00       		.byte	0
 5505 0c77 FF       		.byte	-1
 5506 0c78 FF       		.byte	-1
 5507 0c79 FF       		.byte	-1
 5508 0c7a 00       		.byte	0
 5509 0c7b 00       		.byte	0
 5510 0c7c 00       		.byte	0
 5511 0c7d 00       		.byte	0
 5512 0c7e 00       		.byte	0
 5513 0c7f 00       		.byte	0
 5514 0c80 00       		.byte	0
 5515 0c81 00       		.byte	0
 5516 0c82 00       		.byte	0
 5517 0c83 00       		.byte	0
 5518 0c84 00       		.byte	0
 5519 0c85 00       		.byte	0
 5520 0c86 00       		.byte	0
 5521 0c87 00       		.byte	0
 5522 0c88 00       		.byte	0
 5523 0c89 00       		.byte	0
 5524 0c8a 00       		.byte	0
 5525 0c8b 00       		.byte	0
 5526 0c8c 00       		.byte	0
 5527 0c8d 00       		.byte	0
 5528 0c8e 00       		.byte	0
 5529 0c8f 00       		.byte	0
 5530 0c90 00       		.byte	0
 5531 0c91 C0       		.byte	-64
 5532 0c92 C0       		.byte	-64
 5533 0c93 C0       		.byte	-64
 5534 0c94 38       		.byte	56
 5535 0c95 38       		.byte	56
 5536 0c96 38       		.byte	56
 5537 0c97 38       		.byte	56
 5538 0c98 38       		.byte	56
 5539 0c99 38       		.byte	56
 5540 0c9a 38       		.byte	56
 5541 0c9b 38       		.byte	56
 5542 0c9c 38       		.byte	56
 5543 0c9d FF       		.byte	-1
 5544 0c9e FF       		.byte	-1
 5545 0c9f FF       		.byte	-1
 5546 0ca0 00       		.byte	0
 5547 0ca1 00       		.byte	0
 5548 0ca2 00       		.byte	0
 5549 0ca3 00       		.byte	0
 5550 0ca4 00       		.byte	0
 5551 0ca5 00       		.byte	0
 5552 0ca6 F0       		.byte	-16
 5553 0ca7 F0       		.byte	-16
 5554 0ca8 F0       		.byte	-16
 5555 0ca9 1F       		.byte	31
 5556 0caa 1F       		.byte	31
 5557 0cab 1F       		.byte	31
 5558 0cac E0       		.byte	-32
 5559 0cad E0       		.byte	-32
 5560 0cae E0       		.byte	-32
 5561 0caf E0       		.byte	-32
 5562 0cb0 E0       		.byte	-32
 5563 0cb1 E0       		.byte	-32
 5564 0cb2 FF       		.byte	-1
 5565 0cb3 FF       		.byte	-1
 5566 0cb4 FF       		.byte	-1
 5567 0cb5 00       		.byte	0
 5568 0cb6 00       		.byte	0
 5569 0cb7 00       		.byte	0
 5570 0cb8 00       		.byte	0
 5571 0cb9 00       		.byte	0
 5572 0cba 00       		.byte	0
 5573 0cbb 00       		.byte	0
 5574 0cbc 00       		.byte	0
 5575 0cbd 00       		.byte	0
 5576 0cbe 00       		.byte	0
 5577 0cbf 00       		.byte	0
 5578 0cc0 00       		.byte	0
 5579 0cc1 F8       		.byte	-8
 5580 0cc2 F8       		.byte	-8
 5581 0cc3 F8       		.byte	-8
 5582 0cc4 00       		.byte	0
 5583 0cc5 00       		.byte	0
 5584 0cc6 00       		.byte	0
 5585 0cc7 00       		.byte	0
 5586 0cc8 00       		.byte	0
 5587 0cc9 00       		.byte	0
 5588 0cca F8       		.byte	-8
 5589 0ccb F8       		.byte	-8
 5590 0ccc F8       		.byte	-8
 5591 0ccd FF       		.byte	-1
 5592 0cce FF       		.byte	-1
 5593 0ccf FF       		.byte	-1
 5594 0cd0 70       		.byte	112
 5595 0cd1 70       		.byte	112
 5596 0cd2 70       		.byte	112
 5597 0cd3 70       		.byte	112
 5598 0cd4 70       		.byte	112
 5599 0cd5 70       		.byte	112
 5600 0cd6 FF       		.byte	-1
 5601 0cd7 FF       		.byte	-1
 5602 0cd8 FF       		.byte	-1
 5603 0cd9 FF       		.byte	-1
 5604 0cda FF       		.byte	-1
 5605 0cdb FF       		.byte	-1
 5606 0cdc 00       		.byte	0
 5607 0cdd 00       		.byte	0
 5608 0cde 00       		.byte	0
 5609 0cdf 00       		.byte	0
 5610 0ce0 00       		.byte	0
 5611 0ce1 00       		.byte	0
 5612 0ce2 FF       		.byte	-1
 5613 0ce3 FF       		.byte	-1
 5614 0ce4 FF       		.byte	-1
 5615 0ce5 00       		.byte	0
 5616 0ce6 00       		.byte	0
 5617 0ce7 00       		.byte	0
 5618 0ce8 00       		.byte	0
 5619 0ce9 00       		.byte	0
 5620 0cea 00       		.byte	0
 5621 0ceb 00       		.byte	0
 5622 0cec 00       		.byte	0
 5623 0ced 00       		.byte	0
 5624 0cee 00       		.byte	0
 5625 0cef 00       		.byte	0
 5626 0cf0 00       		.byte	0
 5627 0cf1 F8       		.byte	-8
 5628 0cf2 F8       		.byte	-8
 5629 0cf3 F8       		.byte	-8
 5630 0cf4 FF       		.byte	-1
 5631 0cf5 FF       		.byte	-1
 5632 0cf6 FF       		.byte	-1
 5633 0cf7 FF       		.byte	-1
 5634 0cf8 FF       		.byte	-1
 5635 0cf9 FF       		.byte	-1
 5636 0cfa 00       		.byte	0
 5637 0cfb 00       		.byte	0
 5638 0cfc 00       		.byte	0
 5639 0cfd 00       		.byte	0
 5640 0cfe 00       		.byte	0
 5641 0cff 00       		.byte	0
 5642 0d00 00       		.byte	0
 5643 0d01 00       		.byte	0
 5644 0d02 00       		.byte	0
 5645 0d03 00       		.byte	0
 5646 0d04 00       		.byte	0
 5647 0d05 00       		.byte	0
 5648 0d06 F8       		.byte	-8
 5649 0d07 F8       		.byte	-8
 5650 0d08 F8       		.byte	-8
 5651 0d09 80       		.byte	-128
 5652 0d0a 80       		.byte	-128
 5653 0d0b 80       		.byte	-128
 5654 0d0c 00       		.byte	0
 5655 0d0d 00       		.byte	0
 5656 0d0e 00       		.byte	0
 5657 0d0f 00       		.byte	0
 5658 0d10 00       		.byte	0
 5659 0d11 00       		.byte	0
 5660 0d12 FF       		.byte	-1
 5661 0d13 FF       		.byte	-1
 5662 0d14 FF       		.byte	-1
 5663 0d15 1F       		.byte	31
 5664 0d16 1F       		.byte	31
 5665 0d17 1F       		.byte	31
 5666 0d18 E0       		.byte	-32
 5667 0d19 E0       		.byte	-32
 5668 0d1a E0       		.byte	-32
 5669 0d1b E0       		.byte	-32
 5670 0d1c E0       		.byte	-32
 5671 0d1d E0       		.byte	-32
 5672 0d1e 1F       		.byte	31
 5673 0d1f 1F       		.byte	31
 5674 0d20 1F       		.byte	31
 5675 0d21 00       		.byte	0
 5676 0d22 00       		.byte	0
 5677 0d23 00       		.byte	0
 5678 0d24 00       		.byte	0
 5679 0d25 00       		.byte	0
 5680 0d26 00       		.byte	0
 5681 0d27 00       		.byte	0
 5682 0d28 00       		.byte	0
 5683 0d29 00       		.byte	0
 5684 0d2a 00       		.byte	0
 5685 0d2b 00       		.byte	0
 5686 0d2c 00       		.byte	0
 5687 0d2d F8       		.byte	-8
 5688 0d2e F8       		.byte	-8
 5689 0d2f F8       		.byte	-8
 5690 0d30 00       		.byte	0
 5691 0d31 00       		.byte	0
 5692 0d32 00       		.byte	0
 5693 0d33 00       		.byte	0
 5694 0d34 00       		.byte	0
 5695 0d35 00       		.byte	0
 5696 0d36 F8       		.byte	-8
 5697 0d37 F8       		.byte	-8
 5698 0d38 F8       		.byte	-8
 5699 0d39 FF       		.byte	-1
 5700 0d3a FF       		.byte	-1
 5701 0d3b FF       		.byte	-1
 5702 0d3c 70       		.byte	112
 5703 0d3d 70       		.byte	112
 5704 0d3e 70       		.byte	112
 5705 0d3f 70       		.byte	112
 5706 0d40 70       		.byte	112
 5707 0d41 70       		.byte	112
 5708 0d42 8F       		.byte	-113
 5709 0d43 8F       		.byte	-113
 5710 0d44 8F       		.byte	-113
 5711 0d45 FF       		.byte	-1
 5712 0d46 FF       		.byte	-1
 5713 0d47 FF       		.byte	-1
 5714 0d48 00       		.byte	0
 5715 0d49 00       		.byte	0
 5716 0d4a 00       		.byte	0
 5717 0d4b 00       		.byte	0
 5718 0d4c 00       		.byte	0
 5719 0d4d 00       		.byte	0
 5720 0d4e FF       		.byte	-1
 5721 0d4f FF       		.byte	-1
 5722 0d50 FF       		.byte	-1
 5723 0d51 00       		.byte	0
 5724 0d52 00       		.byte	0
 5725 0d53 00       		.byte	0
 5726 0d54 00       		.byte	0
 5727 0d55 00       		.byte	0
 5728 0d56 00       		.byte	0
 5729 0d57 00       		.byte	0
 5730 0d58 00       		.byte	0
 5731 0d59 00       		.byte	0
 5732 0d5a 00       		.byte	0
 5733 0d5b 00       		.byte	0
 5734 0d5c 00       		.byte	0
 5735 0d5d F8       		.byte	-8
 5736 0d5e F8       		.byte	-8
 5737 0d5f F8       		.byte	-8
 5738 0d60 00       		.byte	0
 5739 0d61 00       		.byte	0
 5740 0d62 00       		.byte	0
 5741 0d63 00       		.byte	0
 5742 0d64 00       		.byte	0
 5743 0d65 00       		.byte	0
 5744 0d66 FF       		.byte	-1
 5745 0d67 FF       		.byte	-1
 5746 0d68 FF       		.byte	-1
 5747 0d69 00       		.byte	0
 5748 0d6a 00       		.byte	0
 5749 0d6b 00       		.byte	0
 5750 0d6c 00       		.byte	0
 5751 0d6d 00       		.byte	0
 5752 0d6e 00       		.byte	0
 5753 0d6f FF       		.byte	-1
 5754 0d70 FF       		.byte	-1
 5755 0d71 FF       		.byte	-1
 5756 0d72 E0       		.byte	-32
 5757 0d73 E0       		.byte	-32
 5758 0d74 E0       		.byte	-32
 5759 0d75 E0       		.byte	-32
 5760 0d76 E0       		.byte	-32
 5761 0d77 E0       		.byte	-32
 5762 0d78 00       		.byte	0
 5763 0d79 00       		.byte	0
 5764 0d7a 00       		.byte	0
 5765 0d7b 00       		.byte	0
 5766 0d7c 00       		.byte	0
 5767 0d7d 00       		.byte	0
 5768 0d7e 00       		.byte	0
 5769 0d7f 00       		.byte	0
 5770 0d80 00       		.byte	0
 5771 0d81 F8       		.byte	-8
 5772 0d82 F8       		.byte	-8
 5773 0d83 F8       		.byte	-8
 5774 0d84 C0       		.byte	-64
 5775 0d85 C0       		.byte	-64
 5776 0d86 C0       		.byte	-64
 5777 0d87 00       		.byte	0
 5778 0d88 00       		.byte	0
 5779 0d89 00       		.byte	0
 5780 0d8a C0       		.byte	-64
 5781 0d8b C0       		.byte	-64
 5782 0d8c C0       		.byte	-64
 5783 0d8d F8       		.byte	-8
 5784 0d8e F8       		.byte	-8
 5785 0d8f F8       		.byte	-8
 5786 0d90 FF       		.byte	-1
 5787 0d91 FF       		.byte	-1
 5788 0d92 FF       		.byte	-1
 5789 0d93 01       		.byte	1
 5790 0d94 01       		.byte	1
 5791 0d95 01       		.byte	1
 5792 0d96 0E       		.byte	14
 5793 0d97 0E       		.byte	14
 5794 0d98 0E       		.byte	14
 5795 0d99 01       		.byte	1
 5796 0d9a 01       		.byte	1
 5797 0d9b 01       		.byte	1
 5798 0d9c FF       		.byte	-1
 5799 0d9d FF       		.byte	-1
 5800 0d9e FF       		.byte	-1
 5801 0d9f FF       		.byte	-1
 5802 0da0 FF       		.byte	-1
 5803 0da1 FF       		.byte	-1
 5804 0da2 00       		.byte	0
 5805 0da3 00       		.byte	0
 5806 0da4 00       		.byte	0
 5807 0da5 00       		.byte	0
 5808 0da6 00       		.byte	0
 5809 0da7 00       		.byte	0
 5810 0da8 00       		.byte	0
 5811 0da9 00       		.byte	0
 5812 0daa 00       		.byte	0
 5813 0dab FF       		.byte	-1
 5814 0dac FF       		.byte	-1
 5815 0dad FF       		.byte	-1
 5816 0dae 00       		.byte	0
 5817 0daf 00       		.byte	0
 5818 0db0 00       		.byte	0
 5819 0db1 00       		.byte	0
 5820 0db2 00       		.byte	0
 5821 0db3 00       		.byte	0
 5822 0db4 00       		.byte	0
 5823 0db5 00       		.byte	0
 5824 0db6 00       		.byte	0
 5825 0db7 00       		.byte	0
 5826 0db8 00       		.byte	0
 5827 0db9 00       		.byte	0
 5828 0dba 00       		.byte	0
 5829 0dbb 00       		.byte	0
 5830 0dbc 00       		.byte	0
 5831 0dbd F8       		.byte	-8
 5832 0dbe F8       		.byte	-8
 5833 0dbf F8       		.byte	-8
 5834 0dc0 00       		.byte	0
 5835 0dc1 00       		.byte	0
 5836 0dc2 00       		.byte	0
 5837 0dc3 00       		.byte	0
 5838 0dc4 00       		.byte	0
 5839 0dc5 00       		.byte	0
 5840 0dc6 F8       		.byte	-8
 5841 0dc7 F8       		.byte	-8
 5842 0dc8 F8       		.byte	-8
 5843 0dc9 FF       		.byte	-1
 5844 0dca FF       		.byte	-1
 5845 0dcb FF       		.byte	-1
 5846 0dcc 0E       		.byte	14
 5847 0dcd 0E       		.byte	14
 5848 0dce 0E       		.byte	14
 5849 0dcf 70       		.byte	112
 5850 0dd0 70       		.byte	112
 5851 0dd1 70       		.byte	112
 5852 0dd2 FF       		.byte	-1
 5853 0dd3 FF       		.byte	-1
 5854 0dd4 FF       		.byte	-1
 5855 0dd5 FF       		.byte	-1
 5856 0dd6 FF       		.byte	-1
 5857 0dd7 FF       		.byte	-1
 5858 0dd8 00       		.byte	0
 5859 0dd9 00       		.byte	0
 5860 0dda 00       		.byte	0
 5861 0ddb 00       		.byte	0
 5862 0ddc 00       		.byte	0
 5863 0ddd 00       		.byte	0
 5864 0dde FF       		.byte	-1
 5865 0ddf FF       		.byte	-1
 5866 0de0 FF       		.byte	-1
 5867 0de1 00       		.byte	0
 5868 0de2 00       		.byte	0
 5869 0de3 00       		.byte	0
 5870 0de4 00       		.byte	0
 5871 0de5 00       		.byte	0
 5872 0de6 00       		.byte	0
 5873 0de7 00       		.byte	0
 5874 0de8 00       		.byte	0
 5875 0de9 00       		.byte	0
 5876 0dea 00       		.byte	0
 5877 0deb 00       		.byte	0
 5878 0dec 00       		.byte	0
 5879 0ded C0       		.byte	-64
 5880 0dee C0       		.byte	-64
 5881 0def C0       		.byte	-64
 5882 0df0 38       		.byte	56
 5883 0df1 38       		.byte	56
 5884 0df2 38       		.byte	56
 5885 0df3 38       		.byte	56
 5886 0df4 38       		.byte	56
 5887 0df5 38       		.byte	56
 5888 0df6 C0       		.byte	-64
 5889 0df7 C0       		.byte	-64
 5890 0df8 C0       		.byte	-64
 5891 0df9 FF       		.byte	-1
 5892 0dfa FF       		.byte	-1
 5893 0dfb FF       		.byte	-1
 5894 0dfc 00       		.byte	0
 5895 0dfd 00       		.byte	0
 5896 0dfe 00       		.byte	0
 5897 0dff 00       		.byte	0
 5898 0e00 00       		.byte	0
 5899 0e01 00       		.byte	0
 5900 0e02 FF       		.byte	-1
 5901 0e03 FF       		.byte	-1
 5902 0e04 FF       		.byte	-1
 5903 0e05 1F       		.byte	31
 5904 0e06 1F       		.byte	31
 5905 0e07 1F       		.byte	31
 5906 0e08 E0       		.byte	-32
 5907 0e09 E0       		.byte	-32
 5908 0e0a E0       		.byte	-32
 5909 0e0b E0       		.byte	-32
 5910 0e0c E0       		.byte	-32
 5911 0e0d E0       		.byte	-32
 5912 0e0e 1F       		.byte	31
 5913 0e0f 1F       		.byte	31
 5914 0e10 1F       		.byte	31
 5915 0e11 00       		.byte	0
 5916 0e12 00       		.byte	0
 5917 0e13 00       		.byte	0
 5918 0e14 00       		.byte	0
 5919 0e15 00       		.byte	0
 5920 0e16 00       		.byte	0
 5921 0e17 00       		.byte	0
 5922 0e18 00       		.byte	0
 5923 0e19 00       		.byte	0
 5924 0e1a 00       		.byte	0
 5925 0e1b 00       		.byte	0
 5926 0e1c 00       		.byte	0
 5927 0e1d F8       		.byte	-8
 5928 0e1e F8       		.byte	-8
 5929 0e1f F8       		.byte	-8
 5930 0e20 38       		.byte	56
 5931 0e21 38       		.byte	56
 5932 0e22 38       		.byte	56
 5933 0e23 38       		.byte	56
 5934 0e24 38       		.byte	56
 5935 0e25 38       		.byte	56
 5936 0e26 C0       		.byte	-64
 5937 0e27 C0       		.byte	-64
 5938 0e28 C0       		.byte	-64
 5939 0e29 FF       		.byte	-1
 5940 0e2a FF       		.byte	-1
 5941 0e2b FF       		.byte	-1
 5942 0e2c 70       		.byte	112
 5943 0e2d 70       		.byte	112
 5944 0e2e 70       		.byte	112
 5945 0e2f 70       		.byte	112
 5946 0e30 70       		.byte	112
 5947 0e31 70       		.byte	112
 5948 0e32 0F       		.byte	15
 5949 0e33 0F       		.byte	15
 5950 0e34 0F       		.byte	15
 5951 0e35 FF       		.byte	-1
 5952 0e36 FF       		.byte	-1
 5953 0e37 FF       		.byte	-1
 5954 0e38 00       		.byte	0
 5955 0e39 00       		.byte	0
 5956 0e3a 00       		.byte	0
 5957 0e3b 00       		.byte	0
 5958 0e3c 00       		.byte	0
 5959 0e3d 00       		.byte	0
 5960 0e3e 00       		.byte	0
 5961 0e3f 00       		.byte	0
 5962 0e40 00       		.byte	0
 5963 0e41 00       		.byte	0
 5964 0e42 00       		.byte	0
 5965 0e43 00       		.byte	0
 5966 0e44 00       		.byte	0
 5967 0e45 00       		.byte	0
 5968 0e46 00       		.byte	0
 5969 0e47 00       		.byte	0
 5970 0e48 00       		.byte	0
 5971 0e49 00       		.byte	0
 5972 0e4a 00       		.byte	0
 5973 0e4b 00       		.byte	0
 5974 0e4c 00       		.byte	0
 5975 0e4d C0       		.byte	-64
 5976 0e4e C0       		.byte	-64
 5977 0e4f C0       		.byte	-64
 5978 0e50 38       		.byte	56
 5979 0e51 38       		.byte	56
 5980 0e52 38       		.byte	56
 5981 0e53 38       		.byte	56
 5982 0e54 38       		.byte	56
 5983 0e55 38       		.byte	56
 5984 0e56 C0       		.byte	-64
 5985 0e57 C0       		.byte	-64
 5986 0e58 C0       		.byte	-64
 5987 0e59 FF       		.byte	-1
 5988 0e5a FF       		.byte	-1
 5989 0e5b FF       		.byte	-1
 5990 0e5c 00       		.byte	0
 5991 0e5d 00       		.byte	0
 5992 0e5e 00       		.byte	0
 5993 0e5f 00       		.byte	0
 5994 0e60 00       		.byte	0
 5995 0e61 00       		.byte	0
 5996 0e62 FF       		.byte	-1
 5997 0e63 FF       		.byte	-1
 5998 0e64 FF       		.byte	-1
 5999 0e65 1F       		.byte	31
 6000 0e66 1F       		.byte	31
 6001 0e67 1F       		.byte	31
 6002 0e68 E0       		.byte	-32
 6003 0e69 E0       		.byte	-32
 6004 0e6a E0       		.byte	-32
 6005 0e6b FC       		.byte	-4
 6006 0e6c FC       		.byte	-4
 6007 0e6d FC       		.byte	-4
 6008 0e6e FF       		.byte	-1
 6009 0e6f FF       		.byte	-1
 6010 0e70 FF       		.byte	-1
 6011 0e71 00       		.byte	0
 6012 0e72 00       		.byte	0
 6013 0e73 00       		.byte	0
 6014 0e74 00       		.byte	0
 6015 0e75 00       		.byte	0
 6016 0e76 00       		.byte	0
 6017 0e77 00       		.byte	0
 6018 0e78 00       		.byte	0
 6019 0e79 00       		.byte	0
 6020 0e7a 00       		.byte	0
 6021 0e7b 00       		.byte	0
 6022 0e7c 00       		.byte	0
 6023 0e7d F8       		.byte	-8
 6024 0e7e F8       		.byte	-8
 6025 0e7f F8       		.byte	-8
 6026 0e80 38       		.byte	56
 6027 0e81 38       		.byte	56
 6028 0e82 38       		.byte	56
 6029 0e83 38       		.byte	56
 6030 0e84 38       		.byte	56
 6031 0e85 38       		.byte	56
 6032 0e86 C0       		.byte	-64
 6033 0e87 C0       		.byte	-64
 6034 0e88 C0       		.byte	-64
 6035 0e89 FF       		.byte	-1
 6036 0e8a FF       		.byte	-1
 6037 0e8b FF       		.byte	-1
 6038 0e8c 70       		.byte	112
 6039 0e8d 70       		.byte	112
 6040 0e8e 70       		.byte	112
 6041 0e8f 70       		.byte	112
 6042 0e90 70       		.byte	112
 6043 0e91 70       		.byte	112
 6044 0e92 8F       		.byte	-113
 6045 0e93 8F       		.byte	-113
 6046 0e94 8F       		.byte	-113
 6047 0e95 FF       		.byte	-1
 6048 0e96 FF       		.byte	-1
 6049 0e97 FF       		.byte	-1
 6050 0e98 00       		.byte	0
 6051 0e99 00       		.byte	0
 6052 0e9a 00       		.byte	0
 6053 0e9b 00       		.byte	0
 6054 0e9c 00       		.byte	0
 6055 0e9d 00       		.byte	0
 6056 0e9e FF       		.byte	-1
 6057 0e9f FF       		.byte	-1
 6058 0ea0 FF       		.byte	-1
 6059 0ea1 00       		.byte	0
 6060 0ea2 00       		.byte	0
 6061 0ea3 00       		.byte	0
 6062 0ea4 00       		.byte	0
 6063 0ea5 00       		.byte	0
 6064 0ea6 00       		.byte	0
 6065 0ea7 00       		.byte	0
 6066 0ea8 00       		.byte	0
 6067 0ea9 00       		.byte	0
 6068 0eaa 00       		.byte	0
 6069 0eab 00       		.byte	0
 6070 0eac 00       		.byte	0
 6071 0ead C0       		.byte	-64
 6072 0eae C0       		.byte	-64
 6073 0eaf C0       		.byte	-64
 6074 0eb0 38       		.byte	56
 6075 0eb1 38       		.byte	56
 6076 0eb2 38       		.byte	56
 6077 0eb3 38       		.byte	56
 6078 0eb4 38       		.byte	56
 6079 0eb5 38       		.byte	56
 6080 0eb6 38       		.byte	56
 6081 0eb7 38       		.byte	56
 6082 0eb8 38       		.byte	56
 6083 0eb9 0F       		.byte	15
 6084 0eba 0F       		.byte	15
 6085 0ebb 0F       		.byte	15
 6086 0ebc 70       		.byte	112
 6087 0ebd 70       		.byte	112
 6088 0ebe 70       		.byte	112
 6089 0ebf 70       		.byte	112
 6090 0ec0 70       		.byte	112
 6091 0ec1 70       		.byte	112
 6092 0ec2 80       		.byte	-128
 6093 0ec3 80       		.byte	-128
 6094 0ec4 80       		.byte	-128
 6095 0ec5 E0       		.byte	-32
 6096 0ec6 E0       		.byte	-32
 6097 0ec7 E0       		.byte	-32
 6098 0ec8 E0       		.byte	-32
 6099 0ec9 E0       		.byte	-32
 6100 0eca E0       		.byte	-32
 6101 0ecb E0       		.byte	-32
 6102 0ecc E0       		.byte	-32
 6103 0ecd E0       		.byte	-32
 6104 0ece 1F       		.byte	31
 6105 0ecf 1F       		.byte	31
 6106 0ed0 1F       		.byte	31
 6107 0ed1 00       		.byte	0
 6108 0ed2 00       		.byte	0
 6109 0ed3 00       		.byte	0
 6110 0ed4 00       		.byte	0
 6111 0ed5 00       		.byte	0
 6112 0ed6 00       		.byte	0
 6113 0ed7 00       		.byte	0
 6114 0ed8 00       		.byte	0
 6115 0ed9 00       		.byte	0
 6116 0eda 00       		.byte	0
 6117 0edb 00       		.byte	0
 6118 0edc 00       		.byte	0
 6119 0edd 38       		.byte	56
 6120 0ede 38       		.byte	56
 6121 0edf 38       		.byte	56
 6122 0ee0 38       		.byte	56
 6123 0ee1 38       		.byte	56
 6124 0ee2 38       		.byte	56
 6125 0ee3 F8       		.byte	-8
 6126 0ee4 F8       		.byte	-8
 6127 0ee5 F8       		.byte	-8
 6128 0ee6 38       		.byte	56
 6129 0ee7 38       		.byte	56
 6130 0ee8 38       		.byte	56
 6131 0ee9 38       		.byte	56
 6132 0eea 38       		.byte	56
 6133 0eeb 38       		.byte	56
 6134 0eec 00       		.byte	0
 6135 0eed 00       		.byte	0
 6136 0eee 00       		.byte	0
 6137 0eef 00       		.byte	0
 6138 0ef0 00       		.byte	0
 6139 0ef1 00       		.byte	0
 6140 0ef2 FF       		.byte	-1
 6141 0ef3 FF       		.byte	-1
 6142 0ef4 FF       		.byte	-1
 6143 0ef5 00       		.byte	0
 6144 0ef6 00       		.byte	0
 6145 0ef7 00       		.byte	0
 6146 0ef8 00       		.byte	0
 6147 0ef9 00       		.byte	0
 6148 0efa 00       		.byte	0
 6149 0efb 00       		.byte	0
 6150 0efc 00       		.byte	0
 6151 0efd 00       		.byte	0
 6152 0efe 00       		.byte	0
 6153 0eff 00       		.byte	0
 6154 0f00 00       		.byte	0
 6155 0f01 FF       		.byte	-1
 6156 0f02 FF       		.byte	-1
 6157 0f03 FF       		.byte	-1
 6158 0f04 00       		.byte	0
 6159 0f05 00       		.byte	0
 6160 0f06 00       		.byte	0
 6161 0f07 00       		.byte	0
 6162 0f08 00       		.byte	0
 6163 0f09 00       		.byte	0
 6164 0f0a 00       		.byte	0
 6165 0f0b 00       		.byte	0
 6166 0f0c 00       		.byte	0
 6167 0f0d 00       		.byte	0
 6168 0f0e 00       		.byte	0
 6169 0f0f 00       		.byte	0
 6170 0f10 00       		.byte	0
 6171 0f11 00       		.byte	0
 6172 0f12 00       		.byte	0
 6173 0f13 00       		.byte	0
 6174 0f14 00       		.byte	0
 6175 0f15 00       		.byte	0
 6176 0f16 00       		.byte	0
 6177 0f17 00       		.byte	0
 6178 0f18 00       		.byte	0
 6179 0f19 F8       		.byte	-8
 6180 0f1a F8       		.byte	-8
 6181 0f1b F8       		.byte	-8
 6182 0f1c 00       		.byte	0
 6183 0f1d 00       		.byte	0
 6184 0f1e 00       		.byte	0
 6185 0f1f 00       		.byte	0
 6186 0f20 00       		.byte	0
 6187 0f21 00       		.byte	0
 6188 0f22 F8       		.byte	-8
 6189 0f23 F8       		.byte	-8
 6190 0f24 F8       		.byte	-8
 6191 0f25 FF       		.byte	-1
 6192 0f26 FF       		.byte	-1
 6193 0f27 FF       		.byte	-1
 6194 0f28 00       		.byte	0
 6195 0f29 00       		.byte	0
 6196 0f2a 00       		.byte	0
 6197 0f2b 00       		.byte	0
 6198 0f2c 00       		.byte	0
 6199 0f2d 00       		.byte	0
 6200 0f2e FF       		.byte	-1
 6201 0f2f FF       		.byte	-1
 6202 0f30 FF       		.byte	-1
 6203 0f31 1F       		.byte	31
 6204 0f32 1F       		.byte	31
 6205 0f33 1F       		.byte	31
 6206 0f34 E0       		.byte	-32
 6207 0f35 E0       		.byte	-32
 6208 0f36 E0       		.byte	-32
 6209 0f37 E0       		.byte	-32
 6210 0f38 E0       		.byte	-32
 6211 0f39 E0       		.byte	-32
 6212 0f3a 1F       		.byte	31
 6213 0f3b 1F       		.byte	31
 6214 0f3c 1F       		.byte	31
 6215 0f3d 00       		.byte	0
 6216 0f3e 00       		.byte	0
 6217 0f3f 00       		.byte	0
 6218 0f40 00       		.byte	0
 6219 0f41 00       		.byte	0
 6220 0f42 00       		.byte	0
 6221 0f43 00       		.byte	0
 6222 0f44 00       		.byte	0
 6223 0f45 00       		.byte	0
 6224 0f46 00       		.byte	0
 6225 0f47 00       		.byte	0
 6226 0f48 00       		.byte	0
 6227 0f49 F8       		.byte	-8
 6228 0f4a F8       		.byte	-8
 6229 0f4b F8       		.byte	-8
 6230 0f4c 00       		.byte	0
 6231 0f4d 00       		.byte	0
 6232 0f4e 00       		.byte	0
 6233 0f4f 00       		.byte	0
 6234 0f50 00       		.byte	0
 6235 0f51 00       		.byte	0
 6236 0f52 F8       		.byte	-8
 6237 0f53 F8       		.byte	-8
 6238 0f54 F8       		.byte	-8
 6239 0f55 FF       		.byte	-1
 6240 0f56 FF       		.byte	-1
 6241 0f57 FF       		.byte	-1
 6242 0f58 00       		.byte	0
 6243 0f59 00       		.byte	0
 6244 0f5a 00       		.byte	0
 6245 0f5b 00       		.byte	0
 6246 0f5c 00       		.byte	0
 6247 0f5d 00       		.byte	0
 6248 0f5e FF       		.byte	-1
 6249 0f5f FF       		.byte	-1
 6250 0f60 FF       		.byte	-1
 6251 0f61 1F       		.byte	31
 6252 0f62 1F       		.byte	31
 6253 0f63 1F       		.byte	31
 6254 0f64 E0       		.byte	-32
 6255 0f65 E0       		.byte	-32
 6256 0f66 E0       		.byte	-32
 6257 0f67 E0       		.byte	-32
 6258 0f68 E0       		.byte	-32
 6259 0f69 E0       		.byte	-32
 6260 0f6a FF       		.byte	-1
 6261 0f6b FF       		.byte	-1
 6262 0f6c FF       		.byte	-1
 6263 0f6d 00       		.byte	0
 6264 0f6e 00       		.byte	0
 6265 0f6f 00       		.byte	0
 6266 0f70 00       		.byte	0
 6267 0f71 00       		.byte	0
 6268 0f72 00       		.byte	0
 6269 0f73 00       		.byte	0
 6270 0f74 00       		.byte	0
 6271 0f75 00       		.byte	0
 6272 0f76 00       		.byte	0
 6273 0f77 00       		.byte	0
 6274 0f78 00       		.byte	0
 6275 0f79 F8       		.byte	-8
 6276 0f7a F8       		.byte	-8
 6277 0f7b F8       		.byte	-8
 6278 0f7c 00       		.byte	0
 6279 0f7d 00       		.byte	0
 6280 0f7e 00       		.byte	0
 6281 0f7f 00       		.byte	0
 6282 0f80 00       		.byte	0
 6283 0f81 00       		.byte	0
 6284 0f82 00       		.byte	0
 6285 0f83 00       		.byte	0
 6286 0f84 00       		.byte	0
 6287 0f85 F8       		.byte	-8
 6288 0f86 F8       		.byte	-8
 6289 0f87 F8       		.byte	-8
 6290 0f88 FF       		.byte	-1
 6291 0f89 FF       		.byte	-1
 6292 0f8a FF       		.byte	-1
 6293 0f8b 00       		.byte	0
 6294 0f8c 00       		.byte	0
 6295 0f8d 00       		.byte	0
 6296 0f8e FE       		.byte	-2
 6297 0f8f FE       		.byte	-2
 6298 0f90 FE       		.byte	-2
 6299 0f91 00       		.byte	0
 6300 0f92 00       		.byte	0
 6301 0f93 00       		.byte	0
 6302 0f94 FF       		.byte	-1
 6303 0f95 FF       		.byte	-1
 6304 0f96 FF       		.byte	-1
 6305 0f97 1F       		.byte	31
 6306 0f98 1F       		.byte	31
 6307 0f99 1F       		.byte	31
 6308 0f9a E0       		.byte	-32
 6309 0f9b E0       		.byte	-32
 6310 0f9c E0       		.byte	-32
 6311 0f9d 1F       		.byte	31
 6312 0f9e 1F       		.byte	31
 6313 0f9f 1F       		.byte	31
 6314 0fa0 E0       		.byte	-32
 6315 0fa1 E0       		.byte	-32
 6316 0fa2 E0       		.byte	-32
 6317 0fa3 1F       		.byte	31
 6318 0fa4 1F       		.byte	31
 6319 0fa5 1F       		.byte	31
 6320 0fa6 00       		.byte	0
 6321 0fa7 00       		.byte	0
 6322 0fa8 00       		.byte	0
 6323 0fa9 00       		.byte	0
 6324 0faa 00       		.byte	0
 6325 0fab 00       		.byte	0
 6326 0fac 00       		.byte	0
 6327 0fad 00       		.byte	0
 6328 0fae 00       		.byte	0
 6329 0faf 00       		.byte	0
 6330 0fb0 00       		.byte	0
 6331 0fb1 00       		.byte	0
 6332 0fb2 00       		.byte	0
 6333 0fb3 00       		.byte	0
 6334 0fb4 00       		.byte	0
 6335 0fb5 F8       		.byte	-8
 6336 0fb6 F8       		.byte	-8
 6337 0fb7 F8       		.byte	-8
 6338 0fb8 00       		.byte	0
 6339 0fb9 00       		.byte	0
 6340 0fba 00       		.byte	0
 6341 0fbb 00       		.byte	0
 6342 0fbc 00       		.byte	0
 6343 0fbd 00       		.byte	0
 6344 0fbe F8       		.byte	-8
 6345 0fbf F8       		.byte	-8
 6346 0fc0 F8       		.byte	-8
 6347 0fc1 8F       		.byte	-113
 6348 0fc2 8F       		.byte	-113
 6349 0fc3 8F       		.byte	-113
 6350 0fc4 70       		.byte	112
 6351 0fc5 70       		.byte	112
 6352 0fc6 70       		.byte	112
 6353 0fc7 70       		.byte	112
 6354 0fc8 70       		.byte	112
 6355 0fc9 70       		.byte	112
 6356 0fca 8F       		.byte	-113
 6357 0fcb 8F       		.byte	-113
 6358 0fcc 8F       		.byte	-113
 6359 0fcd FF       		.byte	-1
 6360 0fce FF       		.byte	-1
 6361 0fcf FF       		.byte	-1
 6362 0fd0 00       		.byte	0
 6363 0fd1 00       		.byte	0
 6364 0fd2 00       		.byte	0
 6365 0fd3 00       		.byte	0
 6366 0fd4 00       		.byte	0
 6367 0fd5 00       		.byte	0
 6368 0fd6 FF       		.byte	-1
 6369 0fd7 FF       		.byte	-1
 6370 0fd8 FF       		.byte	-1
 6371 0fd9 00       		.byte	0
 6372 0fda 00       		.byte	0
 6373 0fdb 00       		.byte	0
 6374 0fdc 00       		.byte	0
 6375 0fdd 00       		.byte	0
 6376 0fde 00       		.byte	0
 6377 0fdf 00       		.byte	0
 6378 0fe0 00       		.byte	0
 6379 0fe1 00       		.byte	0
 6380 0fe2 00       		.byte	0
 6381 0fe3 00       		.byte	0
 6382 0fe4 00       		.byte	0
 6383 0fe5 F8       		.byte	-8
 6384 0fe6 F8       		.byte	-8
 6385 0fe7 F8       		.byte	-8
 6386 0fe8 00       		.byte	0
 6387 0fe9 00       		.byte	0
 6388 0fea 00       		.byte	0
 6389 0feb 00       		.byte	0
 6390 0fec 00       		.byte	0
 6391 0fed 00       		.byte	0
 6392 0fee 00       		.byte	0
 6393 0fef 00       		.byte	0
 6394 0ff0 00       		.byte	0
 6395 0ff1 F8       		.byte	-8
 6396 0ff2 F8       		.byte	-8
 6397 0ff3 F8       		.byte	-8
 6398 0ff4 01       		.byte	1
 6399 0ff5 01       		.byte	1
 6400 0ff6 01       		.byte	1
 6401 0ff7 0E       		.byte	14
 6402 0ff8 0E       		.byte	14
 6403 0ff9 0E       		.byte	14
 6404 0ffa F0       		.byte	-16
 6405 0ffb F0       		.byte	-16
 6406 0ffc F0       		.byte	-16
 6407 0ffd 0E       		.byte	14
 6408 0ffe 0E       		.byte	14
 6409 0fff 0E       		.byte	14
 6410 1000 01       		.byte	1
 6411 1001 01       		.byte	1
 6412 1002 01       		.byte	1
 6413 1003 00       		.byte	0
 6414 1004 00       		.byte	0
 6415 1005 00       		.byte	0
 6416 1006 00       		.byte	0
 6417 1007 00       		.byte	0
 6418 1008 00       		.byte	0
 6419 1009 FF       		.byte	-1
 6420 100a FF       		.byte	-1
 6421 100b FF       		.byte	-1
 6422 100c 00       		.byte	0
 6423 100d 00       		.byte	0
 6424 100e 00       		.byte	0
 6425 100f 00       		.byte	0
 6426 1010 00       		.byte	0
 6427 1011 00       		.byte	0
 6428 1012 00       		.byte	0
 6429 1013 00       		.byte	0
 6430 1014 00       		.byte	0
 6431 1015 00       		.byte	0
 6432 1016 00       		.byte	0
 6433 1017 00       		.byte	0
 6434 1018 00       		.byte	0
 6435 1019 00       		.byte	0
 6436 101a 00       		.byte	0
 6437 101b 00       		.byte	0
 6438 101c 00       		.byte	0
 6439 101d 00       		.byte	0
 6440 101e 00       		.byte	0
 6441 101f 00       		.byte	0
 6442 1020 00       		.byte	0
 6443 1021 38       		.byte	56
 6444 1022 38       		.byte	56
 6445 1023 38       		.byte	56
 6446 1024 38       		.byte	56
 6447 1025 38       		.byte	56
 6448 1026 38       		.byte	56
 6449 1027 38       		.byte	56
 6450 1028 38       		.byte	56
 6451 1029 38       		.byte	56
 6452 102a F8       		.byte	-8
 6453 102b F8       		.byte	-8
 6454 102c F8       		.byte	-8
 6455 102d 80       		.byte	-128
 6456 102e 80       		.byte	-128
 6457 102f 80       		.byte	-128
 6458 1030 70       		.byte	112
 6459 1031 70       		.byte	112
 6460 1032 70       		.byte	112
 6461 1033 0E       		.byte	14
 6462 1034 0E       		.byte	14
 6463 1035 0E       		.byte	14
 6464 1036 01       		.byte	1
 6465 1037 01       		.byte	1
 6466 1038 01       		.byte	1
 6467 1039 FF       		.byte	-1
 6468 103a FF       		.byte	-1
 6469 103b FF       		.byte	-1
 6470 103c E0       		.byte	-32
 6471 103d E0       		.byte	-32
 6472 103e E0       		.byte	-32
 6473 103f E0       		.byte	-32
 6474 1040 E0       		.byte	-32
 6475 1041 E0       		.byte	-32
 6476 1042 E0       		.byte	-32
 6477 1043 E0       		.byte	-32
 6478 1044 E0       		.byte	-32
 6479 1045 00       		.byte	0
 6480 1046 00       		.byte	0
 6481 1047 00       		.byte	0
 6482 1048 00       		.byte	0
 6483 1049 00       		.byte	0
 6484 104a 00       		.byte	0
 6485 104b 00       		.byte	0
 6486 104c 00       		.byte	0
 6487 104d 00       		.byte	0
 6488 104e 00       		.byte	0
 6489 104f 00       		.byte	0
 6490 1050 00       		.byte	0
 6491 1051 FF       		.byte	-1
 6492 1052 FF       		.byte	-1
 6493 1053 FF       		.byte	-1
 6494 1054 07       		.byte	7
 6495 1055 07       		.byte	7
 6496 1056 07       		.byte	7
 6497 1057 FF       		.byte	-1
 6498 1058 FF       		.byte	-1
 6499 1059 FF       		.byte	-1
 6500 105a 00       		.byte	0
 6501 105b 00       		.byte	0
 6502 105c 00       		.byte	0
 6503 105d FF       		.byte	-1
 6504 105e FF       		.byte	-1
 6505 105f FF       		.byte	-1
 6506 1060 00       		.byte	0
 6507 1061 00       		.byte	0
 6508 1062 00       		.byte	0
 6509 1063 1C       		.byte	28
 6510 1064 1C       		.byte	28
 6511 1065 1C       		.byte	28
 6512 1066 1C       		.byte	28
 6513 1067 1C       		.byte	28
 6514 1068 1C       		.byte	28
 6515 1069 38       		.byte	56
 6516 106a 38       		.byte	56
 6517 106b 38       		.byte	56
 6518 106c C0       		.byte	-64
 6519 106d C0       		.byte	-64
 6520 106e C0       		.byte	-64
 6521 106f 00       		.byte	0
 6522 1070 00       		.byte	0
 6523 1071 00       		.byte	0
 6524 1072 00       		.byte	0
 6525 1073 00       		.byte	0
 6526 1074 00       		.byte	0
 6527 1075 00       		.byte	0
 6528 1076 00       		.byte	0
 6529 1077 00       		.byte	0
 6530 1078 0F       		.byte	15
 6531 1079 0F       		.byte	15
 6532 107a 0F       		.byte	15
 6533 107b F0       		.byte	-16
 6534 107c F0       		.byte	-16
 6535 107d F0       		.byte	-16
 6536 107e 00       		.byte	0
 6537 107f 00       		.byte	0
 6538 1080 00       		.byte	0
 6539 1081 00       		.byte	0
 6540 1082 00       		.byte	0
 6541 1083 00       		.byte	0
 6542 1084 00       		.byte	0
 6543 1085 00       		.byte	0
 6544 1086 00       		.byte	0
 6545 1087 03       		.byte	3
 6546 1088 03       		.byte	3
 6547 1089 03       		.byte	3
 6548 108a FC       		.byte	-4
 6549 108b FC       		.byte	-4
 6550 108c FC       		.byte	-4
 6551 108d 00       		.byte	0
 6552 108e 00       		.byte	0
 6553 108f 00       		.byte	0
 6554 1090 00       		.byte	0
 6555 1091 00       		.byte	0
 6556 1092 00       		.byte	0
 6557 1093 00       		.byte	0
 6558 1094 00       		.byte	0
 6559 1095 00       		.byte	0
 6560 1096 00       		.byte	0
 6561 1097 00       		.byte	0
 6562 1098 00       		.byte	0
 6563 1099 07       		.byte	7
 6564 109a 07       		.byte	7
 6565 109b 07       		.byte	7
 6566 109c FF       		.byte	-1
 6567 109d FF       		.byte	-1
 6568 109e FF       		.byte	-1
 6569 109f 00       		.byte	0
 6570 10a0 00       		.byte	0
 6571 10a1 00       		.byte	0
 6572 10a2 FF       		.byte	-1
 6573 10a3 FF       		.byte	-1
 6574 10a4 FF       		.byte	-1
 6575 10a5 00       		.byte	0
 6576 10a6 00       		.byte	0
 6577 10a7 00       		.byte	0
 6578 10a8 FF       		.byte	-1
 6579 10a9 FF       		.byte	-1
 6580 10aa FF       		.byte	-1
 6581 10ab 1C       		.byte	28
 6582 10ac 1C       		.byte	28
 6583 10ad 1C       		.byte	28
 6584 10ae 1C       		.byte	28
 6585 10af 1C       		.byte	28
 6586 10b0 1C       		.byte	28
 6587 10b1 C0       		.byte	-64
 6588 10b2 C0       		.byte	-64
 6589 10b3 C0       		.byte	-64
 6590 10b4 38       		.byte	56
 6591 10b5 38       		.byte	56
 6592 10b6 38       		.byte	56
 6593 10b7 C0       		.byte	-64
 6594 10b8 C0       		.byte	-64
 6595 10b9 C0       		.byte	-64
 6596 10ba 01       		.byte	1
 6597 10bb 01       		.byte	1
 6598 10bc 01       		.byte	1
 6599 10bd 00       		.byte	0
 6600 10be 00       		.byte	0
 6601 10bf 00       		.byte	0
 6602 10c0 01       		.byte	1
 6603 10c1 01       		.byte	1
 6604 10c2 01       		.byte	1
 6605 10c3 00       		.byte	0
 6606 10c4 00       		.byte	0
 6607 10c5 00       		.byte	0
 6608 10c6 00       		.byte	0
 6609 10c7 00       		.byte	0
 6610 10c8 00       		.byte	0
 6611 10c9 00       		.byte	0
 6612 10ca 00       		.byte	0
 6613 10cb 00       		.byte	0
 6614 10cc 00       		.byte	0
 6615 10cd 00       		.byte	0
 6616 10ce 00       		.byte	0
 6617 10cf 00       		.byte	0
 6618 10d0 00       		.byte	0
 6619 10d1 00       		.byte	0
 6620 10d2 00       		.byte	0
 6621 10d3 00       		.byte	0
 6622 10d4 00       		.byte	0
 6623 10d5 00       		.byte	0
 6624 10d6 00       		.byte	0
 6625 10d7 00       		.byte	0
 6626 10d8 00       		.byte	0
 6627 10d9 00       		.byte	0
 6628 10da 00       		.byte	0
 6629 10db 00       		.byte	0
 6630 10dc 00       		.byte	0
 6631 10dd 00       		.byte	0
 6632 10de 00       		.byte	0
 6633 10df 00       		.byte	0
 6634 10e0 00       		.byte	0
 6635 10e1 00       		.byte	0
 6636 10e2 00       		.byte	0
 6637 10e3 00       		.byte	0
 6638 10e4 00       		.byte	0
 6639 10e5 00       		.byte	0
 6640 10e6 00       		.byte	0
 6641 10e7 E0       		.byte	-32
 6642 10e8 E0       		.byte	-32
 6643 10e9 E0       		.byte	-32
 6644 10ea E0       		.byte	-32
 6645 10eb E0       		.byte	-32
 6646 10ec E0       		.byte	-32
 6647 10ed E0       		.byte	-32
 6648 10ee E0       		.byte	-32
 6649 10ef E0       		.byte	-32
 6650 10f0 00       		.byte	0
 6651 10f1 00       		.byte	0
 6652 10f2 00       		.byte	0
 6653 10f3 00       		.byte	0
 6654 10f4 00       		.byte	0
 6655 10f5 00       		.byte	0
 6656 10f6 00       		.byte	0
 6657 10f7 00       		.byte	0
 6658 10f8 00       		.byte	0
 6659 10f9 F8       		.byte	-8
 6660 10fa F8       		.byte	-8
 6661 10fb F8       		.byte	-8
 6662 10fc 01       		.byte	1
 6663 10fd 01       		.byte	1
 6664 10fe 01       		.byte	1
 6665 10ff 00       		.byte	0
 6666 1100 00       		.byte	0
 6667 1101 00       		.byte	0
 6668 1102 00       		.byte	0
 6669 1103 00       		.byte	0
 6670 1104 00       		.byte	0
 6671 1105 00       		.byte	0
 6672 1106 00       		.byte	0
 6673 1107 00       		.byte	0
 6674 1108 00       		.byte	0
 6675 1109 00       		.byte	0
 6676 110a 00       		.byte	0
 6677 110b 00       		.byte	0
 6678 110c 00       		.byte	0
 6679 110d 00       		.byte	0
 6680 110e 00       		.byte	0
 6681 110f 00       		.byte	0
 6682 1110 00       		.byte	0
 6683 1111 00       		.byte	0
 6684 1112 00       		.byte	0
 6685 1113 00       		.byte	0
 6686 1114 8E       		.byte	-114
 6687 1115 8E       		.byte	-114
 6688 1116 8E       		.byte	-114
 6689 1117 8E       		.byte	-114
 6690 1118 8E       		.byte	-114
 6691 1119 8E       		.byte	-114
 6692 111a F0       		.byte	-16
 6693 111b F0       		.byte	-16
 6694 111c F0       		.byte	-16
 6695 111d 1C       		.byte	28
 6696 111e 1C       		.byte	28
 6697 111f 1C       		.byte	28
 6698 1120 E3       		.byte	-29
 6699 1121 E3       		.byte	-29
 6700 1122 E3       		.byte	-29
 6701 1123 E3       		.byte	-29
 6702 1124 E3       		.byte	-29
 6703 1125 E3       		.byte	-29
 6704 1126 FF       		.byte	-1
 6705 1127 FF       		.byte	-1
 6706 1128 FF       		.byte	-1
 6707 1129 00       		.byte	0
 6708 112a 00       		.byte	0
 6709 112b 00       		.byte	0
 6710 112c 00       		.byte	0
 6711 112d 00       		.byte	0
 6712 112e 00       		.byte	0
 6713 112f 00       		.byte	0
 6714 1130 00       		.byte	0
 6715 1131 00       		.byte	0
 6716 1132 00       		.byte	0
 6717 1133 00       		.byte	0
 6718 1134 00       		.byte	0
 6719 1135 F8       		.byte	-8
 6720 1136 F8       		.byte	-8
 6721 1137 F8       		.byte	-8
 6722 1138 00       		.byte	0
 6723 1139 00       		.byte	0
 6724 113a 00       		.byte	0
 6725 113b 00       		.byte	0
 6726 113c 00       		.byte	0
 6727 113d 00       		.byte	0
 6728 113e 00       		.byte	0
 6729 113f 00       		.byte	0
 6730 1140 00       		.byte	0
 6731 1141 FF       		.byte	-1
 6732 1142 FF       		.byte	-1
 6733 1143 FF       		.byte	-1
 6734 1144 0E       		.byte	14
 6735 1145 0E       		.byte	14
 6736 1146 0E       		.byte	14
 6737 1147 0E       		.byte	14
 6738 1148 0E       		.byte	14
 6739 1149 0E       		.byte	14
 6740 114a F0       		.byte	-16
 6741 114b F0       		.byte	-16
 6742 114c F0       		.byte	-16
 6743 114d FF       		.byte	-1
 6744 114e FF       		.byte	-1
 6745 114f FF       		.byte	-1
 6746 1150 E0       		.byte	-32
 6747 1151 E0       		.byte	-32
 6748 1152 E0       		.byte	-32
 6749 1153 E0       		.byte	-32
 6750 1154 E0       		.byte	-32
 6751 1155 E0       		.byte	-32
 6752 1156 1F       		.byte	31
 6753 1157 1F       		.byte	31
 6754 1158 1F       		.byte	31
 6755 1159 00       		.byte	0
 6756 115a 00       		.byte	0
 6757 115b 00       		.byte	0
 6758 115c 00       		.byte	0
 6759 115d 00       		.byte	0
 6760 115e 00       		.byte	0
 6761 115f 00       		.byte	0
 6762 1160 00       		.byte	0
 6763 1161 00       		.byte	0
 6764 1162 00       		.byte	0
 6765 1163 00       		.byte	0
 6766 1164 00       		.byte	0
 6767 1165 00       		.byte	0
 6768 1166 00       		.byte	0
 6769 1167 00       		.byte	0
 6770 1168 00       		.byte	0
 6771 1169 00       		.byte	0
 6772 116a 00       		.byte	0
 6773 116b 00       		.byte	0
 6774 116c 00       		.byte	0
 6775 116d 00       		.byte	0
 6776 116e 00       		.byte	0
 6777 116f 00       		.byte	0
 6778 1170 00       		.byte	0
 6779 1171 F0       		.byte	-16
 6780 1172 F0       		.byte	-16
 6781 1173 F0       		.byte	-16
 6782 1174 0E       		.byte	14
 6783 1175 0E       		.byte	14
 6784 1176 0E       		.byte	14
 6785 1177 0E       		.byte	14
 6786 1178 0E       		.byte	14
 6787 1179 0E       		.byte	14
 6788 117a 0E       		.byte	14
 6789 117b 0E       		.byte	14
 6790 117c 0E       		.byte	14
 6791 117d 1F       		.byte	31
 6792 117e 1F       		.byte	31
 6793 117f 1F       		.byte	31
 6794 1180 E0       		.byte	-32
 6795 1181 E0       		.byte	-32
 6796 1182 E0       		.byte	-32
 6797 1183 E0       		.byte	-32
 6798 1184 E0       		.byte	-32
 6799 1185 E0       		.byte	-32
 6800 1186 E0       		.byte	-32
 6801 1187 E0       		.byte	-32
 6802 1188 E0       		.byte	-32
 6803 1189 00       		.byte	0
 6804 118a 00       		.byte	0
 6805 118b 00       		.byte	0
 6806 118c 00       		.byte	0
 6807 118d 00       		.byte	0
 6808 118e 00       		.byte	0
 6809 118f 00       		.byte	0
 6810 1190 00       		.byte	0
 6811 1191 00       		.byte	0
 6812 1192 00       		.byte	0
 6813 1193 00       		.byte	0
 6814 1194 00       		.byte	0
 6815 1195 00       		.byte	0
 6816 1196 00       		.byte	0
 6817 1197 00       		.byte	0
 6818 1198 00       		.byte	0
 6819 1199 00       		.byte	0
 6820 119a 00       		.byte	0
 6821 119b 00       		.byte	0
 6822 119c 00       		.byte	0
 6823 119d 00       		.byte	0
 6824 119e F8       		.byte	-8
 6825 119f F8       		.byte	-8
 6826 11a0 F8       		.byte	-8
 6827 11a1 F0       		.byte	-16
 6828 11a2 F0       		.byte	-16
 6829 11a3 F0       		.byte	-16
 6830 11a4 0E       		.byte	14
 6831 11a5 0E       		.byte	14
 6832 11a6 0E       		.byte	14
 6833 11a7 0E       		.byte	14
 6834 11a8 0E       		.byte	14
 6835 11a9 0E       		.byte	14
 6836 11aa FF       		.byte	-1
 6837 11ab FF       		.byte	-1
 6838 11ac FF       		.byte	-1
 6839 11ad 1F       		.byte	31
 6840 11ae 1F       		.byte	31
 6841 11af 1F       		.byte	31
 6842 11b0 E0       		.byte	-32
 6843 11b1 E0       		.byte	-32
 6844 11b2 E0       		.byte	-32
 6845 11b3 E0       		.byte	-32
 6846 11b4 E0       		.byte	-32
 6847 11b5 E0       		.byte	-32
 6848 11b6 FF       		.byte	-1
 6849 11b7 FF       		.byte	-1
 6850 11b8 FF       		.byte	-1
 6851 11b9 00       		.byte	0
 6852 11ba 00       		.byte	0
 6853 11bb 00       		.byte	0
 6854 11bc 00       		.byte	0
 6855 11bd 00       		.byte	0
 6856 11be 00       		.byte	0
 6857 11bf 00       		.byte	0
 6858 11c0 00       		.byte	0
 6859 11c1 00       		.byte	0
 6860 11c2 00       		.byte	0
 6861 11c3 00       		.byte	0
 6862 11c4 00       		.byte	0
 6863 11c5 00       		.byte	0
 6864 11c6 00       		.byte	0
 6865 11c7 00       		.byte	0
 6866 11c8 00       		.byte	0
 6867 11c9 00       		.byte	0
 6868 11ca 00       		.byte	0
 6869 11cb 00       		.byte	0
 6870 11cc 00       		.byte	0
 6871 11cd 00       		.byte	0
 6872 11ce 00       		.byte	0
 6873 11cf 00       		.byte	0
 6874 11d0 00       		.byte	0
 6875 11d1 F0       		.byte	-16
 6876 11d2 F0       		.byte	-16
 6877 11d3 F0       		.byte	-16
 6878 11d4 8E       		.byte	-114
 6879 11d5 8E       		.byte	-114
 6880 11d6 8E       		.byte	-114
 6881 11d7 8E       		.byte	-114
 6882 11d8 8E       		.byte	-114
 6883 11d9 8E       		.byte	-114
 6884 11da F0       		.byte	-16
 6885 11db F0       		.byte	-16
 6886 11dc F0       		.byte	-16
 6887 11dd 1F       		.byte	31
 6888 11de 1F       		.byte	31
 6889 11df 1F       		.byte	31
 6890 11e0 E3       		.byte	-29
 6891 11e1 E3       		.byte	-29
 6892 11e2 E3       		.byte	-29
 6893 11e3 E3       		.byte	-29
 6894 11e4 E3       		.byte	-29
 6895 11e5 E3       		.byte	-29
 6896 11e6 E3       		.byte	-29
 6897 11e7 E3       		.byte	-29
 6898 11e8 E3       		.byte	-29
 6899 11e9 00       		.byte	0
 6900 11ea 00       		.byte	0
 6901 11eb 00       		.byte	0
 6902 11ec 00       		.byte	0
 6903 11ed 00       		.byte	0
 6904 11ee 00       		.byte	0
 6905 11ef 00       		.byte	0
 6906 11f0 00       		.byte	0
 6907 11f1 00       		.byte	0
 6908 11f2 00       		.byte	0
 6909 11f3 00       		.byte	0
 6910 11f4 00       		.byte	0
 6911 11f5 C0       		.byte	-64
 6912 11f6 C0       		.byte	-64
 6913 11f7 C0       		.byte	-64
 6914 11f8 38       		.byte	56
 6915 11f9 38       		.byte	56
 6916 11fa 38       		.byte	56
 6917 11fb 38       		.byte	56
 6918 11fc 38       		.byte	56
 6919 11fd 38       		.byte	56
 6920 11fe FF       		.byte	-1
 6921 11ff FF       		.byte	-1
 6922 1200 FF       		.byte	-1
 6923 1201 70       		.byte	112
 6924 1202 70       		.byte	112
 6925 1203 70       		.byte	112
 6926 1204 00       		.byte	0
 6927 1205 00       		.byte	0
 6928 1206 00       		.byte	0
 6929 1207 FF       		.byte	-1
 6930 1208 FF       		.byte	-1
 6931 1209 FF       		.byte	-1
 6932 120a 00       		.byte	0
 6933 120b 00       		.byte	0
 6934 120c 00       		.byte	0
 6935 120d 00       		.byte	0
 6936 120e 00       		.byte	0
 6937 120f 00       		.byte	0
 6938 1210 00       		.byte	0
 6939 1211 00       		.byte	0
 6940 1212 00       		.byte	0
 6941 1213 00       		.byte	0
 6942 1214 00       		.byte	0
 6943 1215 00       		.byte	0
 6944 1216 00       		.byte	0
 6945 1217 00       		.byte	0
 6946 1218 00       		.byte	0
 6947 1219 00       		.byte	0
 6948 121a 00       		.byte	0
 6949 121b 00       		.byte	0
 6950 121c 00       		.byte	0
 6951 121d 00       		.byte	0
 6952 121e 00       		.byte	0
 6953 121f 00       		.byte	0
 6954 1220 00       		.byte	0
 6955 1221 00       		.byte	0
 6956 1222 00       		.byte	0
 6957 1223 00       		.byte	0
 6958 1224 00       		.byte	0
 6959 1225 F0       		.byte	-16
 6960 1226 F0       		.byte	-16
 6961 1227 F0       		.byte	-16
 6962 1228 0E       		.byte	14
 6963 1229 0E       		.byte	14
 6964 122a 0E       		.byte	14
 6965 122b 0E       		.byte	14
 6966 122c 0E       		.byte	14
 6967 122d 0E       		.byte	14
 6968 122e F0       		.byte	-16
 6969 122f F0       		.byte	-16
 6970 1230 F0       		.byte	-16
 6971 1231 1F       		.byte	31
 6972 1232 1F       		.byte	31
 6973 1233 1F       		.byte	31
 6974 1234 E0       		.byte	-32
 6975 1235 E0       		.byte	-32
 6976 1236 E0       		.byte	-32
 6977 1237 E0       		.byte	-32
 6978 1238 E0       		.byte	-32
 6979 1239 E0       		.byte	-32
 6980 123a FF       		.byte	-1
 6981 123b FF       		.byte	-1
 6982 123c FF       		.byte	-1
 6983 123d E0       		.byte	-32
 6984 123e E0       		.byte	-32
 6985 123f E0       		.byte	-32
 6986 1240 E0       		.byte	-32
 6987 1241 E0       		.byte	-32
 6988 1242 E0       		.byte	-32
 6989 1243 E0       		.byte	-32
 6990 1244 E0       		.byte	-32
 6991 1245 E0       		.byte	-32
 6992 1246 1C       		.byte	28
 6993 1247 1C       		.byte	28
 6994 1248 1C       		.byte	28
 6995 1249 F8       		.byte	-8
 6996 124a F8       		.byte	-8
 6997 124b F8       		.byte	-8
 6998 124c 00       		.byte	0
 6999 124d 00       		.byte	0
 7000 124e 00       		.byte	0
 7001 124f 00       		.byte	0
 7002 1250 00       		.byte	0
 7003 1251 00       		.byte	0
 7004 1252 00       		.byte	0
 7005 1253 00       		.byte	0
 7006 1254 00       		.byte	0
 7007 1255 FF       		.byte	-1
 7008 1256 FF       		.byte	-1
 7009 1257 FF       		.byte	-1
 7010 1258 0E       		.byte	14
 7011 1259 0E       		.byte	14
 7012 125a 0E       		.byte	14
 7013 125b 0E       		.byte	14
 7014 125c 0E       		.byte	14
 7015 125d 0E       		.byte	14
 7016 125e F0       		.byte	-16
 7017 125f F0       		.byte	-16
 7018 1260 F0       		.byte	-16
 7019 1261 FF       		.byte	-1
 7020 1262 FF       		.byte	-1
 7021 1263 FF       		.byte	-1
 7022 1264 00       		.byte	0
 7023 1265 00       		.byte	0
 7024 1266 00       		.byte	0
 7025 1267 00       		.byte	0
 7026 1268 00       		.byte	0
 7027 1269 00       		.byte	0
 7028 126a FF       		.byte	-1
 7029 126b FF       		.byte	-1
 7030 126c FF       		.byte	-1
 7031 126d 00       		.byte	0
 7032 126e 00       		.byte	0
 7033 126f 00       		.byte	0
 7034 1270 00       		.byte	0
 7035 1271 00       		.byte	0
 7036 1272 00       		.byte	0
 7037 1273 00       		.byte	0
 7038 1274 00       		.byte	0
 7039 1275 00       		.byte	0
 7040 1276 00       		.byte	0
 7041 1277 00       		.byte	0
 7042 1278 00       		.byte	0
 7043 1279 38       		.byte	56
 7044 127a 38       		.byte	56
 7045 127b 38       		.byte	56
 7046 127c FE       		.byte	-2
 7047 127d FE       		.byte	-2
 7048 127e FE       		.byte	-2
 7049 127f FF       		.byte	-1
 7050 1280 FF       		.byte	-1
 7051 1281 FF       		.byte	-1
 7052 1282 00       		.byte	0
 7053 1283 00       		.byte	0
 7054 1284 00       		.byte	0
 7055 1285 00       		.byte	0
 7056 1286 00       		.byte	0
 7057 1287 00       		.byte	0
 7058 1288 38       		.byte	56
 7059 1289 38       		.byte	56
 7060 128a 38       		.byte	56
 7061 128b 00       		.byte	0
 7062 128c 00       		.byte	0
 7063 128d 00       		.byte	0
 7064 128e FE       		.byte	-2
 7065 128f FE       		.byte	-2
 7066 1290 FE       		.byte	-2
 7067 1291 00       		.byte	0
 7068 1292 00       		.byte	0
 7069 1293 00       		.byte	0
 7070 1294 FF       		.byte	-1
 7071 1295 FF       		.byte	-1
 7072 1296 FF       		.byte	-1
 7073 1297 E0       		.byte	-32
 7074 1298 E0       		.byte	-32
 7075 1299 E0       		.byte	-32
 7076 129a 1C       		.byte	28
 7077 129b 1C       		.byte	28
 7078 129c 1C       		.byte	28
 7079 129d F8       		.byte	-8
 7080 129e F8       		.byte	-8
 7081 129f F8       		.byte	-8
 7082 12a0 00       		.byte	0
 7083 12a1 00       		.byte	0
 7084 12a2 00       		.byte	0
 7085 12a3 00       		.byte	0
 7086 12a4 00       		.byte	0
 7087 12a5 00       		.byte	0
 7088 12a6 FF       		.byte	-1
 7089 12a7 FF       		.byte	-1
 7090 12a8 FF       		.byte	-1
 7091 12a9 80       		.byte	-128
 7092 12aa 80       		.byte	-128
 7093 12ab 80       		.byte	-128
 7094 12ac 7E       		.byte	126
 7095 12ad 7E       		.byte	126
 7096 12ae 7E       		.byte	126
 7097 12af FF       		.byte	-1
 7098 12b0 FF       		.byte	-1
 7099 12b1 FF       		.byte	-1
 7100 12b2 03       		.byte	3
 7101 12b3 03       		.byte	3
 7102 12b4 03       		.byte	3
 7103 12b5 FC       		.byte	-4
 7104 12b6 FC       		.byte	-4
 7105 12b7 FC       		.byte	-4
 7106 12b8 00       		.byte	0
 7107 12b9 00       		.byte	0
 7108 12ba 00       		.byte	0
 7109 12bb 00       		.byte	0
 7110 12bc 00       		.byte	0
 7111 12bd 00       		.byte	0
 7112 12be 00       		.byte	0
 7113 12bf 00       		.byte	0
 7114 12c0 00       		.byte	0
 7115 12c1 F8       		.byte	-8
 7116 12c2 F8       		.byte	-8
 7117 12c3 F8       		.byte	-8
 7118 12c4 FF       		.byte	-1
 7119 12c5 FF       		.byte	-1
 7120 12c6 FF       		.byte	-1
 7121 12c7 FF       		.byte	-1
 7122 12c8 FF       		.byte	-1
 7123 12c9 FF       		.byte	-1
 7124 12ca 00       		.byte	0
 7125 12cb 00       		.byte	0
 7126 12cc 00       		.byte	0
 7127 12cd 00       		.byte	0
 7128 12ce 00       		.byte	0
 7129 12cf 00       		.byte	0
 7130 12d0 00       		.byte	0
 7131 12d1 00       		.byte	0
 7132 12d2 00       		.byte	0
 7133 12d3 00       		.byte	0
 7134 12d4 00       		.byte	0
 7135 12d5 00       		.byte	0
 7136 12d6 00       		.byte	0
 7137 12d7 00       		.byte	0
 7138 12d8 00       		.byte	0
 7139 12d9 00       		.byte	0
 7140 12da 00       		.byte	0
 7141 12db 00       		.byte	0
 7142 12dc FE       		.byte	-2
 7143 12dd FE       		.byte	-2
 7144 12de FE       		.byte	-2
 7145 12df 0E       		.byte	14
 7146 12e0 0E       		.byte	14
 7147 12e1 0E       		.byte	14
 7148 12e2 FE       		.byte	-2
 7149 12e3 FE       		.byte	-2
 7150 12e4 FE       		.byte	-2
 7151 12e5 0E       		.byte	14
 7152 12e6 0E       		.byte	14
 7153 12e7 0E       		.byte	14
 7154 12e8 F0       		.byte	-16
 7155 12e9 F0       		.byte	-16
 7156 12ea F0       		.byte	-16
 7157 12eb FF       		.byte	-1
 7158 12ec FF       		.byte	-1
 7159 12ed FF       		.byte	-1
 7160 12ee 00       		.byte	0
 7161 12ef 00       		.byte	0
 7162 12f0 00       		.byte	0
 7163 12f1 FF       		.byte	-1
 7164 12f2 FF       		.byte	-1
 7165 12f3 FF       		.byte	-1
 7166 12f4 00       		.byte	0
 7167 12f5 00       		.byte	0
 7168 12f6 00       		.byte	0
 7169 12f7 FF       		.byte	-1
 7170 12f8 FF       		.byte	-1
 7171 12f9 FF       		.byte	-1
 7172 12fa 00       		.byte	0
 7173 12fb 00       		.byte	0
 7174 12fc 00       		.byte	0
 7175 12fd 00       		.byte	0
 7176 12fe 00       		.byte	0
 7177 12ff 00       		.byte	0
 7178 1300 00       		.byte	0
 7179 1301 00       		.byte	0
 7180 1302 00       		.byte	0
 7181 1303 00       		.byte	0
 7182 1304 00       		.byte	0
 7183 1305 00       		.byte	0
 7184 1306 00       		.byte	0
 7185 1307 00       		.byte	0
 7186 1308 00       		.byte	0
 7187 1309 00       		.byte	0
 7188 130a 00       		.byte	0
 7189 130b 00       		.byte	0
 7190 130c 00       		.byte	0
 7191 130d 00       		.byte	0
 7192 130e 00       		.byte	0
 7193 130f 00       		.byte	0
 7194 1310 00       		.byte	0
 7195 1311 00       		.byte	0
 7196 1312 00       		.byte	0
 7197 1313 00       		.byte	0
 7198 1314 00       		.byte	0
 7199 1315 FE       		.byte	-2
 7200 1316 FE       		.byte	-2
 7201 1317 FE       		.byte	-2
 7202 1318 0E       		.byte	14
 7203 1319 0E       		.byte	14
 7204 131a 0E       		.byte	14
 7205 131b 0E       		.byte	14
 7206 131c 0E       		.byte	14
 7207 131d 0E       		.byte	14
 7208 131e F0       		.byte	-16
 7209 131f F0       		.byte	-16
 7210 1320 F0       		.byte	-16
 7211 1321 FF       		.byte	-1
 7212 1322 FF       		.byte	-1
 7213 1323 FF       		.byte	-1
 7214 1324 00       		.byte	0
 7215 1325 00       		.byte	0
 7216 1326 00       		.byte	0
 7217 1327 00       		.byte	0
 7218 1328 00       		.byte	0
 7219 1329 00       		.byte	0
 7220 132a FF       		.byte	-1
 7221 132b FF       		.byte	-1
 7222 132c FF       		.byte	-1
 7223 132d 00       		.byte	0
 7224 132e 00       		.byte	0
 7225 132f 00       		.byte	0
 7226 1330 00       		.byte	0
 7227 1331 00       		.byte	0
 7228 1332 00       		.byte	0
 7229 1333 00       		.byte	0
 7230 1334 00       		.byte	0
 7231 1335 00       		.byte	0
 7232 1336 00       		.byte	0
 7233 1337 00       		.byte	0
 7234 1338 00       		.byte	0
 7235 1339 00       		.byte	0
 7236 133a 00       		.byte	0
 7237 133b 00       		.byte	0
 7238 133c 00       		.byte	0
 7239 133d 00       		.byte	0
 7240 133e 00       		.byte	0
 7241 133f 00       		.byte	0
 7242 1340 00       		.byte	0
 7243 1341 00       		.byte	0
 7244 1342 00       		.byte	0
 7245 1343 00       		.byte	0
 7246 1344 00       		.byte	0
 7247 1345 F0       		.byte	-16
 7248 1346 F0       		.byte	-16
 7249 1347 F0       		.byte	-16
 7250 1348 0E       		.byte	14
 7251 1349 0E       		.byte	14
 7252 134a 0E       		.byte	14
 7253 134b 0E       		.byte	14
 7254 134c 0E       		.byte	14
 7255 134d 0E       		.byte	14
 7256 134e F0       		.byte	-16
 7257 134f F0       		.byte	-16
 7258 1350 F0       		.byte	-16
 7259 1351 1F       		.byte	31
 7260 1352 1F       		.byte	31
 7261 1353 1F       		.byte	31
 7262 1354 E0       		.byte	-32
 7263 1355 E0       		.byte	-32
 7264 1356 E0       		.byte	-32
 7265 1357 E0       		.byte	-32
 7266 1358 E0       		.byte	-32
 7267 1359 E0       		.byte	-32
 7268 135a 1F       		.byte	31
 7269 135b 1F       		.byte	31
 7270 135c 1F       		.byte	31
 7271 135d 00       		.byte	0
 7272 135e 00       		.byte	0
 7273 135f 00       		.byte	0
 7274 1360 00       		.byte	0
 7275 1361 00       		.byte	0
 7276 1362 00       		.byte	0
 7277 1363 00       		.byte	0
 7278 1364 00       		.byte	0
 7279 1365 00       		.byte	0
 7280 1366 00       		.byte	0
 7281 1367 00       		.byte	0
 7282 1368 00       		.byte	0
 7283 1369 00       		.byte	0
 7284 136a 00       		.byte	0
 7285 136b 00       		.byte	0
 7286 136c 00       		.byte	0
 7287 136d 00       		.byte	0
 7288 136e 00       		.byte	0
 7289 136f 00       		.byte	0
 7290 1370 00       		.byte	0
 7291 1371 00       		.byte	0
 7292 1372 00       		.byte	0
 7293 1373 00       		.byte	0
 7294 1374 00       		.byte	0
 7295 1375 FE       		.byte	-2
 7296 1376 FE       		.byte	-2
 7297 1377 FE       		.byte	-2
 7298 1378 0E       		.byte	14
 7299 1379 0E       		.byte	14
 7300 137a 0E       		.byte	14
 7301 137b 0E       		.byte	14
 7302 137c 0E       		.byte	14
 7303 137d 0E       		.byte	14
 7304 137e F0       		.byte	-16
 7305 137f F0       		.byte	-16
 7306 1380 F0       		.byte	-16
 7307 1381 FF       		.byte	-1
 7308 1382 FF       		.byte	-1
 7309 1383 FF       		.byte	-1
 7310 1384 E0       		.byte	-32
 7311 1385 E0       		.byte	-32
 7312 1386 E0       		.byte	-32
 7313 1387 E0       		.byte	-32
 7314 1388 E0       		.byte	-32
 7315 1389 E0       		.byte	-32
 7316 138a 1F       		.byte	31
 7317 138b 1F       		.byte	31
 7318 138c 1F       		.byte	31
 7319 138d FC       		.byte	-4
 7320 138e FC       		.byte	-4
 7321 138f FC       		.byte	-4
 7322 1390 00       		.byte	0
 7323 1391 00       		.byte	0
 7324 1392 00       		.byte	0
 7325 1393 00       		.byte	0
 7326 1394 00       		.byte	0
 7327 1395 00       		.byte	0
 7328 1396 00       		.byte	0
 7329 1397 00       		.byte	0
 7330 1398 00       		.byte	0
 7331 1399 00       		.byte	0
 7332 139a 00       		.byte	0
 7333 139b 00       		.byte	0
 7334 139c 00       		.byte	0
 7335 139d 00       		.byte	0
 7336 139e 00       		.byte	0
 7337 139f 00       		.byte	0
 7338 13a0 00       		.byte	0
 7339 13a1 00       		.byte	0
 7340 13a2 00       		.byte	0
 7341 13a3 00       		.byte	0
 7342 13a4 00       		.byte	0
 7343 13a5 F0       		.byte	-16
 7344 13a6 F0       		.byte	-16
 7345 13a7 F0       		.byte	-16
 7346 13a8 0E       		.byte	14
 7347 13a9 0E       		.byte	14
 7348 13aa 0E       		.byte	14
 7349 13ab 0E       		.byte	14
 7350 13ac 0E       		.byte	14
 7351 13ad 0E       		.byte	14
 7352 13ae FE       		.byte	-2
 7353 13af FE       		.byte	-2
 7354 13b0 FE       		.byte	-2
 7355 13b1 1F       		.byte	31
 7356 13b2 1F       		.byte	31
 7357 13b3 1F       		.byte	31
 7358 13b4 E0       		.byte	-32
 7359 13b5 E0       		.byte	-32
 7360 13b6 E0       		.byte	-32
 7361 13b7 E0       		.byte	-32
 7362 13b8 E0       		.byte	-32
 7363 13b9 E0       		.byte	-32
 7364 13ba FF       		.byte	-1
 7365 13bb FF       		.byte	-1
 7366 13bc FF       		.byte	-1
 7367 13bd 00       		.byte	0
 7368 13be 00       		.byte	0
 7369 13bf 00       		.byte	0
 7370 13c0 00       		.byte	0
 7371 13c1 00       		.byte	0
 7372 13c2 00       		.byte	0
 7373 13c3 00       		.byte	0
 7374 13c4 00       		.byte	0
 7375 13c5 00       		.byte	0
 7376 13c6 FC       		.byte	-4
 7377 13c7 FC       		.byte	-4
 7378 13c8 FC       		.byte	-4
 7379 13c9 00       		.byte	0
 7380 13ca 00       		.byte	0
 7381 13cb 00       		.byte	0
 7382 13cc 00       		.byte	0
 7383 13cd 00       		.byte	0
 7384 13ce 00       		.byte	0
 7385 13cf 00       		.byte	0
 7386 13d0 00       		.byte	0
 7387 13d1 00       		.byte	0
 7388 13d2 F0       		.byte	-16
 7389 13d3 F0       		.byte	-16
 7390 13d4 F0       		.byte	-16
 7391 13d5 0E       		.byte	14
 7392 13d6 0E       		.byte	14
 7393 13d7 0E       		.byte	14
 7394 13d8 0E       		.byte	14
 7395 13d9 0E       		.byte	14
 7396 13da 0E       		.byte	14
 7397 13db FF       		.byte	-1
 7398 13dc FF       		.byte	-1
 7399 13dd FF       		.byte	-1
 7400 13de 00       		.byte	0
 7401 13df 00       		.byte	0
 7402 13e0 00       		.byte	0
 7403 13e1 00       		.byte	0
 7404 13e2 00       		.byte	0
 7405 13e3 00       		.byte	0
 7406 13e4 00       		.byte	0
 7407 13e5 00       		.byte	0
 7408 13e6 00       		.byte	0
 7409 13e7 00       		.byte	0
 7410 13e8 00       		.byte	0
 7411 13e9 00       		.byte	0
 7412 13ea 00       		.byte	0
 7413 13eb 00       		.byte	0
 7414 13ec 00       		.byte	0
 7415 13ed 00       		.byte	0
 7416 13ee 00       		.byte	0
 7417 13ef 00       		.byte	0
 7418 13f0 00       		.byte	0
 7419 13f1 00       		.byte	0
 7420 13f2 00       		.byte	0
 7421 13f3 00       		.byte	0
 7422 13f4 00       		.byte	0
 7423 13f5 00       		.byte	0
 7424 13f6 00       		.byte	0
 7425 13f7 00       		.byte	0
 7426 13f8 00       		.byte	0
 7427 13f9 70       		.byte	112
 7428 13fa 70       		.byte	112
 7429 13fb 70       		.byte	112
 7430 13fc 8E       		.byte	-114
 7431 13fd 8E       		.byte	-114
 7432 13fe 8E       		.byte	-114
 7433 13ff 8E       		.byte	-114
 7434 1400 8E       		.byte	-114
 7435 1401 8E       		.byte	-114
 7436 1402 0E       		.byte	14
 7437 1403 0E       		.byte	14
 7438 1404 0E       		.byte	14
 7439 1405 E0       		.byte	-32
 7440 1406 E0       		.byte	-32
 7441 1407 E0       		.byte	-32
 7442 1408 E3       		.byte	-29
 7443 1409 E3       		.byte	-29
 7444 140a E3       		.byte	-29
 7445 140b E3       		.byte	-29
 7446 140c E3       		.byte	-29
 7447 140d E3       		.byte	-29
 7448 140e 1C       		.byte	28
 7449 140f 1C       		.byte	28
 7450 1410 1C       		.byte	28
 7451 1411 00       		.byte	0
 7452 1412 00       		.byte	0
 7453 1413 00       		.byte	0
 7454 1414 00       		.byte	0
 7455 1415 00       		.byte	0
 7456 1416 00       		.byte	0
 7457 1417 00       		.byte	0
 7458 1418 00       		.byte	0
 7459 1419 00       		.byte	0
 7460 141a 00       		.byte	0
 7461 141b 00       		.byte	0
 7462 141c 00       		.byte	0
 7463 141d F8       		.byte	-8
 7464 141e F8       		.byte	-8
 7465 141f F8       		.byte	-8
 7466 1420 00       		.byte	0
 7467 1421 00       		.byte	0
 7468 1422 00       		.byte	0
 7469 1423 00       		.byte	0
 7470 1424 00       		.byte	0
 7471 1425 00       		.byte	0
 7472 1426 FF       		.byte	-1
 7473 1427 FF       		.byte	-1
 7474 1428 FF       		.byte	-1
 7475 1429 0E       		.byte	14
 7476 142a 0E       		.byte	14
 7477 142b 0E       		.byte	14
 7478 142c 00       		.byte	0
 7479 142d 00       		.byte	0
 7480 142e 00       		.byte	0
 7481 142f 1F       		.byte	31
 7482 1430 1F       		.byte	31
 7483 1431 1F       		.byte	31
 7484 1432 E0       		.byte	-32
 7485 1433 E0       		.byte	-32
 7486 1434 E0       		.byte	-32
 7487 1435 E0       		.byte	-32
 7488 1436 E0       		.byte	-32
 7489 1437 E0       		.byte	-32
 7490 1438 00       		.byte	0
 7491 1439 00       		.byte	0
 7492 143a 00       		.byte	0
 7493 143b 00       		.byte	0
 7494 143c 00       		.byte	0
 7495 143d 00       		.byte	0
 7496 143e 00       		.byte	0
 7497 143f 00       		.byte	0
 7498 1440 00       		.byte	0
 7499 1441 00       		.byte	0
 7500 1442 00       		.byte	0
 7501 1443 00       		.byte	0
 7502 1444 00       		.byte	0
 7503 1445 00       		.byte	0
 7504 1446 00       		.byte	0
 7505 1447 00       		.byte	0
 7506 1448 00       		.byte	0
 7507 1449 00       		.byte	0
 7508 144a 00       		.byte	0
 7509 144b 00       		.byte	0
 7510 144c 00       		.byte	0
 7511 144d FE       		.byte	-2
 7512 144e FE       		.byte	-2
 7513 144f FE       		.byte	-2
 7514 1450 00       		.byte	0
 7515 1451 00       		.byte	0
 7516 1452 00       		.byte	0
 7517 1453 00       		.byte	0
 7518 1454 00       		.byte	0
 7519 1455 00       		.byte	0
 7520 1456 FE       		.byte	-2
 7521 1457 FE       		.byte	-2
 7522 1458 FE       		.byte	-2
 7523 1459 1F       		.byte	31
 7524 145a 1F       		.byte	31
 7525 145b 1F       		.byte	31
 7526 145c E0       		.byte	-32
 7527 145d E0       		.byte	-32
 7528 145e E0       		.byte	-32
 7529 145f E0       		.byte	-32
 7530 1460 E0       		.byte	-32
 7531 1461 E0       		.byte	-32
 7532 1462 FF       		.byte	-1
 7533 1463 FF       		.byte	-1
 7534 1464 FF       		.byte	-1
 7535 1465 00       		.byte	0
 7536 1466 00       		.byte	0
 7537 1467 00       		.byte	0
 7538 1468 00       		.byte	0
 7539 1469 00       		.byte	0
 7540 146a 00       		.byte	0
 7541 146b 00       		.byte	0
 7542 146c 00       		.byte	0
 7543 146d 00       		.byte	0
 7544 146e 00       		.byte	0
 7545 146f 00       		.byte	0
 7546 1470 00       		.byte	0
 7547 1471 00       		.byte	0
 7548 1472 00       		.byte	0
 7549 1473 00       		.byte	0
 7550 1474 00       		.byte	0
 7551 1475 00       		.byte	0
 7552 1476 00       		.byte	0
 7553 1477 00       		.byte	0
 7554 1478 00       		.byte	0
 7555 1479 00       		.byte	0
 7556 147a 00       		.byte	0
 7557 147b 00       		.byte	0
 7558 147c 00       		.byte	0
 7559 147d FE       		.byte	-2
 7560 147e FE       		.byte	-2
 7561 147f FE       		.byte	-2
 7562 1480 00       		.byte	0
 7563 1481 00       		.byte	0
 7564 1482 00       		.byte	0
 7565 1483 00       		.byte	0
 7566 1484 00       		.byte	0
 7567 1485 00       		.byte	0
 7568 1486 FE       		.byte	-2
 7569 1487 FE       		.byte	-2
 7570 1488 FE       		.byte	-2
 7571 1489 03       		.byte	3
 7572 148a 03       		.byte	3
 7573 148b 03       		.byte	3
 7574 148c 1C       		.byte	28
 7575 148d 1C       		.byte	28
 7576 148e 1C       		.byte	28
 7577 148f E0       		.byte	-32
 7578 1490 E0       		.byte	-32
 7579 1491 E0       		.byte	-32
 7580 1492 FF       		.byte	-1
 7581 1493 FF       		.byte	-1
 7582 1494 FF       		.byte	-1
 7583 1495 00       		.byte	0
 7584 1496 00       		.byte	0
 7585 1497 00       		.byte	0
 7586 1498 00       		.byte	0
 7587 1499 00       		.byte	0
 7588 149a 00       		.byte	0
 7589 149b 00       		.byte	0
 7590 149c 00       		.byte	0
 7591 149d 00       		.byte	0
 7592 149e 00       		.byte	0
 7593 149f 00       		.byte	0
 7594 14a0 00       		.byte	0
 7595 14a1 00       		.byte	0
 7596 14a2 00       		.byte	0
 7597 14a3 00       		.byte	0
 7598 14a4 00       		.byte	0
 7599 14a5 00       		.byte	0
 7600 14a6 00       		.byte	0
 7601 14a7 00       		.byte	0
 7602 14a8 00       		.byte	0
 7603 14a9 00       		.byte	0
 7604 14aa 00       		.byte	0
 7605 14ab 00       		.byte	0
 7606 14ac 00       		.byte	0
 7607 14ad 00       		.byte	0
 7608 14ae 00       		.byte	0
 7609 14af 00       		.byte	0
 7610 14b0 FE       		.byte	-2
 7611 14b1 FE       		.byte	-2
 7612 14b2 FE       		.byte	-2
 7613 14b3 00       		.byte	0
 7614 14b4 00       		.byte	0
 7615 14b5 00       		.byte	0
 7616 14b6 00       		.byte	0
 7617 14b7 00       		.byte	0
 7618 14b8 00       		.byte	0
 7619 14b9 00       		.byte	0
 7620 14ba 00       		.byte	0
 7621 14bb 00       		.byte	0
 7622 14bc FE       		.byte	-2
 7623 14bd FE       		.byte	-2
 7624 14be FE       		.byte	-2
 7625 14bf 1F       		.byte	31
 7626 14c0 1F       		.byte	31
 7627 14c1 1F       		.byte	31
 7628 14c2 E0       		.byte	-32
 7629 14c3 E0       		.byte	-32
 7630 14c4 E0       		.byte	-32
 7631 14c5 1C       		.byte	28
 7632 14c6 1C       		.byte	28
 7633 14c7 1C       		.byte	28
 7634 14c8 E0       		.byte	-32
 7635 14c9 E0       		.byte	-32
 7636 14ca E0       		.byte	-32
 7637 14cb 1F       		.byte	31
 7638 14cc 1F       		.byte	31
 7639 14cd 1F       		.byte	31
 7640 14ce 00       		.byte	0
 7641 14cf 00       		.byte	0
 7642 14d0 00       		.byte	0
 7643 14d1 00       		.byte	0
 7644 14d2 00       		.byte	0
 7645 14d3 00       		.byte	0
 7646 14d4 00       		.byte	0
 7647 14d5 00       		.byte	0
 7648 14d6 00       		.byte	0
 7649 14d7 00       		.byte	0
 7650 14d8 00       		.byte	0
 7651 14d9 00       		.byte	0
 7652 14da 00       		.byte	0
 7653 14db 00       		.byte	0
 7654 14dc 00       		.byte	0
 7655 14dd 00       		.byte	0
 7656 14de 00       		.byte	0
 7657 14df 00       		.byte	0
 7658 14e0 00       		.byte	0
 7659 14e1 00       		.byte	0
 7660 14e2 00       		.byte	0
 7661 14e3 00       		.byte	0
 7662 14e4 00       		.byte	0
 7663 14e5 00       		.byte	0
 7664 14e6 00       		.byte	0
 7665 14e7 00       		.byte	0
 7666 14e8 00       		.byte	0
 7667 14e9 7E       		.byte	126
 7668 14ea 7E       		.byte	126
 7669 14eb 7E       		.byte	126
 7670 14ec 80       		.byte	-128
 7671 14ed 80       		.byte	-128
 7672 14ee 80       		.byte	-128
 7673 14ef 80       		.byte	-128
 7674 14f0 80       		.byte	-128
 7675 14f1 80       		.byte	-128
 7676 14f2 7E       		.byte	126
 7677 14f3 7E       		.byte	126
 7678 14f4 7E       		.byte	126
 7679 14f5 FC       		.byte	-4
 7680 14f6 FC       		.byte	-4
 7681 14f7 FC       		.byte	-4
 7682 14f8 03       		.byte	3
 7683 14f9 03       		.byte	3
 7684 14fa 03       		.byte	3
 7685 14fb 03       		.byte	3
 7686 14fc 03       		.byte	3
 7687 14fd 03       		.byte	3
 7688 14fe FC       		.byte	-4
 7689 14ff FC       		.byte	-4
 7690 1500 FC       		.byte	-4
 7691 1501 00       		.byte	0
 7692 1502 00       		.byte	0
 7693 1503 00       		.byte	0
 7694 1504 00       		.byte	0
 7695 1505 00       		.byte	0
 7696 1506 00       		.byte	0
 7697 1507 00       		.byte	0
 7698 1508 00       		.byte	0
 7699 1509 00       		.byte	0
 7700 150a 00       		.byte	0
 7701 150b 00       		.byte	0
 7702 150c 00       		.byte	0
 7703 150d 00       		.byte	0
 7704 150e 00       		.byte	0
 7705 150f 00       		.byte	0
 7706 1510 00       		.byte	0
 7707 1511 00       		.byte	0
 7708 1512 00       		.byte	0
 7709 1513 00       		.byte	0
 7710 1514 00       		.byte	0
 7711 1515 00       		.byte	0
 7712 1516 00       		.byte	0
 7713 1517 00       		.byte	0
 7714 1518 00       		.byte	0
 7715 1519 FE       		.byte	-2
 7716 151a FE       		.byte	-2
 7717 151b FE       		.byte	-2
 7718 151c 00       		.byte	0
 7719 151d 00       		.byte	0
 7720 151e 00       		.byte	0
 7721 151f 00       		.byte	0
 7722 1520 00       		.byte	0
 7723 1521 00       		.byte	0
 7724 1522 FE       		.byte	-2
 7725 1523 FE       		.byte	-2
 7726 1524 FE       		.byte	-2
 7727 1525 1F       		.byte	31
 7728 1526 1F       		.byte	31
 7729 1527 1F       		.byte	31
 7730 1528 E0       		.byte	-32
 7731 1529 E0       		.byte	-32
 7732 152a E0       		.byte	-32
 7733 152b E0       		.byte	-32
 7734 152c E0       		.byte	-32
 7735 152d E0       		.byte	-32
 7736 152e FF       		.byte	-1
 7737 152f FF       		.byte	-1
 7738 1530 FF       		.byte	-1
 7739 1531 E0       		.byte	-32
 7740 1532 E0       		.byte	-32
 7741 1533 E0       		.byte	-32
 7742 1534 E0       		.byte	-32
 7743 1535 E0       		.byte	-32
 7744 1536 E0       		.byte	-32
 7745 1537 E0       		.byte	-32
 7746 1538 E0       		.byte	-32
 7747 1539 E0       		.byte	-32
 7748 153a 1C       		.byte	28
 7749 153b 1C       		.byte	28
 7750 153c 1C       		.byte	28
 7751 153d 00       		.byte	0
 7752 153e 00       		.byte	0
 7753 153f 00       		.byte	0
 7754 1540 00       		.byte	0
 7755 1541 00       		.byte	0
 7756 1542 00       		.byte	0
 7757 1543 00       		.byte	0
 7758 1544 00       		.byte	0
 7759 1545 00       		.byte	0
 7760 1546 00       		.byte	0
 7761 1547 00       		.byte	0
 7762 1548 00       		.byte	0
 7763 1549 0E       		.byte	14
 7764 154a 0E       		.byte	14
 7765 154b 0E       		.byte	14
 7766 154c 8E       		.byte	-114
 7767 154d 8E       		.byte	-114
 7768 154e 8E       		.byte	-114
 7769 154f 8E       		.byte	-114
 7770 1550 8E       		.byte	-114
 7771 1551 8E       		.byte	-114
 7772 1552 7E       		.byte	126
 7773 1553 7E       		.byte	126
 7774 1554 7E       		.byte	126
 7775 1555 FC       		.byte	-4
 7776 1556 FC       		.byte	-4
 7777 1557 FC       		.byte	-4
 7778 1558 E3       		.byte	-29
 7779 1559 E3       		.byte	-29
 7780 155a E3       		.byte	-29
 7781 155b E3       		.byte	-29
 7782 155c E3       		.byte	-29
 7783 155d E3       		.byte	-29
 7784 155e E0       		.byte	-32
 7785 155f E0       		.byte	-32
 7786 1560 E0       		.byte	-32
 7787 1561 00       		.byte	0
 7788 1562 00       		.byte	0
 7789 1563 00       		.byte	0
 7790 1564 00       		.byte	0
 7791 1565 00       		.byte	0
 7792 1566 00       		.byte	0
 7793 1567 00       		.byte	0
 7794 1568 00       		.byte	0
 7795 1569 00       		.byte	0
 7796 156a 00       		.byte	0
 7797 156b 00       		.byte	0
 7798 156c 00       		.byte	0
 7799 156d 00       		.byte	0
 7800 156e 00       		.byte	0
 7801 156f 00       		.byte	0
 7802 1570 F8       		.byte	-8
 7803 1571 F8       		.byte	-8
 7804 1572 F8       		.byte	-8
 7805 1573 07       		.byte	7
 7806 1574 07       		.byte	7
 7807 1575 07       		.byte	7
 7808 1576 70       		.byte	112
 7809 1577 70       		.byte	112
 7810 1578 70       		.byte	112
 7811 1579 8F       		.byte	-113
 7812 157a 8F       		.byte	-113
 7813 157b 8F       		.byte	-113
 7814 157c 00       		.byte	0
 7815 157d 00       		.byte	0
 7816 157e 00       		.byte	0
 7817 157f 00       		.byte	0
 7818 1580 00       		.byte	0
 7819 1581 00       		.byte	0
 7820 1582 FF       		.byte	-1
 7821 1583 FF       		.byte	-1
 7822 1584 FF       		.byte	-1
 7823 1585 00       		.byte	0
 7824 1586 00       		.byte	0
 7825 1587 00       		.byte	0
 7826 1588 00       		.byte	0
 7827 1589 00       		.byte	0
 7828 158a 00       		.byte	0
 7829 158b 00       		.byte	0
 7830 158c 00       		.byte	0
 7831 158d 00       		.byte	0
 7832 158e 1C       		.byte	28
 7833 158f 1C       		.byte	28
 7834 1590 1C       		.byte	28
 7835 1591 F8       		.byte	-8
 7836 1592 F8       		.byte	-8
 7837 1593 F8       		.byte	-8
 7838 1594 FF       		.byte	-1
 7839 1595 FF       		.byte	-1
 7840 1596 FF       		.byte	-1
 7841 1597 FF       		.byte	-1
 7842 1598 FF       		.byte	-1
 7843 1599 FF       		.byte	-1
 7844 159a 00       		.byte	0
 7845 159b 00       		.byte	0
 7846 159c 00       		.byte	0
 7847 159d 07       		.byte	7
 7848 159e 07       		.byte	7
 7849 159f 07       		.byte	7
 7850 15a0 F8       		.byte	-8
 7851 15a1 F8       		.byte	-8
 7852 15a2 F8       		.byte	-8
 7853 15a3 00       		.byte	0
 7854 15a4 00       		.byte	0
 7855 15a5 00       		.byte	0
 7856 15a6 00       		.byte	0
 7857 15a7 00       		.byte	0
 7858 15a8 00       		.byte	0
 7859 15a9 8F       		.byte	-113
 7860 15aa 8F       		.byte	-113
 7861 15ab 8F       		.byte	-113
 7862 15ac 70       		.byte	112
 7863 15ad 70       		.byte	112
 7864 15ae 70       		.byte	112
 7865 15af 00       		.byte	0
 7866 15b0 00       		.byte	0
 7867 15b1 00       		.byte	0
 7868 15b2 FF       		.byte	-1
 7869 15b3 FF       		.byte	-1
 7870 15b4 FF       		.byte	-1
 7871 15b5 00       		.byte	0
 7872 15b6 00       		.byte	0
 7873 15b7 00       		.byte	0
 7874 15b8 1C       		.byte	28
 7875 15b9 1C       		.byte	28
 7876 15ba 1C       		.byte	28
 7877 15bb 00       		.byte	0
 7878 15bc 00       		.byte	0
 7879 15bd 00       		.byte	0
 7880 15be 00       		.byte	0
 7881 15bf 00       		.byte	0
 7882 15c0 00       		.byte	0
 7883 15c1 38       		.byte	56
 7884 15c2 38       		.byte	56
 7885 15c3 38       		.byte	56
 7886 15c4 38       		.byte	56
 7887 15c5 38       		.byte	56
 7888 15c6 38       		.byte	56
 7889 15c7 00       		.byte	0
 7890 15c8 00       		.byte	0
 7891 15c9 00       		.byte	0
 7892 15ca 00       		.byte	0
 7893 15cb 00       		.byte	0
 7894 15cc 00       		.byte	0
 7895 15cd 00       		.byte	0
 7896 15ce 00       		.byte	0
 7897 15cf 00       		.byte	0
 7898 15d0 00       		.byte	0
 7899 15d1 00       		.byte	0
 7900 15d2 00       		.byte	0
 7901 15d3 00       		.byte	0
 7902 15d4 00       		.byte	0
 7903 15d5 00       		.byte	0
 7904 15d6 00       		.byte	0
 7905 15d7 00       		.byte	0
 7906 15d8 00       		.byte	0
 7907              		.section	.rodata.str1.4,"aMS",%progbits,1
 7908              		.align	2
 7909              	.LC1:
 7910 0000 54554E45 		.ascii	"TUNER\000"
 7910      5200
 7911 0006 0000     		.space	2
 7912              	.LC2:
 7913 0008 4F4B00   		.ascii	"OK\000"
 7914 000b 00       		.space	1
 7915              	.LC3:
 7916 000c 43414E43 		.ascii	"CANCEL\000"
 7916      454C00
 7917 0013 00       		.space	1
 7918              	.LC4:
 7919 0014 59455300 		.ascii	"YES\000"
 7920              	.LC5:
 7921 0018 4E4F00   		.ascii	"NO\000"
 7922              		.ident	"GCC: (GNU Tools for Arm Embedded Processors 7-2018-q3-update) 7.3.1 20180622 (release) [AR
DEFINED SYMBOLS
                            *ABS*:0000000000000000 glcd_widget.c
     /tmp/cc4Q4QB7.s:13     .text:0000000000000000 $t
     /tmp/cc4Q4QB7.s:20     .text:0000000000000000 get_text_width
     /tmp/cc4Q4QB7.s:74     .text:0000000000000050 widget_textbox
     /tmp/cc4Q4QB7.s:105    .text:0000000000000088 $d
     /tmp/cc4Q4QB7.s:122    .text:00000000000000aa $t
     /tmp/cc4Q4QB7.s:358    .text:0000000000000290 widget_listbox
     /tmp/cc4Q4QB7.s:517    .text:00000000000003d4 widget_listbox3
     /tmp/cc4Q4QB7.s:923    .text:0000000000000770 $d
     /tmp/cc4Q4QB7.s:934    .text:0000000000000774 $t
     /tmp/cc4Q4QB7.s:942    .text:0000000000000774 widget_bar_indicator
     /tmp/cc4Q4QB7.s:1025   .text:0000000000000838 $d
     /tmp/cc4Q4QB7.s:1029   .text:000000000000083c $t
     /tmp/cc4Q4QB7.s:1037   .text:000000000000083c widget_knob
     /tmp/cc4Q4QB7.s:1226   .text:00000000000009e8 $d
     /tmp/cc4Q4QB7.s:1242   .text:0000000000000a08 $t
     /tmp/cc4Q4QB7.s:1360   .text:0000000000000af0 $d
     /tmp/cc4Q4QB7.s:1363   .text:0000000000000af8 $t
     /tmp/cc4Q4QB7.s:1541   .text:0000000000000c4c widget_peakmeter
     /tmp/cc4Q4QB7.s:1790   .text:0000000000000e84 $d
     /tmp/cc4Q4QB7.s:1798   .text:0000000000000ea0 $t
     /tmp/cc4Q4QB7.s:1806   .text:0000000000000ea0 widget_tuner
     /tmp/cc4Q4QB7.s:2038   .text:000000000000110c $d
     /tmp/cc4Q4QB7.s:2044   .text:0000000000001120 $t
     /tmp/cc4Q4QB7.s:2052   .text:0000000000001120 widget_popup
     /tmp/cc4Q4QB7.s:2131   .text:00000000000011ee $d
     /tmp/cc4Q4QB7.s:2135   .text:00000000000011f2 $t
     /tmp/cc4Q4QB7.s:2298   .text:0000000000001388 $d
     /tmp/cc4Q4QB7.s:2304   .rodata:0000000000000000 $d
     /tmp/cc4Q4QB7.s:2308   .rodata:0000000000000000 SMfont
     /tmp/cc4Q4QB7.s:2698   .rodata:0000000000000184 alterebro24
     /tmp/cc4Q4QB7.s:3837   .rodata:00000000000005f4 alterebro49
     /tmp/cc4Q4QB7.s:7908   .rodata.str1.4:0000000000000000 $d

UNDEFINED SYMBOLS
uc1701_text
uc1701_rect_fill
uc1701_rect_invert
strlen
__aeabi_i2f
__aeabi_fmul
__aeabi_fdiv
__aeabi_fadd
__aeabi_f2d
__aeabi_fcmplt
__aeabi_dsub
__aeabi_d2iz
__aeabi_dadd
floor
uc1701_rect
ceil
__aeabi_fsub
__aeabi_d2uiz
__aeabi_fcmpgt
__aeabi_dcmpgt
uc1701_hline
float_to_str
