   1              		.cpu cortex-m3
   2              		.eabi_attribute 20, 1
   3              		.eabi_attribute 21, 1
   4              		.eabi_attribute 23, 3
   5              		.eabi_attribute 24, 1
   6              		.eabi_attribute 25, 1
   7              		.eabi_attribute 26, 1
   8              		.eabi_attribute 30, 2
   9              		.eabi_attribute 34, 1
  10              		.eabi_attribute 18, 4
  11              		.file	"hardware.c"
  12              		.text
  13              		.align	1
  14              		.p2align 2,,3
  15              		.global	adc_initalisation
  16              		.syntax unified
  17              		.thumb
  18              		.thumb_func
  19              		.fpu softvfp
  21              	adc_initalisation:
  22              		@ args = 0, pretend = 0, frame = 0
  23              		@ frame_needed = 0, uses_anonymous_args = 0
  24 0000 4FF48073 		mov	r3, #256
  25 0004 70B5     		push	{r4, r5, r6, lr}
  26 0006 4F4A     		ldr	r2, .L4
  27 0008 4F48     		ldr	r0, .L4+4
  28 000a 5049     		ldr	r1, .L4+8
  29 000c 504D     		ldr	r5, .L4+12
  30 000e 0360     		str	r3, [r0]
  31 0010 504E     		ldr	r6, .L4+16
  32 0012 0B60     		str	r3, [r1]
  33 0014 504C     		ldr	r4, .L4+20
  34 0016 1360     		str	r3, [r2]
  35 0018 2B60     		str	r3, [r5]
  36 001a 504D     		ldr	r5, .L4+24
  37 001c 2360     		str	r3, [r4]
  38 001e 40F82C3C 		str	r3, [r0, #-44]
  39 0022 41F8903C 		str	r3, [r1, #-144]
  40 0026 2846     		mov	r0, r5
  41 0028 42F82C3C 		str	r3, [r2, #-44]
  42 002c 3146     		mov	r1, r6
  43 002e FFF7FEFF 		bl	actuator_set_pins
  44 0032 311D     		adds	r1, r6, #4
  45 0034 05F11400 		add	r0, r5, #20
  46 0038 FFF7FEFF 		bl	actuator_set_pins
  47 003c 06F10801 		add	r1, r6, #8
  48 0040 05F12800 		add	r0, r5, #40
  49 0044 FFF7FEFF 		bl	actuator_set_pins
  50 0048 06F10C01 		add	r1, r6, #12
  51 004c 05F13C00 		add	r0, r5, #60
  52 0050 FFF7FEFF 		bl	actuator_set_pins
  53 0054 06F11001 		add	r1, r6, #16
  54 0058 05F15000 		add	r0, r5, #80
  55 005c FFF7FEFF 		bl	actuator_set_pins
  56 0060 06F11401 		add	r1, r6, #20
  57 0064 05F16400 		add	r0, r5, #100
  58 0068 3D4C     		ldr	r4, .L4+28
  59 006a FFF7FEFF 		bl	actuator_set_pins
  60 006e 06F11801 		add	r1, r6, #24
  61 0072 05F17800 		add	r0, r5, #120
  62 0076 FFF7FEFF 		bl	actuator_set_pins
  63 007a 06F11C01 		add	r1, r6, #28
  64 007e 05F18C00 		add	r0, r5, #140
  65 0082 FFF7FEFF 		bl	actuator_set_pins
  66 0086 2046     		mov	r0, r4
  67 0088 3649     		ldr	r1, .L4+32
  68 008a FFF7FEFF 		bl	ADC_Init
  69 008e 0022     		movs	r2, #0
  70 0090 2046     		mov	r0, r4
  71 0092 1146     		mov	r1, r2
  72 0094 FFF7FEFF 		bl	ADC_IntConfig
  73 0098 2046     		mov	r0, r4
  74 009a 0022     		movs	r2, #0
  75 009c 0121     		movs	r1, #1
  76 009e FFF7FEFF 		bl	ADC_IntConfig
  77 00a2 2046     		mov	r0, r4
  78 00a4 0022     		movs	r2, #0
  79 00a6 0221     		movs	r1, #2
  80 00a8 FFF7FEFF 		bl	ADC_IntConfig
  81 00ac 2046     		mov	r0, r4
  82 00ae 0022     		movs	r2, #0
  83 00b0 0321     		movs	r1, #3
  84 00b2 FFF7FEFF 		bl	ADC_IntConfig
  85 00b6 2046     		mov	r0, r4
  86 00b8 0022     		movs	r2, #0
  87 00ba 0421     		movs	r1, #4
  88 00bc FFF7FEFF 		bl	ADC_IntConfig
  89 00c0 2046     		mov	r0, r4
  90 00c2 0022     		movs	r2, #0
  91 00c4 0521     		movs	r1, #5
  92 00c6 FFF7FEFF 		bl	ADC_IntConfig
  93 00ca 2046     		mov	r0, r4
  94 00cc 0022     		movs	r2, #0
  95 00ce 0621     		movs	r1, #6
  96 00d0 FFF7FEFF 		bl	ADC_IntConfig
  97 00d4 2046     		mov	r0, r4
  98 00d6 0022     		movs	r2, #0
  99 00d8 0721     		movs	r1, #7
 100 00da FFF7FEFF 		bl	ADC_IntConfig
 101 00de 2046     		mov	r0, r4
 102 00e0 0122     		movs	r2, #1
 103 00e2 0021     		movs	r1, #0
 104 00e4 FFF7FEFF 		bl	ADC_ChannelCmd
 105 00e8 0122     		movs	r2, #1
 106 00ea 2046     		mov	r0, r4
 107 00ec 1146     		mov	r1, r2
 108 00ee FFF7FEFF 		bl	ADC_ChannelCmd
 109 00f2 2046     		mov	r0, r4
 110 00f4 0122     		movs	r2, #1
 111 00f6 0221     		movs	r1, #2
 112 00f8 FFF7FEFF 		bl	ADC_ChannelCmd
 113 00fc 2046     		mov	r0, r4
 114 00fe 0122     		movs	r2, #1
 115 0100 0321     		movs	r1, #3
 116 0102 FFF7FEFF 		bl	ADC_ChannelCmd
 117 0106 2046     		mov	r0, r4
 118 0108 0122     		movs	r2, #1
 119 010a 0421     		movs	r1, #4
 120 010c FFF7FEFF 		bl	ADC_ChannelCmd
 121 0110 2046     		mov	r0, r4
 122 0112 0122     		movs	r2, #1
 123 0114 0521     		movs	r1, #5
 124 0116 FFF7FEFF 		bl	ADC_ChannelCmd
 125 011a 2046     		mov	r0, r4
 126 011c 0122     		movs	r2, #1
 127 011e 0621     		movs	r1, #6
 128 0120 FFF7FEFF 		bl	ADC_ChannelCmd
 129 0124 2046     		mov	r0, r4
 130 0126 0122     		movs	r2, #1
 131 0128 0721     		movs	r1, #7
 132 012a FFF7FEFF 		bl	ADC_ChannelCmd
 133 012e 2046     		mov	r0, r4
 134 0130 0021     		movs	r1, #0
 135 0132 FFF7FEFF 		bl	ADC_StartCmd
 136 0136 2046     		mov	r0, r4
 137 0138 BDE87040 		pop	{r4, r5, r6, lr}
 138 013c 0121     		movs	r1, #1
 139 013e FFF7FEBF 		b	ADC_BurstCmd
 140              	.L5:
 141 0142 00BF     		.align	2
 142              	.L4:
 143 0144 60C00240 		.word	1073922144
 144 0148 5CC00240 		.word	1073922140
 145 014c F8C00240 		.word	1073922296
 146 0150 FCC00240 		.word	1073922300
 147 0154 00000000 		.word	.LANCHOR0
 148 0158 64C00240 		.word	1073922148
 149 015c 00000000 		.word	.LANCHOR1
 150 0160 00400340 		.word	1073954816
 151 0164 801A0600 		.word	400000
 153              		.align	1
 154              		.p2align 2,,3
 155              		.global	hardware_glcds
 156              		.syntax unified
 157              		.thumb
 158              		.thumb_func
 159              		.fpu softvfp
 161              	hardware_glcds:
 162              		@ args = 0, pretend = 0, frame = 0
 163              		@ frame_needed = 0, uses_anonymous_args = 0
 164              		@ link register save eliminated.
 165 0168 0128     		cmp	r0, #1
 166 016a 9DBF     		ittte	ls
 167 016c 4FF48362 		movls	r2, #1048
 168 0170 024B     		ldrls	r3, .L9
 169 0172 02FB0030 		mlals	r0, r2, r0, r3
 170 0176 0020     		movhi	r0, #0
 171 0178 7047     		bx	lr
 172              	.L10:
 173 017a 00BF     		.align	2
 174              	.L9:
 175 017c 00000000 		.word	.LANCHOR2
 177              		.align	1
 178              		.p2align 2,,3
 179              		.global	hardware_glcd_brightness
 180              		.syntax unified
 181              		.thumb
 182              		.thumb_func
 183              		.fpu softvfp
 185              	hardware_glcd_brightness:
 186              		@ args = 0, pretend = 0, frame = 0
 187              		@ frame_needed = 0, uses_anonymous_args = 0
 188              		@ link register save eliminated.
 189 0180 014B     		ldr	r3, .L12
 190 0182 C3F8A000 		str	r0, [r3, #160]
 191 0186 7047     		bx	lr
 192              	.L13:
 193              		.align	2
 194              	.L12:
 195 0188 00000000 		.word	.LANCHOR1
 197              		.align	1
 198              		.p2align 2,,3
 199              		.global	hardware_leds
 200              		.syntax unified
 201              		.thumb
 202              		.thumb_func
 203              		.fpu softvfp
 205              	hardware_leds:
 206              		@ args = 0, pretend = 0, frame = 0
 207              		@ frame_needed = 0, uses_anonymous_args = 0
 208              		@ link register save eliminated.
 209 018c 0628     		cmp	r0, #6
 210 018e 9DBF     		ittte	ls
 211 0190 034B     		ldrls	r3, .L17
 212 0192 03EB8000 		addls	r0, r3, r0, lsl #2
 213 0196 D0F8A400 		ldrls	r0, [r0, #164]
 214 019a 0020     		movhi	r0, #0
 215 019c 7047     		bx	lr
 216              	.L18:
 217 019e 00BF     		.align	2
 218              	.L17:
 219 01a0 00000000 		.word	.LANCHOR1
 221              		.align	1
 222              		.p2align 2,,3
 223              		.global	hardware_actuators
 224              		.syntax unified
 225              		.thumb
 226              		.thumb_func
 227              		.fpu softvfp
 229              	hardware_actuators:
 230              		@ args = 0, pretend = 0, frame = 0
 231              		@ frame_needed = 0, uses_anonymous_args = 0
 232              		@ link register save eliminated.
 233 01a4 0128     		cmp	r0, #1
 234 01a6 14D9     		bls	.L24
 235 01a8 831E     		subs	r3, r0, #2
 236 01aa DAB2     		uxtb	r2, r3
 237 01ac 062A     		cmp	r2, #6
 238 01ae 0AD9     		bls	.L25
 239 01b0 0938     		subs	r0, r0, #9
 240 01b2 C3B2     		uxtb	r3, r0
 241 01b4 072B     		cmp	r3, #7
 242 01b6 9DBF     		ittte	ls
 243 01b8 094B     		ldrls	r3, .L26
 244 01ba 00EB8000 		addls	r0, r0, r0, lsl #2
 245 01be 03EB8000 		addls	r0, r3, r0, lsl #2
 246 01c2 0020     		movhi	r0, #0
 247 01c4 7047     		bx	lr
 248              	.L25:
 249 01c6 0748     		ldr	r0, .L26+4
 250 01c8 03EB8303 		add	r3, r3, r3, lsl #2
 251 01cc 00EB8300 		add	r0, r0, r3, lsl #2
 252 01d0 7047     		bx	lr
 253              	.L24:
 254 01d2 054B     		ldr	r3, .L26+8
 255 01d4 C0EBC000 		rsb	r0, r0, r0, lsl #3
 256 01d8 03EB8000 		add	r0, r3, r0, lsl #2
 257 01dc 7047     		bx	lr
 258              	.L27:
 259 01de 00BF     		.align	2
 260              	.L26:
 261 01e0 00000000 		.word	.LANCHOR1
 262 01e4 F8000000 		.word	.LANCHOR1+248
 263 01e8 C0000000 		.word	.LANCHOR1+192
 265              		.align	1
 266              		.p2align 2,,3
 267              		.global	hardware_setup
 268              		.syntax unified
 269              		.thumb
 270              		.thumb_func
 271              		.fpu softvfp
 273              	hardware_setup:
 274              		@ args = 0, pretend = 0, frame = 24
 275              		@ frame_needed = 0, uses_anonymous_args = 0
 276 01ec 2DE9F043 		push	{r4, r5, r6, r7, r8, r9, lr}
 277 01f0 924D     		ldr	r5, .L44
 278 01f2 87B0     		sub	sp, sp, #28
 279 01f4 FFF7FEFF 		bl	SystemCoreClockUpdate
 280 01f8 0121     		movs	r1, #1
 281 01fa 9148     		ldr	r0, .L44+4
 282 01fc FFF7FEFF 		bl	CLKPWR_ConfigPPWR
 283 0200 05F13C00 		add	r0, r5, #60
 284 0204 FFF7FEFF 		bl	vPortDefineHeapRegions
 285 0208 6B6D     		ldr	r3, [r5, #84]
 286 020a 8E4C     		ldr	r4, .L44+8
 287 020c 1A0C     		lsrs	r2, r3, #16
 288 020e 8DF80220 		strb	r2, [sp, #2]
 289 0212 05F15C06 		add	r6, r5, #92
 290 0216 05F12002 		add	r2, r5, #32
 291 021a ADF80030 		strh	r3, [sp]	@ movhi
 292 021e 04F11C05 		add	r5, r4, #28
 293 0222 01E0     		b	.L30
 294              	.L41:
 295 0224 56F8042B 		ldr	r2, [r6], #4
 296              	.L30:
 297 0228 6946     		mov	r1, sp
 298 022a 0320     		movs	r0, #3
 299 022c FFF7FEFF 		bl	ledz_create
 300 0230 44F8040F 		str	r0, [r4, #4]!
 301 0234 AC42     		cmp	r4, r5
 302 0236 F5D1     		bne	.L41
 303 0238 8348     		ldr	r0, .L44+12
 304 023a FFF7FEFF 		bl	uc1701_init
 305 023e 0020     		movs	r0, #0
 306 0240 FFF7FEFF 		bl	hardware_actuators
 307 0244 0446     		mov	r4, r0
 308 0246 0246     		mov	r2, r0
 309 0248 0021     		movs	r1, #0
 310 024a 0120     		movs	r0, #1
 311 024c FFF7FEFF 		bl	actuator_create
 312 0250 2046     		mov	r0, r4
 313 0252 7E49     		ldr	r1, .L44+16
 314 0254 FFF7FEFF 		bl	actuator_set_pins
 315 0258 2046     		mov	r0, r4
 316 025a 0322     		movs	r2, #3
 317 025c 0121     		movs	r1, #1
 318 025e FFF7FEFF 		bl	actuator_set_prop
 319 0262 4FF4FA72 		mov	r2, #500
 320 0266 0021     		movs	r1, #0
 321 0268 2046     		mov	r0, r4
 322 026a FFF7FEFF 		bl	actuator_set_prop
 323 026e 7848     		ldr	r0, .L44+20
 324 0270 FFF7FEFF 		bl	uc1701_init
 325 0274 0120     		movs	r0, #1
 326 0276 FFF7FEFF 		bl	hardware_actuators
 327 027a 0121     		movs	r1, #1
 328 027c 0446     		mov	r4, r0
 329 027e 0246     		mov	r2, r0
 330 0280 0846     		mov	r0, r1
 331 0282 FFF7FEFF 		bl	actuator_create
 332 0286 2046     		mov	r0, r4
 333 0288 7249     		ldr	r1, .L44+24
 334 028a FFF7FEFF 		bl	actuator_set_pins
 335 028e DFF8DC81 		ldr	r8, .L44+48
 336 0292 2046     		mov	r0, r4
 337 0294 0322     		movs	r2, #3
 338 0296 0121     		movs	r1, #1
 339 0298 FFF7FEFF 		bl	actuator_set_prop
 340 029c 2046     		mov	r0, r4
 341 029e 3222     		movs	r2, #50
 342 02a0 0021     		movs	r1, #0
 343 02a2 FFF7FEFF 		bl	actuator_set_prop
 344 02a6 0024     		movs	r4, #0
 345 02a8 A8F15007 		sub	r7, r8, #80
 346 02ac 09E0     		b	.L35
 347              	.L31:
 348 02ae 41F28832 		movw	r2, #5000
 349 02b2 0021     		movs	r1, #0
 350 02b4 0134     		adds	r4, r4, #1
 351 02b6 FFF7FEFF 		bl	actuator_set_prop
 352 02ba 072C     		cmp	r4, #7
 353 02bc 1DD0     		beq	.L42
 354              	.L33:
 355 02be 58F8047B 		ldr	r7, [r8], #4
 356              	.L35:
 357 02c2 E6B2     		uxtb	r6, r4
 358 02c4 B01C     		adds	r0, r6, #2
 359 02c6 C0B2     		uxtb	r0, r0
 360 02c8 FFF7FEFF 		bl	hardware_actuators
 361 02cc 0546     		mov	r5, r0
 362 02ce 0246     		mov	r2, r0
 363 02d0 3146     		mov	r1, r6
 364 02d2 0020     		movs	r0, #0
 365 02d4 FFF7FEFF 		bl	actuator_create
 366 02d8 2846     		mov	r0, r5
 367 02da 3946     		mov	r1, r7
 368 02dc FFF7FEFF 		bl	actuator_set_pins
 369 02e0 032C     		cmp	r4, #3
 370 02e2 2846     		mov	r0, r5
 371 02e4 E3D9     		bls	.L31
 372 02e6 052E     		cmp	r6, #5
 373 02e8 E1D0     		beq	.L31
 374 02ea 4FF4FA72 		mov	r2, #500
 375 02ee 0021     		movs	r1, #0
 376 02f0 0134     		adds	r4, r4, #1
 377 02f2 FFF7FEFF 		bl	actuator_set_prop
 378 02f6 072C     		cmp	r4, #7
 379 02f8 E1D1     		bne	.L33
 380              	.L42:
 381 02fa 574F     		ldr	r7, .L44+28
 382 02fc 0024     		movs	r4, #0
 383 02fe A7F1A406 		sub	r6, r7, #164
 384 0302 01E0     		b	.L34
 385              	.L43:
 386 0304 57F8046B 		ldr	r6, [r7], #4
 387              	.L34:
 388 0308 E1B2     		uxtb	r1, r4
 389 030a 01F10900 		add	r0, r1, #9
 390 030e C0B2     		uxtb	r0, r0
 391 0310 FFF7FEFF 		bl	hardware_actuators
 392 0314 0546     		mov	r5, r0
 393 0316 0246     		mov	r2, r0
 394 0318 0220     		movs	r0, #2
 395 031a FFF7FEFF 		bl	actuator_create
 396 031e 0134     		adds	r4, r4, #1
 397 0320 3146     		mov	r1, r6
 398 0322 2846     		mov	r0, r5
 399 0324 FFF7FEFF 		bl	actuator_set_pins
 400 0328 082C     		cmp	r4, #8
 401 032a EBD1     		bne	.L43
 402 032c 4FF00409 		mov	r9, #4
 403 0330 FFF7FEFF 		bl	adc_initalisation
 404 0334 0127     		movs	r7, #1
 405 0336 4FF00123 		mov	r3, #16777472
 406 033a 6426     		movs	r6, #100
 407 033c 474D     		ldr	r5, .L44+32
 408 033e 0DEB0902 		add	r2, sp, r9
 409 0342 0021     		movs	r1, #0
 410 0344 4FF04020 		mov	r0, #1073758208
 411 0348 CDE90263 		strd	r6, r3, [sp, #8]
 412 034c C5F8A090 		str	r9, [r5, #160]
 413 0350 8DF80470 		strb	r7, [sp, #4]
 414 0354 0597     		str	r7, [sp, #20]
 415 0356 FFF7FEFF 		bl	TIM_Init
 416 035a 03A9     		add	r1, sp, #12
 417 035c 4FF04020 		mov	r0, #1073758208
 418 0360 0226     		movs	r6, #2
 419 0362 FFF7FEFF 		bl	TIM_ConfigMatch
 420 0366 1823     		movs	r3, #24
 421 0368 DFF80481 		ldr	r8, .L44+52
 422 036c 3946     		mov	r1, r7
 423 036e 88F80133 		strb	r3, [r8, #769]
 424 0372 4FF04020 		mov	r0, #1073758208
 425 0376 C8F80060 		str	r6, [r8]
 426 037a FFF7FEFF 		bl	TIM_Cmd
 427 037e 4FF4FA70 		mov	r0, #500
 428 0382 374B     		ldr	r3, .L44+36
 429 0384 0DEB0902 		add	r2, sp, r9
 430 0388 0290     		str	r0, [sp, #8]
 431 038a 0021     		movs	r1, #0
 432 038c 3548     		ldr	r0, .L44+40
 433 038e 0393     		str	r3, [sp, #12]
 434 0390 8DF80470 		strb	r7, [sp, #4]
 435 0394 0597     		str	r7, [sp, #20]
 436 0396 FFF7FEFF 		bl	TIM_Init
 437 039a 03A9     		add	r1, sp, #12
 438 039c 3148     		ldr	r0, .L44+40
 439 039e FFF7FEFF 		bl	TIM_ConfigMatch
 440 03a2 1023     		movs	r3, #16
 441 03a4 3946     		mov	r1, r7
 442 03a6 88F80233 		strb	r3, [r8, #770]
 443 03aa 2E48     		ldr	r0, .L44+40
 444 03ac C8F80090 		str	r9, [r8]
 445 03b0 FFF7FEFF 		bl	TIM_Cmd
 446 03b4 4FF00008 		mov	r8, #0
 447 03b8 4023     		movs	r3, #64
 448 03ba 4FF4E131 		mov	r1, #115200
 449 03be 0922     		movs	r2, #9
 450 03c0 05F5EE70 		add	r0, r5, #476
 451 03c4 C5F8E011 		str	r1, [r5, #480]
 452 03c8 85F8E821 		strb	r2, [r5, #488]
 453 03cc C5F8F031 		str	r3, [r5, #496]
 454 03d0 C5F8F431 		str	r3, [r5, #500]
 455 03d4 85F8DC61 		strb	r6, [r5, #476]
 456 03d8 85F8E461 		strb	r6, [r5, #484]
 457 03dc 85F8E761 		strb	r6, [r5, #487]
 458 03e0 85F8E961 		strb	r6, [r5, #489]
 459 03e4 85F8EA61 		strb	r6, [r5, #490]
 460 03e8 85F8EB41 		strb	r4, [r5, #491]
 461 03ec 85F8EC61 		strb	r6, [r5, #492]
 462 03f0 85F80482 		strb	r8, [r5, #516]
 463 03f4 FFF7FEFF 		bl	serial_init
 464 03f8 0322     		movs	r2, #3
 465 03fa 2023     		movs	r3, #32
 466 03fc 1A49     		ldr	r1, .L44+44
 467 03fe 05F50270 		add	r0, r5, #520
 468 0402 85F81072 		strb	r7, [r5, #528]
 469 0406 85F81382 		strb	r8, [r5, #531]
 470 040a 85F81562 		strb	r6, [r5, #533]
 471 040e 85F81682 		strb	r8, [r5, #534]
 472 0412 85F81762 		strb	r6, [r5, #535]
 473 0416 85F81862 		strb	r6, [r5, #536]
 474 041a 85F83082 		strb	r8, [r5, #560]
 475 041e C5F80C12 		str	r1, [r5, #524]
 476 0422 85F80822 		strb	r2, [r5, #520]
 477 0426 85F81422 		strb	r2, [r5, #532]
 478 042a C5F81C32 		str	r3, [r5, #540]
 479 042e C5F82032 		str	r3, [r5, #544]
 480 0432 FFF7FEFF 		bl	serial_init
 481 0436 07B0     		add	sp, sp, #28
 482              		@ sp needed
 483 0438 BDE8F083 		pop	{r4, r5, r6, r7, r8, r9, pc}
 484              	.L45:
 485              		.align	2
 486              	.L44:
 487 043c 00000000 		.word	.LANCHOR0
 488 0440 0E902003 		.word	52465678
 489 0444 A0000000 		.word	.LANCHOR1+160
 490 0448 00000000 		.word	.LANCHOR2
 491 044c 74000000 		.word	.LANCHOR0+116
 492 0450 18040000 		.word	.LANCHOR2+1048
 493 0454 7C000000 		.word	.LANCHOR0+124
 494 0458 A4000000 		.word	.LANCHOR0+164
 495 045c 00000000 		.word	.LANCHOR1
 496 0460 01010001 		.word	16777473
 497 0464 00800040 		.word	1073774592
 498 0468 60E31600 		.word	1500000
 499 046c 88000000 		.word	.LANCHOR0+136
 500 0470 00E100E0 		.word	-536813312
 502              		.align	1
 503              		.p2align 2,,3
 504              		.global	hardware_timestamp
 505              		.syntax unified
 506              		.thumb
 507              		.thumb_func
 508              		.fpu softvfp
 510              	hardware_timestamp:
 511              		@ args = 0, pretend = 0, frame = 0
 512              		@ frame_needed = 0, uses_anonymous_args = 0
 513              		@ link register save eliminated.
 514 0474 014B     		ldr	r3, .L47
 515 0476 D3F83402 		ldr	r0, [r3, #564]
 516 047a 7047     		bx	lr
 517              	.L48:
 518              		.align	2
 519              	.L47:
 520 047c 00000000 		.word	.LANCHOR1
 522              		.align	1
 523              		.p2align 2,,3
 524              		.global	hardware_get_acceleration
 525              		.syntax unified
 526              		.thumb
 527              		.thumb_func
 528              		.fpu softvfp
 530              	hardware_get_acceleration:
 531              		@ args = 0, pretend = 0, frame = 0
 532              		@ frame_needed = 0, uses_anonymous_args = 0
 533              		@ link register save eliminated.
 534 0480 FFF7FEBF 		b	actuator_get_acceleration
 536              		.align	1
 537              		.p2align 2,,3
 538              		.global	hardware_get_pot_value
 539              		.syntax unified
 540              		.thumb
 541              		.thumb_func
 542              		.fpu softvfp
 544              	hardware_get_pot_value:
 545              		@ args = 0, pretend = 0, frame = 0
 546              		@ frame_needed = 0, uses_anonymous_args = 0
 547              		@ link register save eliminated.
 548 0484 FFF7FEBF 		b	actuator_pot_value
 550              		.align	1
 551              		.p2align 2,,3
 552              		.global	hardware_coreboard_power
 553              		.syntax unified
 554              		.thumb
 555              		.thumb_func
 556              		.fpu softvfp
 558              	hardware_coreboard_power:
 559              		@ args = 0, pretend = 0, frame = 0
 560              		@ frame_needed = 0, uses_anonymous_args = 0
 561 0488 08B5     		push	{r3, lr}
 562 048a 20B1     		cbz	r0, .L57
 563 048c 0228     		cmp	r0, #2
 564 048e 15D0     		beq	.L58
 565 0490 0128     		cmp	r0, #1
 566 0492 0BD0     		beq	.L59
 567 0494 08BD     		pop	{r3, pc}
 568              	.L57:
 569 0496 4FF47A70 		mov	r0, #1000
 570              	.L56:
 571 049a FFF7FEFF 		bl	vTaskDelay
 572 049e BDE80840 		pop	{r3, lr}
 573 04a2 4FF40011 		mov	r1, #2097152
 574 04a6 0320     		movs	r0, #3
 575 04a8 FFF7FEBF 		b	GPIO_SetValue
 576              	.L59:
 577 04ac 0320     		movs	r0, #3
 578 04ae 4FF40011 		mov	r1, #2097152
 579 04b2 FFF7FEFF 		bl	GPIO_ClearValue
 580 04b6 41F28830 		movw	r0, #5000
 581 04ba EEE7     		b	.L56
 582              	.L58:
 583 04bc 0320     		movs	r0, #3
 584 04be 4FF40011 		mov	r1, #2097152
 585 04c2 FFF7FEFF 		bl	GPIO_ClearValue
 586 04c6 4FF4FA60 		mov	r0, #2000
 587 04ca E6E7     		b	.L56
 589              		.align	1
 590              		.p2align 2,,3
 591              		.global	TIMER0_IRQHandler
 592              		.syntax unified
 593              		.thumb
 594              		.thumb_func
 595              		.fpu softvfp
 597              	TIMER0_IRQHandler:
 598              		@ args = 0, pretend = 0, frame = 0
 599              		@ frame_needed = 0, uses_anonymous_args = 0
 600 04cc 38B5     		push	{r3, r4, r5, lr}
 601 04ce 0021     		movs	r1, #0
 602 04d0 4FF04020 		mov	r0, #1073758208
 603 04d4 FFF7FEFF 		bl	TIM_GetIntStatus
 604 04d8 0128     		cmp	r0, #1
 605 04da 06D0     		beq	.L73
 606              	.L62:
 607 04dc BDE83840 		pop	{r3, r4, r5, lr}
 608 04e0 0021     		movs	r1, #0
 609 04e2 4FF04020 		mov	r0, #1073758208
 610 04e6 FFF7FEBF 		b	TIM_ClearIntPending
 611              	.L73:
 612 04ea 204D     		ldr	r5, .L75
 613 04ec 0446     		mov	r4, r0
 614 04ee FFF7FEFF 		bl	ledz_tick
 615 04f2 D5F8A030 		ldr	r3, [r5, #160]
 616 04f6 DBB9     		cbnz	r3, .L63
 617 04f8 1D4A     		ldr	r2, .L75+4
 618 04fa C5F83842 		str	r4, [r5, #568]
 619              	.L64:
 620 04fe C3F10403 		rsb	r3, r3, #4
 621 0502 0021     		movs	r1, #0
 622 0504 1A48     		ldr	r0, .L75+4
 623 0506 C2F83038 		str	r3, [r2, #2096]
 624 050a FFF7FEFF 		bl	uc1701_backlight
 625 050e 0021     		movs	r1, #0
 626 0510 1848     		ldr	r0, .L75+8
 627 0512 FFF7FEFF 		bl	uc1701_backlight
 628              	.L68:
 629 0516 D5F83832 		ldr	r3, [r5, #568]
 630 051a 0021     		movs	r1, #0
 631 051c 83F00103 		eor	r3, r3, #1
 632 0520 C5F83832 		str	r3, [r5, #568]
 633 0524 4FF04020 		mov	r0, #1073758208
 634 0528 BDE83840 		pop	{r3, r4, r5, lr}
 635 052c FFF7FEBF 		b	TIM_ClearIntPending
 636              	.L63:
 637 0530 042B     		cmp	r3, #4
 638 0532 0CD0     		beq	.L74
 639 0534 0E4A     		ldr	r2, .L75+4
 640 0536 D2F83018 		ldr	r1, [r2, #2096]
 641 053a 0139     		subs	r1, r1, #1
 642 053c C2F83018 		str	r1, [r2, #2096]
 643 0540 0029     		cmp	r1, #0
 644 0542 CBD1     		bne	.L62
 645 0544 D5F83812 		ldr	r1, [r5, #568]
 646 0548 0029     		cmp	r1, #0
 647 054a D8D1     		bne	.L64
 648 054c 03E0     		b	.L66
 649              	.L74:
 650 054e 0021     		movs	r1, #0
 651 0550 074A     		ldr	r2, .L75+4
 652 0552 C5F83812 		str	r1, [r5, #568]
 653              	.L66:
 654 0556 0121     		movs	r1, #1
 655 0558 0548     		ldr	r0, .L75+4
 656 055a C2F83038 		str	r3, [r2, #2096]
 657 055e FFF7FEFF 		bl	uc1701_backlight
 658 0562 0121     		movs	r1, #1
 659 0564 0348     		ldr	r0, .L75+8
 660 0566 FFF7FEFF 		bl	uc1701_backlight
 661 056a D4E7     		b	.L68
 662              	.L76:
 663              		.align	2
 664              	.L75:
 665 056c 00000000 		.word	.LANCHOR1
 666 0570 00000000 		.word	.LANCHOR2
 667 0574 18040000 		.word	.LANCHOR2+1048
 669              		.align	1
 670              		.p2align 2,,3
 671              		.global	TIMER1_IRQHandler
 672              		.syntax unified
 673              		.thumb
 674              		.thumb_func
 675              		.fpu softvfp
 677              	TIMER1_IRQHandler:
 678              		@ args = 0, pretend = 0, frame = 0
 679              		@ frame_needed = 0, uses_anonymous_args = 0
 680 0578 08B5     		push	{r3, lr}
 681 057a 0121     		movs	r1, #1
 682 057c 0C48     		ldr	r0, .L81
 683 057e FFF7FEFF 		bl	TIM_GetIntStatus
 684 0582 0128     		cmp	r0, #1
 685 0584 05D0     		beq	.L80
 686 0586 BDE80840 		pop	{r3, lr}
 687 058a 0121     		movs	r1, #1
 688 058c 0848     		ldr	r0, .L81
 689 058e FFF7FEBF 		b	TIM_ClearIntPending
 690              	.L80:
 691 0592 FFF7FEFF 		bl	actuators_clock
 692 0596 074A     		ldr	r2, .L81+4
 693 0598 0121     		movs	r1, #1
 694 059a D2F83432 		ldr	r3, [r2, #564]
 695 059e 0448     		ldr	r0, .L81
 696 05a0 0133     		adds	r3, r3, #1
 697 05a2 C2F83432 		str	r3, [r2, #564]
 698 05a6 BDE80840 		pop	{r3, lr}
 699 05aa FFF7FEBF 		b	TIM_ClearIntPending
 700              	.L82:
 701 05ae 00BF     		.align	2
 702              	.L81:
 703 05b0 00800040 		.word	1073774592
 704 05b4 00000000 		.word	.LANCHOR1
 706              		.global	xHeapRegions
 707              		.section	.rodata
 708              		.align	2
 709              		.set	.LANCHOR0,. + 0
 712              	__compound_literal.16:
 713 0000 00       		.byte	0
 714 0001 17       		.byte	23
 715 0002 01       		.byte	1
 716 0003 00       		.byte	0
 719              	__compound_literal.17:
 720 0004 01       		.byte	1
 721 0005 1E       		.byte	30
 722 0006 03       		.byte	3
 723 0007 04       		.byte	4
 726              	__compound_literal.18:
 727 0008 00       		.byte	0
 728 0009 18       		.byte	24
 729 000a 01       		.byte	1
 730 000b 01       		.byte	1
 733              	__compound_literal.19:
 734 000c 01       		.byte	1
 735 000d 1F       		.byte	31
 736 000e 03       		.byte	3
 737 000f 05       		.byte	5
 740              	__compound_literal.20:
 741 0010 00       		.byte	0
 742 0011 19       		.byte	25
 743 0012 01       		.byte	1
 744 0013 02       		.byte	2
 747              	__compound_literal.21:
 748 0014 00       		.byte	0
 749 0015 0C       		.byte	12
 750 0016 03       		.byte	3
 751 0017 06       		.byte	6
 754              	__compound_literal.22:
 755 0018 00       		.byte	0
 756 0019 1A       		.byte	26
 757 001a 01       		.byte	1
 758 001b 03       		.byte	3
 761              	__compound_literal.23:
 762 001c 00       		.byte	0
 763 001d 0D       		.byte	13
 764 001e 03       		.byte	3
 765 001f 07       		.byte	7
 768              	__compound_literal.0:
 769 0020 00000000 		.word	0
 770 0024 0A000000 		.word	10
 771 0028 02000000 		.word	2
 772 002c 0F000000 		.word	15
 773 0030 00000000 		.word	0
 774 0034 0B000000 		.word	11
 777              	__compound_literal.9:
 778 0038 04       		.byte	4
 779 0039 10       		.byte	16
 780 003a 0000     		.space	2
 783              	xHeapRegions:
 784 003c 00300010 		.word	268447744
 785 0040 00500000 		.word	20480
 786 0044 00000020 		.word	536870912
 787 0048 00800000 		.word	32768
 788 004c 00000000 		.word	0
 789 0050 00000000 		.word	0
 790              	.LC0:
 791 0054 01       		.byte	1
 792 0055 02       		.byte	2
 793 0056 04       		.byte	4
 794 0057 00       		.space	1
 797              	LED_PINS:
 798 0058 20000000 		.word	__compound_literal.0
 799 005c 50010000 		.word	__compound_literal.1
 800 0060 38010000 		.word	__compound_literal.2
 801 0064 20010000 		.word	__compound_literal.3
 802 0068 08010000 		.word	__compound_literal.4
 803 006c F0000000 		.word	__compound_literal.5
 804 0070 D8000000 		.word	__compound_literal.6
 807              	__compound_literal.7:
 808 0074 04       		.byte	4
 809 0075 0F       		.byte	15
 810 0076 04       		.byte	4
 811 0077 1C       		.byte	28
 812 0078 01       		.byte	1
 813 0079 06       		.byte	6
 814 007a 0000     		.space	2
 817              	__compound_literal.8:
 818 007c 01       		.byte	1
 819 007d 0B       		.byte	11
 820 007e 03       		.byte	3
 821 007f 13       		.byte	19
 822 0080 00       		.byte	0
 823 0081 07       		.byte	7
 824 0082 0000     		.space	2
 827              	FOOTSWITCH_PINS:
 828 0084 38000000 		.word	__compound_literal.9
 829 0088 D4000000 		.word	__compound_literal.10
 830 008c D0000000 		.word	__compound_literal.11
 831 0090 CC000000 		.word	__compound_literal.12
 832 0094 C8000000 		.word	__compound_literal.13
 833 0098 C4000000 		.word	__compound_literal.14
 834 009c C0000000 		.word	__compound_literal.15
 837              	POT_PINS:
 838 00a0 00000000 		.word	__compound_literal.16
 839 00a4 04000000 		.word	__compound_literal.17
 840 00a8 08000000 		.word	__compound_literal.18
 841 00ac 0C000000 		.word	__compound_literal.19
 842 00b0 10000000 		.word	__compound_literal.20
 843 00b4 14000000 		.word	__compound_literal.21
 844 00b8 18000000 		.word	__compound_literal.22
 845 00bc 1C000000 		.word	__compound_literal.23
 848              	__compound_literal.15:
 849 00c0 04       		.byte	4
 850 00c1 02       		.byte	2
 851 00c2 0000     		.space	2
 854              	__compound_literal.14:
 855 00c4 02       		.byte	2
 856 00c5 15       		.byte	21
 857 00c6 0000     		.space	2
 860              	__compound_literal.13:
 861 00c8 03       		.byte	3
 862 00c9 19       		.byte	25
 863 00ca 0000     		.space	2
 866              	__compound_literal.12:
 867 00cc 00       		.byte	0
 868 00cd 08       		.byte	8
 869 00ce 0000     		.space	2
 872              	__compound_literal.11:
 873 00d0 04       		.byte	4
 874 00d1 1B       		.byte	27
 875 00d2 0000     		.space	2
 878              	__compound_literal.10:
 879 00d4 04       		.byte	4
 880 00d5 0A       		.byte	10
 881 00d6 0000     		.space	2
 884              	__compound_literal.6:
 885 00d8 02000000 		.word	2
 886 00dc 0E000000 		.word	14
 887 00e0 01000000 		.word	1
 888 00e4 1D000000 		.word	29
 889 00e8 04000000 		.word	4
 890 00ec 03000000 		.word	3
 893              	__compound_literal.5:
 894 00f0 01000000 		.word	1
 895 00f4 18000000 		.word	24
 896 00f8 04000000 		.word	4
 897 00fc 01000000 		.word	1
 898 0100 01000000 		.word	1
 899 0104 19000000 		.word	25
 902              	__compound_literal.4:
 903 0108 02000000 		.word	2
 904 010c 18000000 		.word	24
 905 0110 02000000 		.word	2
 906 0114 19000000 		.word	25
 907 0118 03000000 		.word	3
 908 011c 1A000000 		.word	26
 911              	__compound_literal.3:
 912 0120 01000000 		.word	1
 913 0124 0C000000 		.word	12
 914 0128 00000000 		.word	0
 915 012c 09000000 		.word	9
 916 0130 04000000 		.word	4
 917 0134 0E000000 		.word	14
 920              	__compound_literal.2:
 921 0138 02000000 		.word	2
 922 013c 07000000 		.word	7
 923 0140 03000000 		.word	3
 924 0144 10000000 		.word	16
 925 0148 02000000 		.word	2
 926 014c 06000000 		.word	6
 929              	__compound_literal.1:
 930 0150 02000000 		.word	2
 931 0154 0D000000 		.word	13
 932 0158 04000000 		.word	4
 933 015c 04000000 		.word	4
 934 0160 04000000 		.word	4
 935 0164 11000000 		.word	17
 936              		.data
 937              		.align	2
 938              		.set	.LANCHOR2,. + 0
 941              	g_glcd:
 942 0000 00800840 		.word	1074298880
 943 0004 40420F00 		.word	1000000
 944 0008 00       		.byte	0
 945 0009 0F       		.byte	15
 946 000a 02       		.byte	2
 947 000b 00       		.byte	0
 948 000c 12       		.byte	18
 949 000d 02       		.byte	2
 950 000e 04       		.byte	4
 951 000f 17       		.byte	23
 952 0010 04       		.byte	4
 953 0011 14       		.byte	20
 954 0012 04       		.byte	4
 955 0013 08       		.byte	8
 956 0014 02       		.byte	2
 957 0015 0B       		.byte	11
 958 0016 00000000 		.space	1026
 958      00000000 
 958      00000000 
 958      00000000 
 958      00000000 
 959 0418 00800840 		.word	1074298880
 960 041c 40420F00 		.word	1000000
 961 0420 00       		.byte	0
 962 0421 0F       		.byte	15
 963 0422 02       		.byte	2
 964 0423 00       		.byte	0
 965 0424 12       		.byte	18
 966 0425 02       		.byte	2
 967 0426 02       		.byte	2
 968 0427 0C       		.byte	12
 969 0428 04       		.byte	4
 970 0429 14       		.byte	20
 971 042a 04       		.byte	4
 972 042b 05       		.byte	5
 973 042c 04       		.byte	4
 974 042d 12       		.byte	18
 975 042e 00000000 		.space	1026
 975      00000000 
 975      00000000 
 975      00000000 
 975      00000000 
 978              	count.8594:
 979 0830 01000000 		.word	1
 980              		.bss
 981              		.align	2
 982              		.set	.LANCHOR1,. + 0
 985              	g_potentiometer:
 986 0000 00000000 		.space	160
 986      00000000 
 986      00000000 
 986      00000000 
 986      00000000 
 989              	g_brightness:
 990 00a0 00000000 		.space	4
 993              	g_leds:
 994 00a4 00000000 		.space	28
 994      00000000 
 994      00000000 
 994      00000000 
 994      00000000 
 997              	g_encoders:
 998 00c0 00000000 		.space	56
 998      00000000 
 998      00000000 
 998      00000000 
 998      00000000 
 1001              	g_footswitches:
 1002 00f8 00000000 		.space	140
 1002      00000000 
 1002      00000000 
 1002      00000000 
 1002      00000000 
 1005              	g_serial:
 1006 0184 00000000 		.space	176
 1006      00000000 
 1006      00000000 
 1006      00000000 
 1006      00000000 
 1009              	g_counter:
 1010 0234 00000000 		.space	4
 1013              	state.8595:
 1014 0238 00000000 		.space	4
 1015              		.ident	"GCC: (GNU Tools for Arm Embedded Processors 7-2018-q3-update) 7.3.1 20180622 (release) [AR
DEFINED SYMBOLS
                            *ABS*:0000000000000000 hardware.c
     /tmp/ccpTdDZi.s:13     .text:0000000000000000 $t
     /tmp/ccpTdDZi.s:21     .text:0000000000000000 adc_initalisation
     /tmp/ccpTdDZi.s:143    .text:0000000000000144 $d
     /tmp/ccpTdDZi.s:153    .text:0000000000000168 $t
     /tmp/ccpTdDZi.s:161    .text:0000000000000168 hardware_glcds
     /tmp/ccpTdDZi.s:175    .text:000000000000017c $d
     /tmp/ccpTdDZi.s:177    .text:0000000000000180 $t
     /tmp/ccpTdDZi.s:185    .text:0000000000000180 hardware_glcd_brightness
     /tmp/ccpTdDZi.s:195    .text:0000000000000188 $d
     /tmp/ccpTdDZi.s:197    .text:000000000000018c $t
     /tmp/ccpTdDZi.s:205    .text:000000000000018c hardware_leds
     /tmp/ccpTdDZi.s:219    .text:00000000000001a0 $d
     /tmp/ccpTdDZi.s:221    .text:00000000000001a4 $t
     /tmp/ccpTdDZi.s:229    .text:00000000000001a4 hardware_actuators
     /tmp/ccpTdDZi.s:261    .text:00000000000001e0 $d
     /tmp/ccpTdDZi.s:265    .text:00000000000001ec $t
     /tmp/ccpTdDZi.s:273    .text:00000000000001ec hardware_setup
     /tmp/ccpTdDZi.s:487    .text:000000000000043c $d
     /tmp/ccpTdDZi.s:502    .text:0000000000000474 $t
     /tmp/ccpTdDZi.s:510    .text:0000000000000474 hardware_timestamp
     /tmp/ccpTdDZi.s:520    .text:000000000000047c $d
     /tmp/ccpTdDZi.s:522    .text:0000000000000480 $t
     /tmp/ccpTdDZi.s:530    .text:0000000000000480 hardware_get_acceleration
     /tmp/ccpTdDZi.s:544    .text:0000000000000484 hardware_get_pot_value
     /tmp/ccpTdDZi.s:558    .text:0000000000000488 hardware_coreboard_power
     /tmp/ccpTdDZi.s:597    .text:00000000000004cc TIMER0_IRQHandler
     /tmp/ccpTdDZi.s:665    .text:000000000000056c $d
     /tmp/ccpTdDZi.s:669    .text:0000000000000578 $t
     /tmp/ccpTdDZi.s:677    .text:0000000000000578 TIMER1_IRQHandler
     /tmp/ccpTdDZi.s:703    .text:00000000000005b0 $d
     /tmp/ccpTdDZi.s:783    .rodata:000000000000003c xHeapRegions
     /tmp/ccpTdDZi.s:708    .rodata:0000000000000000 $d
     /tmp/ccpTdDZi.s:712    .rodata:0000000000000000 __compound_literal.16
     /tmp/ccpTdDZi.s:719    .rodata:0000000000000004 __compound_literal.17
     /tmp/ccpTdDZi.s:726    .rodata:0000000000000008 __compound_literal.18
     /tmp/ccpTdDZi.s:733    .rodata:000000000000000c __compound_literal.19
     /tmp/ccpTdDZi.s:740    .rodata:0000000000000010 __compound_literal.20
     /tmp/ccpTdDZi.s:747    .rodata:0000000000000014 __compound_literal.21
     /tmp/ccpTdDZi.s:754    .rodata:0000000000000018 __compound_literal.22
     /tmp/ccpTdDZi.s:761    .rodata:000000000000001c __compound_literal.23
     /tmp/ccpTdDZi.s:768    .rodata:0000000000000020 __compound_literal.0
     /tmp/ccpTdDZi.s:777    .rodata:0000000000000038 __compound_literal.9
     /tmp/ccpTdDZi.s:797    .rodata:0000000000000058 LED_PINS
     /tmp/ccpTdDZi.s:929    .rodata:0000000000000150 __compound_literal.1
     /tmp/ccpTdDZi.s:920    .rodata:0000000000000138 __compound_literal.2
     /tmp/ccpTdDZi.s:911    .rodata:0000000000000120 __compound_literal.3
     /tmp/ccpTdDZi.s:902    .rodata:0000000000000108 __compound_literal.4
     /tmp/ccpTdDZi.s:893    .rodata:00000000000000f0 __compound_literal.5
     /tmp/ccpTdDZi.s:884    .rodata:00000000000000d8 __compound_literal.6
     /tmp/ccpTdDZi.s:807    .rodata:0000000000000074 __compound_literal.7
     /tmp/ccpTdDZi.s:817    .rodata:000000000000007c __compound_literal.8
     /tmp/ccpTdDZi.s:827    .rodata:0000000000000084 FOOTSWITCH_PINS
     /tmp/ccpTdDZi.s:878    .rodata:00000000000000d4 __compound_literal.10
     /tmp/ccpTdDZi.s:872    .rodata:00000000000000d0 __compound_literal.11
     /tmp/ccpTdDZi.s:866    .rodata:00000000000000cc __compound_literal.12
     /tmp/ccpTdDZi.s:860    .rodata:00000000000000c8 __compound_literal.13
     /tmp/ccpTdDZi.s:854    .rodata:00000000000000c4 __compound_literal.14
     /tmp/ccpTdDZi.s:848    .rodata:00000000000000c0 __compound_literal.15
     /tmp/ccpTdDZi.s:837    .rodata:00000000000000a0 POT_PINS
     /tmp/ccpTdDZi.s:937    .data:0000000000000000 $d
     /tmp/ccpTdDZi.s:941    .data:0000000000000000 g_glcd
     /tmp/ccpTdDZi.s:978    .data:0000000000000830 count.8594
     /tmp/ccpTdDZi.s:981    .bss:0000000000000000 $d
     /tmp/ccpTdDZi.s:985    .bss:0000000000000000 g_potentiometer
     /tmp/ccpTdDZi.s:989    .bss:00000000000000a0 g_brightness
     /tmp/ccpTdDZi.s:993    .bss:00000000000000a4 g_leds
     /tmp/ccpTdDZi.s:997    .bss:00000000000000c0 g_encoders
     /tmp/ccpTdDZi.s:1001   .bss:00000000000000f8 g_footswitches
     /tmp/ccpTdDZi.s:1005   .bss:0000000000000184 g_serial
     /tmp/ccpTdDZi.s:1009   .bss:0000000000000234 g_counter
     /tmp/ccpTdDZi.s:1013   .bss:0000000000000238 state.8595

UNDEFINED SYMBOLS
actuator_set_pins
ADC_Init
ADC_IntConfig
ADC_ChannelCmd
ADC_StartCmd
ADC_BurstCmd
SystemCoreClockUpdate
CLKPWR_ConfigPPWR
vPortDefineHeapRegions
ledz_create
uc1701_init
actuator_create
actuator_set_prop
TIM_Init
TIM_ConfigMatch
TIM_Cmd
serial_init
actuator_get_acceleration
actuator_pot_value
vTaskDelay
GPIO_SetValue
GPIO_ClearValue
TIM_GetIntStatus
TIM_ClearIntPending
ledz_tick
uc1701_backlight
actuators_clock
