   1              		.cpu cortex-m3
   2              		.eabi_attribute 20, 1
   3              		.eabi_attribute 21, 1
   4              		.eabi_attribute 23, 3
   5              		.eabi_attribute 24, 1
   6              		.eabi_attribute 25, 1
   7              		.eabi_attribute 26, 1
   8              		.eabi_attribute 30, 2
   9              		.eabi_attribute 34, 1
  10              		.eabi_attribute 18, 4
  11              		.file	"ledz.c"
  12              		.text
  13              		.align	1
  14              		.p2align 2,,3
  15              		.global	ledz_create
  16              		.syntax unified
  17              		.thumb
  18              		.thumb_func
  19              		.fpu softvfp
  21              	ledz_create:
  22              		@ args = 0, pretend = 0, frame = 8
  23              		@ frame_needed = 0, uses_anonymous_args = 0
  24 0000 2DE9F04F 		push	{r4, r5, r6, r7, r8, r9, r10, fp, lr}
  25 0004 DFF8E0B0 		ldr	fp, .L18+4
  26 0008 83B0     		sub	sp, sp, #12
  27 000a DBF80040 		ldr	r4, [fp]
  28 000e A042     		cmp	r0, r4
  29 0010 62D8     		bhi	.L10
  30 0012 451E     		subs	r5, r0, #1
  31 0014 0028     		cmp	r0, #0
  32 0016 5FD0     		beq	.L10
  33 0018 4FF00009 		mov	r9, #0
  34 001c 4FF00108 		mov	r8, #1
  35 0020 DFF8C8A0 		ldr	r10, .L18+8
  36 0024 0192     		str	r2, [sp, #4]
  37 0026 0F18     		adds	r7, r1, r0
  38 0028 02EBC506 		add	r6, r2, r5, lsl #3
  39              	.L8:
  40 002c DAF80030 		ldr	r3, [r10]
  41 0030 142B     		cmp	r3, #20
  42 0032 43D9     		bls	.L16
  43 0034 0023     		movs	r3, #0
  44 0036 2B4A     		ldr	r2, .L18
  45 0038 04E0     		b	.L6
  46              	.L5:
  47 003a 0133     		adds	r3, r3, #1
  48 003c 152B     		cmp	r3, #21
  49 003e 02F11802 		add	r2, r2, #24
  50 0042 38D0     		beq	.L17
  51              	.L6:
  52 0044 5168     		ldr	r1, [r2, #4]
  53 0046 0029     		cmp	r1, #0
  54 0048 F7D1     		bne	.L5
  55 004a DBF80020 		ldr	r2, [fp]
  56 004e 2549     		ldr	r1, .L18
  57 0050 03EB4303 		add	r3, r3, r3, lsl #1
  58 0054 013A     		subs	r2, r2, #1
  59 0056 01EBC304 		add	r4, r1, r3, lsl #3
  60 005a CBF80020 		str	r2, [fp]
  61              	.L4:
  62 005e 227A     		ldrb	r2, [r4, #8]	@ zero_extendqisi2
  63 0060 013F     		subs	r7, r7, #1
  64 0062 7168     		ldr	r1, [r6, #4]
  65 0064 3878     		ldrb	r0, [r7]	@ zero_extendqisi2
  66 0066 019B     		ldr	r3, [sp, #4]
  67 0068 02F0FE02 		and	r2, r2, #254
  68 006c 6FF34102 		bfc	r2, #1, #1
  69 0070 2272     		strb	r2, [r4, #8]
  70 0072 2070     		strb	r0, [r4]
  71 0074 6660     		str	r6, [r4, #4]
  72 0076 13F83500 		ldrb	r0, [r3, r5, lsl #3]	@ zero_extendqisi2
  73 007a 08FA01F1 		lsl	r1, r8, r1
  74 007e 0122     		movs	r2, #1
  75 0080 FFF7FEFF 		bl	GPIO_SetDir
  76 0084 6068     		ldr	r0, [r4, #4]
  77 0086 0022     		movs	r2, #0
  78 0088 0179     		ldrb	r1, [r0, #4]	@ zero_extendqisi2
  79 008a 0078     		ldrb	r0, [r0]	@ zero_extendqisi2
  80 008c FFF7FEFF 		bl	PINSEL_SetPinFunc
  81 0090 6268     		ldr	r2, [r4, #4]
  82 0092 013D     		subs	r5, r5, #1
  83 0094 5168     		ldr	r1, [r2, #4]
  84 0096 1078     		ldrb	r0, [r2]	@ zero_extendqisi2
  85 0098 08FA01F1 		lsl	r1, r8, r1
  86 009c FFF7FEFF 		bl	GPIO_ClearValue
  87 00a0 6B1C     		adds	r3, r5, #1
  88 00a2 C4F81490 		str	r9, [r4, #20]
  89 00a6 A6F10806 		sub	r6, r6, #8
  90 00aa A146     		mov	r9, r4
  91 00ac BED1     		bne	.L8
  92 00ae 2046     		mov	r0, r4
  93 00b0 03B0     		add	sp, sp, #12
  94              		@ sp needed
  95 00b2 BDE8F08F 		pop	{r4, r5, r6, r7, r8, r9, r10, fp, pc}
  96              	.L17:
  97 00b6 0023     		movs	r3, #0
  98 00b8 1B70     		strb	r3, [r3]
  99 00ba FFDE     		.inst	0xdeff
 100              	.L16:
 101 00bc DBF80020 		ldr	r2, [fp]
 102 00c0 591C     		adds	r1, r3, #1
 103 00c2 013A     		subs	r2, r2, #1
 104 00c4 CBF80020 		str	r2, [fp]
 105 00c8 064A     		ldr	r2, .L18
 106 00ca 03EB4303 		add	r3, r3, r3, lsl #1
 107 00ce CAF80010 		str	r1, [r10]
 108 00d2 02EBC304 		add	r4, r2, r3, lsl #3
 109 00d6 C2E7     		b	.L4
 110              	.L10:
 111 00d8 0024     		movs	r4, #0
 112 00da 2046     		mov	r0, r4
 113 00dc 03B0     		add	sp, sp, #12
 114              		@ sp needed
 115 00de BDE8F08F 		pop	{r4, r5, r6, r7, r8, r9, r10, fp, pc}
 116              	.L19:
 117 00e2 00BF     		.align	2
 118              	.L18:
 119 00e4 04000000 		.word	.LANCHOR1+4
 120 00e8 00000000 		.word	.LANCHOR0
 121 00ec 00000000 		.word	.LANCHOR1
 123              		.align	1
 124              		.p2align 2,,3
 125              		.global	ledz_destroy
 126              		.syntax unified
 127              		.thumb
 128              		.thumb_func
 129              		.fpu softvfp
 131              	ledz_destroy:
 132              		@ args = 0, pretend = 0, frame = 0
 133              		@ frame_needed = 0, uses_anonymous_args = 0
 134 00f0 10B5     		push	{r4, lr}
 135 00f2 0446     		mov	r4, r0
 136 00f4 4069     		ldr	r0, [r0, #20]
 137 00f6 30B9     		cbnz	r0, .L26
 138              	.L21:
 139 00f8 0023     		movs	r3, #0
 140 00fa 044A     		ldr	r2, .L27
 141 00fc 6360     		str	r3, [r4, #4]
 142 00fe 1368     		ldr	r3, [r2]
 143 0100 0133     		adds	r3, r3, #1
 144 0102 1360     		str	r3, [r2]
 145 0104 10BD     		pop	{r4, pc}
 146              	.L26:
 147 0106 FFF7FEFF 		bl	ledz_destroy
 148 010a F5E7     		b	.L21
 149              	.L28:
 150              		.align	2
 151              	.L27:
 152 010c 00000000 		.word	.LANCHOR0
 154              		.align	1
 155              		.p2align 2,,3
 156              		.global	ledz_set
 157              		.syntax unified
 158              		.thumb
 159              		.thumb_func
 160              		.fpu softvfp
 162              	ledz_set:
 163              		@ args = 0, pretend = 0, frame = 0
 164              		@ frame_needed = 0, uses_anonymous_args = 0
 165 0110 012A     		cmp	r2, #1
 166 0112 A8BF     		it	ge
 167 0114 0122     		movge	r2, #1
 168 0116 48B3     		cbz	r0, .L44
 169 0118 F8B5     		push	{r3, r4, r5, r6, r7, lr}
 170 011a 0F46     		mov	r7, r1
 171 011c 1546     		mov	r5, r2
 172 011e 0446     		mov	r4, r0
 173 0120 0126     		movs	r6, #1
 174              	.L35:
 175 0122 2378     		ldrb	r3, [r4]	@ zero_extendqisi2
 176 0124 1F42     		tst	r7, r3
 177 0126 1AD0     		beq	.L31
 178 0128 237A     		ldrb	r3, [r4, #8]	@ zero_extendqisi2
 179 012a 03F0FD03 		and	r3, r3, #253
 180 012e 6FF3C303 		bfc	r3, #3, #1
 181 0132 03F00102 		and	r2, r3, #1
 182 0136 AA42     		cmp	r2, r5
 183 0138 2372     		strb	r3, [r4, #8]
 184 013a 10D0     		beq	.L31
 185 013c 6368     		ldr	r3, [r4, #4]
 186 013e 002D     		cmp	r5, #0
 187 0140 B8BF     		it	lt
 188 0142 C2F10105 		rsblt	r5, r2, #1
 189 0146 5968     		ldr	r1, [r3, #4]
 190 0148 012D     		cmp	r5, #1
 191 014a 1878     		ldrb	r0, [r3]	@ zero_extendqisi2
 192 014c 06FA01F1 		lsl	r1, r6, r1
 193 0150 09D0     		beq	.L47
 194 0152 FFF7FEFF 		bl	GPIO_ClearValue
 195              	.L34:
 196 0156 237A     		ldrb	r3, [r4, #8]	@ zero_extendqisi2
 197 0158 65F30003 		bfi	r3, r5, #0, #1
 198 015c 2372     		strb	r3, [r4, #8]
 199              	.L31:
 200 015e 6469     		ldr	r4, [r4, #20]
 201 0160 002C     		cmp	r4, #0
 202 0162 DED1     		bne	.L35
 203 0164 F8BD     		pop	{r3, r4, r5, r6, r7, pc}
 204              	.L47:
 205 0166 FFF7FEFF 		bl	GPIO_SetValue
 206 016a F4E7     		b	.L34
 207              	.L44:
 208 016c 7047     		bx	lr
 210              		.align	1
 211 016e 00BF     		.p2align 2,,3
 212              		.global	ledz_on
 213              		.syntax unified
 214              		.thumb
 215              		.thumb_func
 216              		.fpu softvfp
 218              	ledz_on:
 219              		@ args = 0, pretend = 0, frame = 0
 220              		@ frame_needed = 0, uses_anonymous_args = 0
 221              		@ link register save eliminated.
 222 0170 0122     		movs	r2, #1
 223 0172 FFF7FEBF 		b	ledz_set
 225              		.align	1
 226 0176 00BF     		.p2align 2,,3
 227              		.global	ledz_off
 228              		.syntax unified
 229              		.thumb
 230              		.thumb_func
 231              		.fpu softvfp
 233              	ledz_off:
 234              		@ args = 0, pretend = 0, frame = 0
 235              		@ frame_needed = 0, uses_anonymous_args = 0
 236              		@ link register save eliminated.
 237 0178 0022     		movs	r2, #0
 238 017a FFF7FEBF 		b	ledz_set
 240              		.align	1
 241 017e 00BF     		.p2align 2,,3
 242              		.global	ledz_toggle
 243              		.syntax unified
 244              		.thumb
 245              		.thumb_func
 246              		.fpu softvfp
 248              	ledz_toggle:
 249              		@ args = 0, pretend = 0, frame = 0
 250              		@ frame_needed = 0, uses_anonymous_args = 0
 251              		@ link register save eliminated.
 252 0180 4FF0FF32 		mov	r2, #-1
 253 0184 FFF7FEBF 		b	ledz_set
 255              		.align	1
 256              		.p2align 2,,3
 257              		.global	ledz_blink
 258              		.syntax unified
 259              		.thumb
 260              		.thumb_func
 261              		.fpu softvfp
 263              	ledz_blink:
 264              		@ args = 0, pretend = 0, frame = 0
 265              		@ frame_needed = 0, uses_anonymous_args = 0
 266              		@ link register save eliminated.
 267 0188 DAB1     		cbz	r2, .L52
 268 018a D3B1     		cbz	r3, .L52
 269 018c 00B3     		cbz	r0, .L73
 270 018e 70B4     		push	{r4, r5, r6}
 271 0190 07E0     		b	.L53
 272              	.L75:
 273 0192 0672     		strb	r6, [r0, #8]
 274 0194 0282     		strh	r2, [r0, #16]	@ movhi
 275              	.L58:
 276 0196 047A     		ldrb	r4, [r0, #8]	@ zero_extendqisi2
 277 0198 44F00204 		orr	r4, r4, #2
 278 019c 0472     		strb	r4, [r0, #8]
 279              	.L56:
 280 019e 4069     		ldr	r0, [r0, #20]
 281 01a0 A0B1     		cbz	r0, .L74
 282              	.L53:
 283 01a2 0478     		ldrb	r4, [r0]	@ zero_extendqisi2
 284 01a4 2142     		tst	r1, r4
 285 01a6 FAD0     		beq	.L56
 286 01a8 047A     		ldrb	r4, [r0, #8]	@ zero_extendqisi2
 287 01aa 8281     		strh	r2, [r0, #12]	@ movhi
 288 01ac 14F00105 		ands	r5, r4, #1
 289 01b0 C381     		strh	r3, [r0, #14]	@ movhi
 290 01b2 44F00406 		orr	r6, r4, #4
 291 01b6 ECD1     		bne	.L75
 292 01b8 65F38204 		bfi	r4, r5, #2, #1
 293 01bc 0472     		strb	r4, [r0, #8]
 294 01be 0382     		strh	r3, [r0, #16]	@ movhi
 295 01c0 E9E7     		b	.L58
 296              	.L52:
 297 01c2 037A     		ldrb	r3, [r0, #8]	@ zero_extendqisi2
 298 01c4 6FF34103 		bfc	r3, #1, #1
 299 01c8 0372     		strb	r3, [r0, #8]
 300 01ca 7047     		bx	lr
 301              	.L74:
 302 01cc 70BC     		pop	{r4, r5, r6}
 303 01ce 7047     		bx	lr
 304              	.L73:
 305 01d0 7047     		bx	lr
 307              		.align	1
 308 01d2 00BF     		.p2align 2,,3
 309              		.global	ledz_tick
 310              		.syntax unified
 311              		.thumb
 312              		.thumb_func
 313              		.fpu softvfp
 315              	ledz_tick:
 316              		@ args = 0, pretend = 0, frame = 0
 317              		@ frame_needed = 0, uses_anonymous_args = 0
 318 01d4 2DE9F843 		push	{r3, r4, r5, r6, r7, r8, r9, lr}
 319 01d8 2F4F     		ldr	r7, .L103
 320 01da B7F8FC31 		ldrh	r3, [r7, #508]
 321 01de 0133     		adds	r3, r3, #1
 322 01e0 9BB2     		uxth	r3, r3
 323 01e2 042B     		cmp	r3, #4
 324 01e4 52D8     		bhi	.L77
 325 01e6 4FF00008 		mov	r8, #0
 326 01ea A7F8FC31 		strh	r3, [r7, #508]	@ movhi
 327              	.L78:
 328 01ee 0024     		movs	r4, #0
 329 01f0 4FF00109 		mov	r9, #1
 330 01f4 294D     		ldr	r5, .L103+4
 331 01f6 21E0     		b	.L87
 332              	.L85:
 333 01f8 5168     		ldr	r1, [r2, #4]
 334 01fa 5B07     		lsls	r3, r3, #29
 335 01fc 1078     		ldrb	r0, [r2]	@ zero_extendqisi2
 336 01fe 09FA01F1 		lsl	r1, r9, r1
 337 0202 37D5     		bpl	.L101
 338 0204 FFF7FEFF 		bl	GPIO_ClearValue
 339 0208 3319     		adds	r3, r6, r4
 340 020a 07EBC303 		add	r3, r7, r3, lsl #3
 341 020e 1A7B     		ldrb	r2, [r3, #12]	@ zero_extendqisi2
 342 0210 6FF30002 		bfc	r2, #0, #1
 343 0214 1A73     		strb	r2, [r3, #12]
 344 0216 EB89     		ldrh	r3, [r5, #14]
 345 0218 2B82     		strh	r3, [r5, #16]	@ movhi
 346              	.L86:
 347 021a 2644     		add	r6, r6, r4
 348 021c 07EBC606 		add	r6, r7, r6, lsl #3
 349 0220 337B     		ldrb	r3, [r6, #12]	@ zero_extendqisi2
 350 0222 1A46     		mov	r2, r3
 351 0224 C3F38003 		ubfx	r3, r3, #2, #1
 352 0228 C3F10103 		rsb	r3, r3, #1
 353 022c 63F38202 		bfi	r2, r3, #2, #1
 354 0230 3273     		strb	r2, [r6, #12]
 355              	.L80:
 356 0232 0134     		adds	r4, r4, #1
 357 0234 152C     		cmp	r4, #21
 358 0236 05F11805 		add	r5, r5, #24
 359 023a 19D0     		beq	.L102
 360              	.L87:
 361 023c 6A68     		ldr	r2, [r5, #4]
 362 023e 002A     		cmp	r2, #0
 363 0240 F7D0     		beq	.L80
 364 0242 6600     		lsls	r6, r4, #1
 365 0244 3319     		adds	r3, r6, r4
 366 0246 07EBC303 		add	r3, r7, r3, lsl #3
 367 024a 1B7B     		ldrb	r3, [r3, #12]	@ zero_extendqisi2
 368 024c 9907     		lsls	r1, r3, #30
 369 024e F0D5     		bpl	.L80
 370 0250 B8F1000F 		cmp	r8, #0
 371 0254 EDD0     		beq	.L80
 372 0256 298A     		ldrh	r1, [r5, #16]
 373 0258 0029     		cmp	r1, #0
 374 025a CDD0     		beq	.L85
 375 025c 0139     		subs	r1, r1, #1
 376 025e 89B2     		uxth	r1, r1
 377 0260 2982     		strh	r1, [r5, #16]	@ movhi
 378 0262 0029     		cmp	r1, #0
 379 0264 C8D0     		beq	.L85
 380 0266 0134     		adds	r4, r4, #1
 381 0268 152C     		cmp	r4, #21
 382 026a 05F11805 		add	r5, r5, #24
 383 026e E5D1     		bne	.L87
 384              	.L102:
 385 0270 BDE8F883 		pop	{r3, r4, r5, r6, r7, r8, r9, pc}
 386              	.L101:
 387 0274 FFF7FEFF 		bl	GPIO_SetValue
 388 0278 3319     		adds	r3, r6, r4
 389 027a 07EBC303 		add	r3, r7, r3, lsl #3
 390 027e 1A7B     		ldrb	r2, [r3, #12]	@ zero_extendqisi2
 391 0280 42F00102 		orr	r2, r2, #1
 392 0284 1A73     		strb	r2, [r3, #12]
 393 0286 AB89     		ldrh	r3, [r5, #12]
 394 0288 2B82     		strh	r3, [r5, #16]	@ movhi
 395 028a C6E7     		b	.L86
 396              	.L77:
 397 028c 0023     		movs	r3, #0
 398 028e 4FF00108 		mov	r8, #1
 399 0292 A7F8FC31 		strh	r3, [r7, #508]	@ movhi
 400 0296 AAE7     		b	.L78
 401              	.L104:
 402              		.align	2
 403              	.L103:
 404 0298 00000000 		.word	.LANCHOR1
 405 029c 04000000 		.word	.LANCHOR1+4
 407              		.data
 408              		.align	2
 409              		.set	.LANCHOR0,. + 0
 412              	g_leds_available:
 413 0000 15000000 		.word	21
 414              		.bss
 415              		.align	2
 416              		.set	.LANCHOR1,. + 0
 419              	ledz_counter.8153:
 420 0000 00000000 		.space	4
 423              	g_leds:
 424 0004 00000000 		.space	504
 424      00000000 
 424      00000000 
 424      00000000 
 424      00000000 
 427              	counter_1ms.8212:
 428 01fc 0000     		.space	2
 429              		.ident	"GCC: (GNU Tools for Arm Embedded Processors 7-2018-q3-update) 7.3.1 20180622 (release) [AR
DEFINED SYMBOLS
                            *ABS*:0000000000000000 ledz.c
     /tmp/ccam7DGf.s:13     .text:0000000000000000 $t
     /tmp/ccam7DGf.s:21     .text:0000000000000000 ledz_create
     /tmp/ccam7DGf.s:119    .text:00000000000000e4 $d
     /tmp/ccam7DGf.s:123    .text:00000000000000f0 $t
     /tmp/ccam7DGf.s:131    .text:00000000000000f0 ledz_destroy
     /tmp/ccam7DGf.s:152    .text:000000000000010c $d
     /tmp/ccam7DGf.s:154    .text:0000000000000110 $t
     /tmp/ccam7DGf.s:162    .text:0000000000000110 ledz_set
     /tmp/ccam7DGf.s:218    .text:0000000000000170 ledz_on
     /tmp/ccam7DGf.s:233    .text:0000000000000178 ledz_off
     /tmp/ccam7DGf.s:248    .text:0000000000000180 ledz_toggle
     /tmp/ccam7DGf.s:263    .text:0000000000000188 ledz_blink
     /tmp/ccam7DGf.s:315    .text:00000000000001d4 ledz_tick
     /tmp/ccam7DGf.s:404    .text:0000000000000298 $d
     /tmp/ccam7DGf.s:408    .data:0000000000000000 $d
     /tmp/ccam7DGf.s:412    .data:0000000000000000 g_leds_available
     /tmp/ccam7DGf.s:415    .bss:0000000000000000 $d
     /tmp/ccam7DGf.s:419    .bss:0000000000000000 ledz_counter.8153
     /tmp/ccam7DGf.s:423    .bss:0000000000000004 g_leds
     /tmp/ccam7DGf.s:427    .bss:00000000000001fc counter_1ms.8212

UNDEFINED SYMBOLS
GPIO_SetDir
PINSEL_SetPinFunc
GPIO_ClearValue
GPIO_SetValue
