   1              		.cpu cortex-m3
   2              		.eabi_attribute 20, 1
   3              		.eabi_attribute 21, 1
   4              		.eabi_attribute 23, 3
   5              		.eabi_attribute 24, 1
   6              		.eabi_attribute 25, 1
   7              		.eabi_attribute 26, 1
   8              		.eabi_attribute 30, 2
   9              		.eabi_attribute 34, 1
  10              		.eabi_attribute 18, 4
  11              		.file	"lpc177x_8x_adc.c"
  12              		.text
  13              		.align	1
  14              		.p2align 2,,3
  15              		.global	ADC_Init
  16              		.syntax unified
  17              		.thumb
  18              		.thumb_func
  19              		.fpu softvfp
  21              	ADC_Init:
  22              		@ args = 0, pretend = 0, frame = 0
  23              		@ frame_needed = 0, uses_anonymous_args = 0
  24 0000 38B5     		push	{r3, r4, r5, lr}
  25 0002 0546     		mov	r5, r0
  26 0004 0C46     		mov	r4, r1
  27 0006 4FF48050 		mov	r0, #4096
  28 000a 0121     		movs	r1, #1
  29 000c FFF7FEFF 		bl	CLKPWR_ConfigPPWR
  30 0010 0023     		movs	r3, #0
  31 0012 0120     		movs	r0, #1
  32 0014 2B60     		str	r3, [r5]
  33 0016 FFF7FEFF 		bl	CLKPWR_GetCLK
  34 001a C4EB4414 		rsb	r4, r4, r4, lsl #5
  35 001e 04EB4003 		add	r3, r4, r0, lsl #1
  36 0022 6400     		lsls	r4, r4, #1
  37 0024 B3FBF4F3 		udiv	r3, r3, r4
  38 0028 013B     		subs	r3, r3, #1
  39 002a 1B02     		lsls	r3, r3, #8
  40 002c 43F40013 		orr	r3, r3, #2097152
  41 0030 2B60     		str	r3, [r5]
  42 0032 38BD     		pop	{r3, r4, r5, pc}
  44              		.align	1
  45              		.p2align 2,,3
  46              		.global	ADC_DeInit
  47              		.syntax unified
  48              		.thumb
  49              		.thumb_func
  50              		.fpu softvfp
  52              	ADC_DeInit:
  53              		@ args = 0, pretend = 0, frame = 0
  54              		@ frame_needed = 0, uses_anonymous_args = 0
  55              		@ link register save eliminated.
  56 0034 0368     		ldr	r3, [r0]
  57 0036 0021     		movs	r1, #0
  58 0038 23F40013 		bic	r3, r3, #2097152
  59 003c 0360     		str	r3, [r0]
  60 003e 4FF48050 		mov	r0, #4096
  61 0042 FFF7FEBF 		b	CLKPWR_ConfigPPWR
  63              		.align	1
  64 0046 00BF     		.p2align 2,,3
  65              		.global	ADC_GetData
  66              		.syntax unified
  67              		.thumb
  68              		.thumb_func
  69              		.fpu softvfp
  71              	ADC_GetData:
  72              		@ args = 0, pretend = 0, frame = 0
  73              		@ frame_needed = 0, uses_anonymous_args = 0
  74              		@ link register save eliminated.
  75 0048 024B     		ldr	r3, .L6
  76 004a 53F82000 		ldr	r0, [r3, r0, lsl #2]
  77 004e C0F30B10 		ubfx	r0, r0, #4, #12
  78 0052 7047     		bx	lr
  79              	.L7:
  80              		.align	2
  81              	.L6:
  82 0054 10400340 		.word	1073954832
  84              		.align	1
  85              		.p2align 2,,3
  86              		.global	ADC_StartCmd
  87              		.syntax unified
  88              		.thumb
  89              		.thumb_func
  90              		.fpu softvfp
  92              	ADC_StartCmd:
  93              		@ args = 0, pretend = 0, frame = 0
  94              		@ frame_needed = 0, uses_anonymous_args = 0
  95              		@ link register save eliminated.
  96 0058 0368     		ldr	r3, [r0]
  97 005a 23F0E063 		bic	r3, r3, #117440512
  98 005e 0360     		str	r3, [r0]
  99 0060 0368     		ldr	r3, [r0]
 100 0062 43EA0161 		orr	r1, r3, r1, lsl #24
 101 0066 0160     		str	r1, [r0]
 102 0068 7047     		bx	lr
 104              		.align	1
 105 006a 00BF     		.p2align 2,,3
 106              		.global	ADC_BurstCmd
 107              		.syntax unified
 108              		.thumb
 109              		.thumb_func
 110              		.fpu softvfp
 112              	ADC_BurstCmd:
 113              		@ args = 0, pretend = 0, frame = 0
 114              		@ frame_needed = 0, uses_anonymous_args = 0
 115              		@ link register save eliminated.
 116 006c 0368     		ldr	r3, [r0]
 117 006e 23F48033 		bic	r3, r3, #65536
 118 0072 0360     		str	r3, [r0]
 119 0074 19B1     		cbz	r1, .L9
 120 0076 0368     		ldr	r3, [r0]
 121 0078 43F48033 		orr	r3, r3, #65536
 122 007c 0360     		str	r3, [r0]
 123              	.L9:
 124 007e 7047     		bx	lr
 126              		.align	1
 127              		.p2align 2,,3
 128              		.global	ADC_PowerdownCmd
 129              		.syntax unified
 130              		.thumb
 131              		.thumb_func
 132              		.fpu softvfp
 134              	ADC_PowerdownCmd:
 135              		@ args = 0, pretend = 0, frame = 0
 136              		@ frame_needed = 0, uses_anonymous_args = 0
 137              		@ link register save eliminated.
 138 0080 0368     		ldr	r3, [r0]
 139 0082 23F40013 		bic	r3, r3, #2097152
 140 0086 0360     		str	r3, [r0]
 141 0088 19B1     		cbz	r1, .L14
 142 008a 0368     		ldr	r3, [r0]
 143 008c 43F40013 		orr	r3, r3, #2097152
 144 0090 0360     		str	r3, [r0]
 145              	.L14:
 146 0092 7047     		bx	lr
 148              		.align	1
 149              		.p2align 2,,3
 150              		.global	ADC_EdgeStartConfig
 151              		.syntax unified
 152              		.thumb
 153              		.thumb_func
 154              		.fpu softvfp
 156              	ADC_EdgeStartConfig:
 157              		@ args = 0, pretend = 0, frame = 0
 158              		@ frame_needed = 0, uses_anonymous_args = 0
 159              		@ link register save eliminated.
 160 0094 0368     		ldr	r3, [r0]
 161 0096 23F00063 		bic	r3, r3, #134217728
 162 009a 0360     		str	r3, [r0]
 163 009c 19B1     		cbz	r1, .L19
 164 009e 0368     		ldr	r3, [r0]
 165 00a0 43F00063 		orr	r3, r3, #134217728
 166 00a4 0360     		str	r3, [r0]
 167              	.L19:
 168 00a6 7047     		bx	lr
 170              		.align	1
 171              		.p2align 2,,3
 172              		.global	ADC_IntConfig
 173              		.syntax unified
 174              		.thumb
 175              		.thumb_func
 176              		.fpu softvfp
 178              	ADC_IntConfig:
 179              		@ args = 0, pretend = 0, frame = 0
 180              		@ frame_needed = 0, uses_anonymous_args = 0
 181              		@ link register save eliminated.
 182 00a8 0123     		movs	r3, #1
 183 00aa 10B4     		push	{r4}
 184 00ac C468     		ldr	r4, [r0, #12]
 185 00ae 03FA01F1 		lsl	r1, r3, r1
 186 00b2 24EA0104 		bic	r4, r4, r1
 187 00b6 C460     		str	r4, [r0, #12]
 188 00b8 12B1     		cbz	r2, .L24
 189 00ba C368     		ldr	r3, [r0, #12]
 190 00bc 1943     		orrs	r1, r1, r3
 191 00be C160     		str	r1, [r0, #12]
 192              	.L24:
 193 00c0 10BC     		pop	{r4}
 194 00c2 7047     		bx	lr
 196              		.align	1
 197              		.p2align 2,,3
 198              		.global	ADC_ChannelCmd
 199              		.syntax unified
 200              		.thumb
 201              		.thumb_func
 202              		.fpu softvfp
 204              	ADC_ChannelCmd:
 205              		@ args = 0, pretend = 0, frame = 0
 206              		@ frame_needed = 0, uses_anonymous_args = 0
 207              		@ link register save eliminated.
 208 00c4 0123     		movs	r3, #1
 209 00c6 03FA01F1 		lsl	r1, r3, r1
 210 00ca 9A42     		cmp	r2, r3
 211 00cc 0368     		ldr	r3, [r0]
 212 00ce 0CBF     		ite	eq
 213 00d0 1943     		orreq	r1, r1, r3
 214 00d2 23EA0101 		bicne	r1, r3, r1
 215 00d6 0160     		str	r1, [r0]
 216 00d8 7047     		bx	lr
 218              		.align	1
 219 00da 00BF     		.p2align 2,,3
 220              		.global	ADC_ChannelGetData
 221              		.syntax unified
 222              		.thumb
 223              		.thumb_func
 224              		.fpu softvfp
 226              	ADC_ChannelGetData:
 227              		@ args = 0, pretend = 0, frame = 0
 228              		@ frame_needed = 0, uses_anonymous_args = 0
 229              		@ link register save eliminated.
 230 00dc 00EB8101 		add	r1, r0, r1, lsl #2
 231 00e0 0869     		ldr	r0, [r1, #16]
 232 00e2 C0F30B10 		ubfx	r0, r0, #4, #12
 233 00e6 7047     		bx	lr
 235              		.align	1
 236              		.p2align 2,,3
 237              		.global	ADC_ChannelGetStatus
 238              		.syntax unified
 239              		.thumb
 240              		.thumb_func
 241              		.fpu softvfp
 243              	ADC_ChannelGetStatus:
 244              		@ args = 0, pretend = 0, frame = 0
 245              		@ frame_needed = 0, uses_anonymous_args = 0
 246              		@ link register save eliminated.
 247 00e8 00EB8101 		add	r1, r0, r1, lsl #2
 248 00ec 0869     		ldr	r0, [r1, #16]
 249 00ee 2AB1     		cbz	r2, .L35
 250 00f0 00F00040 		and	r0, r0, #-2147483648
 251 00f4 0030     		adds	r0, r0, #0
 252 00f6 18BF     		it	ne
 253 00f8 0120     		movne	r0, #1
 254 00fa 7047     		bx	lr
 255              	.L35:
 256 00fc 00F08040 		and	r0, r0, #1073741824
 257 0100 0030     		adds	r0, r0, #0
 258 0102 18BF     		it	ne
 259 0104 0120     		movne	r0, #1
 260 0106 7047     		bx	lr
 262              		.align	1
 263              		.p2align 2,,3
 264              		.global	ADC_GlobalGetData
 265              		.syntax unified
 266              		.thumb
 267              		.thumb_func
 268              		.fpu softvfp
 270              	ADC_GlobalGetData:
 271              		@ args = 0, pretend = 0, frame = 0
 272              		@ frame_needed = 0, uses_anonymous_args = 0
 273              		@ link register save eliminated.
 274 0108 4068     		ldr	r0, [r0, #4]
 275 010a 7047     		bx	lr
 277              		.align	1
 278              		.p2align 2,,3
 279              		.global	ADC_GlobalGetStatus
 280              		.syntax unified
 281              		.thumb
 282              		.thumb_func
 283              		.fpu softvfp
 285              	ADC_GlobalGetStatus:
 286              		@ args = 0, pretend = 0, frame = 0
 287              		@ frame_needed = 0, uses_anonymous_args = 0
 288              		@ link register save eliminated.
 289 010c 4068     		ldr	r0, [r0, #4]
 290 010e 29B1     		cbz	r1, .L39
 291 0110 00F00040 		and	r0, r0, #-2147483648
 292 0114 0030     		adds	r0, r0, #0
 293 0116 18BF     		it	ne
 294 0118 0120     		movne	r0, #1
 295 011a 7047     		bx	lr
 296              	.L39:
 297 011c 00F08040 		and	r0, r0, #1073741824
 298 0120 0030     		adds	r0, r0, #0
 299 0122 18BF     		it	ne
 300 0124 0120     		movne	r0, #1
 301 0126 7047     		bx	lr
 303              		.ident	"GCC: (GNU Tools for Arm Embedded Processors 7-2018-q3-update) 7.3.1 20180622 (release) [AR