   1              		.cpu cortex-m3
   2              		.eabi_attribute 20, 1
   3              		.eabi_attribute 21, 1
   4              		.eabi_attribute 23, 3
   5              		.eabi_attribute 24, 1
   6              		.eabi_attribute 25, 1
   7              		.eabi_attribute 26, 1
   8              		.eabi_attribute 30, 2
   9              		.eabi_attribute 34, 1
  10              		.eabi_attribute 18, 4
  11              		.file	"lpc177x_8x_uart.c"
  12              		.text
  13              		.align	1
  14              		.p2align 2,,3
  15              		.syntax unified
  16              		.thumb
  17              		.thumb_func
  18              		.fpu softvfp
  20              	UART_Send.part.0:
  21              		@ args = 0, pretend = 0, frame = 0
  22              		@ frame_needed = 0, uses_anonymous_args = 0
  23              		@ link register save eliminated.
  24 0000 30B4     		push	{r4, r5}
  25 0002 0025     		movs	r5, #0
  26              	.L2:
  27 0004 F2B1     		cbz	r2, .L1
  28 0006 4369     		ldr	r3, [r0, #20]
  29 0008 9B06     		lsls	r3, r3, #26
  30 000a 58BF     		it	pl
  31 000c 4FF0FF33 		movpl	r3, #-1
  32 0010 01D5     		bpl	.L7
  33 0012 05E0     		b	.L8
  34              	.L4:
  35 0014 B3B1     		cbz	r3, .L1
  36              	.L7:
  37 0016 4469     		ldr	r4, [r0, #20]
  38 0018 013B     		subs	r3, r3, #1
  39 001a A406     		lsls	r4, r4, #26
  40 001c FAD5     		bpl	.L4
  41 001e 8BB1     		cbz	r3, .L1
  42              	.L8:
  43 0020 0C46     		mov	r4, r1
  44 0022 14F8103B 		ldrb	r3, [r4], #16	@ zero_extendqisi2
  45 0026 013A     		subs	r2, r2, #1
  46 0028 0135     		adds	r5, r5, #1
  47 002a 0131     		adds	r1, r1, #1
  48 002c 0370     		strb	r3, [r0]
  49 002e 4AB1     		cbz	r2, .L1
  50              	.L6:
  51 0030 11F8013B 		ldrb	r3, [r1], #1	@ zero_extendqisi2
  52 0034 013A     		subs	r2, r2, #1
  53 0036 A142     		cmp	r1, r4
  54 0038 05F10105 		add	r5, r5, #1
  55 003c 0370     		strb	r3, [r0]
  56 003e E1D0     		beq	.L2
  57 0040 002A     		cmp	r2, #0
  58 0042 F5D1     		bne	.L6
  59              	.L1:
  60 0044 2846     		mov	r0, r5
  61 0046 30BC     		pop	{r4, r5}
  62 0048 7047     		bx	lr
  64              		.global	__aeabi_uldivmod
  65              		.global	__aeabi_ldivmod
  66              		.align	1
  67 004a 00BF     		.p2align 2,,3
  68              		.global	UART_Init
  69              		.syntax unified
  70              		.thumb
  71              		.thumb_func
  72              		.fpu softvfp
  74              	UART_Init:
  75              		@ args = 0, pretend = 0, frame = 40
  76              		@ frame_needed = 0, uses_anonymous_args = 0
  77 004c 2DE9F04F 		push	{r4, r5, r6, r7, r8, r9, r10, fp, lr}
  78 0050 B74B     		ldr	r3, .L117
  79 0052 8BB0     		sub	sp, sp, #44
  80 0054 9842     		cmp	r0, r3
  81 0056 8146     		mov	r9, r0
  82 0058 0791     		str	r1, [sp, #28]
  83 005a 00F05E81 		beq	.L25
  84 005e 03F50C23 		add	r3, r3, #573440
  85 0062 9842     		cmp	r0, r3
  86 0064 00F02581 		beq	.L26
  87 0068 03F58043 		add	r3, r3, #16384
  88 006c 9842     		cmp	r0, r3
  89 006e 00F05981 		beq	.L108
  90 0072 B04B     		ldr	r3, .L117+4
  91 0074 9842     		cmp	r0, r3
  92 0076 00F06181 		beq	.L109
  93 007a AF4B     		ldr	r3, .L117+8
  94 007c 9842     		cmp	r0, r3
  95 007e 00F08881 		beq	.L110
  96              	.L33:
  97 0082 079B     		ldr	r3, [sp, #28]
  98 0084 0024     		movs	r4, #0
  99 0086 1F68     		ldr	r7, [r3]
 100 0088 0023     		movs	r3, #0
 101 008a 0120     		movs	r0, #1
 102 008c CDE90434 		strd	r3, [sp, #16]
 103 0090 FFF7FEFF 		bl	CLKPWR_GetCLK
 104 0094 0023     		movs	r3, #0
 105 0096 0109     		lsrs	r1, r0, #4
 106 0098 0207     		lsls	r2, r0, #28
 107 009a 0591     		str	r1, [sp, #20]
 108 009c 0492     		str	r2, [sp, #16]
 109 009e 0021     		movs	r1, #0
 110 00a0 DDE904AB 		ldrd	r10, [sp, #16]
 111 00a4 0022     		movs	r2, #0
 112 00a6 CDF82090 		str	r9, [sp, #32]
 113 00aa 4FF0FF38 		mov	r8, #-1
 114 00ae 0126     		movs	r6, #1
 115 00b0 9946     		mov	r9, r3
 116 00b2 CDE90012 		strd	r1, [sp]
 117 00b6 0990     		str	r0, [sp, #36]
 118 00b8 0393     		str	r3, [sp, #12]
 119 00ba 0697     		str	r7, [sp, #24]
 120              	.L41:
 121 00bc 0024     		movs	r4, #0
 122 00be 069D     		ldr	r5, [sp, #24]
 123              	.L45:
 124 00c0 2A46     		mov	r2, r5
 125 00c2 0023     		movs	r3, #0
 126 00c4 5046     		mov	r0, r10
 127 00c6 5946     		mov	r1, fp
 128 00c8 FFF7FEFF 		bl	__aeabi_uldivmod
 129 00cc 0B46     		mov	r3, r1
 130 00ce B0F1004F 		cmp	r0, #-2147483648
 131 00d2 88BF     		it	hi
 132 00d4 4B1C     		addhi	r3, r1, #1
 133 00d6 03F1FF31 		add	r1, r3, #-1
 134 00da 0246     		mov	r2, r0
 135 00dc 88BF     		it	hi
 136 00de 4242     		rsbhi	r2, r0, #0
 137 00e0 B1F5803F 		cmp	r1, #65536
 138 00e4 3D44     		add	r5, r5, r7
 139 00e6 0AD2     		bcs	.L43
 140 00e8 4245     		cmp	r2, r8
 141 00ea 08D2     		bcs	.L43
 142 00ec 1846     		mov	r0, r3
 143 00ee 0021     		movs	r1, #0
 144 00f0 CDE90001 		strd	r0, [sp]
 145 00f4 002A     		cmp	r2, #0
 146 00f6 54D0     		beq	.L105
 147 00f8 9046     		mov	r8, r2
 148 00fa A146     		mov	r9, r4
 149 00fc 0396     		str	r6, [sp, #12]
 150              	.L43:
 151 00fe 0134     		adds	r4, r4, #1
 152 0100 B442     		cmp	r4, r6
 153 0102 DDD1     		bne	.L45
 154 0104 069B     		ldr	r3, [sp, #24]
 155 0106 661C     		adds	r6, r4, #1
 156 0108 3B44     		add	r3, r3, r7
 157 010a 0693     		str	r3, [sp, #24]
 158 010c DDE90434 		ldrd	r3, [sp, #16]
 159 0110 13EB0A03 		adds	r3, r3, r10
 160 0114 44EB0B04 		adc	r4, r4, fp
 161 0118 102E     		cmp	r6, #16
 162 011a 9A46     		mov	r10, r3
 163 011c A346     		mov	fp, r4
 164 011e CDD1     		bne	.L41
 165 0120 DDE90034 		ldrd	r3, [sp]
 166 0124 2343     		orrs	r3, r3, r4
 167 0126 4A46     		mov	r2, r9
 168 0128 DDF82090 		ldr	r9, [sp, #32]
 169 012c 40F05781 		bne	.L111
 170              	.L47:
 171 0130 804B     		ldr	r3, .L117+4
 172 0132 9945     		cmp	r9, r3
 173 0134 00F08C80 		beq	.L51
 174 0138 7F4B     		ldr	r3, .L117+8
 175 013a 9945     		cmp	r9, r3
 176 013c 00F0AF80 		beq	.L53
 177              	.L54:
 178 0140 99F80C30 		ldrb	r3, [r9, #12]	@ zero_extendqisi2
 179 0144 03F0C003 		and	r3, r3, #192
 180              	.L56:
 181 0148 079A     		ldr	r2, [sp, #28]
 182 014a 5279     		ldrb	r2, [r2, #5]	@ zero_extendqisi2
 183 014c 012A     		cmp	r2, #1
 184 014e 00F08880 		beq	.L58
 185              	.L116:
 186 0152 04D3     		bcc	.L59
 187 0154 022A     		cmp	r2, #2
 188 0156 40F08780 		bne	.L112
 189 015a 43F00203 		orr	r3, r3, #2
 190              	.L59:
 191 015e 079A     		ldr	r2, [sp, #28]
 192 0160 1279     		ldrb	r2, [r2, #4]	@ zero_extendqisi2
 193 0162 5AB1     		cbz	r2, .L61
 194 0164 032A     		cmp	r2, #3
 195 0166 00F0D580 		beq	.L63
 196 016a 042A     		cmp	r2, #4
 197 016c 00F0CF80 		beq	.L64
 198 0170 022A     		cmp	r2, #2
 199 0172 14BF     		ite	ne
 200 0174 43F00803 		orrne	r3, r3, #8
 201 0178 43F01803 		orreq	r3, r3, #24
 202              	.L61:
 203 017c 079A     		ldr	r2, [sp, #28]
 204 017e 9279     		ldrb	r2, [r2, #6]	@ zero_extendqisi2
 205 0180 012A     		cmp	r2, #1
 206 0182 6C4A     		ldr	r2, .L117+4
 207 0184 08BF     		it	eq
 208 0186 43F00403 		orreq	r3, r3, #4
 209 018a 9145     		cmp	r9, r2
 210 018c 03D0     		beq	.L70
 211 018e 6A4A     		ldr	r2, .L117+8
 212 0190 9145     		cmp	r9, r2
 213 0192 00F08980 		beq	.L113
 214              	.L70:
 215 0196 DBB2     		uxtb	r3, r3
 216 0198 89F80C30 		strb	r3, [r9, #12]
 217 019c 0BB0     		add	sp, sp, #44
 218              		@ sp needed
 219 019e BDE8F08F 		pop	{r4, r5, r6, r7, r8, r9, r10, fp, pc}
 220              	.L105:
 221 01a2 DDF82090 		ldr	r9, [sp, #32]
 222              	.L44:
 223 01a6 A119     		adds	r1, r4, r6
 224 01a8 DDE900AB 		ldrd	r10, [sp]
 225 01ac A1FB0A23 		umull	r2, r3, r1, r10
 226 01b0 01FB0B33 		mla	r3, r1, fp, r3
 227 01b4 0999     		ldr	r1, [sp, #36]
 228 01b6 0809     		lsrs	r0, r1, #4
 229 01b8 06FB00F0 		mul	r0, r6, r0
 230 01bc 0021     		movs	r1, #0
 231 01be FFF7FEFF 		bl	__aeabi_uldivmod
 232 01c2 6423     		movs	r3, #100
 233 01c4 8742     		cmp	r7, r0
 234 01c6 8CBF     		ite	hi
 235 01c8 381A     		subhi	r0, r7, r0
 236 01ca C01B     		subls	r0, r0, r7
 237 01cc 03FB00F3 		mul	r3, r3, r0
 238 01d0 B3FBF7F7 		udiv	r7, r3, r7
 239 01d4 022F     		cmp	r7, #2
 240 01d6 ABD8     		bhi	.L47
 241 01d8 DDE90001 		ldrd	r0, [sp]
 242 01dc 554A     		ldr	r2, .L117+4
 243 01de 030A     		lsrs	r3, r0, #8
 244 01e0 9145     		cmp	r9, r2
 245 01e2 43EA0163 		orr	r3, r3, r1, lsl #24
 246 01e6 1BD0     		beq	.L114
 247 01e8 534A     		ldr	r2, .L117+8
 248 01ea 9145     		cmp	r9, r2
 249 01ec 3FD0     		beq	.L115
 250 01ee 99F80C20 		ldrb	r2, [r9, #12]	@ zero_extendqisi2
 251 01f2 9DF80010 		ldrb	r1, [sp]	@ zero_extendqisi2
 252 01f6 DBB2     		uxtb	r3, r3
 253 01f8 42F08002 		orr	r2, r2, #128
 254 01fc 89F80C20 		strb	r2, [r9, #12]
 255 0200 89F80430 		strb	r3, [r9, #4]
 256 0204 89F80010 		strb	r1, [r9]
 257 0208 99F80C20 		ldrb	r2, [r9, #12]	@ zero_extendqisi2
 258 020c 44EA0613 		orr	r3, r4, r6, lsl #4
 259 0210 DBB2     		uxtb	r3, r3
 260 0212 02F07F02 		and	r2, r2, #127
 261 0216 89F80C20 		strb	r2, [r9, #12]
 262 021a 89F82830 		strb	r3, [r9, #40]
 263 021e 8FE7     		b	.L54
 264              	.L114:
 265 0220 99F80C20 		ldrb	r2, [r9, #12]	@ zero_extendqisi2
 266 0224 9DF80010 		ldrb	r1, [sp]	@ zero_extendqisi2
 267 0228 DBB2     		uxtb	r3, r3
 268 022a 42F08002 		orr	r2, r2, #128
 269 022e 89F80C20 		strb	r2, [r9, #12]
 270 0232 89F80430 		strb	r3, [r9, #4]
 271 0236 89F80010 		strb	r1, [r9]
 272 023a 99F80C20 		ldrb	r2, [r9, #12]	@ zero_extendqisi2
 273 023e 3301     		lsls	r3, r6, #4
 274 0240 DBB2     		uxtb	r3, r3
 275 0242 1C43     		orrs	r4, r4, r3
 276 0244 02F07F03 		and	r3, r2, #127
 277 0248 89F80C30 		strb	r3, [r9, #12]
 278 024c C9F82840 		str	r4, [r9, #40]
 279              	.L51:
 280 0250 079A     		ldr	r2, [sp, #28]
 281 0252 384B     		ldr	r3, .L117+4
 282 0254 5279     		ldrb	r2, [r2, #5]	@ zero_extendqisi2
 283 0256 1B7B     		ldrb	r3, [r3, #12]	@ zero_extendqisi2
 284 0258 012A     		cmp	r2, #1
 285 025a 03F0C003 		and	r3, r3, #192
 286 025e 7FF478AF 		bne	.L116
 287              	.L58:
 288 0262 43F00103 		orr	r3, r3, #1
 289 0266 7AE7     		b	.L59
 290              	.L112:
 291 0268 43F00303 		orr	r3, r3, #3
 292 026c 77E7     		b	.L59
 293              	.L115:
 294 026e D9F80C20 		ldr	r2, [r9, #12]
 295 0272 9DF80010 		ldrb	r1, [sp]	@ zero_extendqisi2
 296 0276 DBB2     		uxtb	r3, r3
 297 0278 42F08002 		orr	r2, r2, #128
 298 027c C9F80C20 		str	r2, [r9, #12]
 299 0280 C9F80430 		str	r3, [r9, #4]
 300 0284 C9F80010 		str	r1, [r9]
 301 0288 D9F80C20 		ldr	r2, [r9, #12]
 302 028c 3301     		lsls	r3, r6, #4
 303 028e DBB2     		uxtb	r3, r3
 304 0290 1C43     		orrs	r4, r4, r3
 305 0292 02F07F02 		and	r2, r2, #127
 306 0296 C9F80C20 		str	r2, [r9, #12]
 307 029a C9F82840 		str	r4, [r9, #40]
 308              	.L53:
 309 029e 264B     		ldr	r3, .L117+8
 310 02a0 DB68     		ldr	r3, [r3, #12]
 311 02a2 03F0C003 		and	r3, r3, #192
 312 02a6 4FE7     		b	.L56
 313              	.L113:
 314 02a8 C9F80C30 		str	r3, [r9, #12]
 315 02ac 0BB0     		add	sp, sp, #44
 316              		@ sp needed
 317 02ae BDE8F08F 		pop	{r4, r5, r6, r7, r8, r9, r10, fp, pc}
 318              	.L26:
 319 02b2 0121     		movs	r1, #1
 320 02b4 4FF08070 		mov	r0, #16777216
 321 02b8 FFF7FEFF 		bl	CLKPWR_ConfigPPWR
 322              	.L29:
 323 02bc 0722     		movs	r2, #7
 324 02be 0023     		movs	r3, #0
 325 02c0 89F80820 		strb	r2, [r9, #8]
 326 02c4 89F80830 		strb	r3, [r9, #8]
 327 02c8 99F81430 		ldrb	r3, [r9, #20]	@ zero_extendqisi2
 328 02cc DA07     		lsls	r2, r3, #31
 329 02ce 05D5     		bpl	.L30
 330              	.L31:
 331 02d0 99F80030 		ldrb	r3, [r9]	@ zero_extendqisi2
 332 02d4 99F81430 		ldrb	r3, [r9, #20]	@ zero_extendqisi2
 333 02d8 DB07     		lsls	r3, r3, #31
 334 02da F9D4     		bmi	.L31
 335              	.L30:
 336 02dc 8023     		movs	r3, #128
 337 02de 89F83030 		strb	r3, [r9, #48]
 338              	.L32:
 339 02e2 99F81430 		ldrb	r3, [r9, #20]	@ zero_extendqisi2
 340 02e6 9F06     		lsls	r7, r3, #26
 341 02e8 FBD5     		bpl	.L32
 342 02ea 0023     		movs	r3, #0
 343 02ec 89F83030 		strb	r3, [r9, #48]
 344 02f0 C9F80430 		str	r3, [r9, #4]
 345 02f4 89F80C30 		strb	r3, [r9, #12]
 346 02f8 C9F82030 		str	r3, [r9, #32]
 347 02fc 89F84C30 		strb	r3, [r9, #76]
 348 0300 89F85430 		strb	r3, [r9, #84]
 349 0304 89F85030 		strb	r3, [r9, #80]
 350 0308 99F81430 		ldrb	r3, [r9, #20]	@ zero_extendqisi2
 351 030c B9E6     		b	.L33
 352              	.L64:
 353 030e 43F03803 		orr	r3, r3, #56
 354 0312 33E7     		b	.L61
 355              	.L63:
 356 0314 43F02803 		orr	r3, r3, #40
 357 0318 30E7     		b	.L61
 358              	.L25:
 359 031a 0121     		movs	r1, #1
 360 031c 0820     		movs	r0, #8
 361 031e FFF7FEFF 		bl	CLKPWR_ConfigPPWR
 362 0322 CBE7     		b	.L29
 363              	.L108:
 364 0324 0121     		movs	r1, #1
 365 0326 4FF00070 		mov	r0, #33554432
 366 032a FFF7FEFF 		bl	CLKPWR_ConfigPPWR
 367 032e C5E7     		b	.L29
 368              	.L118:
 369              		.align	2
 370              	.L117:
 371 0330 00C00040 		.word	1073790976
 372 0334 00000140 		.word	1073807360
 373 0338 00400A40 		.word	1074413568
 374              	.L109:
 375 033c 0121     		movs	r1, #1
 376 033e 1020     		movs	r0, #16
 377 0340 FFF7FEFF 		bl	CLKPWR_ConfigPPWR
 378 0344 0023     		movs	r3, #0
 379 0346 0722     		movs	r2, #7
 380 0348 89F80820 		strb	r2, [r9, #8]
 381 034c 89F80830 		strb	r3, [r9, #8]
 382 0350 99F81430 		ldrb	r3, [r9, #20]	@ zero_extendqisi2
 383 0354 DE07     		lsls	r6, r3, #31
 384 0356 04D5     		bpl	.L35
 385 0358 4B46     		mov	r3, r9
 386              	.L36:
 387 035a 1A78     		ldrb	r2, [r3]	@ zero_extendqisi2
 388 035c 1A7D     		ldrb	r2, [r3, #20]	@ zero_extendqisi2
 389 035e D507     		lsls	r5, r2, #31
 390 0360 FBD4     		bmi	.L36
 391              	.L35:
 392 0362 204A     		ldr	r2, .L119
 393 0364 8021     		movs	r1, #128
 394 0366 1346     		mov	r3, r2
 395 0368 82F83010 		strb	r1, [r2, #48]
 396              	.L37:
 397 036c 1A7D     		ldrb	r2, [r3, #20]	@ zero_extendqisi2
 398 036e 9406     		lsls	r4, r2, #26
 399 0370 FCD5     		bpl	.L37
 400 0372 0022     		movs	r2, #0
 401 0374 83F83020 		strb	r2, [r3, #48]
 402 0378 5A60     		str	r2, [r3, #4]
 403 037a 1A73     		strb	r2, [r3, #12]
 404 037c 1A62     		str	r2, [r3, #32]
 405 037e 83F84C20 		strb	r2, [r3, #76]
 406 0382 83F85420 		strb	r2, [r3, #84]
 407 0386 83F85020 		strb	r2, [r3, #80]
 408 038a 197D     		ldrb	r1, [r3, #20]	@ zero_extendqisi2
 409 038c 1A74     		strb	r2, [r3, #16]
 410 038e 1B7E     		ldrb	r3, [r3, #24]	@ zero_extendqisi2
 411 0390 77E6     		b	.L33
 412              	.L110:
 413 0392 4FF48070 		mov	r0, #256
 414 0396 0121     		movs	r1, #1
 415 0398 FFF7FEFF 		bl	CLKPWR_ConfigPPWR
 416 039c 0023     		movs	r3, #0
 417 039e 0722     		movs	r2, #7
 418 03a0 C9F80820 		str	r2, [r9, #8]
 419 03a4 C9F80830 		str	r3, [r9, #8]
 420 03a8 D9F81430 		ldr	r3, [r9, #20]
 421 03ac D807     		lsls	r0, r3, #31
 422 03ae 04D5     		bpl	.L38
 423 03b0 4B46     		mov	r3, r9
 424              	.L39:
 425 03b2 1A68     		ldr	r2, [r3]
 426 03b4 5A69     		ldr	r2, [r3, #20]
 427 03b6 D107     		lsls	r1, r2, #31
 428 03b8 FBD4     		bmi	.L39
 429              	.L38:
 430 03ba 0B4A     		ldr	r2, .L119+4
 431 03bc 0121     		movs	r1, #1
 432 03be 1346     		mov	r3, r2
 433 03c0 D165     		str	r1, [r2, #92]
 434              	.L40:
 435 03c2 5A69     		ldr	r2, [r3, #20]
 436 03c4 9206     		lsls	r2, r2, #26
 437 03c6 FCD5     		bpl	.L40
 438 03c8 0022     		movs	r2, #0
 439 03ca DA65     		str	r2, [r3, #92]
 440 03cc 5A60     		str	r2, [r3, #4]
 441 03ce DA60     		str	r2, [r3, #12]
 442 03d0 1A62     		str	r2, [r3, #32]
 443 03d2 DA64     		str	r2, [r3, #76]
 444 03d4 5A65     		str	r2, [r3, #84]
 445 03d6 1A65     		str	r2, [r3, #80]
 446 03d8 5969     		ldr	r1, [r3, #20]
 447 03da 5A62     		str	r2, [r3, #36]
 448 03dc 51E6     		b	.L33
 449              	.L111:
 450 03de 1446     		mov	r4, r2
 451 03e0 039E     		ldr	r6, [sp, #12]
 452 03e2 E0E6     		b	.L44
 453              	.L120:
 454              		.align	2
 455              	.L119:
 456 03e4 00000140 		.word	1073807360
 457 03e8 00400A40 		.word	1074413568
 459              		.align	1
 460              		.p2align 2,,3
 461              		.global	UART_DeInit
 462              		.syntax unified
 463              		.thumb
 464              		.thumb_func
 465              		.fpu softvfp
 467              	UART_DeInit:
 468              		@ args = 0, pretend = 0, frame = 0
 469              		@ frame_needed = 0, uses_anonymous_args = 0
 470              		@ link register save eliminated.
 471 03ec 184B     		ldr	r3, .L132
 472 03ee 9842     		cmp	r0, r3
 473 03f0 19D0     		beq	.L127
 474 03f2 184B     		ldr	r3, .L132+4
 475 03f4 9842     		cmp	r0, r3
 476 03f6 0ED0     		beq	.L128
 477 03f8 0021     		movs	r1, #0
 478 03fa 174B     		ldr	r3, .L132+8
 479 03fc 90F83020 		ldrb	r2, [r0, #48]	@ zero_extendqisi2
 480 0400 9842     		cmp	r0, r3
 481 0402 80F83010 		strb	r1, [r0, #48]
 482 0406 17D0     		beq	.L129
 483 0408 144B     		ldr	r3, .L132+12
 484 040a 9842     		cmp	r0, r3
 485 040c 17D0     		beq	.L130
 486 040e 144B     		ldr	r3, .L132+16
 487 0410 9842     		cmp	r0, r3
 488 0412 18D0     		beq	.L131
 489 0414 7047     		bx	lr
 490              	.L128:
 491 0416 0023     		movs	r3, #0
 492 0418 C26D     		ldr	r2, [r0, #92]
 493 041a 1946     		mov	r1, r3
 494 041c C365     		str	r3, [r0, #92]
 495 041e 4FF48070 		mov	r0, #256
 496 0422 FFF7FEBF 		b	CLKPWR_ConfigPPWR
 497              	.L127:
 498 0426 0023     		movs	r3, #0
 499 0428 90F83020 		ldrb	r2, [r0, #48]	@ zero_extendqisi2
 500 042c 1946     		mov	r1, r3
 501 042e 80F83030 		strb	r3, [r0, #48]
 502 0432 1020     		movs	r0, #16
 503 0434 FFF7FEBF 		b	CLKPWR_ConfigPPWR
 504              	.L129:
 505 0438 0820     		movs	r0, #8
 506 043a FFF7FEBF 		b	CLKPWR_ConfigPPWR
 507              	.L130:
 508 043e 4FF08070 		mov	r0, #16777216
 509 0442 FFF7FEBF 		b	CLKPWR_ConfigPPWR
 510              	.L131:
 511 0446 4FF00070 		mov	r0, #33554432
 512 044a FFF7FEBF 		b	CLKPWR_ConfigPPWR
 513              	.L133:
 514 044e 00BF     		.align	2
 515              	.L132:
 516 0450 00000140 		.word	1073807360
 517 0454 00400A40 		.word	1074413568
 518 0458 00C00040 		.word	1073790976
 519 045c 00800940 		.word	1074364416
 520 0460 00C00940 		.word	1074380800
 522              		.align	1
 523              		.p2align 2,,3
 524              		.global	UART_ConfigStructInit
 525              		.syntax unified
 526              		.thumb
 527              		.thumb_func
 528              		.fpu softvfp
 530              	UART_ConfigStructInit:
 531              		@ args = 0, pretend = 0, frame = 0
 532              		@ frame_needed = 0, uses_anonymous_args = 0
 533              		@ link register save eliminated.
 534 0464 0023     		movs	r3, #0
 535 0466 4FF4E131 		mov	r1, #115200
 536 046a 0322     		movs	r2, #3
 537 046c 0160     		str	r1, [r0]
 538 046e 4271     		strb	r2, [r0, #5]
 539 0470 0371     		strb	r3, [r0, #4]
 540 0472 8371     		strb	r3, [r0, #6]
 541 0474 7047     		bx	lr
 543              		.align	1
 544 0476 00BF     		.p2align 2,,3
 545              		.global	UART_SendByte
 546              		.syntax unified
 547              		.thumb
 548              		.thumb_func
 549              		.fpu softvfp
 551              	UART_SendByte:
 552              		@ args = 0, pretend = 0, frame = 0
 553              		@ frame_needed = 0, uses_anonymous_args = 0
 554              		@ link register save eliminated.
 555 0478 0170     		strb	r1, [r0]
 556 047a 7047     		bx	lr
 558              		.align	1
 559              		.p2align 2,,3
 560              		.global	UART_ReceiveByte
 561              		.syntax unified
 562              		.thumb
 563              		.thumb_func
 564              		.fpu softvfp
 566              	UART_ReceiveByte:
 567              		@ args = 0, pretend = 0, frame = 0
 568              		@ frame_needed = 0, uses_anonymous_args = 0
 569              		@ link register save eliminated.
 570 047c 0078     		ldrb	r0, [r0]	@ zero_extendqisi2
 571 047e 7047     		bx	lr
 573              		.align	1
 574              		.p2align 2,,3
 575              		.global	UART_Send
 576              		.syntax unified
 577              		.thumb
 578              		.thumb_func
 579              		.fpu softvfp
 581              	UART_Send:
 582              		@ args = 0, pretend = 0, frame = 0
 583              		@ frame_needed = 0, uses_anonymous_args = 0
 584              		@ link register save eliminated.
 585 0480 012B     		cmp	r3, #1
 586 0482 1DD0     		beq	.L151
 587 0484 70B4     		push	{r4, r5, r6}
 588 0486 1546     		mov	r5, r2
 589 0488 0646     		mov	r6, r0
 590 048a 0C46     		mov	r4, r1
 591 048c 0020     		movs	r0, #0
 592 048e ADB1     		cbz	r5, .L137
 593              	.L152:
 594 0490 7369     		ldr	r3, [r6, #20]
 595 0492 9B06     		lsls	r3, r3, #26
 596 0494 12D5     		bpl	.L137
 597 0496 2246     		mov	r2, r4
 598 0498 12F8103B 		ldrb	r3, [r2], #16	@ zero_extendqisi2
 599 049c 013D     		subs	r5, r5, #1
 600 049e 0130     		adds	r0, r0, #1
 601 04a0 611C     		adds	r1, r4, #1
 602 04a2 3370     		strb	r3, [r6]
 603              	.L139:
 604 04a4 55B1     		cbz	r5, .L137
 605 04a6 11F8013B 		ldrb	r3, [r1], #1	@ zero_extendqisi2
 606 04aa 013D     		subs	r5, r5, #1
 607 04ac 9142     		cmp	r1, r2
 608 04ae 00F10100 		add	r0, r0, #1
 609 04b2 3370     		strb	r3, [r6]
 610 04b4 F6D1     		bne	.L139
 611 04b6 0C46     		mov	r4, r1
 612 04b8 002D     		cmp	r5, #0
 613 04ba E9D1     		bne	.L152
 614              	.L137:
 615 04bc 70BC     		pop	{r4, r5, r6}
 616 04be 7047     		bx	lr
 617              	.L151:
 618 04c0 9EE5     		b	UART_Send.part.0
 620              		.align	1
 621 04c2 00BF     		.p2align 2,,3
 622              		.global	UART_Receive
 623              		.syntax unified
 624              		.thumb
 625              		.thumb_func
 626              		.fpu softvfp
 628              	UART_Receive:
 629              		@ args = 0, pretend = 0, frame = 0
 630              		@ frame_needed = 0, uses_anonymous_args = 0
 631              		@ link register save eliminated.
 632 04c4 012B     		cmp	r3, #1
 633 04c6 30B4     		push	{r4, r5}
 634 04c8 14D0     		beq	.L154
 635 04ca 6AB3     		cbz	r2, .L162
 636 04cc 4569     		ldr	r5, [r0, #20]
 637 04ce 15F00105 		ands	r5, r5, #1
 638 04d2 0CD0     		beq	.L153
 639 04d4 0A44     		add	r2, r2, r1
 640 04d6 0B46     		mov	r3, r1
 641 04d8 02E0     		b	.L156
 642              	.L161:
 643 04da 4469     		ldr	r4, [r0, #20]
 644 04dc E407     		lsls	r4, r4, #31
 645 04de 06D5     		bpl	.L153
 646              	.L156:
 647 04e0 0478     		ldrb	r4, [r0]	@ zero_extendqisi2
 648 04e2 03F8014B 		strb	r4, [r3], #1
 649 04e6 9A42     		cmp	r2, r3
 650 04e8 A3EB0105 		sub	r5, r3, r1
 651 04ec F5D1     		bne	.L161
 652              	.L153:
 653 04ee 2846     		mov	r0, r5
 654 04f0 30BC     		pop	{r4, r5}
 655 04f2 7047     		bx	lr
 656              	.L154:
 657 04f4 0025     		movs	r5, #0
 658 04f6 BAB1     		cbz	r2, .L162
 659              	.L157:
 660 04f8 4369     		ldr	r3, [r0, #20]
 661 04fa DB07     		lsls	r3, r3, #31
 662 04fc 58BF     		it	pl
 663 04fe 4FF0FF33 		movpl	r3, #-1
 664 0502 02D5     		bpl	.L159
 665 0504 07E0     		b	.L160
 666              	.L158:
 667 0506 002B     		cmp	r3, #0
 668 0508 F1D0     		beq	.L153
 669              	.L159:
 670 050a 4469     		ldr	r4, [r0, #20]
 671 050c 013B     		subs	r3, r3, #1
 672 050e E407     		lsls	r4, r4, #31
 673 0510 F9D5     		bpl	.L158
 674 0512 002B     		cmp	r3, #0
 675 0514 EBD0     		beq	.L153
 676              	.L160:
 677 0516 0378     		ldrb	r3, [r0]	@ zero_extendqisi2
 678 0518 0135     		adds	r5, r5, #1
 679 051a AA42     		cmp	r2, r5
 680 051c 01F8013B 		strb	r3, [r1], #1
 681 0520 EAD1     		bne	.L157
 682 0522 2846     		mov	r0, r5
 683 0524 30BC     		pop	{r4, r5}
 684 0526 7047     		bx	lr
 685              	.L162:
 686 0528 1546     		mov	r5, r2
 687 052a E0E7     		b	.L153
 689              		.align	1
 690              		.p2align 2,,3
 691              		.global	UART_ForceBreak
 692              		.syntax unified
 693              		.thumb
 694              		.thumb_func
 695              		.fpu softvfp
 697              	UART_ForceBreak:
 698              		@ args = 0, pretend = 0, frame = 0
 699              		@ frame_needed = 0, uses_anonymous_args = 0
 700              		@ link register save eliminated.
 701 052c 037B     		ldrb	r3, [r0, #12]	@ zero_extendqisi2
 702 052e 43F04003 		orr	r3, r3, #64
 703 0532 0373     		strb	r3, [r0, #12]
 704 0534 7047     		bx	lr
 706              		.align	1
 707 0536 00BF     		.p2align 2,,3
 708              		.global	UART_IntConfig
 709              		.syntax unified
 710              		.thumb
 711              		.thumb_func
 712              		.fpu softvfp
 714              	UART_IntConfig:
 715              		@ args = 0, pretend = 0, frame = 0
 716              		@ frame_needed = 0, uses_anonymous_args = 0
 717              		@ link register save eliminated.
 718 0538 0629     		cmp	r1, #6
 719 053a 96BF     		itet	ls
 720 053c 0B4B     		ldrls	r3, .L188
 721 053e 0023     		movhi	r3, #0
 722 0540 53F82130 		ldrls	r3, [r3, r1, lsl #2]
 723 0544 012A     		cmp	r2, #1
 724 0546 0A4A     		ldr	r2, .L188+4
 725 0548 0BD0     		beq	.L187
 726 054a 9042     		cmp	r0, r2
 727 054c 0CBF     		ite	eq
 728 054e 40F28F31 		movweq	r1, #911
 729 0552 40F20731 		movwne	r1, #775
 730 0556 DB43     		mvns	r3, r3
 731 0558 4268     		ldr	r2, [r0, #4]
 732 055a 0A40     		ands	r2, r2, r1
 733 055c 1340     		ands	r3, r3, r2
 734 055e 4360     		str	r3, [r0, #4]
 735 0560 7047     		bx	lr
 736              	.L187:
 737 0562 4268     		ldr	r2, [r0, #4]
 738 0564 1343     		orrs	r3, r3, r2
 739 0566 4360     		str	r3, [r0, #4]
 740 0568 7047     		bx	lr
 741              	.L189:
 742 056a 00BF     		.align	2
 743              	.L188:
 744 056c 00000000 		.word	.LANCHOR0
 745 0570 00000140 		.word	1073807360
 747              		.align	1
 748              		.p2align 2,,3
 749              		.global	UART_GetLineStatus
 750              		.syntax unified
 751              		.thumb
 752              		.thumb_func
 753              		.fpu softvfp
 755              	UART_GetLineStatus:
 756              		@ args = 0, pretend = 0, frame = 0
 757              		@ frame_needed = 0, uses_anonymous_args = 0
 758              		@ link register save eliminated.
 759 0574 007D     		ldrb	r0, [r0, #20]	@ zero_extendqisi2
 760 0576 C0B2     		uxtb	r0, r0
 761 0578 7047     		bx	lr
 763              		.align	1
 764 057a 00BF     		.p2align 2,,3
 765              		.global	UART_GetIntId
 766              		.syntax unified
 767              		.thumb
 768              		.thumb_func
 769              		.fpu softvfp
 771              	UART_GetIntId:
 772              		@ args = 0, pretend = 0, frame = 0
 773              		@ frame_needed = 0, uses_anonymous_args = 0
 774              		@ link register save eliminated.
 775 057c 40F2CF33 		movw	r3, #975
 776 0580 8068     		ldr	r0, [r0, #8]
 777 0582 1840     		ands	r0, r0, r3
 778 0584 7047     		bx	lr
 780              		.align	1
 781 0586 00BF     		.p2align 2,,3
 782              		.global	UART_CheckBusy
 783              		.syntax unified
 784              		.thumb
 785              		.thumb_func
 786              		.fpu softvfp
 788              	UART_CheckBusy:
 789              		@ args = 0, pretend = 0, frame = 0
 790              		@ frame_needed = 0, uses_anonymous_args = 0
 791              		@ link register save eliminated.
 792 0588 007D     		ldrb	r0, [r0, #20]	@ zero_extendqisi2
 793 058a 80F04000 		eor	r0, r0, #64
 794 058e C0F38010 		ubfx	r0, r0, #6, #1
 795 0592 7047     		bx	lr
 797              		.align	1
 798              		.p2align 2,,3
 799              		.global	UART_FIFOConfig
 800              		.syntax unified
 801              		.thumb
 802              		.thumb_func
 803              		.fpu softvfp
 805              	UART_FIFOConfig:
 806              		@ args = 0, pretend = 0, frame = 0
 807              		@ frame_needed = 0, uses_anonymous_args = 0
 808              		@ link register save eliminated.
 809 0594 CB78     		ldrb	r3, [r1, #3]	@ zero_extendqisi2
 810 0596 022B     		cmp	r3, #2
 811 0598 8EBF     		itee	hi
 812 059a C123     		movhi	r3, #193
 813 059c 0A4A     		ldrls	r2, .L203
 814 059e 9B18     		addls	r3, r3, r2
 815 05a0 4A78     		ldrb	r2, [r1, #1]	@ zero_extendqisi2
 816 05a2 98BF     		it	ls
 817 05a4 1B7F     		ldrbls	r3, [r3, #28]	@ zero_extendqisi2
 818 05a6 012A     		cmp	r2, #1
 819 05a8 0A78     		ldrb	r2, [r1]	@ zero_extendqisi2
 820 05aa 08BF     		it	eq
 821 05ac 43F00403 		orreq	r3, r3, #4
 822 05b0 012A     		cmp	r2, #1
 823 05b2 8A78     		ldrb	r2, [r1, #2]	@ zero_extendqisi2
 824 05b4 08BF     		it	eq
 825 05b6 43F00203 		orreq	r3, r3, #2
 826 05ba 012A     		cmp	r2, #1
 827 05bc 08BF     		it	eq
 828 05be 43F00803 		orreq	r3, r3, #8
 829 05c2 0372     		strb	r3, [r0, #8]
 830 05c4 7047     		bx	lr
 831              	.L204:
 832 05c6 00BF     		.align	2
 833              	.L203:
 834 05c8 00000000 		.word	.LANCHOR0
 836              		.align	1
 837              		.p2align 2,,3
 838              		.global	UART_FIFOConfigStructInit
 839              		.syntax unified
 840              		.thumb
 841              		.thumb_func
 842              		.fpu softvfp
 844              	UART_FIFOConfigStructInit:
 845              		@ args = 0, pretend = 0, frame = 0
 846              		@ frame_needed = 0, uses_anonymous_args = 0
 847              		@ link register save eliminated.
 848 05cc 0022     		movs	r2, #0
 849 05ce 0123     		movs	r3, #1
 850 05d0 8270     		strb	r2, [r0, #2]
 851 05d2 C270     		strb	r2, [r0, #3]
 852 05d4 0370     		strb	r3, [r0]
 853 05d6 4370     		strb	r3, [r0, #1]
 854 05d8 7047     		bx	lr
 856              		.align	1
 857 05da 00BF     		.p2align 2,,3
 858              		.global	UART_ABCmd
 859              		.syntax unified
 860              		.thumb
 861              		.thumb_func
 862              		.fpu softvfp
 864              	UART_ABCmd:
 865              		@ args = 0, pretend = 0, frame = 0
 866              		@ frame_needed = 0, uses_anonymous_args = 0
 867              		@ link register save eliminated.
 868 05dc 012A     		cmp	r2, #1
 869 05de 02D0     		beq	.L220
 870 05e0 0023     		movs	r3, #0
 871 05e2 0362     		str	r3, [r0, #32]
 872 05e4 7047     		bx	lr
 873              	.L220:
 874 05e6 0B78     		ldrb	r3, [r1]	@ zero_extendqisi2
 875 05e8 4A78     		ldrb	r2, [r1, #1]	@ zero_extendqisi2
 876 05ea 012B     		cmp	r3, #1
 877 05ec 0CBF     		ite	eq
 878 05ee 0223     		moveq	r3, #2
 879 05f0 0023     		movne	r3, #0
 880 05f2 0F49     		ldr	r1, .L221
 881 05f4 012A     		cmp	r2, #1
 882 05f6 08BF     		it	eq
 883 05f8 43F00403 		orreq	r3, r3, #4
 884 05fc 8842     		cmp	r0, r1
 885 05fe 4FF00001 		mov	r1, #0
 886 0602 10B4     		push	{r4}
 887 0604 4FF01004 		mov	r4, #16
 888 0608 43F00102 		orr	r2, r3, #1
 889 060c 037B     		ldrb	r3, [r0, #12]	@ zero_extendqisi2
 890 060e 43F08003 		orr	r3, r3, #128
 891 0612 0373     		strb	r3, [r0, #12]
 892 0614 0170     		strb	r1, [r0]
 893 0616 0171     		strb	r1, [r0, #4]
 894 0618 037B     		ldrb	r3, [r0, #12]	@ zero_extendqisi2
 895 061a 03F07F03 		and	r3, r3, #127
 896 061e 0373     		strb	r3, [r0, #12]
 897 0620 0CBF     		ite	eq
 898 0622 8462     		streq	r4, [r0, #40]
 899 0624 80F82840 		strbne	r4, [r0, #40]
 900 0628 0262     		str	r2, [r0, #32]
 901 062a 10BC     		pop	{r4}
 902 062c 7047     		bx	lr
 903              	.L222:
 904 062e 00BF     		.align	2
 905              	.L221:
 906 0630 00000140 		.word	1073807360
 908              		.align	1
 909              		.p2align 2,,3
 910              		.global	UART_ABClearIntPending
 911              		.syntax unified
 912              		.thumb
 913              		.thumb_func
 914              		.fpu softvfp
 916              	UART_ABClearIntPending:
 917              		@ args = 0, pretend = 0, frame = 0
 918              		@ frame_needed = 0, uses_anonymous_args = 0
 919              		@ link register save eliminated.
 920 0634 036A     		ldr	r3, [r0, #32]
 921 0636 1943     		orrs	r1, r1, r3
 922 0638 0162     		str	r1, [r0, #32]
 923 063a 7047     		bx	lr
 925              		.align	1
 926              		.p2align 2,,3
 927              		.global	UART_TxCmd
 928              		.syntax unified
 929              		.thumb
 930              		.thumb_func
 931              		.fpu softvfp
 933              	UART_TxCmd:
 934              		@ args = 0, pretend = 0, frame = 0
 935              		@ frame_needed = 0, uses_anonymous_args = 0
 936              		@ link register save eliminated.
 937 063c 0129     		cmp	r1, #1
 938 063e 134B     		ldr	r3, .L236
 939 0640 0DD0     		beq	.L233
 940 0642 9842     		cmp	r0, r3
 941 0644 17D0     		beq	.L234
 942 0646 124B     		ldr	r3, .L236+4
 943 0648 9842     		cmp	r0, r3
 944 064a 4FF00003 		mov	r3, #0
 945 064e 0BBF     		itete	eq
 946 0650 C26D     		ldreq	r2, [r0, #92]
 947 0652 90F83020 		ldrbne	r2, [r0, #48]	@ zero_extendqisi2
 948 0656 C365     		streq	r3, [r0, #92]
 949 0658 80F83030 		strbne	r3, [r0, #48]
 950 065c 7047     		bx	lr
 951              	.L233:
 952 065e 9842     		cmp	r0, r3
 953 0660 02D0     		beq	.L230
 954 0662 0B4B     		ldr	r3, .L236+4
 955 0664 9842     		cmp	r0, r3
 956 0666 0CD0     		beq	.L235
 957              	.L230:
 958 0668 90F83030 		ldrb	r3, [r0, #48]	@ zero_extendqisi2
 959 066c 43F08003 		orr	r3, r3, #128
 960 0670 80F83030 		strb	r3, [r0, #48]
 961 0674 7047     		bx	lr
 962              	.L234:
 963 0676 0023     		movs	r3, #0
 964 0678 90F83020 		ldrb	r2, [r0, #48]	@ zero_extendqisi2
 965 067c 80F83030 		strb	r3, [r0, #48]
 966 0680 7047     		bx	lr
 967              	.L235:
 968 0682 C36D     		ldr	r3, [r0, #92]
 969 0684 43F00103 		orr	r3, r3, #1
 970 0688 C365     		str	r3, [r0, #92]
 971 068a 7047     		bx	lr
 972              	.L237:
 973              		.align	2
 974              	.L236:
 975 068c 00000140 		.word	1073807360
 976 0690 00400A40 		.word	1074413568
 978              		.align	1
 979              		.p2align 2,,3
 980              		.global	UART_IrDAInvtInputCmd
 981              		.syntax unified
 982              		.thumb
 983              		.thumb_func
 984              		.fpu softvfp
 986              	UART_IrDAInvtInputCmd:
 987              		@ args = 0, pretend = 0, frame = 0
 988              		@ frame_needed = 0, uses_anonymous_args = 0
 989              		@ link register save eliminated.
 990 0694 0129     		cmp	r1, #1
 991 0696 07D0     		beq	.L241
 992 0698 29B9     		cbnz	r1, .L238
 993 069a 90F82430 		ldrb	r3, [r0, #36]	@ zero_extendqisi2
 994 069e 03F03D03 		and	r3, r3, #61
 995 06a2 80F82430 		strb	r3, [r0, #36]
 996              	.L238:
 997 06a6 7047     		bx	lr
 998              	.L241:
 999 06a8 90F82430 		ldrb	r3, [r0, #36]	@ zero_extendqisi2
 1000 06ac 43F00203 		orr	r3, r3, #2
 1001 06b0 80F82430 		strb	r3, [r0, #36]
 1002 06b4 7047     		bx	lr
 1004              		.align	1
 1005 06b6 00BF     		.p2align 2,,3
 1006              		.global	UART_IrDACmd
 1007              		.syntax unified
 1008              		.thumb
 1009              		.thumb_func
 1010              		.fpu softvfp
 1012              	UART_IrDACmd:
 1013              		@ args = 0, pretend = 0, frame = 0
 1014              		@ frame_needed = 0, uses_anonymous_args = 0
 1015              		@ link register save eliminated.
 1016 06b8 90F82430 		ldrb	r3, [r0, #36]	@ zero_extendqisi2
 1017 06bc 0129     		cmp	r1, #1
 1018 06be 0CBF     		ite	eq
 1019 06c0 43F00103 		orreq	r3, r3, #1
 1020 06c4 03F03E03 		andne	r3, r3, #62
 1021 06c8 80F82430 		strb	r3, [r0, #36]
 1022 06cc 7047     		bx	lr
 1024              		.align	1
 1025 06ce 00BF     		.p2align 2,,3
 1026              		.global	UART_IrDAPulseDivConfig
 1027              		.syntax unified
 1028              		.thumb
 1029              		.thumb_func
 1030              		.fpu softvfp
 1032              	UART_IrDAPulseDivConfig:
 1033              		@ args = 0, pretend = 0, frame = 0
 1034              		@ frame_needed = 0, uses_anonymous_args = 0
 1035              		@ link register save eliminated.
 1036 06d0 90F82430 		ldrb	r3, [r0, #36]	@ zero_extendqisi2
 1037 06d4 C900     		lsls	r1, r1, #3
 1038 06d6 03F0C703 		and	r3, r3, #199
 1039 06da 01F03801 		and	r1, r1, #56
 1040 06de 43F00403 		orr	r3, r3, #4
 1041 06e2 1943     		orrs	r1, r1, r3
 1042 06e4 01F03F01 		and	r1, r1, #63
 1043 06e8 80F82410 		strb	r1, [r0, #36]
 1044 06ec 7047     		bx	lr
 1046              		.align	1
 1047 06ee 00BF     		.p2align 2,,3
 1048              		.global	UART_FullModemForcePinState
 1049              		.syntax unified
 1050              		.thumb
 1051              		.thumb_func
 1052              		.fpu softvfp
 1054              	UART_FullModemForcePinState:
 1055              		@ args = 0, pretend = 0, frame = 0
 1056              		@ frame_needed = 0, uses_anonymous_args = 0
 1057              		@ link register save eliminated.
 1058 06f0 61B1     		cbz	r1, .L248
 1059 06f2 0129     		cmp	r1, #1
 1060 06f4 0CBF     		ite	eq
 1061 06f6 0221     		moveq	r1, #2
 1062 06f8 0021     		movne	r1, #0
 1063              	.L247:
 1064 06fa 037C     		ldrb	r3, [r0, #16]	@ zero_extendqisi2
 1065 06fc 012A     		cmp	r2, #1
 1066 06fe 16BF     		itet	ne
 1067 0700 03F0F303 		andne	r3, r3, #243
 1068 0704 0B43     		orreq	r3, r3, r1
 1069 0706 8B43     		bicne	r3, r3, r1
 1070 0708 0374     		strb	r3, [r0, #16]
 1071 070a 7047     		bx	lr
 1072              	.L248:
 1073 070c 0121     		movs	r1, #1
 1074 070e F4E7     		b	.L247
 1076              		.align	1
 1077              		.p2align 2,,3
 1078              		.global	UART_FullModemConfigMode
 1079              		.syntax unified
 1080              		.thumb
 1081              		.thumb_func
 1082              		.fpu softvfp
 1084              	UART_FullModemConfigMode:
 1085              		@ args = 0, pretend = 0, frame = 0
 1086              		@ frame_needed = 0, uses_anonymous_args = 0
 1087              		@ link register save eliminated.
 1088 0710 0229     		cmp	r1, #2
 1089 0712 8EBF     		itee	hi
 1090 0714 0021     		movhi	r1, #0
 1091 0716 074B     		ldrls	r3, .L258
 1092 0718 C918     		addls	r1, r1, r3
 1093 071a 037C     		ldrb	r3, [r0, #16]	@ zero_extendqisi2
 1094 071c 98BF     		it	ls
 1095 071e 91F82010 		ldrbls	r1, [r1, #32]	@ zero_extendqisi2
 1096 0722 012A     		cmp	r2, #1
 1097 0724 16BF     		itet	ne
 1098 0726 03F0F303 		andne	r3, r3, #243
 1099 072a 0B43     		orreq	r3, r3, r1
 1100 072c 8B43     		bicne	r3, r3, r1
 1101 072e 0374     		strb	r3, [r0, #16]
 1102 0730 7047     		bx	lr
 1103              	.L259:
 1104 0732 00BF     		.align	2
 1105              	.L258:
 1106 0734 00000000 		.word	.LANCHOR0
 1108              		.align	1
 1109              		.p2align 2,,3
 1110              		.global	UART_FullModemGetStatus
 1111              		.syntax unified
 1112              		.thumb
 1113              		.thumb_func
 1114              		.fpu softvfp
 1116              	UART_FullModemGetStatus:
 1117              		@ args = 0, pretend = 0, frame = 0
 1118              		@ frame_needed = 0, uses_anonymous_args = 0
 1119              		@ link register save eliminated.
 1120 0738 007E     		ldrb	r0, [r0, #24]	@ zero_extendqisi2
 1121 073a 7047     		bx	lr
 1123              		.align	1
 1124              		.p2align 2,,3
 1125              		.global	UART_RS485Config
 1126              		.syntax unified
 1127              		.thumb
 1128              		.thumb_func
 1129              		.fpu softvfp
 1131              	UART_RS485Config:
 1132              		@ args = 0, pretend = 0, frame = 0
 1133              		@ frame_needed = 0, uses_anonymous_args = 0
 1134              		@ link register save eliminated.
 1135 073c CB78     		ldrb	r3, [r1, #3]	@ zero_extendqisi2
 1136 073e 012B     		cmp	r3, #1
 1137 0740 19D0     		beq	.L270
 1138 0742 0023     		movs	r3, #0
 1139              	.L262:
 1140 0744 0A78     		ldrb	r2, [r1]	@ zero_extendqisi2
 1141 0746 012A     		cmp	r2, #1
 1142 0748 8A78     		ldrb	r2, [r1, #2]	@ zero_extendqisi2
 1143 074a 08BF     		it	eq
 1144 074c 43F00103 		orreq	r3, r3, #1
 1145 0750 012A     		cmp	r2, #1
 1146 0752 04D1     		bne	.L266
 1147 0754 8A79     		ldrb	r2, [r1, #6]	@ zero_extendqisi2
 1148 0756 43F00403 		orr	r3, r3, #4
 1149 075a 80F85020 		strb	r2, [r0, #80]
 1150              	.L266:
 1151 075e 4A78     		ldrb	r2, [r1, #1]	@ zero_extendqisi2
 1152 0760 0AB9     		cbnz	r2, .L267
 1153 0762 43F00203 		orr	r3, r3, #2
 1154              	.L267:
 1155 0766 DBB2     		uxtb	r3, r3
 1156 0768 80F84C30 		strb	r3, [r0, #76]
 1157 076c 037B     		ldrb	r3, [r0, #12]	@ zero_extendqisi2
 1158 076e 43F03803 		orr	r3, r3, #56
 1159 0772 0373     		strb	r3, [r0, #12]
 1160 0774 7047     		bx	lr
 1161              	.L270:
 1162 0776 4B79     		ldrb	r3, [r1, #5]	@ zero_extendqisi2
 1163 0778 0A79     		ldrb	r2, [r1, #4]	@ zero_extendqisi2
 1164 077a 012B     		cmp	r3, #1
 1165 077c 14BF     		ite	ne
 1166 077e 1023     		movne	r3, #16
 1167 0780 3023     		moveq	r3, #48
 1168 0782 012A     		cmp	r2, #1
 1169 0784 04D1     		bne	.L264
 1170 0786 044A     		ldr	r2, .L271
 1171 0788 9042     		cmp	r0, r2
 1172 078a 08BF     		it	eq
 1173 078c 43F00803 		orreq	r3, r3, #8
 1174              	.L264:
 1175 0790 CA79     		ldrb	r2, [r1, #7]	@ zero_extendqisi2
 1176 0792 80F85420 		strb	r2, [r0, #84]
 1177 0796 D5E7     		b	.L262
 1178              	.L272:
 1179              		.align	2
 1180              	.L271:
 1181 0798 00000140 		.word	1073807360
 1183              		.align	1
 1184              		.p2align 2,,3
 1185              		.global	UART_RS485ReceiverCmd
 1186              		.syntax unified
 1187              		.thumb
 1188              		.thumb_func
 1189              		.fpu softvfp
 1191              	UART_RS485ReceiverCmd:
 1192              		@ args = 0, pretend = 0, frame = 0
 1193              		@ frame_needed = 0, uses_anonymous_args = 0
 1194              		@ link register save eliminated.
 1195 079c 90F84C30 		ldrb	r3, [r0, #76]	@ zero_extendqisi2
 1196 07a0 0129     		cmp	r1, #1
 1197 07a2 0CBF     		ite	eq
 1198 07a4 03F0FD03 		andeq	r3, r3, #253
 1199 07a8 43F00203 		orrne	r3, r3, #2
 1200 07ac 80F84C30 		strb	r3, [r0, #76]
 1201 07b0 7047     		bx	lr
 1203              		.align	1
 1204 07b2 00BF     		.p2align 2,,3
 1205              		.global	UART_RS485Send
 1206              		.syntax unified
 1207              		.thumb
 1208              		.thumb_func
 1209              		.fpu softvfp
 1211              	UART_RS485Send:
 1212              		@ args = 0, pretend = 0, frame = 0
 1213              		@ frame_needed = 0, uses_anonymous_args = 0
 1214 07b4 38B5     		push	{r3, r4, r5, lr}
 1215 07b6 0446     		mov	r4, r0
 1216 07b8 5BB1     		cbz	r3, .L277
 1217 07ba 057B     		ldrb	r5, [r0, #12]	@ zero_extendqisi2
 1218 07bc EDB2     		uxtb	r5, r5
 1219 07be 05F0EF03 		and	r3, r5, #239
 1220 07c2 0373     		strb	r3, [r0, #12]
 1221 07c4 FFF71CFC 		bl	UART_Send.part.0
 1222              	.L278:
 1223 07c8 237D     		ldrb	r3, [r4, #20]	@ zero_extendqisi2
 1224 07ca 5A06     		lsls	r2, r3, #25
 1225 07cc FCD5     		bpl	.L278
 1226 07ce 2573     		strb	r5, [r4, #12]
 1227 07d0 38BD     		pop	{r3, r4, r5, pc}
 1228              	.L277:
 1229 07d2 FFF715FC 		bl	UART_Send.part.0
 1230              	.L280:
 1231 07d6 237D     		ldrb	r3, [r4, #20]	@ zero_extendqisi2
 1232 07d8 5B06     		lsls	r3, r3, #25
 1233 07da FCD5     		bpl	.L280
 1234 07dc 38BD     		pop	{r3, r4, r5, pc}
 1236              		.align	1
 1237 07de 00BF     		.p2align 2,,3
 1238              		.global	UART_RS485SendSlvAddr
 1239              		.syntax unified
 1240              		.thumb
 1241              		.thumb_func
 1242              		.fpu softvfp
 1244              	UART_RS485SendSlvAddr:
 1245              		@ args = 0, pretend = 0, frame = 8
 1246              		@ frame_needed = 0, uses_anonymous_args = 0
 1247 07e0 30B5     		push	{r4, r5, lr}
 1248 07e2 057B     		ldrb	r5, [r0, #12]	@ zero_extendqisi2
 1249 07e4 83B0     		sub	sp, sp, #12
 1250 07e6 02AB     		add	r3, sp, #8
 1251 07e8 EDB2     		uxtb	r5, r5
 1252 07ea 05F0EF02 		and	r2, r5, #239
 1253 07ee 03F8011D 		strb	r1, [r3, #-1]!
 1254 07f2 0273     		strb	r2, [r0, #12]
 1255 07f4 1946     		mov	r1, r3
 1256 07f6 0122     		movs	r2, #1
 1257 07f8 0446     		mov	r4, r0
 1258 07fa FFF701FC 		bl	UART_Send.part.0
 1259              	.L287:
 1260 07fe 237D     		ldrb	r3, [r4, #20]	@ zero_extendqisi2
 1261 0800 5B06     		lsls	r3, r3, #25
 1262 0802 FCD5     		bpl	.L287
 1263 0804 2573     		strb	r5, [r4, #12]
 1264 0806 03B0     		add	sp, sp, #12
 1265              		@ sp needed
 1266 0808 30BD     		pop	{r4, r5, pc}
 1268              		.align	1
 1269 080a 00BF     		.p2align 2,,3
 1270              		.global	UART_RS485SendData
 1271              		.syntax unified
 1272              		.thumb
 1273              		.thumb_func
 1274              		.fpu softvfp
 1276              	UART_RS485SendData:
 1277              		@ args = 0, pretend = 0, frame = 0
 1278              		@ frame_needed = 0, uses_anonymous_args = 0
 1279 080c 10B5     		push	{r4, lr}
 1280 080e 0446     		mov	r4, r0
 1281 0810 FFF7F6FB 		bl	UART_Send.part.0
 1282              	.L292:
 1283 0814 237D     		ldrb	r3, [r4, #20]	@ zero_extendqisi2
 1284 0816 5B06     		lsls	r3, r3, #25
 1285 0818 FCD5     		bpl	.L292
 1286 081a 10BD     		pop	{r4, pc}
 1288              		.section	.rodata
 1289              		.align	2
 1290              		.set	.LANCHOR0,. + 0
 1293              	CSWTCH.16:
 1294 0000 01000000 		.word	1
 1295 0004 02000000 		.word	2
 1296 0008 04000000 		.word	4
 1297 000c 08000000 		.word	8
 1298 0010 80000000 		.word	128
 1299 0014 00010000 		.word	256
 1300 0018 00020000 		.word	512
 1303              	CSWTCH.21:
 1304 001c 01       		.byte	1
 1305 001d 41       		.byte	65
 1306 001e 81       		.byte	-127
 1307 001f 00       		.space	1
 1310              	CSWTCH.32:
 1311 0020 10       		.byte	16
 1312 0021 40       		.byte	64
 1313 0022 80       		.byte	-128
 1314              		.ident	"GCC: (GNU Tools for Arm Embedded Processors 7-2018-q3-update) 7.3.1 20180622 (release) [AR