   1              		.cpu cortex-m3
   2              		.eabi_attribute 20, 1
   3              		.eabi_attribute 21, 1
   4              		.eabi_attribute 23, 3
   5              		.eabi_attribute 24, 1
   6              		.eabi_attribute 25, 1
   7              		.eabi_attribute 26, 1
   8              		.eabi_attribute 30, 2
   9              		.eabi_attribute 34, 1
  10              		.eabi_attribute 18, 4
  11              		.file	"lpc177x_8x_ssp.c"
  12              		.text
  13              		.align	1
  14              		.p2align 2,,3
  15              		.global	SSP_Init
  16              		.syntax unified
  17              		.thumb
  18              		.thumb_func
  19              		.fpu softvfp
  21              	SSP_Init:
  22              		@ args = 0, pretend = 0, frame = 0
  23              		@ frame_needed = 0, uses_anonymous_args = 0
  24 0000 264B     		ldr	r3, .L17
  25 0002 70B5     		push	{r4, r5, r6, lr}
  26 0004 9842     		cmp	r0, r3
  27 0006 0546     		mov	r5, r0
  28 0008 0C46     		mov	r4, r1
  29 000a 3BD0     		beq	.L14
  30 000c 244B     		ldr	r3, .L17+4
  31 000e 9842     		cmp	r0, r3
  32 0010 3ED0     		beq	.L15
  33 0012 244B     		ldr	r3, .L17+8
  34 0014 9842     		cmp	r0, r3
  35 0016 00D0     		beq	.L16
  36 0018 70BD     		pop	{r4, r5, r6, pc}
  37              	.L16:
  38 001a 0121     		movs	r1, #1
  39 001c 4FF48010 		mov	r0, #1048576
  40 0020 FFF7FEFF 		bl	CLKPWR_ConfigPPWR
  41              	.L3:
  42 0024 D4E90131 		ldrd	r3, r1, [r4, #4]
  43 0028 2269     		ldr	r2, [r4, #16]
  44 002a 0B43     		orrs	r3, r3, r1
  45 002c 2168     		ldr	r1, [r4]
  46 002e 1343     		orrs	r3, r3, r2
  47 0030 E268     		ldr	r2, [r4, #12]
  48 0032 0B43     		orrs	r3, r3, r1
  49 0034 6669     		ldr	r6, [r4, #20]
  50 0036 9BB2     		uxth	r3, r3
  51 0038 02F00F02 		and	r2, r2, #15
  52 003c 2B60     		str	r3, [r5]
  53 003e 0120     		movs	r0, #1
  54 0040 6A60     		str	r2, [r5, #4]
  55 0042 FFF7FEFF 		bl	CLKPWR_GetCLK
  56 0046 731C     		adds	r3, r6, #1
  57 0048 4FF00201 		mov	r1, #2
  58 004c 4FF00002 		mov	r2, #0
  59 0050 09D0     		beq	.L6
  60              	.L9:
  61 0052 541C     		adds	r4, r2, #1
  62 0054 01FB04F3 		mul	r3, r1, r4
  63 0058 B0FBF3F3 		udiv	r3, r0, r3
  64 005c 9E42     		cmp	r6, r3
  65 005e 0AD3     		bcc	.L7
  66 0060 1202     		lsls	r2, r2, #8
  67 0062 92B2     		uxth	r2, r2
  68 0064 C9B2     		uxtb	r1, r1
  69              	.L6:
  70 0066 2B68     		ldr	r3, [r5]
  71 0068 DBB2     		uxtb	r3, r3
  72 006a 2B60     		str	r3, [r5]
  73 006c 2B68     		ldr	r3, [r5]
  74 006e 1A43     		orrs	r2, r2, r3
  75 0070 2A60     		str	r2, [r5]
  76 0072 2961     		str	r1, [r5, #16]
  77 0074 70BD     		pop	{r4, r5, r6, pc}
  78              	.L7:
  79 0076 FF2C     		cmp	r4, #255
  80 0078 02D9     		bls	.L11
  81 007a 0231     		adds	r1, r1, #2
  82 007c 0022     		movs	r2, #0
  83 007e E8E7     		b	.L9
  84              	.L11:
  85 0080 2246     		mov	r2, r4
  86 0082 E6E7     		b	.L9
  87              	.L14:
  88 0084 0121     		movs	r1, #1
  89 0086 4FF40010 		mov	r0, #2097152
  90 008a FFF7FEFF 		bl	CLKPWR_ConfigPPWR
  91 008e C9E7     		b	.L3
  92              	.L15:
  93 0090 0121     		movs	r1, #1
  94 0092 4FF48060 		mov	r0, #1024
  95 0096 FFF7FEFF 		bl	CLKPWR_ConfigPPWR
  96 009a C3E7     		b	.L3
  97              	.L18:
  98              		.align	2
  99              	.L17:
 100 009c 00800840 		.word	1074298880
 101 00a0 00000340 		.word	1073938432
 102 00a4 00C00A40 		.word	1074446336
 104              		.align	1
 105              		.p2align 2,,3
 106              		.global	SSP_DeInit
 107              		.syntax unified
 108              		.thumb
 109              		.thumb_func
 110              		.fpu softvfp
 112              	SSP_DeInit:
 113              		@ args = 0, pretend = 0, frame = 0
 114              		@ frame_needed = 0, uses_anonymous_args = 0
 115              		@ link register save eliminated.
 116 00a8 0C4B     		ldr	r3, .L26
 117 00aa 9842     		cmp	r0, r3
 118 00ac 06D0     		beq	.L23
 119 00ae 0C4B     		ldr	r3, .L26+4
 120 00b0 9842     		cmp	r0, r3
 121 00b2 0DD0     		beq	.L24
 122 00b4 0B4B     		ldr	r3, .L26+8
 123 00b6 9842     		cmp	r0, r3
 124 00b8 05D0     		beq	.L25
 125 00ba 7047     		bx	lr
 126              	.L23:
 127 00bc 0021     		movs	r1, #0
 128 00be 4FF40010 		mov	r0, #2097152
 129 00c2 FFF7FEBF 		b	CLKPWR_ConfigPPWR
 130              	.L25:
 131 00c6 0021     		movs	r1, #0
 132 00c8 4FF48010 		mov	r0, #1048576
 133 00cc FFF7FEBF 		b	CLKPWR_ConfigPPWR
 134              	.L24:
 135 00d0 0021     		movs	r1, #0
 136 00d2 4FF48060 		mov	r0, #1024
 137 00d6 FFF7FEBF 		b	CLKPWR_ConfigPPWR
 138              	.L27:
 139 00da 00BF     		.align	2
 140              	.L26:
 141 00dc 00800840 		.word	1074298880
 142 00e0 00000340 		.word	1073938432
 143 00e4 00C00A40 		.word	1074446336
 145              		.align	1
 146              		.p2align 2,,3
 147              		.global	SSP_GetDataSize
 148              		.syntax unified
 149              		.thumb
 150              		.thumb_func
 151              		.fpu softvfp
 153              	SSP_GetDataSize:
 154              		@ args = 0, pretend = 0, frame = 0
 155              		@ frame_needed = 0, uses_anonymous_args = 0
 156              		@ link register save eliminated.
 157 00e8 0068     		ldr	r0, [r0]
 158 00ea 00F00F00 		and	r0, r0, #15
 159 00ee 7047     		bx	lr
 161              		.align	1
 162              		.p2align 2,,3
 163              		.global	SSP_ConfigStructInit
 164              		.syntax unified
 165              		.thumb
 166              		.thumb_func
 167              		.fpu softvfp
 169              	SSP_ConfigStructInit:
 170              		@ args = 0, pretend = 0, frame = 0
 171              		@ frame_needed = 0, uses_anonymous_args = 0
 172              		@ link register save eliminated.
 173 00f0 0023     		movs	r3, #0
 174 00f2 0721     		movs	r1, #7
 175 00f4 034A     		ldr	r2, .L30
 176 00f6 0160     		str	r1, [r0]
 177 00f8 4261     		str	r2, [r0, #20]
 178 00fa C0E90133 		strd	r3, r3, [r0, #4]
 179 00fe C0E90333 		strd	r3, r3, [r0, #12]
 180 0102 7047     		bx	lr
 181              	.L31:
 182              		.align	2
 183              	.L30:
 184 0104 40420F00 		.word	1000000
 186              		.align	1
 187              		.p2align 2,,3
 188              		.global	SSP_Cmd
 189              		.syntax unified
 190              		.thumb
 191              		.thumb_func
 192              		.fpu softvfp
 194              	SSP_Cmd:
 195              		@ args = 0, pretend = 0, frame = 0
 196              		@ frame_needed = 0, uses_anonymous_args = 0
 197              		@ link register save eliminated.
 198 0108 4368     		ldr	r3, [r0, #4]
 199 010a 0129     		cmp	r1, #1
 200 010c 0CBF     		ite	eq
 201 010e 43F00203 		orreq	r3, r3, #2
 202 0112 03F00D03 		andne	r3, r3, #13
 203 0116 4360     		str	r3, [r0, #4]
 204 0118 7047     		bx	lr
 206              		.align	1
 207 011a 00BF     		.p2align 2,,3
 208              		.global	SSP_LoopBackCmd
 209              		.syntax unified
 210              		.thumb
 211              		.thumb_func
 212              		.fpu softvfp
 214              	SSP_LoopBackCmd:
 215              		@ args = 0, pretend = 0, frame = 0
 216              		@ frame_needed = 0, uses_anonymous_args = 0
 217              		@ link register save eliminated.
 218 011c 4368     		ldr	r3, [r0, #4]
 219 011e 0129     		cmp	r1, #1
 220 0120 0CBF     		ite	eq
 221 0122 43F00103 		orreq	r3, r3, #1
 222 0126 03F00E03 		andne	r3, r3, #14
 223 012a 4360     		str	r3, [r0, #4]
 224 012c 7047     		bx	lr
 226              		.align	1
 227 012e 00BF     		.p2align 2,,3
 228              		.global	SSP_SlaveOutputCmd
 229              		.syntax unified
 230              		.thumb
 231              		.thumb_func
 232              		.fpu softvfp
 234              	SSP_SlaveOutputCmd:
 235              		@ args = 0, pretend = 0, frame = 0
 236              		@ frame_needed = 0, uses_anonymous_args = 0
 237              		@ link register save eliminated.
 238 0130 4368     		ldr	r3, [r0, #4]
 239 0132 0129     		cmp	r1, #1
 240 0134 0CBF     		ite	eq
 241 0136 03F00703 		andeq	r3, r3, #7
 242 013a 43F00803 		orrne	r3, r3, #8
 243 013e 4360     		str	r3, [r0, #4]
 244 0140 7047     		bx	lr
 246              		.align	1
 247 0142 00BF     		.p2align 2,,3
 248              		.global	SSP_SendData
 249              		.syntax unified
 250              		.thumb
 251              		.thumb_func
 252              		.fpu softvfp
 254              	SSP_SendData:
 255              		@ args = 0, pretend = 0, frame = 0
 256              		@ frame_needed = 0, uses_anonymous_args = 0
 257              		@ link register save eliminated.
 258 0144 8160     		str	r1, [r0, #8]
 259 0146 7047     		bx	lr
 261              		.align	1
 262              		.p2align 2,,3
 263              		.global	SSP_ReceiveData
 264              		.syntax unified
 265              		.thumb
 266              		.thumb_func
 267              		.fpu softvfp
 269              	SSP_ReceiveData:
 270              		@ args = 0, pretend = 0, frame = 0
 271              		@ frame_needed = 0, uses_anonymous_args = 0
 272              		@ link register save eliminated.
 273 0148 8068     		ldr	r0, [r0, #8]
 274 014a 80B2     		uxth	r0, r0
 275 014c 7047     		bx	lr
 277              		.align	1
 278 014e 00BF     		.p2align 2,,3
 279              		.global	SSP_ReadWrite
 280              		.syntax unified
 281              		.thumb
 282              		.thumb_func
 283              		.fpu softvfp
 285              	SSP_ReadWrite:
 286              		@ args = 0, pretend = 0, frame = 0
 287              		@ frame_needed = 0, uses_anonymous_args = 0
 288 0150 0023     		movs	r3, #0
 289 0152 2DE9F047 		push	{r4, r5, r6, r7, r8, r9, r10, lr}
 290 0156 0446     		mov	r4, r0
 291 0158 C068     		ldr	r0, [r0, #12]
 292 015a CB60     		str	r3, [r1, #12]
 293 015c 4B60     		str	r3, [r1, #4]
 294 015e 4B61     		str	r3, [r1, #20]
 295 0160 4307     		lsls	r3, r0, #29
 296 0162 03D5     		bpl	.L44
 297              	.L45:
 298 0164 A368     		ldr	r3, [r4, #8]
 299 0166 E368     		ldr	r3, [r4, #12]
 300 0168 5F07     		lsls	r7, r3, #29
 301 016a FBD4     		bmi	.L45
 302              	.L44:
 303 016c 0323     		movs	r3, #3
 304 016e 2362     		str	r3, [r4, #32]
 305 0170 2368     		ldr	r3, [r4]
 306 0172 03F00F03 		and	r3, r3, #15
 307 0176 082B     		cmp	r3, #8
 308 0178 09D9     		bls	.L46
 309 017a 002A     		cmp	r2, #0
 310 017c 40F08A80 		bne	.L106
 311 0180 9446     		mov	ip, r2
 312 0182 8F68     		ldr	r7, [r1, #8]
 313 0184 0122     		movs	r2, #1
 314 0186 E246     		mov	r10, ip
 315 0188 D1F800E0 		ldr	lr, [r1]
 316 018c 46E0     		b	.L49
 317              	.L46:
 318 018e 002A     		cmp	r2, #0
 319 0190 3ED0     		beq	.L107
 320 0192 0026     		movs	r6, #0
 321              	.L48:
 322 0194 012A     		cmp	r2, #1
 323 0196 40F0C380 		bne	.L89
 324 019a 4FF6FF7C 		movw	ip, #65535
 325 019e FF27     		movs	r7, #255
 326 01a0 0D69     		ldr	r5, [r1, #16]
 327              	.L67:
 328 01a2 E368     		ldr	r3, [r4, #12]
 329 01a4 9A07     		lsls	r2, r3, #30
 330 01a6 27D5     		bpl	.L81
 331              	.L111:
 332 01a8 4B68     		ldr	r3, [r1, #4]
 333 01aa AB42     		cmp	r3, r5
 334 01ac 80F0AF80 		bcs	.L108
 335 01b0 0A68     		ldr	r2, [r1]
 336 01b2 002A     		cmp	r2, #0
 337 01b4 00F08480 		beq	.L109
 338 01b8 002E     		cmp	r6, #0
 339 01ba 7CD1     		bne	.L71
 340 01bc D25C     		ldrb	r2, [r2, r3]	@ zero_extendqisi2
 341 01be 0133     		adds	r3, r3, #1
 342 01c0 A260     		str	r2, [r4, #8]
 343 01c2 4B60     		str	r3, [r1, #4]
 344              	.L70:
 345 01c4 A369     		ldr	r3, [r4, #24]
 346 01c6 DA07     		lsls	r2, r3, #31
 347 01c8 5DD4     		bmi	.L104
 348              	.L73:
 349 01ca E368     		ldr	r3, [r4, #12]
 350 01cc 5807     		lsls	r0, r3, #29
 351 01ce E8D5     		bpl	.L67
 352              	.L110:
 353 01d0 CB68     		ldr	r3, [r1, #12]
 354 01d2 AB42     		cmp	r3, r5
 355 01d4 E5D2     		bcs	.L67
 356 01d6 8A68     		ldr	r2, [r1, #8]
 357 01d8 A068     		ldr	r0, [r4, #8]
 358 01da 002A     		cmp	r2, #0
 359 01dc 68D0     		beq	.L74
 360 01de 002E     		cmp	r6, #0
 361 01e0 62D1     		bne	.L75
 362 01e2 D054     		strb	r0, [r2, r3]
 363 01e4 D1E90335 		ldrd	r3, r5, [r1, #12]
 364              	.L76:
 365 01e8 0133     		adds	r3, r3, #1
 366 01ea CB60     		str	r3, [r1, #12]
 367 01ec E368     		ldr	r3, [r4, #12]
 368 01ee 5807     		lsls	r0, r3, #29
 369 01f0 EED4     		bmi	.L110
 370 01f2 E368     		ldr	r3, [r4, #12]
 371 01f4 9A07     		lsls	r2, r3, #30
 372 01f6 D7D4     		bmi	.L111
 373              	.L81:
 374 01f8 CB68     		ldr	r3, [r1, #12]
 375 01fa AB42     		cmp	r3, r5
 376 01fc 03D3     		bcc	.L84
 377 01fe 4B68     		ldr	r3, [r1, #4]
 378 0200 AB42     		cmp	r3, r5
 379 0202 80F08880 		bcs	.L85
 380              	.L84:
 381 0206 0F23     		movs	r3, #15
 382 0208 0020     		movs	r0, #0
 383 020a 6361     		str	r3, [r4, #20]
 384 020c BDE8F087 		pop	{r4, r5, r6, r7, r8, r9, r10, pc}
 385              	.L107:
 386 0210 9646     		mov	lr, r2
 387 0212 1746     		mov	r7, r2
 388 0214 D1F808A0 		ldr	r10, [r1, #8]
 389 0218 D1F800C0 		ldr	ip, [r1]
 390              	.L49:
 391 021c 0020     		movs	r0, #0
 392 021e 0D69     		ldr	r5, [r1, #16]
 393 0220 4FF6FF79 		movw	r9, #65535
 394 0224 A842     		cmp	r0, r5
 395 0226 4FF0FF08 		mov	r8, #255
 396 022a 1CD3     		bcc	.L64
 397              	.L114:
 398 022c CB68     		ldr	r3, [r1, #12]
 399 022e AB42     		cmp	r3, r5
 400 0230 61D2     		bcs	.L112
 401 0232 E368     		ldr	r3, [r4, #12]
 402              	.L51:
 403 0234 A369     		ldr	r3, [r4, #24]
 404 0236 DE07     		lsls	r6, r3, #31
 405 0238 25D4     		bmi	.L104
 406              	.L55:
 407 023a E368     		ldr	r3, [r4, #12]
 408 023c 5807     		lsls	r0, r3, #29
 409 023e 0FD5     		bpl	.L62
 410              	.L113:
 411 0240 CB68     		ldr	r3, [r1, #12]
 412 0242 AB42     		cmp	r3, r5
 413 0244 0CD2     		bcs	.L62
 414 0246 8E68     		ldr	r6, [r1, #8]
 415 0248 A068     		ldr	r0, [r4, #8]
 416 024a 56B3     		cbz	r6, .L57
 417 024c 22BB     		cbnz	r2, .L58
 418 024e 0AF8010B 		strb	r0, [r10], #1
 419 0252 D1E90335 		ldrd	r3, r5, [r1, #12]
 420              	.L59:
 421 0256 0133     		adds	r3, r3, #1
 422 0258 CB60     		str	r3, [r1, #12]
 423 025a E368     		ldr	r3, [r4, #12]
 424 025c 5807     		lsls	r0, r3, #29
 425 025e EFD4     		bmi	.L113
 426              	.L62:
 427 0260 4868     		ldr	r0, [r1, #4]
 428 0262 A842     		cmp	r0, r5
 429 0264 E2D2     		bcs	.L114
 430              	.L64:
 431 0266 E368     		ldr	r3, [r4, #12]
 432 0268 9B07     		lsls	r3, r3, #30
 433 026a E3D5     		bpl	.L51
 434 026c 0B68     		ldr	r3, [r1]
 435 026e 002B     		cmp	r3, #0
 436 0270 36D0     		beq	.L115
 437 0272 002A     		cmp	r2, #0
 438 0274 2ED1     		bne	.L54
 439 0276 1CF8013B 		ldrb	r3, [ip], #1	@ zero_extendqisi2
 440 027a 0130     		adds	r0, r0, #1
 441 027c A360     		str	r3, [r4, #8]
 442 027e A369     		ldr	r3, [r4, #24]
 443 0280 4860     		str	r0, [r1, #4]
 444 0282 DE07     		lsls	r6, r3, #31
 445 0284 D9D5     		bpl	.L55
 446              	.L104:
 447 0286 4FF0FF30 		mov	r0, #-1
 448 028a 43F40073 		orr	r3, r3, #512
 449 028e 4B61     		str	r3, [r1, #20]
 450              	.L43:
 451 0290 BDE8F087 		pop	{r4, r5, r6, r7, r8, r9, r10, pc}
 452              	.L106:
 453 0294 0126     		movs	r6, #1
 454 0296 7DE7     		b	.L48
 455              	.L58:
 456 0298 27F8020B 		strh	r0, [r7], #2	@ movhi
 457              	.L60:
 458 029c 0233     		adds	r3, r3, #2
 459 029e CB60     		str	r3, [r1, #12]
 460 02a0 CBE7     		b	.L55
 461              	.L57:
 462 02a2 002A     		cmp	r2, #0
 463 02a4 FAD1     		bne	.L60
 464 02a6 D6E7     		b	.L59
 465              	.L75:
 466 02a8 D052     		strh	r0, [r2, r3]	@ movhi
 467              	.L77:
 468 02aa 0233     		adds	r3, r3, #2
 469 02ac CB60     		str	r3, [r1, #12]
 470 02ae 8CE7     		b	.L73
 471              	.L74:
 472 02b0 002E     		cmp	r6, #0
 473 02b2 FAD1     		bne	.L77
 474 02b4 98E7     		b	.L76
 475              	.L71:
 476 02b6 D25A     		ldrh	r2, [r2, r3]
 477 02b8 0233     		adds	r3, r3, #2
 478 02ba A260     		str	r2, [r4, #8]
 479 02bc 4B60     		str	r3, [r1, #4]
 480 02be 81E7     		b	.L70
 481              	.L109:
 482 02c0 1EB9     		cbnz	r6, .L69
 483 02c2 0133     		adds	r3, r3, #1
 484 02c4 A760     		str	r7, [r4, #8]
 485 02c6 4B60     		str	r3, [r1, #4]
 486 02c8 7CE7     		b	.L70
 487              	.L69:
 488 02ca 0233     		adds	r3, r3, #2
 489 02cc C4F808C0 		str	ip, [r4, #8]
 490 02d0 4B60     		str	r3, [r1, #4]
 491 02d2 77E7     		b	.L70
 492              	.L54:
 493 02d4 3EF8023B 		ldrh	r3, [lr], #2
 494 02d8 0230     		adds	r0, r0, #2
 495 02da A360     		str	r3, [r4, #8]
 496 02dc 4860     		str	r0, [r1, #4]
 497 02de A9E7     		b	.L51
 498              	.L115:
 499 02e0 22B9     		cbnz	r2, .L53
 500 02e2 0130     		adds	r0, r0, #1
 501 02e4 C4F80880 		str	r8, [r4, #8]
 502 02e8 4860     		str	r0, [r1, #4]
 503 02ea A3E7     		b	.L51
 504              	.L53:
 505 02ec 0230     		adds	r0, r0, #2
 506 02ee C4F80890 		str	r9, [r4, #8]
 507 02f2 4860     		str	r0, [r1, #4]
 508 02f4 9EE7     		b	.L51
 509              	.L112:
 510 02f6 4FF48074 		mov	r4, #256
 511 02fa 0A68     		ldr	r2, [r1]
 512 02fc 4C61     		str	r4, [r1, #20]
 513 02fe 002A     		cmp	r2, #0
 514 0300 C6D1     		bne	.L43
 515 0302 8A68     		ldr	r2, [r1, #8]
 516 0304 002A     		cmp	r2, #0
 517 0306 14BF     		ite	ne
 518 0308 1846     		movne	r0, r3
 519 030a 0020     		moveq	r0, #0
 520 030c C0E7     		b	.L43
 521              	.L108:
 522 030e CB68     		ldr	r3, [r1, #12]
 523 0310 9D42     		cmp	r5, r3
 524 0312 3FF678AF 		bhi	.L84
 525              	.L85:
 526 0316 4FF48073 		mov	r3, #256
 527 031a 0020     		movs	r0, #0
 528 031c 4B61     		str	r3, [r1, #20]
 529 031e B7E7     		b	.L43
 530              	.L89:
 531 0320 4FF0FF30 		mov	r0, #-1
 532 0324 B4E7     		b	.L43
 534              		.align	1
 535 0326 00BF     		.p2align 2,,3
 536              		.global	SSP_GetStatus
 537              		.syntax unified
 538              		.thumb
 539              		.thumb_func
 540              		.fpu softvfp
 542              	SSP_GetStatus:
 543              		@ args = 0, pretend = 0, frame = 0
 544              		@ frame_needed = 0, uses_anonymous_args = 0
 545              		@ link register save eliminated.
 546 0328 C368     		ldr	r3, [r0, #12]
 547 032a 0B42     		tst	r3, r1
 548 032c 14BF     		ite	ne
 549 032e 0120     		movne	r0, #1
 550 0330 0020     		moveq	r0, #0
 551 0332 7047     		bx	lr
 553              		.align	1
 554              		.p2align 2,,3
 555              		.global	SSP_IntConfig
 556              		.syntax unified
 557              		.thumb
 558              		.thumb_func
 559              		.fpu softvfp
 561              	SSP_IntConfig:
 562              		@ args = 0, pretend = 0, frame = 0
 563              		@ frame_needed = 0, uses_anonymous_args = 0
 564              		@ link register save eliminated.
 565 0334 012A     		cmp	r2, #1
 566 0336 06D0     		beq	.L120
 567 0338 C943     		mvns	r1, r1
 568 033a 4369     		ldr	r3, [r0, #20]
 569 033c 01F00F01 		and	r1, r1, #15
 570 0340 1940     		ands	r1, r1, r3
 571 0342 4161     		str	r1, [r0, #20]
 572 0344 7047     		bx	lr
 573              	.L120:
 574 0346 4369     		ldr	r3, [r0, #20]
 575 0348 1943     		orrs	r1, r1, r3
 576 034a 4161     		str	r1, [r0, #20]
 577 034c 7047     		bx	lr
 579              		.align	1
 580 034e 00BF     		.p2align 2,,3
 581              		.global	SSP_GetRawIntStatus
 582              		.syntax unified
 583              		.thumb
 584              		.thumb_func
 585              		.fpu softvfp
 587              	SSP_GetRawIntStatus:
 588              		@ args = 0, pretend = 0, frame = 0
 589              		@ frame_needed = 0, uses_anonymous_args = 0
 590              		@ link register save eliminated.
 591 0350 8369     		ldr	r3, [r0, #24]
 592 0352 0B42     		tst	r3, r1
 593 0354 14BF     		ite	ne
 594 0356 0120     		movne	r0, #1
 595 0358 0020     		moveq	r0, #0
 596 035a 7047     		bx	lr
 598              		.align	1
 599              		.p2align 2,,3
 600              		.global	SSP_GetRawIntStatusReg
 601              		.syntax unified
 602              		.thumb
 603              		.thumb_func
 604              		.fpu softvfp
 606              	SSP_GetRawIntStatusReg:
 607              		@ args = 0, pretend = 0, frame = 0
 608              		@ frame_needed = 0, uses_anonymous_args = 0
 609              		@ link register save eliminated.
 610 035c 8069     		ldr	r0, [r0, #24]
 611 035e 7047     		bx	lr
 613              		.align	1
 614              		.p2align 2,,3
 615              		.global	SSP_GetIntStatus
 616              		.syntax unified
 617              		.thumb
 618              		.thumb_func
 619              		.fpu softvfp
 621              	SSP_GetIntStatus:
 622              		@ args = 0, pretend = 0, frame = 0
 623              		@ frame_needed = 0, uses_anonymous_args = 0
 624              		@ link register save eliminated.
 625 0360 C369     		ldr	r3, [r0, #28]
 626 0362 0B42     		tst	r3, r1
 627 0364 14BF     		ite	ne
 628 0366 0120     		movne	r0, #1
 629 0368 0020     		moveq	r0, #0
 630 036a 7047     		bx	lr
 632              		.align	1
 633              		.p2align 2,,3
 634              		.global	SSP_ClearIntPending
 635              		.syntax unified
 636              		.thumb
 637              		.thumb_func
 638              		.fpu softvfp
 640              	SSP_ClearIntPending:
 641              		@ args = 0, pretend = 0, frame = 0
 642              		@ frame_needed = 0, uses_anonymous_args = 0
 643              		@ link register save eliminated.
 644 036c 0162     		str	r1, [r0, #32]
 645 036e 7047     		bx	lr
 647              		.align	1
 648              		.p2align 2,,3
 649              		.global	SSP_DMACmd
 650              		.syntax unified
 651              		.thumb
 652              		.thumb_func
 653              		.fpu softvfp
 655              	SSP_DMACmd:
 656              		@ args = 0, pretend = 0, frame = 0
 657              		@ frame_needed = 0, uses_anonymous_args = 0
 658              		@ link register save eliminated.
 659 0370 012A     		cmp	r2, #1
 660 0372 06D0     		beq	.L128
 661 0374 C943     		mvns	r1, r1
 662 0376 436A     		ldr	r3, [r0, #36]
 663 0378 01F00301 		and	r1, r1, #3
 664 037c 1940     		ands	r1, r1, r3
 665 037e 4162     		str	r1, [r0, #36]
 666 0380 7047     		bx	lr
 667              	.L128:
 668 0382 436A     		ldr	r3, [r0, #36]
 669 0384 1943     		orrs	r1, r1, r3
 670 0386 4162     		str	r1, [r0, #36]
 671 0388 7047     		bx	lr
 673 038a 00BF     		.ident	"GCC: (GNU Tools for Arm Embedded Processors 7-2018-q3-update) 7.3.1 20180622 (release) [AR