   1              		.cpu cortex-m3
   2              		.eabi_attribute 20, 1
   3              		.eabi_attribute 21, 1
   4              		.eabi_attribute 23, 3
   5              		.eabi_attribute 24, 1
   6              		.eabi_attribute 25, 1
   7              		.eabi_attribute 26, 1
   8              		.eabi_attribute 30, 2
   9              		.eabi_attribute 34, 1
  10              		.eabi_attribute 18, 4
  11              		.file	"lpc177x_8x_systick.c"
  12              		.text
  13              		.global	__aeabi_ui2f
  14              		.global	__aeabi_fcmpgt
  15              		.align	1
  16              		.p2align 2,,3
  17              		.global	SYSTICK_InternalInit
  18              		.syntax unified
  19              		.thumb
  20              		.thumb_func
  21              		.fpu softvfp
  23              	SYSTICK_InternalInit:
  24              		@ args = 0, pretend = 0, frame = 0
  25              		@ frame_needed = 0, uses_anonymous_args = 0
  26 0000 70B5     		push	{r4, r5, r6, lr}
  27 0002 0446     		mov	r4, r0
  28 0004 0020     		movs	r0, #0
  29 0006 FFF7FEFF 		bl	CLKPWR_GetCLK
  30 000a 0346     		mov	r3, r0
  31 000c 0E4D     		ldr	r5, .L8
  32 000e 2046     		mov	r0, r4
  33 0010 A5FB0323 		umull	r2, r3, r5, r3
  34 0014 9D09     		lsrs	r5, r3, #6
  35 0016 FFF7FEFF 		bl	__aeabi_ui2f
  36 001a 0646     		mov	r6, r0
  37 001c 4FF08070 		mov	r0, #16777216
  38 0020 B0FBF5F0 		udiv	r0, r0, r5
  39 0024 FFF7FEFF 		bl	__aeabi_ui2f
  40 0028 0146     		mov	r1, r0
  41 002a 3046     		mov	r0, r6
  42 002c FFF7FEFF 		bl	__aeabi_fcmpgt
  43 0030 00B1     		cbz	r0, .L5
  44              	.L4:
  45 0032 FEE7     		b	.L4
  46              	.L5:
  47 0034 054A     		ldr	r2, .L8+4
  48 0036 04FB05F3 		mul	r3, r4, r5
  49 003a 1168     		ldr	r1, [r2]
  50 003c 013B     		subs	r3, r3, #1
  51 003e 41F00401 		orr	r1, r1, #4
  52 0042 1160     		str	r1, [r2]
  53 0044 5360     		str	r3, [r2, #4]
  54 0046 70BD     		pop	{r4, r5, r6, pc}
  55              	.L9:
  56              		.align	2
  57              	.L8:
  58 0048 D34D6210 		.word	274877907
  59 004c 10E000E0 		.word	-536813552
  61              		.align	1
  62              		.p2align 2,,3
  63              		.global	SYSTICK_ExternalInit
  64              		.syntax unified
  65              		.thumb
  66              		.thumb_func
  67              		.fpu softvfp
  69              	SYSTICK_ExternalInit:
  70              		@ args = 0, pretend = 0, frame = 0
  71              		@ frame_needed = 0, uses_anonymous_args = 0
  72 0050 0346     		mov	r3, r0
  73 0052 70B5     		push	{r4, r5, r6, lr}
  74 0054 0F4D     		ldr	r5, .L16
  75 0056 0846     		mov	r0, r1
  76 0058 A5FB0323 		umull	r2, r3, r5, r3
  77 005c 0C46     		mov	r4, r1
  78 005e 9D09     		lsrs	r5, r3, #6
  79 0060 FFF7FEFF 		bl	__aeabi_ui2f
  80 0064 0646     		mov	r6, r0
  81 0066 4FF08070 		mov	r0, #16777216
  82 006a B0FBF5F0 		udiv	r0, r0, r5
  83 006e FFF7FEFF 		bl	__aeabi_ui2f
  84 0072 0146     		mov	r1, r0
  85 0074 3046     		mov	r0, r6
  86 0076 FFF7FEFF 		bl	__aeabi_fcmpgt
  87 007a 00B1     		cbz	r0, .L14
  88              	.L13:
  89 007c FEE7     		b	.L13
  90              	.L14:
  91 007e 064A     		ldr	r2, .L16+4
  92 0080 04FB05F3 		mul	r3, r4, r5
  93 0084 1168     		ldr	r1, [r2]
  94 0086 013B     		subs	r3, r3, #1
  95 0088 21F00401 		bic	r1, r1, #4
  96 008c 1160     		str	r1, [r2]
  97 008e 5360     		str	r3, [r2, #4]
  98 0090 70BD     		pop	{r4, r5, r6, pc}
  99              	.L17:
 100 0092 00BF     		.align	2
 101              	.L16:
 102 0094 D34D6210 		.word	274877907
 103 0098 10E000E0 		.word	-536813552
 105              		.align	1
 106              		.p2align 2,,3
 107              		.global	SYSTICK_Cmd
 108              		.syntax unified
 109              		.thumb
 110              		.thumb_func
 111              		.fpu softvfp
 113              	SYSTICK_Cmd:
 114              		@ args = 0, pretend = 0, frame = 0
 115              		@ frame_needed = 0, uses_anonymous_args = 0
 116              		@ link register save eliminated.
 117 009c 044A     		ldr	r2, .L21
 118 009e 0128     		cmp	r0, #1
 119 00a0 1368     		ldr	r3, [r2]
 120 00a2 0CBF     		ite	eq
 121 00a4 43F00103 		orreq	r3, r3, #1
 122 00a8 23F00103 		bicne	r3, r3, #1
 123 00ac 1360     		str	r3, [r2]
 124 00ae 7047     		bx	lr
 125              	.L22:
 126              		.align	2
 127              	.L21:
 128 00b0 10E000E0 		.word	-536813552
 130              		.align	1
 131              		.p2align 2,,3
 132              		.global	SYSTICK_IntCmd
 133              		.syntax unified
 134              		.thumb
 135              		.thumb_func
 136              		.fpu softvfp
 138              	SYSTICK_IntCmd:
 139              		@ args = 0, pretend = 0, frame = 0
 140              		@ frame_needed = 0, uses_anonymous_args = 0
 141              		@ link register save eliminated.
 142 00b4 044A     		ldr	r2, .L26
 143 00b6 0128     		cmp	r0, #1
 144 00b8 1368     		ldr	r3, [r2]
 145 00ba 0CBF     		ite	eq
 146 00bc 43F00203 		orreq	r3, r3, #2
 147 00c0 23F00203 		bicne	r3, r3, #2
 148 00c4 1360     		str	r3, [r2]
 149 00c6 7047     		bx	lr
 150              	.L27:
 151              		.align	2
 152              	.L26:
 153 00c8 10E000E0 		.word	-536813552
 155              		.align	1
 156              		.p2align 2,,3
 157              		.global	SYSTICK_GetCurrentValue
 158              		.syntax unified
 159              		.thumb
 160              		.thumb_func
 161              		.fpu softvfp
 163              	SYSTICK_GetCurrentValue:
 164              		@ args = 0, pretend = 0, frame = 0
 165              		@ frame_needed = 0, uses_anonymous_args = 0
 166              		@ link register save eliminated.
 167 00cc 014B     		ldr	r3, .L29
 168 00ce 9868     		ldr	r0, [r3, #8]
 169 00d0 7047     		bx	lr
 170              	.L30:
 171 00d2 00BF     		.align	2
 172              	.L29:
 173 00d4 10E000E0 		.word	-536813552
 175              		.align	1
 176              		.p2align 2,,3
 177              		.global	SYSTICK_ClearCounterFlag
 178              		.syntax unified
 179              		.thumb
 180              		.thumb_func
 181              		.fpu softvfp
 183              	SYSTICK_ClearCounterFlag:
 184              		@ args = 0, pretend = 0, frame = 0
 185              		@ frame_needed = 0, uses_anonymous_args = 0
 186              		@ link register save eliminated.
 187 00d8 024A     		ldr	r2, .L32
 188 00da 1368     		ldr	r3, [r2]
 189 00dc 23F48033 		bic	r3, r3, #65536
 190 00e0 1360     		str	r3, [r2]
 191 00e2 7047     		bx	lr
 192              	.L33:
 193              		.align	2
 194              	.L32:
 195 00e4 10E000E0 		.word	-536813552
 197              		.ident	"GCC: (GNU Tools for Arm Embedded Processors 7-2018-q3-update) 7.3.1 20180622 (release) [AR