   1              		.cpu cortex-m3
   2              		.eabi_attribute 20, 1
   3              		.eabi_attribute 21, 1
   4              		.eabi_attribute 23, 3
   5              		.eabi_attribute 24, 1
   6              		.eabi_attribute 25, 1
   7              		.eabi_attribute 26, 1
   8              		.eabi_attribute 30, 1
   9              		.eabi_attribute 34, 1
  10              		.eabi_attribute 18, 4
  11              		.file	"naveg.c"
  12              		.text
  13              		.align	1
  14              		.syntax unified
  15              		.thumb
  16              		.thumb_func
  17              		.fpu softvfp
  19              	display_has_tool_enabled:
  20              		@ args = 0, pretend = 0, frame = 0
  21              		@ frame_needed = 0, uses_anonymous_args = 0
  22              		@ link register save eliminated.
  23 0000 084B     		ldr	r3, .L8
  24 0002 03F10A01 		add	r1, r3, #10
  25 0006 02E0     		b	.L4
  26              	.L2:
  27 0008 0233     		adds	r3, r3, #2
  28 000a 8B42     		cmp	r3, r1
  29 000c 07D0     		beq	.L7
  30              	.L4:
  31 000e 5A78     		ldrb	r2, [r3, #1]	@ zero_extendqisi2
  32 0010 8242     		cmp	r2, r0
  33 0012 F9D1     		bne	.L2
  34 0014 1A78     		ldrb	r2, [r3]	@ zero_extendqisi2
  35 0016 012A     		cmp	r2, #1
  36 0018 F6D1     		bne	.L2
  37 001a 0120     		movs	r0, #1
  38 001c 7047     		bx	lr
  39              	.L7:
  40 001e 0020     		movs	r0, #0
  41 0020 7047     		bx	lr
  42              	.L9:
  43 0022 00BF     		.align	2
  44              	.L8:
  45 0024 00000000 		.word	g_tool
  47              		.align	1
  48              		.syntax unified
  49              		.thumb
  50              		.thumb_func
  51              		.fpu softvfp
  53              	reset_menu_hover:
  54              		@ args = 0, pretend = 0, frame = 0
  55              		@ frame_needed = 0, uses_anonymous_args = 0
  56 0028 38B5     		push	{r3, r4, r5, lr}
  57 002a 8468     		ldr	r4, [r0, #8]
  58 002c 74B1     		cbz	r4, .L10
  59 002e 0025     		movs	r5, #0
  60              	.L13:
  61 0030 2268     		ldr	r2, [r4]
  62 0032 5368     		ldr	r3, [r2, #4]
  63 0034 1B79     		ldrb	r3, [r3, #4]	@ zero_extendqisi2
  64 0036 023B     		subs	r3, r3, #2
  65 0038 DBB2     		uxtb	r3, r3
  66 003a 012B     		cmp	r3, #1
  67 003c 98BF     		it	ls
  68 003e 9573     		strbls	r5, [r2, #14]
  69 0040 2046     		mov	r0, r4
  70 0042 FFF7F1FF 		bl	reset_menu_hover
  71 0046 6469     		ldr	r4, [r4, #20]
  72 0048 002C     		cmp	r4, #0
  73 004a F1D1     		bne	.L13
  74              	.L10:
  75 004c 38BD     		pop	{r3, r4, r5, pc}
  77              		.align	1
  78              		.syntax unified
  79              		.thumb
  80              		.thumb_func
  81              		.fpu softvfp
  83              	bank_config_check:
  84              		@ args = 0, pretend = 0, frame = 0
  85              		@ frame_needed = 0, uses_anonymous_args = 0
  86              		@ link register save eliminated.
  87 004e 0020     		movs	r0, #0
  88 0050 7047     		bx	lr
  90              		.align	1
  91              		.syntax unified
  92              		.thumb
  93              		.thumb_func
  94              		.fpu softvfp
  96              	search_encoder:
  97              		@ args = 0, pretend = 0, frame = 0
  98              		@ frame_needed = 0, uses_anonymous_args = 0
  99 0052 F8B5     		push	{r3, r4, r5, r6, r7, lr}
 100 0054 0546     		mov	r5, r0
 101 0056 0E46     		mov	r6, r1
 102 0058 1746     		mov	r7, r2
 103 005a 114B     		ldr	r3, .L27
 104 005c 1C68     		ldr	r4, [r3]
 105 005e 1CB1     		cbz	r4, .L18
 106 0060 94F91030 		ldrsb	r3, [r4, #16]
 107 0064 9842     		cmp	r0, r3
 108 0066 09D0     		beq	.L25
 109              	.L18:
 110 0068 0D4B     		ldr	r3, .L27
 111 006a 5C68     		ldr	r4, [r3, #4]
 112 006c 24B1     		cbz	r4, .L17
 113 006e 94F91030 		ldrsb	r3, [r4, #16]
 114 0072 AB42     		cmp	r3, r5
 115 0074 0AD0     		beq	.L26
 116 0076 0024     		movs	r4, #0
 117              	.L17:
 118 0078 2046     		mov	r0, r4
 119 007a F8BD     		pop	{r3, r4, r5, r6, r7, pc}
 120              	.L25:
 121 007c A068     		ldr	r0, [r4, #8]
 122 007e FFF7FEFF 		bl	strcmp
 123 0082 0028     		cmp	r0, #0
 124 0084 F0D1     		bne	.L18
 125 0086 0023     		movs	r3, #0
 126              	.L19:
 127 0088 3B70     		strb	r3, [r7]
 128 008a F5E7     		b	.L17
 129              	.L26:
 130 008c 3146     		mov	r1, r6
 131 008e A068     		ldr	r0, [r4, #8]
 132 0090 FFF7FEFF 		bl	strcmp
 133 0094 0123     		movs	r3, #1
 134 0096 0028     		cmp	r0, #0
 135 0098 F6D0     		beq	.L19
 136 009a 0024     		movs	r4, #0
 137 009c ECE7     		b	.L17
 138              	.L28:
 139 009e 00BF     		.align	2
 140              	.L27:
 141 00a0 00000000 		.word	.LANCHOR0
 143              		.align	1
 144              		.syntax unified
 145              		.thumb
 146              		.thumb_func
 147              		.fpu softvfp
 149              	create_menu_tree:
 150              		@ args = 0, pretend = 0, frame = 8
 151              		@ frame_needed = 0, uses_anonymous_args = 0
 152 00a4 294B     		ldr	r3, .L39
 153 00a6 1B68     		ldr	r3, [r3]
 154 00a8 002B     		cmp	r3, #0
 155 00aa 4ED0     		beq	.L35
 156 00ac 2DE9F04F 		push	{r4, r5, r6, r7, r8, r9, r10, fp, lr}
 157 00b0 83B0     		sub	sp, sp, #12
 158 00b2 0F46     		mov	r7, r1
 159 00b4 0190     		str	r0, [sp, #4]
 160 00b6 0024     		movs	r4, #0
 161 00b8 2546     		mov	r5, r4
 162 00ba 244E     		ldr	r6, .L39
 163 00bc DFF890B0 		ldr	fp, .L39+4
 164              	.L32:
 165 00c0 05EB8503 		add	r3, r5, r5, lsl #2
 166 00c4 06EB8303 		add	r3, r6, r3, lsl #2
 167 00c8 FA88     		ldrh	r2, [r7, #6]
 168 00ca 1B89     		ldrh	r3, [r3, #8]
 169 00cc 9A42     		cmp	r2, r3
 170 00ce 0BD0     		beq	.L38
 171              	.L31:
 172 00d0 0134     		adds	r4, r4, #1
 173 00d2 E4B2     		uxtb	r4, r4
 174 00d4 2546     		mov	r5, r4
 175 00d6 04EB8403 		add	r3, r4, r4, lsl #2
 176 00da 56F82330 		ldr	r3, [r6, r3, lsl #2]
 177 00de 002B     		cmp	r3, #0
 178 00e0 EED1     		bne	.L32
 179 00e2 03B0     		add	sp, sp, #12
 180              		@ sp needed
 181 00e4 BDE8F08F 		pop	{r4, r5, r6, r7, r8, r9, r10, fp, pc}
 182              	.L38:
 183 00e8 2020     		movs	r0, #32
 184 00ea FFF7FEFF 		bl	pvPortMalloc
 185 00ee 8046     		mov	r8, r0
 186 00f0 0023     		movs	r3, #0
 187 00f2 8373     		strb	r3, [r0, #14]
 188 00f4 FF22     		movs	r2, #255
 189 00f6 4273     		strb	r2, [r0, #13]
 190 00f8 0373     		strb	r3, [r0, #12]
 191 00fa 9BF80800 		ldrb	r0, [fp, #8]	@ zero_extendqisi2
 192 00fe 8000     		lsls	r0, r0, #2
 193 0100 FFF7FEFF 		bl	pvPortMalloc
 194 0104 C8F80800 		str	r0, [r8, #8]
 195 0108 4FEA8509 		lsl	r9, r5, #2
 196 010c 09EB050A 		add	r10, r9, r5
 197 0110 06EB8A0A 		add	r10, r6, r10, lsl #2
 198 0114 C8F804A0 		str	r10, [r8, #4]
 199 0118 2020     		movs	r0, #32
 200 011a FFF7FEFF 		bl	pvPortMalloc
 201 011e C8F80000 		str	r0, [r8]
 202 0122 4D44     		add	r5, r5, r9
 203 0124 56F82510 		ldr	r1, [r6, r5, lsl #2]
 204 0128 FFF7FEFF 		bl	strcpy
 205 012c 4146     		mov	r1, r8
 206 012e 0198     		ldr	r0, [sp, #4]
 207 0130 FFF7FEFF 		bl	node_child
 208 0134 D8F80430 		ldr	r3, [r8, #4]
 209 0138 1B79     		ldrb	r3, [r3, #4]	@ zero_extendqisi2
 210 013a 023B     		subs	r3, r3, #2
 211 013c DBB2     		uxtb	r3, r3
 212 013e 012B     		cmp	r3, #1
 213 0140 C6D8     		bhi	.L31
 214 0142 5146     		mov	r1, r10
 215 0144 FFF7AEFF 		bl	create_menu_tree
 216 0148 C2E7     		b	.L31
 217              	.L35:
 218 014a 7047     		bx	lr
 219              	.L40:
 220              		.align	2
 221              	.L39:
 222 014c 00000000 		.word	.LANCHOR1
 223 0150 00000000 		.word	.LANCHOR0
 225              		.align	1
 226              		.syntax unified
 227              		.thumb
 228              		.thumb_func
 229              		.fpu softvfp
 231              	display_disable_all_tools:
 232              		@ args = 0, pretend = 0, frame = 0
 233              		@ frame_needed = 0, uses_anonymous_args = 0
 234 0154 10B5     		push	{r4, lr}
 235 0156 0446     		mov	r4, r0
 236 0158 094B     		ldr	r3, .L48
 237 015a 9B78     		ldrb	r3, [r3, #2]	@ zero_extendqisi2
 238 015c 5BB9     		cbnz	r3, .L47
 239              	.L42:
 240 015e 084B     		ldr	r3, .L48
 241 0160 03F10A01 		add	r1, r3, #10
 242 0164 0020     		movs	r0, #0
 243              	.L44:
 244 0166 5A78     		ldrb	r2, [r3, #1]	@ zero_extendqisi2
 245 0168 A242     		cmp	r2, r4
 246 016a 08BF     		it	eq
 247 016c 1870     		strbeq	r0, [r3]
 248 016e 0233     		adds	r3, r3, #2
 249 0170 8B42     		cmp	r3, r1
 250 0172 F8D1     		bne	.L44
 251 0174 10BD     		pop	{r4, pc}
 252              	.L47:
 253 0176 0921     		movs	r1, #9
 254 0178 0248     		ldr	r0, .L48+4
 255 017a FFF7FEFF 		bl	comm_webgui_send
 256 017e EEE7     		b	.L42
 257              	.L49:
 258              		.align	2
 259              	.L48:
 260 0180 00000000 		.word	g_tool
 261 0184 00000000 		.word	.LC2
 263              		.global	__aeabi_i2f
 264              		.global	__aeabi_fdiv
 265              		.global	__aeabi_fsub
 266              		.global	__aeabi_fmul
 267              		.global	__aeabi_fadd
 268              		.global	__aeabi_f2d
 269              		.global	__aeabi_dmul
 270              		.global	__aeabi_d2f
 271              		.global	__aeabi_fcmpgt
 272              		.global	__aeabi_fcmplt
 273              		.align	1
 274              		.syntax unified
 275              		.thumb
 276              		.thumb_func
 277              		.fpu softvfp
 279              	step_to_value:
 280              		@ args = 0, pretend = 0, frame = 0
 281              		@ frame_needed = 0, uses_anonymous_args = 0
 282 0188 F8B5     		push	{r3, r4, r5, r6, r7, lr}
 283 018a 0446     		mov	r4, r0
 284 018c 90F92050 		ldrsb	r5, [r0, #32]
 285 0190 2846     		mov	r0, r5
 286 0192 FFF7FEFF 		bl	__aeabi_i2f
 287 0196 0646     		mov	r6, r0
 288 0198 94F92100 		ldrsb	r0, [r4, #33]
 289 019c 0138     		subs	r0, r0, #1
 290 019e FFF7FEFF 		bl	__aeabi_i2f
 291 01a2 0146     		mov	r1, r0
 292 01a4 3046     		mov	r0, r6
 293 01a6 FFF7FEFF 		bl	__aeabi_fdiv
 294 01aa A37C     		ldrb	r3, [r4, #18]	@ zero_extendqisi2
 295 01ac 082B     		cmp	r3, #8
 296 01ae 24D0     		beq	.L52
 297 01b0 0646     		mov	r6, r0
 298 01b2 1ED9     		bls	.L63
 299 01b4 402B     		cmp	r3, #64
 300 01b6 29D0     		beq	.L55
 301 01b8 802B     		cmp	r3, #128
 302 01ba 0BD1     		bne	.L51
 303              	.L54:
 304 01bc A569     		ldr	r5, [r4, #24]	@ float
 305 01be 2946     		mov	r1, r5
 306 01c0 E069     		ldr	r0, [r4, #28]	@ float
 307 01c2 FFF7FEFF 		bl	__aeabi_fsub
 308 01c6 3146     		mov	r1, r6
 309 01c8 FFF7FEFF 		bl	__aeabi_fmul
 310 01cc 2946     		mov	r1, r5
 311 01ce FFF7FEFF 		bl	__aeabi_fadd
 312 01d2 6061     		str	r0, [r4, #20]	@ float
 313              	.L51:
 314 01d4 E569     		ldr	r5, [r4, #28]	@ float
 315 01d6 2946     		mov	r1, r5
 316 01d8 6069     		ldr	r0, [r4, #20]	@ float
 317 01da FFF7FEFF 		bl	__aeabi_fcmpgt
 318 01de 00B1     		cbz	r0, .L56
 319 01e0 6561     		str	r5, [r4, #20]	@ float
 320              	.L56:
 321 01e2 A569     		ldr	r5, [r4, #24]	@ float
 322 01e4 2946     		mov	r1, r5
 323 01e6 6069     		ldr	r0, [r4, #20]	@ float
 324 01e8 FFF7FEFF 		bl	__aeabi_fcmplt
 325 01ec 00B1     		cbz	r0, .L50
 326 01ee 6561     		str	r5, [r4, #20]	@ float
 327              	.L50:
 328 01f0 F8BD     		pop	{r3, r4, r5, r6, r7, pc}
 329              	.L63:
 330 01f2 002B     		cmp	r3, #0
 331 01f4 E2D0     		beq	.L54
 332 01f6 042B     		cmp	r3, #4
 333 01f8 ECD1     		bne	.L51
 334              	.L52:
 335 01fa A36A     		ldr	r3, [r4, #40]
 336 01fc 53F82530 		ldr	r3, [r3, r5, lsl #2]
 337 0200 93F90400 		ldrsb	r0, [r3, #4]
 338 0204 FFF7FEFF 		bl	__aeabi_i2f
 339 0208 6061     		str	r0, [r4, #20]	@ float
 340 020a E3E7     		b	.L51
 341              	.L55:
 342 020c A569     		ldr	r5, [r4, #24]	@ float
 343 020e FFF7FEFF 		bl	__aeabi_f2d
 344 0212 0646     		mov	r6, r0
 345 0214 0F46     		mov	r7, r1
 346 0216 2946     		mov	r1, r5
 347 0218 E069     		ldr	r0, [r4, #28]	@ float
 348 021a FFF7FEFF 		bl	__aeabi_fdiv
 349 021e FFF7FEFF 		bl	__aeabi_f2d
 350 0222 3246     		mov	r2, r6
 351 0224 3B46     		mov	r3, r7
 352 0226 FFF7FEFF 		bl	pow
 353 022a 0646     		mov	r6, r0
 354 022c 0F46     		mov	r7, r1
 355 022e 2846     		mov	r0, r5
 356 0230 FFF7FEFF 		bl	__aeabi_f2d
 357 0234 3246     		mov	r2, r6
 358 0236 3B46     		mov	r3, r7
 359 0238 FFF7FEFF 		bl	__aeabi_dmul
 360 023c FFF7FEFF 		bl	__aeabi_d2f
 361 0240 6061     		str	r0, [r4, #20]	@ float
 362 0242 C7E7     		b	.L51
 364              		.align	1
 365              		.syntax unified
 366              		.thumb
 367              		.thumb_func
 368              		.fpu softvfp
 370              	menu_up:
 371              		@ args = 0, pretend = 0, frame = 0
 372              		@ frame_needed = 0, uses_anonymous_args = 0
 373 0244 38B5     		push	{r3, r4, r5, lr}
 374 0246 A8B1     		cbz	r0, .L65
 375 0248 134B     		ldr	r3, .L72
 376 024a DC68     		ldr	r4, [r3, #12]
 377              	.L66:
 378 024c 6368     		ldr	r3, [r4, #4]
 379 024e 1B79     		ldrb	r3, [r3, #4]	@ zero_extendqisi2
 380 0250 0A3B     		subs	r3, r3, #10
 381 0252 DBB2     		uxtb	r3, r3
 382 0254 012B     		cmp	r3, #1
 383 0256 10D9     		bls	.L71
 384 0258 A37B     		ldrb	r3, [r4, #14]	@ zero_extendqisi2
 385 025a 0BB1     		cbz	r3, .L68
 386 025c 013B     		subs	r3, r3, #1
 387 025e A373     		strb	r3, [r4, #14]
 388              	.L68:
 389 0260 6368     		ldr	r3, [r4, #4]
 390 0262 DB68     		ldr	r3, [r3, #12]
 391 0264 13B1     		cbz	r3, .L69
 392 0266 0121     		movs	r1, #1
 393 0268 2046     		mov	r0, r4
 394 026a 9847     		blx	r3
 395              	.L69:
 396 026c 2046     		mov	r0, r4
 397 026e FFF7FEFF 		bl	screen_system_menu
 398 0272 38BD     		pop	{r3, r4, r5, pc}
 399              	.L65:
 400 0274 084B     		ldr	r3, .L72
 401 0276 1C69     		ldr	r4, [r3, #16]
 402 0278 E8E7     		b	.L66
 403              	.L71:
 404 027a B4F91E50 		ldrsh	r5, [r4, #30]
 405 027e FFF7FEFF 		bl	hardware_get_acceleration
 406 0282 A38B     		ldrh	r3, [r4, #28]
 407 0284 05FB1030 		mls	r0, r5, r0, r3
 408 0288 00B2     		sxth	r0, r0
 409 028a A083     		strh	r0, [r4, #28]	@ movhi
 410 028c B4F91830 		ldrsh	r3, [r4, #24]
 411 0290 9842     		cmp	r0, r3
 412 0292 E5DA     		bge	.L68
 413 0294 A383     		strh	r3, [r4, #28]	@ movhi
 414 0296 E3E7     		b	.L68
 415              	.L73:
 416              		.align	2
 417              	.L72:
 418 0298 00000000 		.word	.LANCHOR0
 420              		.align	1
 421              		.syntax unified
 422              		.thumb
 423              		.thumb_func
 424              		.fpu softvfp
 426              	menu_down:
 427              		@ args = 0, pretend = 0, frame = 0
 428              		@ frame_needed = 0, uses_anonymous_args = 0
 429 029c 38B5     		push	{r3, r4, r5, lr}
 430 029e C0B1     		cbz	r0, .L75
 431 02a0 154B     		ldr	r3, .L82
 432 02a2 DC68     		ldr	r4, [r3, #12]
 433              	.L76:
 434 02a4 6368     		ldr	r3, [r4, #4]
 435 02a6 1B79     		ldrb	r3, [r3, #4]	@ zero_extendqisi2
 436 02a8 0A3B     		subs	r3, r3, #10
 437 02aa DBB2     		uxtb	r3, r3
 438 02ac 012B     		cmp	r3, #1
 439 02ae 13D9     		bls	.L81
 440 02b0 A27B     		ldrb	r2, [r4, #14]	@ zero_extendqisi2
 441 02b2 237B     		ldrb	r3, [r4, #12]	@ zero_extendqisi2
 442 02b4 013B     		subs	r3, r3, #1
 443 02b6 9A42     		cmp	r2, r3
 444 02b8 BCBF     		itt	lt
 445 02ba 0132     		addlt	r2, r2, #1
 446 02bc A273     		strblt	r2, [r4, #14]
 447              	.L78:
 448 02be 6368     		ldr	r3, [r4, #4]
 449 02c0 DB68     		ldr	r3, [r3, #12]
 450 02c2 13B1     		cbz	r3, .L79
 451 02c4 0221     		movs	r1, #2
 452 02c6 2046     		mov	r0, r4
 453 02c8 9847     		blx	r3
 454              	.L79:
 455 02ca 2046     		mov	r0, r4
 456 02cc FFF7FEFF 		bl	screen_system_menu
 457 02d0 38BD     		pop	{r3, r4, r5, pc}
 458              	.L75:
 459 02d2 094B     		ldr	r3, .L82
 460 02d4 1C69     		ldr	r4, [r3, #16]
 461 02d6 E5E7     		b	.L76
 462              	.L81:
 463 02d8 B4F91E50 		ldrsh	r5, [r4, #30]
 464 02dc FFF7FEFF 		bl	hardware_get_acceleration
 465 02e0 A38B     		ldrh	r3, [r4, #28]
 466 02e2 05FB0030 		mla	r0, r5, r0, r3
 467 02e6 00B2     		sxth	r0, r0
 468 02e8 A083     		strh	r0, [r4, #28]	@ movhi
 469 02ea B4F91A30 		ldrsh	r3, [r4, #26]
 470 02ee 9842     		cmp	r0, r3
 471 02f0 E5DD     		ble	.L78
 472 02f2 A383     		strh	r3, [r4, #28]	@ movhi
 473 02f4 E3E7     		b	.L78
 474              	.L83:
 475 02f6 00BF     		.align	2
 476              	.L82:
 477 02f8 00000000 		.word	.LANCHOR0
 479              		.global	__aeabi_fcmple
 480              		.global	__aeabi_dadd
 481              		.global	__aeabi_d2uiz
 482              		.global	__aeabi_fcmpeq
 483              		.global	__aeabi_f2iz
 484              		.align	1
 485              		.syntax unified
 486              		.thumb
 487              		.thumb_func
 488              		.fpu softvfp
 490              	foot_control_add:
 491              		@ args = 0, pretend = 0, frame = 32
 492              		@ frame_needed = 0, uses_anonymous_args = 0
 493 02fc 2DE9F041 		push	{r4, r5, r6, r7, r8, lr}
 494 0300 88B0     		sub	sp, sp, #32
 495 0302 C578     		ldrb	r5, [r0, #3]	@ zero_extendqisi2
 496 0304 062D     		cmp	r5, #6
 497 0306 39D8     		bhi	.L84
 498 0308 0446     		mov	r4, r0
 499 030a 2846     		mov	r0, r5
 500 030c FFF79FFE 		bl	bank_config_check
 501 0310 0646     		mov	r6, r0
 502 0312 80BB     		cbnz	r0, .L128
 503 0314 A94B     		ldr	r3, .L134
 504 0316 03EB8503 		add	r3, r3, r5, lsl #2
 505 031a 5B69     		ldr	r3, [r3, #20]
 506 031c 0BB1     		cbz	r3, .L87
 507 031e A342     		cmp	r3, r4
 508 0320 2FD1     		bne	.L129
 509              	.L87:
 510 0322 A64B     		ldr	r3, .L134
 511 0324 03EB8503 		add	r3, r3, r5, lsl #2
 512 0328 5C61     		str	r4, [r3, #20]
 513 032a A37C     		ldrb	r3, [r4, #18]	@ zero_extendqisi2
 514 032c 013B     		subs	r3, r3, #1
 515 032e 1F2B     		cmp	r3, #31
 516 0330 24D8     		bhi	.L84
 517 0332 DFE813F0 		tbh	[pc, r3, lsl #1]
 518              	.L89:
 519 0336 1701     		.2byte	(.L88-.L89)/2
 520 0338 6900     		.2byte	(.L90-.L89)/2
 521 033a 2300     		.2byte	(.L84-.L89)/2
 522 033c 5301     		.2byte	(.L91-.L89)/2
 523 033e 2300     		.2byte	(.L84-.L89)/2
 524 0340 2300     		.2byte	(.L84-.L89)/2
 525 0342 2300     		.2byte	(.L84-.L89)/2
 526 0344 5301     		.2byte	(.L91-.L89)/2
 527 0346 2300     		.2byte	(.L84-.L89)/2
 528 0348 2300     		.2byte	(.L84-.L89)/2
 529 034a 2300     		.2byte	(.L84-.L89)/2
 530 034c 2300     		.2byte	(.L84-.L89)/2
 531 034e 2300     		.2byte	(.L84-.L89)/2
 532 0350 2300     		.2byte	(.L84-.L89)/2
 533 0352 2300     		.2byte	(.L84-.L89)/2
 534 0354 5400     		.2byte	(.L92-.L89)/2
 535 0356 2300     		.2byte	(.L84-.L89)/2
 536 0358 2300     		.2byte	(.L84-.L89)/2
 537 035a 2300     		.2byte	(.L84-.L89)/2
 538 035c 2300     		.2byte	(.L84-.L89)/2
 539 035e 2300     		.2byte	(.L84-.L89)/2
 540 0360 2300     		.2byte	(.L84-.L89)/2
 541 0362 2300     		.2byte	(.L84-.L89)/2
 542 0364 2300     		.2byte	(.L84-.L89)/2
 543 0366 2300     		.2byte	(.L84-.L89)/2
 544 0368 2300     		.2byte	(.L84-.L89)/2
 545 036a 2300     		.2byte	(.L84-.L89)/2
 546 036c 2300     		.2byte	(.L84-.L89)/2
 547 036e 2300     		.2byte	(.L84-.L89)/2
 548 0370 2300     		.2byte	(.L84-.L89)/2
 549 0372 2300     		.2byte	(.L84-.L89)/2
 550 0374 2A00     		.2byte	(.L93-.L89)/2
 551              		.p2align 1
 552              	.L128:
 553 0376 2046     		mov	r0, r4
 554 0378 FFF7FEFF 		bl	data_free_control
 555              	.L84:
 556 037c 08B0     		add	sp, sp, #32
 557              		@ sp needed
 558 037e BDE8F081 		pop	{r4, r5, r6, r7, r8, pc}
 559              	.L129:
 560 0382 2046     		mov	r0, r4
 561 0384 FFF7FEFF 		bl	data_free_control
 562 0388 F8E7     		b	.L84
 563              	.L93:
 564 038a 0021     		movs	r1, #0
 565 038c 6069     		ldr	r0, [r4, #20]	@ float
 566 038e FFF7FEFF 		bl	__aeabi_fcmple
 567 0392 E8B9     		cbnz	r0, .L130
 568 0394 2846     		mov	r0, r5
 569 0396 FFF7FEFF 		bl	hardware_leds
 570 039a 0221     		movs	r1, #2
 571 039c FFF7FEFF 		bl	ledz_on
 572              	.L96:
 573 03a0 E578     		ldrb	r5, [r4, #3]	@ zero_extendqisi2
 574 03a2 012D     		cmp	r5, #1
 575 03a4 94BF     		ite	ls
 576 03a6 0020     		movls	r0, #0
 577 03a8 0120     		movhi	r0, #1
 578 03aa FFF729FE 		bl	display_has_tool_enabled
 579 03ae 0028     		cmp	r0, #0
 580 03b0 E4D1     		bne	.L84
 581 03b2 6668     		ldr	r6, [r4, #4]
 582 03b4 0021     		movs	r1, #0
 583 03b6 6069     		ldr	r0, [r4, #20]	@ float
 584 03b8 FFF7FEFF 		bl	__aeabi_fcmple
 585 03bc 804A     		ldr	r2, .L134+4
 586 03be 814B     		ldr	r3, .L134+8
 587 03c0 0028     		cmp	r0, #0
 588 03c2 08BF     		it	eq
 589 03c4 1A46     		moveq	r2, r3
 590 03c6 3146     		mov	r1, r6
 591 03c8 2846     		mov	r0, r5
 592 03ca FFF7FEFF 		bl	screen_footer
 593 03ce D5E7     		b	.L84
 594              	.L130:
 595 03d0 2846     		mov	r0, r5
 596 03d2 FFF7FEFF 		bl	hardware_leds
 597 03d6 0221     		movs	r1, #2
 598 03d8 FFF7FEFF 		bl	ledz_off
 599 03dc E0E7     		b	.L96
 600              	.L92:
 601 03de 2846     		mov	r0, r5
 602 03e0 FFF7FEFF 		bl	hardware_leds
 603 03e4 0221     		movs	r1, #2
 604 03e6 FFF7FEFF 		bl	ledz_on
 605 03ea E578     		ldrb	r5, [r4, #3]	@ zero_extendqisi2
 606 03ec 012D     		cmp	r5, #1
 607 03ee 94BF     		ite	ls
 608 03f0 0020     		movls	r0, #0
 609 03f2 0120     		movhi	r0, #1
 610 03f4 FFF704FE 		bl	display_has_tool_enabled
 611 03f8 0028     		cmp	r0, #0
 612 03fa BFD1     		bne	.L84
 613 03fc 0022     		movs	r2, #0
 614 03fe 6168     		ldr	r1, [r4, #4]
 615 0400 2846     		mov	r0, r5
 616 0402 FFF7FEFF 		bl	screen_footer
 617 0406 B9E7     		b	.L84
 618              	.L90:
 619 0408 2846     		mov	r0, r5
 620 040a FFF7FEFF 		bl	hardware_leds
 621 040e 0221     		movs	r1, #2
 622 0410 FFF7FEFF 		bl	ledz_on
 623 0414 6169     		ldr	r1, [r4, #20]	@ float
 624 0416 E068     		ldr	r0, [r4, #12]
 625 0418 FFF7FEFF 		bl	convert_to_ms
 626 041c FFF7FEFF 		bl	__aeabi_f2d
 627 0420 0022     		movs	r2, #0
 628 0422 694B     		ldr	r3, .L134+12
 629 0424 FFF7FEFF 		bl	__aeabi_dadd
 630 0428 FFF7FEFF 		bl	__aeabi_d2uiz
 631 042c 85B2     		uxth	r5, r0
 632 042e 642D     		cmp	r5, #100
 633 0430 6CD9     		bls	.L99
 634 0432 E078     		ldrb	r0, [r4, #3]	@ zero_extendqisi2
 635 0434 FFF7FEFF 		bl	hardware_leds
 636 0438 A5F16403 		sub	r3, r5, #100
 637 043c 9BB2     		uxth	r3, r3
 638 043e 6422     		movs	r2, #100
 639 0440 0221     		movs	r1, #2
 640 0442 FFF7FEFF 		bl	ledz_blink
 641              	.L100:
 642 0446 E378     		ldrb	r3, [r4, #3]	@ zero_extendqisi2
 643 0448 03EB4303 		add	r3, r3, r3, lsl #1
 644 044c 5F4A     		ldr	r2, .L134+16
 645 044e 02EB8303 		add	r3, r2, r3, lsl #2
 646 0452 1B7A     		ldrb	r3, [r3, #8]	@ zero_extendqisi2
 647 0454 53BB     		cbnz	r3, .L101
 648 0456 E568     		ldr	r5, [r4, #12]
 649 0458 5D49     		ldr	r1, .L134+20
 650 045a 2846     		mov	r0, r5
 651 045c FFF7FEFF 		bl	strcmp
 652 0460 28B1     		cbz	r0, .L102
 653 0462 5C49     		ldr	r1, .L134+24
 654 0464 2846     		mov	r0, r5
 655 0466 FFF7FEFF 		bl	strcmp
 656 046a 0028     		cmp	r0, #0
 657 046c 57D1     		bne	.L103
 658              	.L102:
 659 046e E169     		ldr	r1, [r4, #28]	@ float
 660 0470 2846     		mov	r0, r5
 661 0472 FFF7FEFF 		bl	convert_to_ms
 662 0476 FFF7FEFF 		bl	__aeabi_f2d
 663 047a 0022     		movs	r2, #0
 664 047c 524B     		ldr	r3, .L134+12
 665 047e FFF7FEFF 		bl	__aeabi_dadd
 666 0482 FFF7FEFF 		bl	__aeabi_d2uiz
 667 0486 40F6B833 		movw	r3, #3000
 668 048a 9842     		cmp	r0, r3
 669 048c 28BF     		it	cs
 670 048e 1846     		movcs	r0, r3
 671              	.L104:
 672 0490 4E4A     		ldr	r2, .L134+16
 673 0492 E378     		ldrb	r3, [r4, #3]	@ zero_extendqisi2
 674 0494 03EB4303 		add	r3, r3, r3, lsl #1
 675 0498 02EB8303 		add	r3, r2, r3, lsl #2
 676 049c 5860     		str	r0, [r3, #4]
 677 049e E378     		ldrb	r3, [r4, #3]	@ zero_extendqisi2
 678 04a0 03EB4303 		add	r3, r3, r3, lsl #1
 679 04a4 02EB8302 		add	r2, r2, r3, lsl #2
 680 04a8 0123     		movs	r3, #1
 681 04aa 1372     		strb	r3, [r2, #8]
 682              	.L101:
 683 04ac E078     		ldrb	r0, [r4, #3]	@ zero_extendqisi2
 684 04ae 0128     		cmp	r0, #1
 685 04b0 94BF     		ite	ls
 686 04b2 0020     		movls	r0, #0
 687 04b4 0120     		movhi	r0, #1
 688 04b6 FFF7A3FD 		bl	display_has_tool_enabled
 689 04ba 0028     		cmp	r0, #0
 690 04bc 7FF45EAF 		bne	.L84
 691 04c0 E568     		ldr	r5, [r4, #12]
 692 04c2 4349     		ldr	r1, .L134+20
 693 04c4 2846     		mov	r0, r5
 694 04c6 FFF7FEFF 		bl	strcasecmp
 695 04ca 28B1     		cbz	r0, .L105
 696 04cc 4249     		ldr	r1, .L134+28
 697 04ce 2846     		mov	r0, r5
 698 04d0 FFF7FEFF 		bl	strcasecmp
 699 04d4 0028     		cmp	r0, #0
 700 04d6 3DD1     		bne	.L106
 701              	.L105:
 702 04d8 6069     		ldr	r0, [r4, #20]	@ float
 703 04da FFF7FEFF 		bl	__aeabi_f2iz
 704 04de 0023     		movs	r3, #0
 705 04e0 2022     		movs	r2, #32
 706 04e2 6946     		mov	r1, sp
 707 04e4 FFF7FEFF 		bl	int_to_str
 708 04e8 C0B2     		uxtb	r0, r0
 709              	.L107:
 710 04ea 08AB     		add	r3, sp, #32
 711 04ec 0344     		add	r3, r3, r0
 712 04ee 2022     		movs	r2, #32
 713 04f0 03F8202C 		strb	r2, [r3, #-32]
 714 04f4 0130     		adds	r0, r0, #1
 715 04f6 C0B2     		uxtb	r0, r0
 716 04f8 E168     		ldr	r1, [r4, #12]
 717 04fa 6844     		add	r0, r0, sp
 718 04fc FFF7FEFF 		bl	strcpy
 719 0500 6A46     		mov	r2, sp
 720 0502 6168     		ldr	r1, [r4, #4]
 721 0504 E078     		ldrb	r0, [r4, #3]	@ zero_extendqisi2
 722 0506 FFF7FEFF 		bl	screen_footer
 723 050a 37E7     		b	.L84
 724              	.L99:
 725 050c E078     		ldrb	r0, [r4, #3]	@ zero_extendqisi2
 726 050e FFF7FEFF 		bl	hardware_leds
 727 0512 6A08     		lsrs	r2, r5, #1
 728 0514 1346     		mov	r3, r2
 729 0516 0221     		movs	r1, #2
 730 0518 FFF7FEFF 		bl	ledz_blink
 731 051c 93E7     		b	.L100
 732              	.L103:
 733 051e A669     		ldr	r6, [r4, #24]	@ float
 734 0520 0021     		movs	r1, #0
 735 0522 3046     		mov	r0, r6
 736 0524 FFF7FEFF 		bl	__aeabi_fcmpeq
 737 0528 10B1     		cbz	r0, .L131
 738 052a 40F6B830 		movw	r0, #3000
 739 052e AFE7     		b	.L104
 740              	.L131:
 741 0530 3146     		mov	r1, r6
 742 0532 2846     		mov	r0, r5
 743 0534 FFF7FEFF 		bl	convert_to_ms
 744 0538 FFF7FEFF 		bl	__aeabi_f2d
 745 053c 0022     		movs	r2, #0
 746 053e 224B     		ldr	r3, .L134+12
 747 0540 FFF7FEFF 		bl	__aeabi_dadd
 748 0544 FFF7FEFF 		bl	__aeabi_d2uiz
 749 0548 40F6B833 		movw	r3, #3000
 750 054c 9842     		cmp	r0, r3
 751 054e 28BF     		it	cs
 752 0550 1846     		movcs	r0, r3
 753 0552 9DE7     		b	.L104
 754              	.L106:
 755 0554 0223     		movs	r3, #2
 756 0556 2022     		movs	r2, #32
 757 0558 6946     		mov	r1, sp
 758 055a 6069     		ldr	r0, [r4, #20]	@ float
 759 055c FFF7FEFF 		bl	float_to_str
 760 0560 C0B2     		uxtb	r0, r0
 761 0562 C2E7     		b	.L107
 762              	.L88:
 763 0564 0021     		movs	r1, #0
 764 0566 6069     		ldr	r0, [r4, #20]	@ float
 765 0568 FFF7FEFF 		bl	__aeabi_fcmple
 766 056c F0B9     		cbnz	r0, .L132
 767 056e 2846     		mov	r0, r5
 768 0570 FFF7FEFF 		bl	hardware_leds
 769 0574 0121     		movs	r1, #1
 770 0576 FFF7FEFF 		bl	ledz_off
 771              	.L110:
 772 057a E578     		ldrb	r5, [r4, #3]	@ zero_extendqisi2
 773 057c 012D     		cmp	r5, #1
 774 057e 94BF     		ite	ls
 775 0580 0020     		movls	r0, #0
 776 0582 0120     		movhi	r0, #1
 777 0584 FFF73CFD 		bl	display_has_tool_enabled
 778 0588 0028     		cmp	r0, #0
 779 058a 7FF4F7AE 		bne	.L84
 780 058e 6668     		ldr	r6, [r4, #4]
 781 0590 0021     		movs	r1, #0
 782 0592 6069     		ldr	r0, [r4, #20]	@ float
 783 0594 FFF7FEFF 		bl	__aeabi_fcmpeq
 784 0598 094A     		ldr	r2, .L134+4
 785 059a 0A4B     		ldr	r3, .L134+8
 786 059c 0028     		cmp	r0, #0
 787 059e 18BF     		it	ne
 788 05a0 1A46     		movne	r2, r3
 789 05a2 3146     		mov	r1, r6
 790 05a4 2846     		mov	r0, r5
 791 05a6 FFF7FEFF 		bl	screen_footer
 792 05aa E7E6     		b	.L84
 793              	.L132:
 794 05ac 2846     		mov	r0, r5
 795 05ae FFF7FEFF 		bl	hardware_leds
 796 05b2 0121     		movs	r1, #1
 797 05b4 FFF7FEFF 		bl	ledz_on
 798 05b8 DFE7     		b	.L110
 799              	.L135:
 800 05ba 00BF     		.align	2
 801              	.L134:
 802 05bc 00000000 		.word	.LANCHOR0
 803 05c0 0C000000 		.word	.LC3
 804 05c4 10000000 		.word	.LC4
 805 05c8 0000E03F 		.word	1071644672
 806 05cc 00000000 		.word	g_tap_tempo
 807 05d0 14000000 		.word	.LC5
 808 05d4 18000000 		.word	.LC6
 809 05d8 1C000000 		.word	.LC7
 810              	.L91:
 811 05dc 2846     		mov	r0, r5
 812 05de FFF7FEFF 		bl	hardware_leds
 813 05e2 0221     		movs	r1, #2
 814 05e4 FFF7FEFF 		bl	ledz_on
 815 05e8 0023     		movs	r3, #0
 816 05ea 84F82030 		strb	r3, [r4, #32]
 817 05ee 94F82470 		ldrb	r7, [r4, #36]	@ zero_extendqisi2
 818 05f2 002F     		cmp	r7, #0
 819 05f4 32D0     		beq	.L121
 820 05f6 D4F81480 		ldr	r8, [r4, #20]	@ float
 821 05fa A56A     		ldr	r5, [r4, #40]
 822 05fc 2B68     		ldr	r3, [r5]
 823 05fe 93F90400 		ldrsb	r0, [r3, #4]
 824 0602 FFF7FEFF 		bl	__aeabi_i2f
 825 0606 4146     		mov	r1, r8
 826 0608 FFF7FEFF 		bl	__aeabi_fcmpeq
 827 060c 70B9     		cbnz	r0, .L113
 828              	.L115:
 829 060e 0136     		adds	r6, r6, #1
 830 0610 F6B2     		uxtb	r6, r6
 831 0612 BE42     		cmp	r6, r7
 832 0614 20D0     		beq	.L133
 833 0616 55F8043F 		ldr	r3, [r5, #4]!
 834 061a 93F90400 		ldrsb	r0, [r3, #4]
 835 061e FFF7FEFF 		bl	__aeabi_i2f
 836 0622 4146     		mov	r1, r8
 837 0624 FFF7FEFF 		bl	__aeabi_fcmpeq
 838 0628 0028     		cmp	r0, #0
 839 062a F0D0     		beq	.L115
 840              	.L113:
 841 062c 84F82060 		strb	r6, [r4, #32]
 842              	.L112:
 843 0630 84F82170 		strb	r7, [r4, #33]
 844 0634 012E     		cmp	r6, #1
 845 0636 94BF     		ite	ls
 846 0638 0020     		movls	r0, #0
 847 063a 0120     		movhi	r0, #1
 848 063c FFF7E0FC 		bl	display_has_tool_enabled
 849 0640 0028     		cmp	r0, #0
 850 0642 7FF49BAE 		bne	.L84
 851 0646 A36A     		ldr	r3, [r4, #40]
 852 0648 53F82630 		ldr	r3, [r3, r6, lsl #2]
 853 064c 1A68     		ldr	r2, [r3]
 854 064e 6168     		ldr	r1, [r4, #4]
 855 0650 E078     		ldrb	r0, [r4, #3]	@ zero_extendqisi2
 856 0652 FFF7FEFF 		bl	screen_footer
 857 0656 91E6     		b	.L84
 858              	.L133:
 859 0658 3E46     		mov	r6, r7
 860 065a E9E7     		b	.L112
 861              	.L121:
 862 065c 3E46     		mov	r6, r7
 863 065e E7E7     		b	.L112
 865              		.global	__aeabi_ui2f
 866              		.align	1
 867              		.syntax unified
 868              		.thumb
 869              		.thumb_func
 870              		.fpu softvfp
 872              	control_set:
 873              		@ args = 0, pretend = 0, frame = 128
 874              		@ frame_needed = 0, uses_anonymous_args = 0
 875 0660 F0B5     		push	{r4, r5, r6, r7, lr}
 876 0662 A1B0     		sub	sp, sp, #132
 877 0664 0446     		mov	r4, r0
 878 0666 0D46     		mov	r5, r1
 879 0668 8B7C     		ldrb	r3, [r1, #18]	@ zero_extendqisi2
 880 066a 082B     		cmp	r3, #8
 881 066c 43D0     		beq	.L138
 882 066e 6ED8     		bhi	.L139
 883 0670 012B     		cmp	r3, #1
 884 0672 00F09F80 		beq	.L140
 885 0676 002B     		cmp	r3, #0
 886 0678 79D0     		beq	.L141
 887 067a 022B     		cmp	r3, #2
 888 067c 39D1     		bne	.L167
 889 067e FFF7FEFF 		bl	hardware_timestamp
 890 0682 E978     		ldrb	r1, [r5, #3]	@ zero_extendqisi2
 891 0684 824B     		ldr	r3, .L170
 892 0686 4A00     		lsls	r2, r1, #1
 893 0688 5418     		adds	r4, r2, r1
 894 068a 53F82440 		ldr	r4, [r3, r4, lsl #2]
 895 068e 0A44     		add	r2, r2, r1
 896 0690 43F82200 		str	r0, [r3, r2, lsl #2]
 897 0694 EA78     		ldrb	r2, [r5, #3]	@ zero_extendqisi2
 898 0696 02EB4201 		add	r1, r2, r2, lsl #1
 899 069a 03EB8103 		add	r3, r3, r1, lsl #2
 900 069e 1B7A     		ldrb	r3, [r3, #8]	@ zero_extendqisi2
 901 06a0 012B     		cmp	r3, #1
 902 06a2 40F09280 		bne	.L137
 903 06a6 041B     		subs	r4, r0, r4
 904 06a8 794B     		ldr	r3, .L170
 905 06aa 03EB8102 		add	r2, r3, r1, lsl #2
 906 06ae 5368     		ldr	r3, [r2, #4]
 907 06b0 A342     		cmp	r3, r4
 908 06b2 05D2     		bcs	.L151
 909 06b4 A4F13200 		sub	r0, r4, #50
 910 06b8 8342     		cmp	r3, r0
 911 06ba 40F28680 		bls	.L137
 912 06be 1C46     		mov	r4, r3
 913              	.L151:
 914 06c0 6969     		ldr	r1, [r5, #20]	@ float
 915 06c2 E868     		ldr	r0, [r5, #12]
 916 06c4 FFF7FEFF 		bl	convert_to_ms
 917 06c8 0646     		mov	r6, r0
 918 06ca 2046     		mov	r0, r4
 919 06cc FFF7FEFF 		bl	__aeabi_ui2f
 920 06d0 0446     		mov	r4, r0
 921 06d2 0146     		mov	r1, r0
 922 06d4 3046     		mov	r0, r6
 923 06d6 FFF7FEFF 		bl	__aeabi_fsub
 924 06da FFF7FEFF 		bl	__aeabi_f2iz
 925 06de 6330     		adds	r0, r0, #99
 926 06e0 C628     		cmp	r0, #198
 927 06e2 40F2B280 		bls	.L157
 928 06e6 2146     		mov	r1, r4
 929 06e8 E868     		ldr	r0, [r5, #12]
 930 06ea FFF7FEFF 		bl	convert_from_ms
 931 06ee 6861     		str	r0, [r5, #20]	@ float
 932 06f0 BCE0     		b	.L152
 933              	.L167:
 934 06f2 042B     		cmp	r3, #4
 935 06f4 69D1     		bne	.L137
 936              	.L138:
 937 06f6 AB78     		ldrb	r3, [r5, #2]	@ zero_extendqisi2
 938 06f8 022B     		cmp	r3, #2
 939 06fa 52D0     		beq	.L168
 940 06fc 012B     		cmp	r3, #1
 941 06fe 64D1     		bne	.L137
 942 0700 95F82030 		ldrb	r3, [r5, #32]	@ zero_extendqisi2
 943 0704 0133     		adds	r3, r3, #1
 944 0706 5BB2     		sxtb	r3, r3
 945 0708 85F82030 		strb	r3, [r5, #32]
 946 070c 95F82420 		ldrb	r2, [r5, #36]	@ zero_extendqisi2
 947 0710 9342     		cmp	r3, r2
 948 0712 A4BF     		itt	ge
 949 0714 0023     		movge	r3, #0
 950 0716 85F82030 		strbge	r3, [r5, #32]
 951 071a 95F92070 		ldrsb	r7, [r5, #32]
 952 071e AE6A     		ldr	r6, [r5, #40]
 953 0720 56F82730 		ldr	r3, [r6, r7, lsl #2]
 954 0724 93F90400 		ldrsb	r0, [r3, #4]
 955 0728 FFF7FEFF 		bl	__aeabi_i2f
 956 072c 6861     		str	r0, [r5, #20]	@ float
 957 072e 012C     		cmp	r4, #1
 958 0730 94BF     		ite	ls
 959 0732 0020     		movls	r0, #0
 960 0734 0120     		movhi	r0, #1
 961 0736 FFF763FC 		bl	display_has_tool_enabled
 962 073a 0028     		cmp	r0, #0
 963 073c 45D1     		bne	.L137
 964 073e 56F82730 		ldr	r3, [r6, r7, lsl #2]
 965 0742 1A68     		ldr	r2, [r3]
 966 0744 6968     		ldr	r1, [r5, #4]
 967 0746 E878     		ldrb	r0, [r5, #3]	@ zero_extendqisi2
 968 0748 FFF7FEFF 		bl	screen_footer
 969 074c 3DE0     		b	.L137
 970              	.L139:
 971 074e 202B     		cmp	r3, #32
 972 0750 30D0     		beq	.L140
 973 0752 08D8     		bhi	.L143
 974 0754 102B     		cmp	r3, #16
 975 0756 38D1     		bne	.L137
 976 0758 4FF07E53 		mov	r3, #1065353216
 977 075c 4B61     		str	r3, [r1, #20]	@ float
 978 075e 0846     		mov	r0, r1
 979 0760 FFF7CCFD 		bl	foot_control_add
 980 0764 31E0     		b	.L137
 981              	.L143:
 982 0766 402B     		cmp	r3, #64
 983 0768 01D0     		beq	.L141
 984 076a 802B     		cmp	r3, #128
 985 076c 2DD1     		bne	.L137
 986              	.L141:
 987 076e AB78     		ldrb	r3, [r5, #2]	@ zero_extendqisi2
 988 0770 022B     		cmp	r3, #2
 989 0772 0DD0     		beq	.L169
 990 0774 032B     		cmp	r3, #3
 991 0776 28D1     		bne	.L137
 992 0778 032C     		cmp	r4, #3
 993 077a 94BF     		ite	ls
 994 077c 0020     		movls	r0, #0
 995 077e 0120     		movhi	r0, #1
 996 0780 FFF73EFC 		bl	display_has_tool_enabled
 997 0784 08BB     		cbnz	r0, .L137
 998 0786 2946     		mov	r1, r5
 999 0788 2046     		mov	r0, r4
 1000 078a FFF7FEFF 		bl	screen_pot
 1001 078e 1CE0     		b	.L137
 1002              	.L169:
 1003 0790 2046     		mov	r0, r4
 1004 0792 FFF735FC 		bl	display_has_tool_enabled
 1005 0796 C0B9     		cbnz	r0, .L137
 1006 0798 2946     		mov	r1, r5
 1007 079a 2046     		mov	r0, r4
 1008 079c FFF7FEFF 		bl	screen_encoder
 1009 07a0 13E0     		b	.L137
 1010              	.L168:
 1011 07a2 2046     		mov	r0, r4
 1012 07a4 FFF72CFC 		bl	display_has_tool_enabled
 1013 07a8 78B9     		cbnz	r0, .L137
 1014 07aa 2946     		mov	r1, r5
 1015 07ac 2046     		mov	r0, r4
 1016 07ae FFF7FEFF 		bl	screen_encoder
 1017 07b2 0AE0     		b	.L137
 1018              	.L140:
 1019 07b4 0021     		movs	r1, #0
 1020 07b6 6869     		ldr	r0, [r5, #20]	@ float
 1021 07b8 FFF7FEFF 		bl	__aeabi_fcmpgt
 1022 07bc 0028     		cmp	r0, #0
 1023 07be 40D0     		beq	.L163
 1024 07c0 0023     		movs	r3, #0
 1025 07c2 6B61     		str	r3, [r5, #20]	@ float
 1026              	.L150:
 1027 07c4 2846     		mov	r0, r5
 1028 07c6 FFF799FD 		bl	foot_control_add
 1029              	.L137:
 1030 07ca 3249     		ldr	r1, .L170+4
 1031 07cc 6846     		mov	r0, sp
 1032 07ce FFF7FEFF 		bl	copy_command
 1033 07d2 0446     		mov	r4, r0
 1034 07d4 0023     		movs	r3, #0
 1035 07d6 C0F18002 		rsb	r2, r0, #128
 1036 07da 0DEB0001 		add	r1, sp, r0
 1037 07de 95F91000 		ldrsb	r0, [r5, #16]
 1038 07e2 FFF7FEFF 		bl	int_to_str
 1039 07e6 2044     		add	r0, r0, r4
 1040 07e8 C0B2     		uxtb	r0, r0
 1041 07ea 441C     		adds	r4, r0, #1
 1042 07ec E4B2     		uxtb	r4, r4
 1043 07ee 20AB     		add	r3, sp, #128
 1044 07f0 1844     		add	r0, r0, r3
 1045 07f2 2026     		movs	r6, #32
 1046 07f4 00F8806C 		strb	r6, [r0, #-128]
 1047 07f8 AF68     		ldr	r7, [r5, #8]
 1048 07fa 3946     		mov	r1, r7
 1049 07fc 0DEB0400 		add	r0, sp, r4
 1050 0800 FFF7FEFF 		bl	strcpy
 1051 0804 3846     		mov	r0, r7
 1052 0806 FFF7FEFF 		bl	strlen
 1053 080a 2044     		add	r0, r0, r4
 1054 080c C0B2     		uxtb	r0, r0
 1055 080e 441C     		adds	r4, r0, #1
 1056 0810 E4B2     		uxtb	r4, r4
 1057 0812 20AB     		add	r3, sp, #128
 1058 0814 1844     		add	r0, r0, r3
 1059 0816 00F8806C 		strb	r6, [r0, #-128]
 1060 081a 0323     		movs	r3, #3
 1061 081c C4F18002 		rsb	r2, r4, #128
 1062 0820 0DEB0401 		add	r1, sp, r4
 1063 0824 6869     		ldr	r0, [r5, #20]	@ float
 1064 0826 FFF7FEFF 		bl	float_to_str
 1065 082a 2044     		add	r0, r0, r4
 1066 082c C1B2     		uxtb	r1, r0
 1067 082e 20AB     		add	r3, sp, #128
 1068 0830 0B44     		add	r3, r3, r1
 1069 0832 0022     		movs	r2, #0
 1070 0834 03F8802C 		strb	r2, [r3, #-128]
 1071 0838 6846     		mov	r0, sp
 1072 083a FFF7FEFF 		bl	comm_webgui_send
 1073 083e 21B0     		add	sp, sp, #132
 1074              		@ sp needed
 1075 0840 F0BD     		pop	{r4, r5, r6, r7, pc}
 1076              	.L163:
 1077 0842 4FF07E53 		mov	r3, #1065353216
 1078 0846 6B61     		str	r3, [r5, #20]	@ float
 1079 0848 BCE7     		b	.L150
 1080              	.L157:
 1081 084a 6969     		ldr	r1, [r5, #20]	@ float
 1082 084c 0846     		mov	r0, r1
 1083 084e FFF7FEFF 		bl	__aeabi_fadd
 1084 0852 0646     		mov	r6, r0
 1085 0854 2146     		mov	r1, r4
 1086 0856 E868     		ldr	r0, [r5, #12]
 1087 0858 FFF7FEFF 		bl	convert_from_ms
 1088 085c 0146     		mov	r1, r0
 1089 085e 3046     		mov	r0, r6
 1090 0860 FFF7FEFF 		bl	__aeabi_fadd
 1091 0864 0C49     		ldr	r1, .L170+8
 1092 0866 FFF7FEFF 		bl	__aeabi_fdiv
 1093 086a 6861     		str	r0, [r5, #20]	@ float
 1094              	.L152:
 1095 086c EC69     		ldr	r4, [r5, #28]	@ float
 1096 086e 2146     		mov	r1, r4
 1097 0870 6869     		ldr	r0, [r5, #20]	@ float
 1098 0872 FFF7FEFF 		bl	__aeabi_fcmpgt
 1099 0876 00B1     		cbz	r0, .L153
 1100 0878 6C61     		str	r4, [r5, #20]	@ float
 1101              	.L153:
 1102 087a AC69     		ldr	r4, [r5, #24]	@ float
 1103 087c 2146     		mov	r1, r4
 1104 087e 6869     		ldr	r0, [r5, #20]	@ float
 1105 0880 FFF7FEFF 		bl	__aeabi_fcmplt
 1106 0884 00B1     		cbz	r0, .L155
 1107 0886 6C61     		str	r4, [r5, #20]	@ float
 1108              	.L155:
 1109 0888 2846     		mov	r0, r5
 1110 088a FFF737FD 		bl	foot_control_add
 1111 088e 9CE7     		b	.L137
 1112              	.L171:
 1113              		.align	2
 1114              	.L170:
 1115 0890 00000000 		.word	g_tap_tempo
 1116 0894 20000000 		.word	.LC8
 1117 0898 00004040 		.word	1077936128
 1119              		.align	1
 1120              		.global	draw_all_pots
 1121              		.syntax unified
 1122              		.thumb
 1123              		.thumb_func
 1124              		.fpu softvfp
 1126              	draw_all_pots:
 1127              		@ args = 0, pretend = 0, frame = 0
 1128              		@ frame_needed = 0, uses_anonymous_args = 0
 1129 089c 70B5     		push	{r4, r5, r6, lr}
 1130 089e 0128     		cmp	r0, #1
 1131 08a0 14BF     		ite	ne
 1132 08a2 0024     		movne	r4, #0
 1133 08a4 0424     		moveq	r4, #4
 1134 08a6 074D     		ldr	r5, .L178
 1135 08a8 05EB8405 		add	r5, r5, r4, lsl #2
 1136 08ac 261D     		adds	r6, r4, #4
 1137              	.L174:
 1138 08ae 55F8041B 		ldr	r1, [r5], #4
 1139 08b2 2046     		mov	r0, r4
 1140 08b4 FFF7FEFF 		bl	screen_pot
 1141 08b8 0134     		adds	r4, r4, #1
 1142 08ba E4B2     		uxtb	r4, r4
 1143 08bc B442     		cmp	r4, r6
 1144 08be F6D1     		bne	.L174
 1145 08c0 70BD     		pop	{r4, r5, r6, pc}
 1146              	.L179:
 1147 08c2 00BF     		.align	2
 1148              	.L178:
 1149 08c4 30000000 		.word	.LANCHOR0+48
 1151              		.align	1
 1152              		.global	draw_all_foots
 1153              		.syntax unified
 1154              		.thumb
 1155              		.thumb_func
 1156              		.fpu softvfp
 1158              	draw_all_foots:
 1159              		@ args = 0, pretend = 0, frame = 0
 1160              		@ frame_needed = 0, uses_anonymous_args = 0
 1161 08c8 38B5     		push	{r3, r4, r5, lr}
 1162 08ca 0128     		cmp	r0, #1
 1163 08cc 14BF     		ite	ne
 1164 08ce 0025     		movne	r5, #0
 1165 08d0 0225     		moveq	r5, #2
 1166 08d2 2C46     		mov	r4, r5
 1167 08d4 0D4B     		ldr	r3, .L189
 1168 08d6 03EB8503 		add	r3, r3, r5, lsl #2
 1169 08da 5869     		ldr	r0, [r3, #20]
 1170 08dc 50B1     		cbz	r0, .L188
 1171 08de FFF70DFD 		bl	foot_control_add
 1172              	.L183:
 1173 08e2 0134     		adds	r4, r4, #1
 1174 08e4 094B     		ldr	r3, .L189
 1175 08e6 03EB8403 		add	r3, r3, r4, lsl #2
 1176 08ea 5869     		ldr	r0, [r3, #20]
 1177 08ec 40B1     		cbz	r0, .L184
 1178 08ee FFF705FD 		bl	foot_control_add
 1179              	.L180:
 1180 08f2 38BD     		pop	{r3, r4, r5, pc}
 1181              	.L188:
 1182 08f4 0022     		movs	r2, #0
 1183 08f6 1146     		mov	r1, r2
 1184 08f8 2846     		mov	r0, r5
 1185 08fa FFF7FEFF 		bl	screen_footer
 1186 08fe F0E7     		b	.L183
 1187              	.L184:
 1188 0900 0022     		movs	r2, #0
 1189 0902 1146     		mov	r1, r2
 1190 0904 681C     		adds	r0, r5, #1
 1191 0906 FFF7FEFF 		bl	screen_footer
 1192 090a F2E7     		b	.L180
 1193              	.L190:
 1194              		.align	2
 1195              	.L189:
 1196 090c 00000000 		.word	.LANCHOR0
 1198              		.align	1
 1199              		.global	naveg_init
 1200              		.syntax unified
 1201              		.thumb
 1202              		.thumb_func
 1203              		.fpu softvfp
 1205              	naveg_init:
 1206              		@ args = 0, pretend = 0, frame = 24
 1207              		@ frame_needed = 0, uses_anonymous_args = 0
 1208 0910 2DE9F043 		push	{r4, r5, r6, r7, r8, r9, lr}
 1209 0914 87B0     		sub	sp, sp, #28
 1210 0916 3E48     		ldr	r0, .L208
 1211 0918 0023     		movs	r3, #0
 1212 091a 0360     		str	r3, [r0]
 1213 091c 4360     		str	r3, [r0, #4]
 1214 091e 00F11002 		add	r2, r0, #16
 1215 0922 3C4B     		ldr	r3, .L208+4
 1216 0924 2C30     		adds	r0, r0, #44
 1217 0926 0021     		movs	r1, #0
 1218              	.L192:
 1219 0928 42F8041F 		str	r1, [r2, #4]!
 1220 092c 1972     		strb	r1, [r3, #8]
 1221 092e 0C33     		adds	r3, r3, #12
 1222 0930 9042     		cmp	r0, r2
 1223 0932 F9D1     		bne	.L192
 1224 0934 364B     		ldr	r3, .L208
 1225 0936 0022     		movs	r2, #0
 1226 0938 1A63     		str	r2, [r3, #48]
 1227 093a 5A63     		str	r2, [r3, #52]
 1228 093c 9A63     		str	r2, [r3, #56]
 1229 093e DA63     		str	r2, [r3, #60]
 1230 0940 1A64     		str	r2, [r3, #64]
 1231 0942 5A64     		str	r2, [r3, #68]
 1232 0944 9A64     		str	r2, [r3, #72]
 1233 0946 DA64     		str	r2, [r3, #76]
 1234 0948 334B     		ldr	r3, .L208+8
 1235 094a 1B68     		ldr	r3, [r3]
 1236 094c 73B1     		cbz	r3, .L193
 1237 094e 304B     		ldr	r3, .L208
 1238 0950 1F7A     		ldrb	r7, [r3, #8]	@ zero_extendqisi2
 1239 0952 314E     		ldr	r6, .L208+8
 1240 0954 0125     		movs	r5, #1
 1241 0956 9646     		mov	lr, r2
 1242 0958 9446     		mov	ip, r2
 1243 095a 3146     		mov	r1, r6
 1244 095c A846     		mov	r8, r5
 1245 095e 37E0     		b	.L201
 1246              	.L207:
 1247 0960 2B4B     		ldr	r3, .L208
 1248 0962 1F72     		strb	r7, [r3, #8]
 1249 0964 02E0     		b	.L193
 1250              	.L194:
 1251 0966 BEF1000F 		cmp	lr, #0
 1252 096a F9D1     		bne	.L207
 1253              	.L193:
 1254 096c 284C     		ldr	r4, .L208
 1255 096e 237A     		ldrb	r3, [r4, #8]	@ zero_extendqisi2
 1256 0970 0133     		adds	r3, r3, #1
 1257 0972 2372     		strb	r3, [r4, #8]
 1258 0974 01AD     		add	r5, sp, #4
 1259 0976 294E     		ldr	r6, .L208+12
 1260 0978 0FCE     		ldmia	r6!, {r0, r1, r2, r3}
 1261 097a 0FC5     		stmia	r5!, {r0, r1, r2, r3}
 1262 097c 3368     		ldr	r3, [r6]
 1263 097e 2B60     		str	r3, [r5]
 1264 0980 0020     		movs	r0, #0
 1265 0982 FFF7FEFF 		bl	node_create
 1266 0986 2065     		str	r0, [r4, #80]
 1267 0988 01A9     		add	r1, sp, #4
 1268 098a FFF78BFB 		bl	create_menu_tree
 1269 098e 236D     		ldr	r3, [r4, #80]
 1270 0990 6365     		str	r3, [r4, #84]
 1271 0992 9B68     		ldr	r3, [r3, #8]
 1272 0994 1B68     		ldr	r3, [r3]
 1273 0996 E360     		str	r3, [r4, #12]
 1274 0998 0021     		movs	r1, #0
 1275 099a A165     		str	r1, [r4, #88]
 1276 099c E165     		str	r1, [r4, #92]
 1277 099e 0120     		movs	r0, #1
 1278 09a0 84F86000 		strb	r0, [r4, #96]
 1279 09a4 0322     		movs	r2, #3
 1280 09a6 FFF7FEFF 		bl	xQueueGenericCreate
 1281 09aa 6066     		str	r0, [r4, #100]
 1282 09ac 20B1     		cbz	r0, .L199
 1283 09ae 0023     		movs	r3, #0
 1284 09b0 1A46     		mov	r2, r3
 1285 09b2 1946     		mov	r1, r3
 1286 09b4 FFF7FEFF 		bl	xQueueGenericSend
 1287              	.L199:
 1288 09b8 0023     		movs	r3, #0
 1289 09ba 1A46     		mov	r2, r3
 1290 09bc 1946     		mov	r1, r3
 1291 09be 1448     		ldr	r0, .L208
 1292 09c0 406E     		ldr	r0, [r0, #100]
 1293 09c2 FFF7FEFF 		bl	xQueueGenericReceive
 1294 09c6 07B0     		add	sp, sp, #28
 1295              		@ sp needed
 1296 09c8 BDE8F083 		pop	{r4, r5, r6, r7, r8, r9, pc}
 1297              	.L197:
 1298 09cc 0135     		adds	r5, r5, #1
 1299 09ce 1436     		adds	r6, r6, #20
 1300              	.L201:
 1301 09d0 EBB2     		uxtb	r3, r5
 1302 09d2 2A46     		mov	r2, r5
 1303 09d4 7069     		ldr	r0, [r6, #20]
 1304 09d6 0028     		cmp	r0, #0
 1305 09d8 C5D0     		beq	.L194
 1306 09da B6F80690 		ldrh	r9, [r6, #6]
 1307 09de 6446     		mov	r4, ip
 1308              	.L196:
 1309 09e0 02EB8202 		add	r2, r2, r2, lsl #2
 1310 09e4 01EB8202 		add	r2, r1, r2, lsl #2
 1311 09e8 1289     		ldrh	r2, [r2, #8]
 1312 09ea 4A45     		cmp	r2, r9
 1313 09ec 04BF     		itt	eq
 1314 09ee 0134     		addeq	r4, r4, #1
 1315 09f0 E4B2     		uxtbeq	r4, r4
 1316 09f2 0133     		adds	r3, r3, #1
 1317 09f4 DBB2     		uxtb	r3, r3
 1318 09f6 1A46     		mov	r2, r3
 1319 09f8 03EB8300 		add	r0, r3, r3, lsl #2
 1320 09fc 51F82000 		ldr	r0, [r1, r0, lsl #2]
 1321 0a00 0028     		cmp	r0, #0
 1322 0a02 EDD1     		bne	.L196
 1323 0a04 BC42     		cmp	r4, r7
 1324 0a06 E1D9     		bls	.L197
 1325 0a08 2746     		mov	r7, r4
 1326 0a0a C646     		mov	lr, r8
 1327 0a0c DEE7     		b	.L197
 1328              	.L209:
 1329 0a0e 00BF     		.align	2
 1330              	.L208:
 1331 0a10 00000000 		.word	.LANCHOR0
 1332 0a14 00000000 		.word	g_tap_tempo
 1333 0a18 00000000 		.word	.LANCHOR1
 1334 0a1c 00000000 		.word	.LANCHOR2
 1336              		.align	1
 1337              		.global	naveg_inc_control
 1338              		.syntax unified
 1339              		.thumb
 1340              		.thumb_func
 1341              		.fpu softvfp
 1343              	naveg_inc_control:
 1344              		@ args = 0, pretend = 0, frame = 0
 1345              		@ frame_needed = 0, uses_anonymous_args = 0
 1346 0a20 38B5     		push	{r3, r4, r5, lr}
 1347 0a22 1B4B     		ldr	r3, .L218
 1348 0a24 93F86030 		ldrb	r3, [r3, #96]	@ zero_extendqisi2
 1349 0a28 EBB1     		cbz	r3, .L210
 1350 0a2a 0546     		mov	r5, r0
 1351 0a2c FFF7E8FA 		bl	display_has_tool_enabled
 1352 0a30 C8B9     		cbnz	r0, .L210
 1353 0a32 174B     		ldr	r3, .L218
 1354 0a34 53F82540 		ldr	r4, [r3, r5, lsl #2]
 1355 0a38 ACB1     		cbz	r4, .L210
 1356 0a3a A37C     		ldrb	r3, [r4, #18]	@ zero_extendqisi2
 1357 0a3c 042B     		cmp	r3, #4
 1358 0a3e 13D0     		beq	.L212
 1359 0a40 082B     		cmp	r3, #8
 1360 0a42 11D0     		beq	.L212
 1361 0a44 94F92020 		ldrsb	r2, [r4, #32]
 1362 0a48 94F92130 		ldrsb	r3, [r4, #33]
 1363 0a4c 013B     		subs	r3, r3, #1
 1364 0a4e 9A42     		cmp	r2, r3
 1365 0a50 09DA     		bge	.L210
 1366 0a52 0132     		adds	r2, r2, #1
 1367 0a54 84F82020 		strb	r2, [r4, #32]
 1368              	.L215:
 1369 0a58 2046     		mov	r0, r4
 1370 0a5a FFF795FB 		bl	step_to_value
 1371 0a5e 2146     		mov	r1, r4
 1372 0a60 2846     		mov	r0, r5
 1373 0a62 FFF7FDFD 		bl	control_set
 1374              	.L210:
 1375 0a66 38BD     		pop	{r3, r4, r5, pc}
 1376              	.L212:
 1377 0a68 E37C     		ldrb	r3, [r4, #19]	@ zero_extendqisi2
 1378 0a6a 53B1     		cbz	r3, .L217
 1379 0a6c 94F92020 		ldrsb	r2, [r4, #32]
 1380 0a70 94F92130 		ldrsb	r3, [r4, #33]
 1381 0a74 013B     		subs	r3, r3, #1
 1382 0a76 9A42     		cmp	r2, r3
 1383 0a78 F5DA     		bge	.L210
 1384 0a7a 0132     		adds	r2, r2, #1
 1385 0a7c 84F82020 		strb	r2, [r4, #32]
 1386 0a80 EAE7     		b	.L215
 1387              	.L217:
 1388 0a82 0123     		movs	r3, #1
 1389 0a84 E374     		strb	r3, [r4, #19]
 1390 0a86 2146     		mov	r1, r4
 1391 0a88 2846     		mov	r0, r5
 1392 0a8a FFF7E9FD 		bl	control_set
 1393 0a8e EAE7     		b	.L210
 1394              	.L219:
 1395              		.align	2
 1396              	.L218:
 1397 0a90 00000000 		.word	.LANCHOR0
 1399              		.align	1
 1400              		.global	naveg_dec_control
 1401              		.syntax unified
 1402              		.thumb
 1403              		.thumb_func
 1404              		.fpu softvfp
 1406              	naveg_dec_control:
 1407              		@ args = 0, pretend = 0, frame = 0
 1408              		@ frame_needed = 0, uses_anonymous_args = 0
 1409 0a94 38B5     		push	{r3, r4, r5, lr}
 1410 0a96 184B     		ldr	r3, .L228
 1411 0a98 93F86030 		ldrb	r3, [r3, #96]	@ zero_extendqisi2
 1412 0a9c D3B1     		cbz	r3, .L220
 1413 0a9e 0446     		mov	r4, r0
 1414 0aa0 FFF7AEFA 		bl	display_has_tool_enabled
 1415 0aa4 B0B9     		cbnz	r0, .L220
 1416 0aa6 144B     		ldr	r3, .L228
 1417 0aa8 53F82450 		ldr	r5, [r3, r4, lsl #2]
 1418 0aac 95B1     		cbz	r5, .L220
 1419 0aae AB7C     		ldrb	r3, [r5, #18]	@ zero_extendqisi2
 1420 0ab0 042B     		cmp	r3, #4
 1421 0ab2 10D0     		beq	.L222
 1422 0ab4 082B     		cmp	r3, #8
 1423 0ab6 0ED0     		beq	.L222
 1424 0ab8 95F92030 		ldrsb	r3, [r5, #32]
 1425 0abc 002B     		cmp	r3, #0
 1426 0abe 09DD     		ble	.L220
 1427 0ac0 013B     		subs	r3, r3, #1
 1428 0ac2 85F82030 		strb	r3, [r5, #32]
 1429              	.L225:
 1430 0ac6 2846     		mov	r0, r5
 1431 0ac8 FFF75EFB 		bl	step_to_value
 1432 0acc 2946     		mov	r1, r5
 1433 0ace 2046     		mov	r0, r4
 1434 0ad0 FFF7C6FD 		bl	control_set
 1435              	.L220:
 1436 0ad4 38BD     		pop	{r3, r4, r5, pc}
 1437              	.L222:
 1438 0ad6 EB7C     		ldrb	r3, [r5, #19]	@ zero_extendqisi2
 1439 0ad8 3BB9     		cbnz	r3, .L227
 1440 0ada 95F92030 		ldrsb	r3, [r5, #32]
 1441 0ade 002B     		cmp	r3, #0
 1442 0ae0 F8DD     		ble	.L220
 1443 0ae2 013B     		subs	r3, r3, #1
 1444 0ae4 85F82030 		strb	r3, [r5, #32]
 1445 0ae8 EDE7     		b	.L225
 1446              	.L227:
 1447 0aea 0023     		movs	r3, #0
 1448 0aec EB74     		strb	r3, [r5, #19]
 1449 0aee 2946     		mov	r1, r5
 1450 0af0 2046     		mov	r0, r4
 1451 0af2 FFF7B5FD 		bl	control_set
 1452 0af6 EDE7     		b	.L220
 1453              	.L229:
 1454              		.align	2
 1455              	.L228:
 1456 0af8 00000000 		.word	.LANCHOR0
 1458              		.align	1
 1459              		.global	naveg_set_control
 1460              		.syntax unified
 1461              		.thumb
 1462              		.thumb_func
 1463              		.fpu softvfp
 1465              	naveg_set_control:
 1466              		@ args = 0, pretend = 0, frame = 8
 1467              		@ frame_needed = 0, uses_anonymous_args = 0
 1468 0afc 1F4B     		ldr	r3, .L245
 1469 0afe 93F86030 		ldrb	r3, [r3, #96]	@ zero_extendqisi2
 1470 0b02 03B9     		cbnz	r3, .L244
 1471 0b04 7047     		bx	lr
 1472              	.L244:
 1473 0b06 70B5     		push	{r4, r5, r6, lr}
 1474 0b08 82B0     		sub	sp, sp, #8
 1475 0b0a 1546     		mov	r5, r2
 1476 0b0c 0DF10702 		add	r2, sp, #7
 1477 0b10 FFF79FFA 		bl	search_encoder
 1478 0b14 0446     		mov	r4, r0
 1479 0b16 0028     		cmp	r0, #0
 1480 0b18 2ED0     		beq	.L230
 1481 0b1a 4561     		str	r5, [r0, #20]	@ float
 1482 0b1c 8669     		ldr	r6, [r0, #24]	@ float
 1483 0b1e 2946     		mov	r1, r5
 1484 0b20 3046     		mov	r0, r6
 1485 0b22 FFF7FEFF 		bl	__aeabi_fcmpgt
 1486 0b26 00B1     		cbz	r0, .L233
 1487 0b28 6661     		str	r6, [r4, #20]	@ float
 1488              	.L233:
 1489 0b2a E669     		ldr	r6, [r4, #28]	@ float
 1490 0b2c 2946     		mov	r1, r5
 1491 0b2e 3046     		mov	r0, r6
 1492 0b30 FFF7FEFF 		bl	__aeabi_fcmplt
 1493 0b34 00B1     		cbz	r0, .L235
 1494 0b36 6661     		str	r6, [r4, #20]	@ float
 1495              	.L235:
 1496 0b38 2146     		mov	r1, r4
 1497 0b3a 9DF80700 		ldrb	r0, [sp, #7]	@ zero_extendqisi2
 1498 0b3e FFF78FFD 		bl	control_set
 1499 0b42 A569     		ldr	r5, [r4, #24]	@ float
 1500 0b44 2946     		mov	r1, r5
 1501 0b46 6069     		ldr	r0, [r4, #20]	@ float
 1502 0b48 FFF7FEFF 		bl	__aeabi_fsub
 1503 0b4c 0646     		mov	r6, r0
 1504 0b4e 2946     		mov	r1, r5
 1505 0b50 E069     		ldr	r0, [r4, #28]	@ float
 1506 0b52 FFF7FEFF 		bl	__aeabi_fsub
 1507 0b56 0546     		mov	r5, r0
 1508 0b58 94F92100 		ldrsb	r0, [r4, #33]
 1509 0b5c FFF7FEFF 		bl	__aeabi_i2f
 1510 0b60 0146     		mov	r1, r0
 1511 0b62 2846     		mov	r0, r5
 1512 0b64 FFF7FEFF 		bl	__aeabi_fdiv
 1513 0b68 0146     		mov	r1, r0
 1514 0b6a 3046     		mov	r0, r6
 1515 0b6c FFF7FEFF 		bl	__aeabi_fdiv
 1516 0b70 FFF7FEFF 		bl	__aeabi_f2iz
 1517 0b74 84F82000 		strb	r0, [r4, #32]
 1518              	.L230:
 1519 0b78 02B0     		add	sp, sp, #8
 1520              		@ sp needed
 1521 0b7a 70BD     		pop	{r4, r5, r6, pc}
 1522              	.L246:
 1523              		.align	2
 1524              	.L245:
 1525 0b7c 00000000 		.word	.LANCHOR0
 1527              		.align	1
 1528              		.global	naveg_get_control
 1529              		.syntax unified
 1530              		.thumb
 1531              		.thumb_func
 1532              		.fpu softvfp
 1534              	naveg_get_control:
 1535              		@ args = 0, pretend = 0, frame = 8
 1536              		@ frame_needed = 0, uses_anonymous_args = 0
 1537 0b80 094B     		ldr	r3, .L256
 1538 0b82 93F86030 		ldrb	r3, [r3, #96]	@ zero_extendqisi2
 1539 0b86 0BB9     		cbnz	r3, .L255
 1540 0b88 0020     		movs	r0, #0
 1541 0b8a 7047     		bx	lr
 1542              	.L255:
 1543 0b8c 00B5     		push	{lr}
 1544 0b8e 83B0     		sub	sp, sp, #12
 1545 0b90 0DF10702 		add	r2, sp, #7
 1546 0b94 FFF75DFA 		bl	search_encoder
 1547 0b98 18B1     		cbz	r0, .L250
 1548 0b9a 4069     		ldr	r0, [r0, #20]	@ float
 1549              	.L247:
 1550 0b9c 03B0     		add	sp, sp, #12
 1551              		@ sp needed
 1552 0b9e 5DF804FB 		ldr	pc, [sp], #4
 1553              	.L250:
 1554 0ba2 0020     		movs	r0, #0
 1555 0ba4 FAE7     		b	.L247
 1556              	.L257:
 1557 0ba6 00BF     		.align	2
 1558              	.L256:
 1559 0ba8 00000000 		.word	.LANCHOR0
 1561              		.align	1
 1562              		.global	naveg_pot_change
 1563              		.syntax unified
 1564              		.thumb
 1565              		.thumb_func
 1566              		.fpu softvfp
 1568              	naveg_pot_change:
 1569              		@ args = 0, pretend = 0, frame = 0
 1570              		@ frame_needed = 0, uses_anonymous_args = 0
 1571 0bac 2DE9F843 		push	{r3, r4, r5, r6, r7, r8, r9, lr}
 1572 0bb0 2C4B     		ldr	r3, .L263
 1573 0bb2 93F86030 		ldrb	r3, [r3, #96]	@ zero_extendqisi2
 1574 0bb6 002B     		cmp	r3, #0
 1575 0bb8 52D0     		beq	.L258
 1576 0bba 0728     		cmp	r0, #7
 1577 0bbc 50D8     		bhi	.L258
 1578 0bbe 294B     		ldr	r3, .L263
 1579 0bc0 03EB8003 		add	r3, r3, r0, lsl #2
 1580 0bc4 1B6B     		ldr	r3, [r3, #48]
 1581 0bc6 002B     		cmp	r3, #0
 1582 0bc8 4AD0     		beq	.L258
 1583 0bca 0546     		mov	r5, r0
 1584 0bcc FFF7FEFF 		bl	hardware_get_pot_value
 1585 0bd0 A0EB0033 		sub	r3, r0, r0, lsl #12
 1586 0bd4 244C     		ldr	r4, .L263+4
 1587 0bd6 84FB0324 		smull	r2, r4, r4, r3
 1588 0bda E018     		adds	r0, r4, r3
 1589 0bdc DC17     		asrs	r4, r3, #31
 1590 0bde C4EBE024 		rsb	r4, r4, r0, asr #11
 1591 0be2 04F6FF74 		addw	r4, r4, #4095
 1592 0be6 A4B2     		uxth	r4, r4
 1593 0be8 772C     		cmp	r4, #119
 1594 0bea 06D9     		bls	.L261
 1595 0bec 40F6FF73 		movw	r3, #4095
 1596 0bf0 B4F57A6F 		cmp	r4, #4000
 1597 0bf4 88BF     		it	hi
 1598 0bf6 1C46     		movhi	r4, r3
 1599 0bf8 00E0     		b	.L260
 1600              	.L261:
 1601 0bfa 0024     		movs	r4, #0
 1602              	.L260:
 1603 0bfc 194E     		ldr	r6, .L263
 1604 0bfe 06EB8506 		add	r6, r6, r5, lsl #2
 1605 0c02 376B     		ldr	r7, [r6, #48]
 1606 0c04 D7F81880 		ldr	r8, [r7, #24]	@ float
 1607 0c08 4146     		mov	r1, r8
 1608 0c0a F869     		ldr	r0, [r7, #28]	@ float
 1609 0c0c FFF7FEFF 		bl	__aeabi_fsub
 1610 0c10 8146     		mov	r9, r0
 1611 0c12 2046     		mov	r0, r4
 1612 0c14 FFF7FEFF 		bl	__aeabi_i2f
 1613 0c18 0146     		mov	r1, r0
 1614 0c1a 4846     		mov	r0, r9
 1615 0c1c FFF7FEFF 		bl	__aeabi_fmul
 1616 0c20 1249     		ldr	r1, .L263+8
 1617 0c22 FFF7FEFF 		bl	__aeabi_fdiv
 1618 0c26 4146     		mov	r1, r8
 1619 0c28 FFF7FEFF 		bl	__aeabi_fadd
 1620 0c2c 7861     		str	r0, [r7, #20]	@ float
 1621 0c2e 346B     		ldr	r4, [r6, #48]
 1622 0c30 94F92100 		ldrsb	r0, [r4, #33]
 1623 0c34 FFF7FEFF 		bl	__aeabi_i2f
 1624 0c38 6169     		ldr	r1, [r4, #20]	@ float
 1625 0c3a FFF7FEFF 		bl	__aeabi_fmul
 1626 0c3e 0646     		mov	r6, r0
 1627 0c40 A169     		ldr	r1, [r4, #24]	@ float
 1628 0c42 E069     		ldr	r0, [r4, #28]	@ float
 1629 0c44 FFF7FEFF 		bl	__aeabi_fsub
 1630 0c48 0146     		mov	r1, r0
 1631 0c4a 3046     		mov	r0, r6
 1632 0c4c FFF7FEFF 		bl	__aeabi_fdiv
 1633 0c50 FFF7FEFF 		bl	__aeabi_f2iz
 1634 0c54 84F82000 		strb	r0, [r4, #32]
 1635 0c58 2146     		mov	r1, r4
 1636 0c5a 2846     		mov	r0, r5
 1637 0c5c FFF700FD 		bl	control_set
 1638              	.L258:
 1639 0c60 BDE8F883 		pop	{r3, r4, r5, r6, r7, r8, r9, pc}
 1640              	.L264:
 1641              		.align	2
 1642              	.L263:
 1643 0c64 00000000 		.word	.LANCHOR0
 1644 0c68 81000880 		.word	-2146959231
 1645 0c6c 00F07F45 		.word	1166012416
 1647              		.align	1
 1648              		.global	naveg_foot_change
 1649              		.syntax unified
 1650              		.thumb
 1651              		.thumb_func
 1652              		.fpu softvfp
 1654              	naveg_foot_change:
 1655              		@ args = 0, pretend = 0, frame = 0
 1656              		@ frame_needed = 0, uses_anonymous_args = 0
 1657 0c70 08B5     		push	{r3, lr}
 1658 0c72 414B     		ldr	r3, .L279
 1659 0c74 93F86030 		ldrb	r3, [r3, #96]	@ zero_extendqisi2
 1660 0c78 2BB3     		cbz	r3, .L265
 1661 0c7a 0628     		cmp	r0, #6
 1662 0c7c 23D8     		bhi	.L265
 1663 0c7e 0628     		cmp	r0, #6
 1664 0c80 21D8     		bhi	.L265
 1665 0c82 DFE800F0 		tbb	[pc, r0]
 1666              	.L268:
 1667 0c86 04       		.byte	(.L267-.L268)/2
 1668 0c87 04       		.byte	(.L267-.L268)/2
 1669 0c88 04       		.byte	(.L267-.L268)/2
 1670 0c89 04       		.byte	(.L267-.L268)/2
 1671 0c8a 0C       		.byte	(.L269-.L268)/2
 1672 0c8b 2C       		.byte	(.L270-.L268)/2
 1673 0c8c 0C       		.byte	(.L269-.L268)/2
 1674 0c8d 00       		.p2align 1
 1675              	.L267:
 1676 0c8e 3A4B     		ldr	r3, .L279
 1677 0c90 03EB8003 		add	r3, r3, r0, lsl #2
 1678 0c94 5969     		ldr	r1, [r3, #20]
 1679 0c96 B1B1     		cbz	r1, .L265
 1680 0c98 FFF7E2FC 		bl	control_set
 1681 0c9c 13E0     		b	.L265
 1682              	.L269:
 1683 0c9e 0628     		cmp	r0, #6
 1684 0ca0 14BF     		ite	ne
 1685 0ca2 0022     		movne	r2, #0
 1686 0ca4 0122     		moveq	r2, #1
 1687 0ca6 344B     		ldr	r3, .L279
 1688 0ca8 1344     		add	r3, r3, r2
 1689 0caa 93F86830 		ldrb	r3, [r3, #104]	@ zero_extendqisi2
 1690 0cae 012B     		cmp	r3, #1
 1691 0cb0 0AD0     		beq	.L278
 1692 0cb2 314B     		ldr	r3, .L279
 1693 0cb4 1A44     		add	r2, r2, r3
 1694 0cb6 0123     		movs	r3, #1
 1695 0cb8 82F86830 		strb	r3, [r2, #104]
 1696 0cbc FFF7FEFF 		bl	hardware_leds
 1697 0cc0 0421     		movs	r1, #4
 1698 0cc2 FFF7FEFF 		bl	ledz_on
 1699              	.L265:
 1700 0cc6 08BD     		pop	{r3, pc}
 1701              	.L278:
 1702 0cc8 2B4B     		ldr	r3, .L279
 1703 0cca 1A44     		add	r2, r2, r3
 1704 0ccc 0023     		movs	r3, #0
 1705 0cce 82F86830 		strb	r3, [r2, #104]
 1706 0cd2 FFF7FEFF 		bl	hardware_leds
 1707 0cd6 0421     		movs	r1, #4
 1708 0cd8 FFF7FEFF 		bl	ledz_off
 1709 0cdc F3E7     		b	.L265
 1710              	.L270:
 1711 0cde 264B     		ldr	r3, .L279
 1712 0ce0 93F86930 		ldrb	r3, [r3, #105]	@ zero_extendqisi2
 1713 0ce4 032B     		cmp	r3, #3
 1714 0ce6 EED8     		bhi	.L265
 1715 0ce8 DFE803F0 		tbb	[pc, r3]
 1716              	.L273:
 1717 0cec 02       		.byte	(.L272-.L273)/2
 1718 0ced 15       		.byte	(.L274-.L273)/2
 1719 0cee 28       		.byte	(.L275-.L273)/2
 1720 0cef 3B       		.byte	(.L276-.L273)/2
 1721              		.p2align 1
 1722              	.L272:
 1723 0cf0 0520     		movs	r0, #5
 1724 0cf2 FFF7FEFF 		bl	hardware_leds
 1725 0cf6 0421     		movs	r1, #4
 1726 0cf8 FFF7FEFF 		bl	ledz_off
 1727 0cfc 0520     		movs	r0, #5
 1728 0cfe FFF7FEFF 		bl	hardware_leds
 1729 0d02 0121     		movs	r1, #1
 1730 0d04 FFF7FEFF 		bl	ledz_on
 1731 0d08 1B4A     		ldr	r2, .L279
 1732 0d0a 92F86930 		ldrb	r3, [r2, #105]	@ zero_extendqisi2
 1733 0d0e 0133     		adds	r3, r3, #1
 1734 0d10 82F86930 		strb	r3, [r2, #105]
 1735 0d14 D7E7     		b	.L265
 1736              	.L274:
 1737 0d16 0520     		movs	r0, #5
 1738 0d18 FFF7FEFF 		bl	hardware_leds
 1739 0d1c 0121     		movs	r1, #1
 1740 0d1e FFF7FEFF 		bl	ledz_off
 1741 0d22 0520     		movs	r0, #5
 1742 0d24 FFF7FEFF 		bl	hardware_leds
 1743 0d28 0221     		movs	r1, #2
 1744 0d2a FFF7FEFF 		bl	ledz_on
 1745 0d2e 124A     		ldr	r2, .L279
 1746 0d30 92F86930 		ldrb	r3, [r2, #105]	@ zero_extendqisi2
 1747 0d34 0133     		adds	r3, r3, #1
 1748 0d36 82F86930 		strb	r3, [r2, #105]
 1749 0d3a C4E7     		b	.L265
 1750              	.L275:
 1751 0d3c 0520     		movs	r0, #5
 1752 0d3e FFF7FEFF 		bl	hardware_leds
 1753 0d42 0221     		movs	r1, #2
 1754 0d44 FFF7FEFF 		bl	ledz_off
 1755 0d48 0520     		movs	r0, #5
 1756 0d4a FFF7FEFF 		bl	hardware_leds
 1757 0d4e 0421     		movs	r1, #4
 1758 0d50 FFF7FEFF 		bl	ledz_on
 1759 0d54 084A     		ldr	r2, .L279
 1760 0d56 92F86930 		ldrb	r3, [r2, #105]	@ zero_extendqisi2
 1761 0d5a 0133     		adds	r3, r3, #1
 1762 0d5c 82F86930 		strb	r3, [r2, #105]
 1763 0d60 B1E7     		b	.L265
 1764              	.L276:
 1765 0d62 0520     		movs	r0, #5
 1766 0d64 FFF7FEFF 		bl	hardware_leds
 1767 0d68 0421     		movs	r1, #4
 1768 0d6a FFF7FEFF 		bl	ledz_off
 1769 0d6e 024B     		ldr	r3, .L279
 1770 0d70 0022     		movs	r2, #0
 1771 0d72 83F86920 		strb	r2, [r3, #105]
 1772 0d76 A6E7     		b	.L265
 1773              	.L280:
 1774              		.align	2
 1775              	.L279:
 1776 0d78 00000000 		.word	.LANCHOR0
 1778              		.align	1
 1779              		.global	naveg_is_tool_mode
 1780              		.syntax unified
 1781              		.thumb
 1782              		.thumb_func
 1783              		.fpu softvfp
 1785              	naveg_is_tool_mode:
 1786              		@ args = 0, pretend = 0, frame = 0
 1787              		@ frame_needed = 0, uses_anonymous_args = 0
 1788 0d7c 08B5     		push	{r3, lr}
 1789 0d7e FFF73FF9 		bl	display_has_tool_enabled
 1790 0d82 C0B2     		uxtb	r0, r0
 1791 0d84 08BD     		pop	{r3, pc}
 1793              		.align	1
 1794              		.global	naveg_set_master_volume
 1795              		.syntax unified
 1796              		.thumb
 1797              		.thumb_func
 1798              		.fpu softvfp
 1800              	naveg_set_master_volume:
 1801              		@ args = 0, pretend = 0, frame = 0
 1802              		@ frame_needed = 0, uses_anonymous_args = 0
 1803 0d86 08B5     		push	{r3, lr}
 1804 0d88 234B     		ldr	r3, .L292
 1805 0d8a 1B7A     		ldrb	r3, [r3, #8]	@ zero_extendqisi2
 1806 0d8c 002B     		cmp	r3, #0
 1807 0d8e 3BD0     		beq	.L283
 1808 0d90 C0B1     		cbz	r0, .L285
 1809 0d92 FFF7FEFF 		bl	hardware_get_acceleration
 1810 0d96 214A     		ldr	r2, .L292+4
 1811 0d98 B2F86A30 		ldrh	r3, [r2, #106]
 1812 0d9c A3EB4000 		sub	r0, r3, r0, lsl #1
 1813 0da0 00B2     		sxth	r0, r0
 1814 0da2 A2F86A00 		strh	r0, [r2, #106]	@ movhi
 1815 0da6 10F13B0F 		cmn	r0, #59
 1816 0daa 05DA     		bge	.L290
 1817 0dac 1B4B     		ldr	r3, .L292+4
 1818 0dae 4FF6C472 		movw	r2, #65476
 1819 0db2 A3F86A20 		strh	r2, [r3, #106]	@ movhi
 1820 0db6 15E0     		b	.L287
 1821              	.L290:
 1822 0db8 FFF7FEFF 		bl	__aeabi_i2f
 1823 0dbc 0221     		movs	r1, #2
 1824 0dbe FFF7FEFF 		bl	system_master_volume_cb
 1825 0dc2 0FE0     		b	.L287
 1826              	.L285:
 1827 0dc4 FFF7FEFF 		bl	hardware_get_acceleration
 1828 0dc8 144A     		ldr	r2, .L292+4
 1829 0dca B2F86A30 		ldrh	r3, [r2, #106]
 1830 0dce 03EB4000 		add	r0, r3, r0, lsl #1
 1831 0dd2 00B2     		sxth	r0, r0
 1832 0dd4 A2F86A00 		strh	r0, [r2, #106]	@ movhi
 1833 0dd8 0028     		cmp	r0, #0
 1834 0dda 16DB     		blt	.L291
 1835 0ddc 0F4B     		ldr	r3, .L292+4
 1836 0dde 0022     		movs	r2, #0
 1837 0de0 A3F86A20 		strh	r2, [r3, #106]	@ movhi
 1838              	.L287:
 1839 0de4 0D4B     		ldr	r3, .L292+4
 1840 0de6 B3F96A30 		ldrsh	r3, [r3, #106]
 1841 0dea 03F13C00 		add	r0, r3, #60
 1842 0dee 6423     		movs	r3, #100
 1843 0df0 03FB00F3 		mul	r3, r3, r0
 1844 0df4 0A48     		ldr	r0, .L292+8
 1845 0df6 80FB0320 		smull	r2, r0, r0, r3
 1846 0dfa 1844     		add	r0, r0, r3
 1847 0dfc DB17     		asrs	r3, r3, #31
 1848 0dfe C3EB6010 		rsb	r0, r3, r0, asr #5
 1849 0e02 40B2     		sxtb	r0, r0
 1850 0e04 FFF7FEFF 		bl	screen_master_vol
 1851              	.L283:
 1852 0e08 08BD     		pop	{r3, pc}
 1853              	.L291:
 1854 0e0a FFF7FEFF 		bl	__aeabi_i2f
 1855 0e0e 0121     		movs	r1, #1
 1856 0e10 FFF7FEFF 		bl	system_master_volume_cb
 1857 0e14 E6E7     		b	.L287
 1858              	.L293:
 1859 0e16 00BF     		.align	2
 1860              	.L292:
 1861 0e18 00000000 		.word	g_tool
 1862 0e1c 00000000 		.word	.LANCHOR0
 1863 0e20 89888888 		.word	-2004318071
 1865              		.align	1
 1866              		.global	naveg_is_master_vol
 1867              		.syntax unified
 1868              		.thumb
 1869              		.thumb_func
 1870              		.fpu softvfp
 1872              	naveg_is_master_vol:
 1873              		@ args = 0, pretend = 0, frame = 0
 1874              		@ frame_needed = 0, uses_anonymous_args = 0
 1875              		@ link register save eliminated.
 1876 0e24 024B     		ldr	r3, .L295
 1877 0e26 187A     		ldrb	r0, [r3, #8]	@ zero_extendqisi2
 1878 0e28 0030     		adds	r0, r0, #0
 1879 0e2a 18BF     		it	ne
 1880 0e2c 0120     		movne	r0, #1
 1881 0e2e 7047     		bx	lr
 1882              	.L296:
 1883              		.align	2
 1884              	.L295:
 1885 0e30 00000000 		.word	g_tool
 1887              		.align	1
 1888              		.global	naveg_enter
 1889              		.syntax unified
 1890              		.thumb
 1891              		.thumb_func
 1892              		.fpu softvfp
 1894              	naveg_enter:
 1895              		@ args = 0, pretend = 0, frame = 128
 1896              		@ frame_needed = 0, uses_anonymous_args = 0
 1897 0e34 374B     		ldr	r3, .L314
 1898 0e36 93F86030 		ldrb	r3, [r3, #96]	@ zero_extendqisi2
 1899 0e3a 002B     		cmp	r3, #0
 1900 0e3c 69D0     		beq	.L307
 1901 0e3e 70B5     		push	{r4, r5, r6, lr}
 1902 0e40 A0B0     		sub	sp, sp, #128
 1903 0e42 0446     		mov	r4, r0
 1904 0e44 FFF7DCF8 		bl	display_has_tool_enabled
 1905 0e48 B0B1     		cbz	r0, .L297
 1906 0e4a 9CB9     		cbnz	r4, .L299
 1907 0e4c 324B     		ldr	r3, .L314+4
 1908 0e4e 9B78     		ldrb	r3, [r3, #2]	@ zero_extendqisi2
 1909 0e50 63B9     		cbnz	r3, .L310
 1910 0e52 304B     		ldr	r3, .L314
 1911 0e54 D868     		ldr	r0, [r3, #12]
 1912 0e56 4268     		ldr	r2, [r0, #4]
 1913 0e58 D388     		ldrh	r3, [r2, #6]
 1914 0e5a B42B     		cmp	r3, #180
 1915 0e5c 01D0     		beq	.L301
 1916 0e5e AA2B     		cmp	r3, #170
 1917 0e60 0AD1     		bne	.L297
 1918              	.L301:
 1919 0e62 D368     		ldr	r3, [r2, #12]
 1920 0e64 43B1     		cbz	r3, .L297
 1921 0e66 0021     		movs	r1, #0
 1922 0e68 9847     		blx	r3
 1923 0e6a 05E0     		b	.L297
 1924              	.L310:
 1925 0e6c 0020     		movs	r0, #0
 1926 0e6e 00F0A3FB 		bl	menu_enter
 1927 0e72 01E0     		b	.L297
 1928              	.L299:
 1929 0e74 012C     		cmp	r4, #1
 1930 0e76 01D0     		beq	.L311
 1931              	.L297:
 1932 0e78 20B0     		add	sp, sp, #128
 1933              		@ sp needed
 1934 0e7a 70BD     		pop	{r4, r5, r6, pc}
 1935              	.L311:
 1936 0e7c 264B     		ldr	r3, .L314+4
 1937 0e7e 9B78     		ldrb	r3, [r3, #2]	@ zero_extendqisi2
 1938 0e80 B3B9     		cbnz	r3, .L312
 1939 0e82 254B     		ldr	r3, .L314+4
 1940 0e84 1B79     		ldrb	r3, [r3, #4]	@ zero_extendqisi2
 1941 0e86 002B     		cmp	r3, #0
 1942 0e88 36D1     		bne	.L313
 1943 0e8a 234B     		ldr	r3, .L314+4
 1944 0e8c 9B79     		ldrb	r3, [r3, #6]	@ zero_extendqisi2
 1945 0e8e 002B     		cmp	r3, #0
 1946 0e90 F2D0     		beq	.L297
 1947 0e92 204B     		ldr	r3, .L314
 1948 0e94 5A6D     		ldr	r2, [r3, #84]
 1949 0e96 1B6D     		ldr	r3, [r3, #80]
 1950 0e98 9A42     		cmp	r2, r3
 1951 0e9a EDD0     		beq	.L297
 1952 0e9c 1D4B     		ldr	r3, .L314
 1953 0e9e DB68     		ldr	r3, [r3, #12]
 1954 0ea0 5B68     		ldr	r3, [r3, #4]
 1955 0ea2 DB88     		ldrh	r3, [r3, #6]
 1956 0ea4 002B     		cmp	r3, #0
 1957 0ea6 E7D0     		beq	.L297
 1958 0ea8 0120     		movs	r0, #1
 1959 0eaa 00F085FB 		bl	menu_enter
 1960 0eae E3E7     		b	.L297
 1961              	.L312:
 1962 0eb0 1A49     		ldr	r1, .L314+8
 1963 0eb2 6846     		mov	r0, sp
 1964 0eb4 FFF7FEFF 		bl	copy_command
 1965 0eb8 0546     		mov	r5, r0
 1966 0eba 194B     		ldr	r3, .L314+12
 1967 0ebc 93F80436 		ldrb	r3, [r3, #1540]	@ zero_extendqisi2
 1968 0ec0 012B     		cmp	r3, #1
 1969 0ec2 08BF     		it	eq
 1970 0ec4 0224     		moveq	r4, #2
 1971 0ec6 164E     		ldr	r6, .L314+12
 1972 0ec8 86F80446 		strb	r4, [r6, #1540]
 1973 0ecc 0023     		movs	r3, #0
 1974 0ece C0F18002 		rsb	r2, r0, #128
 1975 0ed2 0DEB0001 		add	r1, sp, r0
 1976 0ed6 2046     		mov	r0, r4
 1977 0ed8 FFF7FEFF 		bl	int_to_str
 1978 0edc 2918     		adds	r1, r5, r0
 1979 0ede 20AB     		add	r3, sp, #128
 1980 0ee0 0B44     		add	r3, r3, r1
 1981 0ee2 0022     		movs	r2, #0
 1982 0ee4 03F8802C 		strb	r2, [r3, #-128]
 1983 0ee8 6846     		mov	r0, sp
 1984 0eea FFF7FEFF 		bl	comm_webgui_send
 1985 0eee 96F80406 		ldrb	r0, [r6, #1540]	@ zero_extendqisi2
 1986 0ef2 FFF7FEFF 		bl	screen_tuner_input
 1987 0ef6 BFE7     		b	.L297
 1988              	.L313:
 1989 0ef8 074B     		ldr	r3, .L314+4
 1990 0efa 0021     		movs	r1, #0
 1991 0efc 1971     		strb	r1, [r3, #4]
 1992 0efe 0122     		movs	r2, #1
 1993 0f00 1A70     		strb	r2, [r3]
 1994 0f02 5970     		strb	r1, [r3, #1]
 1995 0f04 9A71     		strb	r2, [r3, #6]
 1996 0f06 DA71     		strb	r2, [r3, #7]
 1997 0f08 024B     		ldr	r3, .L314
 1998 0f0a D868     		ldr	r0, [r3, #12]
 1999 0f0c FFF7FEFF 		bl	screen_system_menu
 2000 0f10 B2E7     		b	.L297
 2001              	.L307:
 2002 0f12 7047     		bx	lr
 2003              	.L315:
 2004              		.align	2
 2005              	.L314:
 2006 0f14 00000000 		.word	.LANCHOR0
 2007 0f18 00000000 		.word	g_tool
 2008 0f1c 38000000 		.word	.LC10
 2009 0f20 00000000 		.word	.LANCHOR1
 2011              		.align	1
 2012              		.global	naveg_master_volume
 2013              		.syntax unified
 2014              		.thumb
 2015              		.thumb_func
 2016              		.fpu softvfp
 2018              	naveg_master_volume:
 2019              		@ args = 0, pretend = 0, frame = 0
 2020              		@ frame_needed = 0, uses_anonymous_args = 0
 2021 0f24 10B5     		push	{r4, lr}
 2022 0f26 0446     		mov	r4, r0
 2023 0f28 254B     		ldr	r3, .L326
 2024 0f2a 1B78     		ldrb	r3, [r3]	@ zero_extendqisi2
 2025 0f2c 33BB     		cbnz	r3, .L323
 2026 0f2e 0321     		movs	r1, #3
 2027 0f30 0020     		movs	r0, #0
 2028 0f32 FFF7FEFF 		bl	system_master_volume_cb
 2029 0f36 FFF7FEFF 		bl	__aeabi_f2iz
 2030 0f3a 00B2     		sxth	r0, r0
 2031 0f3c 214B     		ldr	r3, .L326+4
 2032 0f3e A3F86A00 		strh	r0, [r3, #106]	@ movhi
 2033 0f42 F0B1     		cbz	r0, .L324
 2034              	.L319:
 2035 0f44 012C     		cmp	r4, #1
 2036 0f46 06D1     		bne	.L320
 2037 0f48 1D4B     		ldr	r3, .L326
 2038 0f4a 1B7A     		ldrb	r3, [r3, #8]	@ zero_extendqisi2
 2039 0f4c F3B9     		cbnz	r3, .L325
 2040 0f4e 1C4B     		ldr	r3, .L326
 2041 0f50 0122     		movs	r2, #1
 2042 0f52 1A72     		strb	r2, [r3, #8]
 2043 0f54 5A72     		strb	r2, [r3, #9]
 2044              	.L320:
 2045 0f56 1B4B     		ldr	r3, .L326+4
 2046 0f58 B3F96A30 		ldrsh	r3, [r3, #106]
 2047 0f5c 03F13C00 		add	r0, r3, #60
 2048 0f60 6423     		movs	r3, #100
 2049 0f62 03FB00F3 		mul	r3, r3, r0
 2050 0f66 1848     		ldr	r0, .L326+8
 2051 0f68 80FB0320 		smull	r2, r0, r0, r3
 2052 0f6c 1844     		add	r0, r0, r3
 2053 0f6e DB17     		asrs	r3, r3, #31
 2054 0f70 C3EB6010 		rsb	r0, r3, r0, asr #5
 2055 0f74 40B2     		sxtb	r0, r0
 2056 0f76 FFF7FEFF 		bl	screen_master_vol
 2057 0f7a 01E0     		b	.L316
 2058              	.L323:
 2059 0f7c FFF7FEFF 		bl	naveg_enter
 2060              	.L316:
 2061 0f80 10BD     		pop	{r4, pc}
 2062              	.L324:
 2063 0f82 0021     		movs	r1, #0
 2064 0f84 0846     		mov	r0, r1
 2065 0f86 FFF7FEFF 		bl	system_save_gains_cb
 2066 0f8a DBE7     		b	.L319
 2067              	.L325:
 2068 0f8c 0020     		movs	r0, #0
 2069 0f8e 0C4B     		ldr	r3, .L326
 2070 0f90 1872     		strb	r0, [r3, #8]
 2071 0f92 0146     		mov	r1, r0
 2072 0f94 FFF7FEFF 		bl	system_save_gains_cb
 2073 0f98 0A4B     		ldr	r3, .L326+4
 2074 0f9a B3F96A30 		ldrsh	r3, [r3, #106]
 2075 0f9e 03F13C00 		add	r0, r3, #60
 2076 0fa2 6423     		movs	r3, #100
 2077 0fa4 03FB00F3 		mul	r3, r3, r0
 2078 0fa8 0748     		ldr	r0, .L326+8
 2079 0faa 80FB0320 		smull	r2, r0, r0, r3
 2080 0fae 1844     		add	r0, r0, r3
 2081 0fb0 DB17     		asrs	r3, r3, #31
 2082 0fb2 C3EB6010 		rsb	r0, r3, r0, asr #5
 2083 0fb6 40B2     		sxtb	r0, r0
 2084 0fb8 FFF7FEFF 		bl	screen_master_vol
 2085 0fbc E0E7     		b	.L316
 2086              	.L327:
 2087 0fbe 00BF     		.align	2
 2088              	.L326:
 2089 0fc0 00000000 		.word	g_tool
 2090 0fc4 00000000 		.word	.LANCHOR0
 2091 0fc8 89888888 		.word	-2004318071
 2093              		.align	1
 2094              		.global	naveg_remove_control
 2095              		.syntax unified
 2096              		.thumb
 2097              		.thumb_func
 2098              		.fpu softvfp
 2100              	naveg_remove_control:
 2101              		@ args = 0, pretend = 0, frame = 16
 2102              		@ frame_needed = 0, uses_anonymous_args = 0
 2103 0fcc 834B     		ldr	r3, .L366
 2104 0fce 93F86030 		ldrb	r3, [r3, #96]	@ zero_extendqisi2
 2105 0fd2 03B9     		cbnz	r3, .L355
 2106 0fd4 7047     		bx	lr
 2107              	.L355:
 2108 0fd6 2DE9F04F 		push	{r4, r5, r6, r7, r8, r9, r10, fp, lr}
 2109 0fda 85B0     		sub	sp, sp, #20
 2110 0fdc 0191     		str	r1, [sp, #4]
 2111 0fde 0546     		mov	r5, r0
 2112 0fe0 0DF10F02 		add	r2, sp, #15
 2113 0fe4 FFF735F8 		bl	search_encoder
 2114 0fe8 C8B1     		cbz	r0, .L330
 2115 0fea FFF7FEFF 		bl	data_free_control
 2116 0fee 9DF80F40 		ldrb	r4, [sp, #15]	@ zero_extendqisi2
 2117 0ff2 7A4B     		ldr	r3, .L366
 2118 0ff4 0022     		movs	r2, #0
 2119 0ff6 43F82420 		str	r2, [r3, r4, lsl #2]
 2120 0ffa 2046     		mov	r0, r4
 2121 0ffc FFF700F8 		bl	display_has_tool_enabled
 2122 1000 40B1     		cbz	r0, .L356
 2123              	.L336:
 2124 1002 7749     		ldr	r1, .L366+4
 2125 1004 0198     		ldr	r0, [sp, #4]
 2126 1006 FFF7FEFF 		bl	strcmp
 2127 100a 8346     		mov	fp, r0
 2128 100c 754E     		ldr	r6, .L366+8
 2129 100e 0024     		movs	r4, #0
 2130 1010 A246     		mov	r10, r4
 2131 1012 5FE0     		b	.L341
 2132              	.L356:
 2133 1014 0021     		movs	r1, #0
 2134 1016 2046     		mov	r0, r4
 2135 1018 FFF7FEFF 		bl	screen_encoder
 2136 101c F1E7     		b	.L336
 2137              	.L330:
 2138 101e 7049     		ldr	r1, .L366+4
 2139 1020 0198     		ldr	r0, [sp, #4]
 2140 1022 FFF7FEFF 		bl	strcmp
 2141 1026 0023     		movs	r3, #0
 2142 1028 8DF80F30 		strb	r3, [sp, #15]
 2143 102c 6B4C     		ldr	r4, .L366
 2144 102e 1F46     		mov	r7, r3
 2145 1030 8046     		mov	r8, r0
 2146 1032 12E0     		b	.L335
 2147              	.L334:
 2148 1034 3046     		mov	r0, r6
 2149 1036 FFF7FEFF 		bl	data_free_control
 2150 103a 9DF80F60 		ldrb	r6, [sp, #15]	@ zero_extendqisi2
 2151 103e 44F82670 		str	r7, [r4, r6, lsl #2]
 2152 1042 3046     		mov	r0, r6
 2153 1044 FEF7DCFF 		bl	display_has_tool_enabled
 2154 1048 D0B1     		cbz	r0, .L357
 2155              	.L333:
 2156 104a 9DF80F30 		ldrb	r3, [sp, #15]	@ zero_extendqisi2
 2157 104e 0133     		adds	r3, r3, #1
 2158 1050 DBB2     		uxtb	r3, r3
 2159 1052 8DF80F30 		strb	r3, [sp, #15]
 2160 1056 012B     		cmp	r3, #1
 2161 1058 D3D8     		bhi	.L336
 2162              	.L335:
 2163 105a 54F82360 		ldr	r6, [r4, r3, lsl #2]
 2164 105e B5F1FF3F 		cmp	r5, #-1
 2165 1062 03D0     		beq	.L332
 2166 1064 96F91030 		ldrsb	r3, [r6, #16]
 2167 1068 9D42     		cmp	r5, r3
 2168 106a EED1     		bne	.L333
 2169              	.L332:
 2170 106c B8F1000F 		cmp	r8, #0
 2171 1070 E0D0     		beq	.L334
 2172 1072 0199     		ldr	r1, [sp, #4]
 2173 1074 B068     		ldr	r0, [r6, #8]
 2174 1076 FFF7FEFF 		bl	strcmp
 2175 107a 0028     		cmp	r0, #0
 2176 107c E5D1     		bne	.L333
 2177 107e D9E7     		b	.L334
 2178              	.L357:
 2179 1080 3946     		mov	r1, r7
 2180 1082 3046     		mov	r0, r6
 2181 1084 FFF7FEFF 		bl	screen_encoder
 2182 1088 DFE7     		b	.L333
 2183              	.L360:
 2184 108a 4046     		mov	r0, r8
 2185 108c FEF7DFFF 		bl	bank_config_check
 2186 1090 38BB     		cbnz	r0, .L337
 2187 1092 B8F1010F 		cmp	r8, #1
 2188 1096 94BF     		ite	ls
 2189 1098 0020     		movls	r0, #0
 2190 109a 0120     		movhi	r0, #1
 2191 109c FEF7B0FF 		bl	display_has_tool_enabled
 2192 10a0 F8B9     		cbnz	r0, .L337
 2193 10a2 5246     		mov	r2, r10
 2194 10a4 5146     		mov	r1, r10
 2195 10a6 4046     		mov	r0, r8
 2196 10a8 FFF7FEFF 		bl	screen_footer
 2197 10ac 0FE0     		b	.L338
 2198              	.L340:
 2199 10ae 3846     		mov	r0, r7
 2200 10b0 FFF7FEFF 		bl	data_free_control
 2201 10b4 C9F800A0 		str	r10, [r9]
 2202 10b8 04EB4403 		add	r3, r4, r4, lsl #1
 2203 10bc 4A4A     		ldr	r2, .L366+12
 2204 10be 02EB8303 		add	r3, r2, r3, lsl #2
 2205 10c2 83F808A0 		strb	r10, [r3, #8]
 2206 10c6 4046     		mov	r0, r8
 2207 10c8 FEF7C1FF 		bl	bank_config_check
 2208 10cc D0B1     		cbz	r0, .L358
 2209              	.L338:
 2210 10ce 0134     		adds	r4, r4, #1
 2211 10d0 072C     		cmp	r4, #7
 2212 10d2 2CD0     		beq	.L359
 2213              	.L341:
 2214 10d4 5FFA84F8 		uxtb	r8, r4
 2215 10d8 0436     		adds	r6, r6, #4
 2216 10da B146     		mov	r9, r6
 2217 10dc 3768     		ldr	r7, [r6]
 2218 10de 002F     		cmp	r7, #0
 2219 10e0 D3D0     		beq	.L360
 2220              	.L337:
 2221 10e2 B5F1FF3F 		cmp	r5, #-1
 2222 10e6 03D0     		beq	.L339
 2223 10e8 97F91030 		ldrsb	r3, [r7, #16]
 2224 10ec 9D42     		cmp	r5, r3
 2225 10ee EED1     		bne	.L338
 2226              	.L339:
 2227 10f0 BBF1000F 		cmp	fp, #0
 2228 10f4 DBD0     		beq	.L340
 2229 10f6 B968     		ldr	r1, [r7, #8]
 2230 10f8 0198     		ldr	r0, [sp, #4]
 2231 10fa FFF7FEFF 		bl	strcmp
 2232 10fe 0028     		cmp	r0, #0
 2233 1100 E5D1     		bne	.L338
 2234 1102 D4E7     		b	.L340
 2235              	.L358:
 2236 1104 4046     		mov	r0, r8
 2237 1106 FFF7FEFF 		bl	hardware_leds
 2238 110a FF21     		movs	r1, #255
 2239 110c FFF7FEFF 		bl	ledz_off
 2240 1110 B8F1010F 		cmp	r8, #1
 2241 1114 94BF     		ite	ls
 2242 1116 0020     		movls	r0, #0
 2243 1118 0120     		movhi	r0, #1
 2244 111a FEF771FF 		bl	display_has_tool_enabled
 2245 111e 0028     		cmp	r0, #0
 2246 1120 D5D1     		bne	.L338
 2247 1122 5246     		mov	r2, r10
 2248 1124 5146     		mov	r1, r10
 2249 1126 4046     		mov	r0, r8
 2250 1128 FFF7FEFF 		bl	screen_footer
 2251 112c CFE7     		b	.L338
 2252              	.L359:
 2253 112e 2C49     		ldr	r1, .L366+4
 2254 1130 0198     		ldr	r0, [sp, #4]
 2255 1132 FFF7FEFF 		bl	strcmp
 2256 1136 8046     		mov	r8, r0
 2257 1138 2C4E     		ldr	r6, .L366+16
 2258 113a 0024     		movs	r4, #0
 2259 113c A146     		mov	r9, r4
 2260 113e 1BE0     		b	.L346
 2261              	.L363:
 2262 1140 032C     		cmp	r4, #3
 2263 1142 94BF     		ite	ls
 2264 1144 0020     		movls	r0, #0
 2265 1146 0120     		movhi	r0, #1
 2266 1148 FEF75AFF 		bl	display_has_tool_enabled
 2267 114c C8B9     		cbnz	r0, .L342
 2268 114e 4946     		mov	r1, r9
 2269 1150 2046     		mov	r0, r4
 2270 1152 FFF7FEFF 		bl	screen_pot
 2271 1156 0BE0     		b	.L343
 2272              	.L345:
 2273 1158 3846     		mov	r0, r7
 2274 115a FFF7FEFF 		bl	data_free_control
 2275 115e CAF80090 		str	r9, [r10]
 2276 1162 032C     		cmp	r4, #3
 2277 1164 94BF     		ite	ls
 2278 1166 0020     		movls	r0, #0
 2279 1168 0120     		movhi	r0, #1
 2280 116a FEF749FF 		bl	display_has_tool_enabled
 2281 116e C8B1     		cbz	r0, .L361
 2282              	.L343:
 2283 1170 0134     		adds	r4, r4, #1
 2284 1172 E4B2     		uxtb	r4, r4
 2285 1174 082C     		cmp	r4, #8
 2286 1176 1AD0     		beq	.L362
 2287              	.L346:
 2288 1178 0436     		adds	r6, r6, #4
 2289 117a B246     		mov	r10, r6
 2290 117c 3768     		ldr	r7, [r6]
 2291 117e 002F     		cmp	r7, #0
 2292 1180 DED0     		beq	.L363
 2293              	.L342:
 2294 1182 B5F1FF3F 		cmp	r5, #-1
 2295 1186 03D0     		beq	.L344
 2296 1188 97F91030 		ldrsb	r3, [r7, #16]
 2297 118c 9D42     		cmp	r5, r3
 2298 118e EFD1     		bne	.L343
 2299              	.L344:
 2300 1190 B8F1000F 		cmp	r8, #0
 2301 1194 E0D0     		beq	.L345
 2302 1196 B968     		ldr	r1, [r7, #8]
 2303 1198 0198     		ldr	r0, [sp, #4]
 2304 119a FFF7FEFF 		bl	strcmp
 2305 119e 0028     		cmp	r0, #0
 2306 11a0 E6D1     		bne	.L343
 2307 11a2 D9E7     		b	.L345
 2308              	.L361:
 2309 11a4 4946     		mov	r1, r9
 2310 11a6 2046     		mov	r0, r4
 2311 11a8 FFF7FEFF 		bl	screen_pot
 2312 11ac E0E7     		b	.L343
 2313              	.L362:
 2314 11ae 0020     		movs	r0, #0
 2315 11b0 FEF726FF 		bl	display_has_tool_enabled
 2316 11b4 30B1     		cbz	r0, .L364
 2317              	.L347:
 2318 11b6 0120     		movs	r0, #1
 2319 11b8 FEF722FF 		bl	display_has_tool_enabled
 2320 11bc 58B1     		cbz	r0, .L365
 2321              	.L328:
 2322 11be 05B0     		add	sp, sp, #20
 2323              		@ sp needed
 2324 11c0 BDE8F08F 		pop	{r4, r5, r6, r7, r8, r9, r10, fp, pc}
 2325              	.L364:
 2326 11c4 0021     		movs	r1, #0
 2327 11c6 0A48     		ldr	r0, .L366+20
 2328 11c8 FFF7FEFF 		bl	comm_webgui_set_response_cb
 2329 11cc 0B21     		movs	r1, #11
 2330 11ce 0948     		ldr	r0, .L366+24
 2331 11d0 FFF7FEFF 		bl	comm_webgui_send
 2332 11d4 EFE7     		b	.L347
 2333              	.L365:
 2334 11d6 FFF7FEFF 		bl	naveg_master_volume
 2335 11da F0E7     		b	.L328
 2336              	.L367:
 2337              		.align	2
 2338              	.L366:
 2339 11dc 00000000 		.word	.LANCHOR0
 2340 11e0 48000000 		.word	.LC11
 2341 11e4 10000000 		.word	.LANCHOR0+16
 2342 11e8 00000000 		.word	g_tap_tempo
 2343 11ec 2C000000 		.word	.LANCHOR0+44
 2344 11f0 00000000 		.word	screen_top_info
 2345 11f4 50000000 		.word	.LC12
 2347              		.global	__aeabi_i2d
 2348              		.global	__aeabi_ddiv
 2349              		.global	__aeabi_d2iz
 2350              		.align	1
 2351              		.global	naveg_add_control
 2352              		.syntax unified
 2353              		.thumb
 2354              		.thumb_func
 2355              		.fpu softvfp
 2357              	naveg_add_control:
 2358              		@ args = 0, pretend = 0, frame = 0
 2359              		@ frame_needed = 0, uses_anonymous_args = 0
 2360 11f8 2DE9F84F 		push	{r3, r4, r5, r6, r7, r8, r9, r10, fp, lr}
 2361 11fc 8C4B     		ldr	r3, .L401
 2362 11fe 93F86030 		ldrb	r3, [r3, #96]	@ zero_extendqisi2
 2363 1202 73B1     		cbz	r3, .L368
 2364 1204 68B1     		cbz	r0, .L368
 2365 1206 8246     		mov	r10, r0
 2366 1208 8168     		ldr	r1, [r0, #8]
 2367 120a 90F91000 		ldrsb	r0, [r0, #16]
 2368 120e FFF7FEFF 		bl	naveg_remove_control
 2369 1212 9AF80230 		ldrb	r3, [r10, #2]	@ zero_extendqisi2
 2370 1216 022B     		cmp	r3, #2
 2371 1218 05D0     		beq	.L370
 2372 121a 032B     		cmp	r3, #3
 2373 121c 7AD0     		beq	.L371
 2374 121e 012B     		cmp	r3, #1
 2375 1220 74D0     		beq	.L399
 2376              	.L368:
 2377 1222 BDE8F88F 		pop	{r3, r4, r5, r6, r7, r8, r9, r10, fp, pc}
 2378              	.L370:
 2379 1226 9AF80360 		ldrb	r6, [r10, #3]	@ zero_extendqisi2
 2380 122a 814B     		ldr	r3, .L401
 2381 122c 53F82600 		ldr	r0, [r3, r6, lsl #2]
 2382 1230 08B1     		cbz	r0, .L373
 2383 1232 FFF7FEFF 		bl	data_free_control
 2384              	.L373:
 2385 1236 7E4B     		ldr	r3, .L401
 2386 1238 43F826A0 		str	r10, [r3, r6, lsl #2]
 2387 123c 9AF81230 		ldrb	r3, [r10, #18]	@ zero_extendqisi2
 2388 1240 082B     		cmp	r3, #8
 2389 1242 0DD0     		beq	.L375
 2390 1244 802B     		cmp	r3, #128
 2391 1246 3AD0     		beq	.L376
 2392 1248 042B     		cmp	r3, #4
 2393 124a 09D0     		beq	.L375
 2394              	.L374:
 2395 124c 3046     		mov	r0, r6
 2396 124e FEF7D7FE 		bl	display_has_tool_enabled
 2397 1252 0028     		cmp	r0, #0
 2398 1254 E5D1     		bne	.L368
 2399 1256 5146     		mov	r1, r10
 2400 1258 3046     		mov	r0, r6
 2401 125a FFF7FEFF 		bl	screen_encoder
 2402 125e E0E7     		b	.L368
 2403              	.L375:
 2404 1260 0023     		movs	r3, #0
 2405 1262 8AF82030 		strb	r3, [r10, #32]
 2406 1266 0123     		movs	r3, #1
 2407 1268 8AF81330 		strb	r3, [r10, #19]
 2408 126c 9AF82470 		ldrb	r7, [r10, #36]	@ zero_extendqisi2
 2409 1270 07B3     		cbz	r7, .L377
 2410 1272 DAF81480 		ldr	r8, [r10, #20]	@ float
 2411 1276 DAF82850 		ldr	r5, [r10, #40]
 2412 127a 2B68     		ldr	r3, [r5]
 2413 127c 93F90400 		ldrsb	r0, [r3, #4]
 2414 1280 FFF7FEFF 		bl	__aeabi_i2f
 2415 1284 0146     		mov	r1, r0
 2416 1286 4046     		mov	r0, r8
 2417 1288 FFF7FEFF 		bl	__aeabi_fcmpeq
 2418 128c 0024     		movs	r4, #0
 2419 128e A0B9     		cbnz	r0, .L400
 2420              	.L380:
 2421 1290 0134     		adds	r4, r4, #1
 2422 1292 E4B2     		uxtb	r4, r4
 2423 1294 A742     		cmp	r7, r4
 2424 1296 0DD0     		beq	.L377
 2425 1298 55F8043F 		ldr	r3, [r5, #4]!
 2426 129c 93F90400 		ldrsb	r0, [r3, #4]
 2427 12a0 FFF7FEFF 		bl	__aeabi_i2f
 2428 12a4 0146     		mov	r1, r0
 2429 12a6 4046     		mov	r0, r8
 2430 12a8 FFF7FEFF 		bl	__aeabi_fcmpeq
 2431 12ac 0028     		cmp	r0, #0
 2432 12ae EFD0     		beq	.L380
 2433              	.L378:
 2434 12b0 8AF82040 		strb	r4, [r10, #32]
 2435              	.L377:
 2436 12b4 8AF82170 		strb	r7, [r10, #33]
 2437 12b8 C8E7     		b	.L374
 2438              	.L400:
 2439 12ba 0024     		movs	r4, #0
 2440 12bc F8E7     		b	.L378
 2441              	.L376:
 2442 12be DAF81850 		ldr	r5, [r10, #24]	@ float
 2443 12c2 2946     		mov	r1, r5
 2444 12c4 DAF81C00 		ldr	r0, [r10, #28]	@ float
 2445 12c8 FFF7FEFF 		bl	__aeabi_fsub
 2446 12cc 0746     		mov	r7, r0
 2447 12ce 4FF07E51 		mov	r1, #1065353216
 2448 12d2 FFF7FEFF 		bl	__aeabi_fadd
 2449 12d6 FFF7FEFF 		bl	__aeabi_f2iz
 2450 12da 44B2     		sxtb	r4, r0
 2451 12dc 8AF82140 		strb	r4, [r10, #33]
 2452 12e0 2946     		mov	r1, r5
 2453 12e2 DAF81400 		ldr	r0, [r10, #20]	@ float
 2454 12e6 FFF7FEFF 		bl	__aeabi_fsub
 2455 12ea 0546     		mov	r5, r0
 2456 12ec 2046     		mov	r0, r4
 2457 12ee FFF7FEFF 		bl	__aeabi_i2f
 2458 12f2 0146     		mov	r1, r0
 2459 12f4 3846     		mov	r0, r7
 2460 12f6 FFF7FEFF 		bl	__aeabi_fdiv
 2461 12fa 0146     		mov	r1, r0
 2462 12fc 2846     		mov	r0, r5
 2463 12fe FFF7FEFF 		bl	__aeabi_fdiv
 2464 1302 FFF7FEFF 		bl	__aeabi_f2iz
 2465 1306 8AF82000 		strb	r0, [r10, #32]
 2466 130a 9FE7     		b	.L374
 2467              	.L399:
 2468 130c 5046     		mov	r0, r10
 2469 130e FEF7F5FF 		bl	foot_control_add
 2470 1312 86E7     		b	.L368
 2471              	.L371:
 2472 1314 9AF803B0 		ldrb	fp, [r10, #3]	@ zero_extendqisi2
 2473 1318 454B     		ldr	r3, .L401
 2474 131a 03EB8B03 		add	r3, r3, fp, lsl #2
 2475 131e 186B     		ldr	r0, [r3, #48]
 2476 1320 08B1     		cbz	r0, .L383
 2477 1322 FFF7FEFF 		bl	data_free_control
 2478              	.L383:
 2479 1326 424B     		ldr	r3, .L401
 2480 1328 03EB8B03 		add	r3, r3, fp, lsl #2
 2481 132c C3F830A0 		str	r10, [r3, #48]
 2482 1330 9AF81230 		ldrb	r3, [r10, #18]	@ zero_extendqisi2
 2483 1334 83B1     		cbz	r3, .L385
 2484 1336 402B     		cmp	r3, #64
 2485 1338 2DD0     		beq	.L386
 2486              	.L384:
 2487 133a BBF1030F 		cmp	fp, #3
 2488 133e 94BF     		ite	ls
 2489 1340 0020     		movls	r0, #0
 2490 1342 0120     		movhi	r0, #1
 2491 1344 FEF75CFE 		bl	display_has_tool_enabled
 2492 1348 0028     		cmp	r0, #0
 2493 134a 7FF46AAF 		bne	.L368
 2494 134e 5146     		mov	r1, r10
 2495 1350 5846     		mov	r0, fp
 2496 1352 FFF7FEFF 		bl	screen_pot
 2497 1356 64E7     		b	.L368
 2498              	.L385:
 2499 1358 DAF81840 		ldr	r4, [r10, #24]	@ float
 2500 135c 2146     		mov	r1, r4
 2501 135e DAF81400 		ldr	r0, [r10, #20]	@ float
 2502 1362 FFF7FEFF 		bl	__aeabi_fsub
 2503 1366 0546     		mov	r5, r0
 2504 1368 2146     		mov	r1, r4
 2505 136a DAF81C00 		ldr	r0, [r10, #28]	@ float
 2506 136e FFF7FEFF 		bl	__aeabi_fsub
 2507 1372 0446     		mov	r4, r0
 2508 1374 9AF92100 		ldrsb	r0, [r10, #33]
 2509 1378 FFF7FEFF 		bl	__aeabi_i2f
 2510 137c 0146     		mov	r1, r0
 2511 137e 2046     		mov	r0, r4
 2512 1380 FFF7FEFF 		bl	__aeabi_fdiv
 2513 1384 0146     		mov	r1, r0
 2514 1386 2846     		mov	r0, r5
 2515 1388 FFF7FEFF 		bl	__aeabi_fdiv
 2516 138c FFF7FEFF 		bl	__aeabi_f2iz
 2517 1390 8AF82000 		strb	r0, [r10, #32]
 2518 1394 D1E7     		b	.L384
 2519              	.L386:
 2520 1396 0021     		movs	r1, #0
 2521 1398 DAF81800 		ldr	r0, [r10, #24]	@ float
 2522 139c FFF7FEFF 		bl	__aeabi_fcmpeq
 2523 13a0 18B1     		cbz	r0, .L387
 2524 13a2 4FF40003 		mov	r3, #8388608
 2525 13a6 CAF81830 		str	r3, [r10, #24]	@ float
 2526              	.L387:
 2527 13aa 0021     		movs	r1, #0
 2528 13ac DAF81C00 		ldr	r0, [r10, #28]	@ float
 2529 13b0 FFF7FEFF 		bl	__aeabi_fcmpeq
 2530 13b4 18B1     		cbz	r0, .L389
 2531 13b6 4FF40003 		mov	r3, #8388608
 2532 13ba CAF81C30 		str	r3, [r10, #28]	@ float
 2533              	.L389:
 2534 13be 0021     		movs	r1, #0
 2535 13c0 DAF81400 		ldr	r0, [r10, #20]	@ float
 2536 13c4 FFF7FEFF 		bl	__aeabi_fcmpeq
 2537 13c8 18B1     		cbz	r0, .L391
 2538 13ca 4FF40003 		mov	r3, #8388608
 2539 13ce CAF81430 		str	r3, [r10, #20]	@ float
 2540              	.L391:
 2541 13d2 9AF92100 		ldrsb	r0, [r10, #33]
 2542 13d6 0138     		subs	r0, r0, #1
 2543 13d8 FFF7FEFF 		bl	__aeabi_i2d
 2544 13dc 0646     		mov	r6, r0
 2545 13de 0F46     		mov	r7, r1
 2546 13e0 DAF81810 		ldr	r1, [r10, #24]	@ float
 2547 13e4 DAF81400 		ldr	r0, [r10, #20]	@ float
 2548 13e8 FFF7FEFF 		bl	__aeabi_fdiv
 2549 13ec FFF7FEFF 		bl	__aeabi_f2d
 2550 13f0 FFF7FEFF 		bl	log
 2551 13f4 8046     		mov	r8, r0
 2552 13f6 8946     		mov	r9, r1
 2553 13f8 DAF81810 		ldr	r1, [r10, #24]	@ float
 2554 13fc DAF81C00 		ldr	r0, [r10, #28]	@ float
 2555 1400 FFF7FEFF 		bl	__aeabi_fdiv
 2556 1404 FFF7FEFF 		bl	__aeabi_f2d
 2557 1408 FFF7FEFF 		bl	log
 2558 140c 0446     		mov	r4, r0
 2559 140e 0D46     		mov	r5, r1
 2560 1410 4246     		mov	r2, r8
 2561 1412 4B46     		mov	r3, r9
 2562 1414 3046     		mov	r0, r6
 2563 1416 3946     		mov	r1, r7
 2564 1418 FFF7FEFF 		bl	__aeabi_dmul
 2565 141c 2246     		mov	r2, r4
 2566 141e 2B46     		mov	r3, r5
 2567 1420 FFF7FEFF 		bl	__aeabi_ddiv
 2568 1424 FFF7FEFF 		bl	__aeabi_d2iz
 2569 1428 8AF82000 		strb	r0, [r10, #32]
 2570 142c 85E7     		b	.L384
 2571              	.L402:
 2572 142e 00BF     		.align	2
 2573              	.L401:
 2574 1430 00000000 		.word	.LANCHOR0
 2576              		.align	1
 2577              		.global	naveg_toggle_tool
 2578              		.syntax unified
 2579              		.thumb
 2580              		.thumb_func
 2581              		.fpu softvfp
 2583              	naveg_toggle_tool:
 2584              		@ args = 0, pretend = 0, frame = 0
 2585              		@ frame_needed = 0, uses_anonymous_args = 0
 2586 1434 5A4B     		ldr	r3, .L424
 2587 1436 93F86030 		ldrb	r3, [r3, #96]	@ zero_extendqisi2
 2588 143a 03B9     		cbnz	r3, .L423
 2589 143c 7047     		bx	lr
 2590              	.L423:
 2591 143e 70B5     		push	{r4, r5, r6, lr}
 2592 1440 0446     		mov	r4, r0
 2593 1442 0D46     		mov	r5, r1
 2594 1444 0846     		mov	r0, r1
 2595 1446 FFF7FEFF 		bl	screen_clear
 2596 144a 564B     		ldr	r3, .L424+4
 2597 144c 13F81430 		ldrb	r3, [r3, r4, lsl #1]	@ zero_extendqisi2
 2598 1450 002B     		cmp	r3, #0
 2599 1452 43D1     		bne	.L405
 2600 1454 012C     		cmp	r4, #1
 2601 1456 12D0     		beq	.L407
 2602 1458 CCB1     		cbz	r4, .L408
 2603 145a 022C     		cmp	r4, #2
 2604 145c 30D1     		bne	.L417
 2605 145e 514B     		ldr	r3, .L424+4
 2606 1460 0022     		movs	r2, #0
 2607 1462 9A71     		strb	r2, [r3, #6]
 2608 1464 0125     		movs	r5, #1
 2609              	.L410:
 2610 1466 4F4B     		ldr	r3, .L424+4
 2611 1468 0122     		movs	r2, #1
 2612 146a 03F81420 		strb	r2, [r3, r4, lsl #1]
 2613 146e 03EB4403 		add	r3, r3, r4, lsl #1
 2614 1472 5D70     		strb	r5, [r3, #1]
 2615 1474 2946     		mov	r1, r5
 2616 1476 2046     		mov	r0, r4
 2617 1478 FFF7FEFF 		bl	screen_tool
 2618              	.L403:
 2619 147c 70BD     		pop	{r4, r5, r6, pc}
 2620              	.L407:
 2621 147e 2846     		mov	r0, r5
 2622 1480 FEF768FE 		bl	display_disable_all_tools
 2623 1484 0821     		movs	r1, #8
 2624 1486 4848     		ldr	r0, .L424+8
 2625 1488 FFF7FEFF 		bl	comm_webgui_send
 2626 148c EBE7     		b	.L410
 2627              	.L408:
 2628 148e 0120     		movs	r0, #1
 2629 1490 FFF7FEFF 		bl	screen_clear
 2630 1494 434B     		ldr	r3, .L424+4
 2631 1496 0122     		movs	r2, #1
 2632 1498 9A71     		strb	r2, [r3, #6]
 2633 149a DA71     		strb	r2, [r3, #7]
 2634 149c 1A70     		strb	r2, [r3]
 2635 149e 5D70     		strb	r5, [r3, #1]
 2636 14a0 2946     		mov	r1, r5
 2637 14a2 0020     		movs	r0, #0
 2638 14a4 FFF7FEFF 		bl	screen_tool
 2639              	.L411:
 2640 14a8 0120     		movs	r0, #1
 2641 14aa 00F085F8 		bl	menu_enter
 2642 14ae 3C4B     		ldr	r3, .L424
 2643 14b0 5A6D     		ldr	r2, [r3, #84]
 2644 14b2 DA66     		str	r2, [r3, #108]
 2645 14b4 DA68     		ldr	r2, [r3, #12]
 2646 14b6 1A61     		str	r2, [r3, #16]
 2647 14b8 0020     		movs	r0, #0
 2648 14ba 00F07DF8 		bl	menu_enter
 2649 14be DDE7     		b	.L403
 2650              	.L417:
 2651 14c0 384B     		ldr	r3, .L424+4
 2652 14c2 0122     		movs	r2, #1
 2653 14c4 03F81420 		strb	r2, [r3, r4, lsl #1]
 2654 14c8 03EB4403 		add	r3, r3, r4, lsl #1
 2655 14cc 5D70     		strb	r5, [r3, #1]
 2656 14ce 2946     		mov	r1, r5
 2657 14d0 2046     		mov	r0, r4
 2658 14d2 FFF7FEFF 		bl	screen_tool
 2659 14d6 002C     		cmp	r4, #0
 2660 14d8 D0D1     		bne	.L403
 2661 14da E5E7     		b	.L411
 2662              	.L405:
 2663 14dc 012C     		cmp	r4, #1
 2664 14de 54D0     		beq	.L413
 2665 14e0 C4B1     		cbz	r4, .L414
 2666 14e2 022C     		cmp	r4, #2
 2667 14e4 4AD0     		beq	.L415
 2668 14e6 2E4B     		ldr	r3, .L424
 2669 14e8 53F82510 		ldr	r1, [r3, r5, lsl #2]
 2670 14ec 2846     		mov	r0, r5
 2671 14ee FFF7FEFF 		bl	screen_encoder
 2672 14f2 0021     		movs	r1, #0
 2673 14f4 2D48     		ldr	r0, .L424+12
 2674 14f6 FFF7FEFF 		bl	comm_webgui_set_response_cb
 2675 14fa 0B21     		movs	r1, #11
 2676 14fc 2C48     		ldr	r0, .L424+16
 2677 14fe FFF7FEFF 		bl	comm_webgui_send
 2678 1502 2846     		mov	r0, r5
 2679 1504 FFF7FEFF 		bl	draw_all_pots
 2680 1508 2846     		mov	r0, r5
 2681 150a FFF7FEFF 		bl	draw_all_foots
 2682 150e 002C     		cmp	r4, #0
 2683 1510 B4D1     		bne	.L403
 2684 1512 20E0     		b	.L416
 2685              	.L414:
 2686 1514 2846     		mov	r0, r5
 2687 1516 FEF71DFE 		bl	display_disable_all_tools
 2688 151a 0120     		movs	r0, #1
 2689 151c FEF71AFE 		bl	display_disable_all_tools
 2690 1520 1F4E     		ldr	r6, .L424
 2691 1522 0024     		movs	r4, #0
 2692 1524 B465     		str	r4, [r6, #88]
 2693 1526 F465     		str	r4, [r6, #92]
 2694 1528 2146     		mov	r1, r4
 2695 152a 2046     		mov	r0, r4
 2696 152c FFF7FEFF 		bl	system_save_gains_cb
 2697 1530 56F82510 		ldr	r1, [r6, r5, lsl #2]
 2698 1534 2846     		mov	r0, r5
 2699 1536 FFF7FEFF 		bl	screen_encoder
 2700 153a 2146     		mov	r1, r4
 2701 153c 1B48     		ldr	r0, .L424+12
 2702 153e FFF7FEFF 		bl	comm_webgui_set_response_cb
 2703 1542 0B21     		movs	r1, #11
 2704 1544 1A48     		ldr	r0, .L424+16
 2705 1546 FFF7FEFF 		bl	comm_webgui_send
 2706 154a 2846     		mov	r0, r5
 2707 154c FFF7FEFF 		bl	draw_all_pots
 2708 1550 2846     		mov	r0, r5
 2709 1552 FFF7FEFF 		bl	draw_all_foots
 2710              	.L416:
 2711 1556 0120     		movs	r0, #1
 2712 1558 FFF7FEFF 		bl	screen_clear
 2713 155c 104B     		ldr	r3, .L424
 2714 155e 5C68     		ldr	r4, [r3, #4]
 2715 1560 0020     		movs	r0, #0
 2716 1562 FFF7FEFF 		bl	naveg_master_volume
 2717 1566 0120     		movs	r0, #1
 2718 1568 FFF7FEFF 		bl	draw_all_pots
 2719 156c 2146     		mov	r1, r4
 2720 156e 0120     		movs	r0, #1
 2721 1570 FFF7FEFF 		bl	screen_encoder
 2722 1574 0120     		movs	r0, #1
 2723 1576 FFF7FEFF 		bl	draw_all_foots
 2724 157a 7FE7     		b	.L403
 2725              	.L415:
 2726 157c 094B     		ldr	r3, .L424+4
 2727 157e 0022     		movs	r2, #0
 2728 1580 1A71     		strb	r2, [r3, #4]
 2729 1582 0122     		movs	r2, #1
 2730 1584 9A71     		strb	r2, [r3, #6]
 2731 1586 DA71     		strb	r2, [r3, #7]
 2732 1588 78E7     		b	.L403
 2733              	.L413:
 2734 158a 0921     		movs	r1, #9
 2735 158c 0948     		ldr	r0, .L424+20
 2736 158e FFF7FEFF 		bl	comm_webgui_send
 2737 1592 044B     		ldr	r3, .L424+4
 2738 1594 0022     		movs	r2, #0
 2739 1596 9A70     		strb	r2, [r3, #2]
 2740 1598 0122     		movs	r2, #1
 2741 159a 9A71     		strb	r2, [r3, #6]
 2742 159c DA71     		strb	r2, [r3, #7]
 2743 159e 6DE7     		b	.L403
 2744              	.L425:
 2745              		.align	2
 2746              	.L424:
 2747 15a0 00000000 		.word	.LANCHOR0
 2748 15a4 00000000 		.word	g_tool
 2749 15a8 5C000000 		.word	.LC13
 2750 15ac 00000000 		.word	screen_top_info
 2751 15b0 50000000 		.word	.LC12
 2752 15b4 00000000 		.word	.LC2
 2754              		.align	1
 2755              		.syntax unified
 2756              		.thumb
 2757              		.thumb_func
 2758              		.fpu softvfp
 2760              	menu_enter:
 2761              		@ args = 0, pretend = 0, frame = 8
 2762              		@ frame_needed = 0, uses_anonymous_args = 0
 2763 15b8 F0B5     		push	{r4, r5, r6, r7, lr}
 2764 15ba 83B0     		sub	sp, sp, #12
 2765 15bc 0746     		mov	r7, r0
 2766 15be B8B1     		cbz	r0, .L427
 2767 15c0 814B     		ldr	r3, .L513
 2768 15c2 5D6D     		ldr	r5, [r3, #84]
 2769 15c4 DC68     		ldr	r4, [r3, #12]
 2770 15c6 6268     		ldr	r2, [r4, #4]
 2771 15c8 1379     		ldrb	r3, [r2, #4]	@ zero_extendqisi2
 2772 15ca 991E     		subs	r1, r3, #2
 2773 15cc C9B2     		uxtb	r1, r1
 2774 15ce 0129     		cmp	r1, #1
 2775 15d0 19D9     		bls	.L501
 2776              	.L429:
 2777 15d2 191F     		subs	r1, r3, #4
 2778 15d4 C9B2     		uxtb	r1, r1
 2779 15d6 0129     		cmp	r1, #1
 2780 15d8 40D9     		bls	.L439
 2781 15da 092B     		cmp	r3, #9
 2782 15dc 47D0     		beq	.L440
 2783 15de 1189     		ldrh	r1, [r2, #8]
 2784 15e0 BE29     		cmp	r1, #190
 2785 15e2 3DD0     		beq	.L441
 2786 15e4 D188     		ldrh	r1, [r2, #6]
 2787 15e6 0C29     		cmp	r1, #12
 2788 15e8 3AD0     		beq	.L441
 2789 15ea 1629     		cmp	r1, #22
 2790 15ec 51D1     		bne	.L438
 2791 15ee 37E0     		b	.L441
 2792              	.L427:
 2793 15f0 754B     		ldr	r3, .L513
 2794 15f2 DD6E     		ldr	r5, [r3, #108]
 2795 15f4 1C69     		ldr	r4, [r3, #16]
 2796 15f6 6268     		ldr	r2, [r4, #4]
 2797 15f8 1379     		ldrb	r3, [r2, #4]	@ zero_extendqisi2
 2798 15fa 991E     		subs	r1, r3, #2
 2799 15fc C9B2     		uxtb	r1, r1
 2800 15fe 0129     		cmp	r1, #1
 2801 1600 E7D8     		bhi	.L429
 2802 1602 AD68     		ldr	r5, [r5, #8]
 2803 1604 00E0     		b	.L433
 2804              	.L501:
 2805 1606 AD68     		ldr	r5, [r5, #8]
 2806              	.L433:
 2807 1608 A17B     		ldrb	r1, [r4, #14]	@ zero_extendqisi2
 2808 160a 29B1     		cbz	r1, .L432
 2809 160c 0023     		movs	r3, #0
 2810              	.L431:
 2811 160e 6D69     		ldr	r5, [r5, #20]
 2812 1610 0133     		adds	r3, r3, #1
 2813 1612 DAB2     		uxtb	r2, r3
 2814 1614 8A42     		cmp	r2, r1
 2815 1616 FAD3     		bcc	.L431
 2816              	.L432:
 2817 1618 2C68     		ldr	r4, [r5]
 2818 161a 6368     		ldr	r3, [r4, #4]
 2819 161c 1A79     		ldrb	r2, [r3, #4]	@ zero_extendqisi2
 2820 161e 012A     		cmp	r2, #1
 2821 1620 13D0     		beq	.L502
 2822              	.L434:
 2823 1622 6368     		ldr	r3, [r4, #4]
 2824 1624 1A79     		ldrb	r2, [r3, #4]	@ zero_extendqisi2
 2825 1626 062A     		cmp	r2, #6
 2826 1628 03D0     		beq	.L436
 2827 162a 12B1     		cbz	r2, .L436
 2828 162c 2968     		ldr	r1, [r5]
 2829 162e 664A     		ldr	r2, .L513
 2830 1630 D160     		str	r1, [r2, #12]
 2831              	.L436:
 2832 1632 1A89     		ldrh	r2, [r3, #8]
 2833 1634 BE2A     		cmp	r2, #190
 2834 1636 04D0     		beq	.L437
 2835 1638 DB88     		ldrh	r3, [r3, #6]
 2836 163a 0C2B     		cmp	r3, #12
 2837 163c 01D0     		beq	.L437
 2838 163e 162B     		cmp	r3, #22
 2839 1640 27D1     		bne	.L438
 2840              	.L437:
 2841 1642 2A68     		ldr	r2, [r5]
 2842 1644 604B     		ldr	r3, .L513
 2843 1646 DA60     		str	r2, [r3, #12]
 2844 1648 23E0     		b	.L438
 2845              	.L502:
 2846 164a DB68     		ldr	r3, [r3, #12]
 2847 164c 13B1     		cbz	r3, .L435
 2848 164e 0021     		movs	r1, #0
 2849 1650 2046     		mov	r0, r4
 2850 1652 9847     		blx	r3
 2851              	.L435:
 2852 1654 6B68     		ldr	r3, [r5, #4]
 2853 1656 5D68     		ldr	r5, [r3, #4]
 2854 1658 2C68     		ldr	r4, [r5]
 2855 165a E2E7     		b	.L434
 2856              	.L439:
 2857 165c 092B     		cmp	r3, #9
 2858 165e 06D0     		beq	.L440
 2859              	.L441:
 2860 1660 052B     		cmp	r3, #5
 2861 1662 04D0     		beq	.L440
 2862 1664 D368     		ldr	r3, [r2, #12]
 2863 1666 13B1     		cbz	r3, .L440
 2864 1668 0021     		movs	r1, #0
 2865 166a 2046     		mov	r0, r4
 2866 166c 9847     		blx	r3
 2867              	.L440:
 2868 166e 6268     		ldr	r2, [r4, #4]
 2869 1670 D388     		ldrh	r3, [r2, #6]
 2870 1672 822B     		cmp	r3, #130
 2871 1674 09D0     		beq	.L442
 2872 1676 962B     		cmp	r3, #150
 2873 1678 07D0     		beq	.L442
 2874 167a 002F     		cmp	r7, #0
 2875 167c 46D0     		beq	.L444
 2876 167e 524B     		ldr	r3, .L513
 2877 1680 5B6D     		ldr	r3, [r3, #84]
 2878 1682 1C68     		ldr	r4, [r3]
 2879              	.L445:
 2880 1684 504B     		ldr	r3, .L513
 2881 1686 DC60     		str	r4, [r3, #12]
 2882 1688 03E0     		b	.L438
 2883              	.L442:
 2884 168a 0923     		movs	r3, #9
 2885 168c 1371     		strb	r3, [r2, #4]
 2886 168e 4E4B     		ldr	r3, .L513
 2887 1690 DC60     		str	r4, [r3, #12]
 2888              	.L438:
 2889 1692 6368     		ldr	r3, [r4, #4]
 2890 1694 DB88     		ldrh	r3, [r3, #6]
 2891 1696 1E2B     		cmp	r3, #30
 2892 1698 3CD0     		beq	.L503
 2893              	.L446:
 2894 169a 6268     		ldr	r2, [r4, #4]
 2895 169c D388     		ldrh	r3, [r2, #6]
 2896 169e 822B     		cmp	r3, #130
 2897 16a0 49D0     		beq	.L450
 2898 16a2 962B     		cmp	r3, #150
 2899 16a4 47D0     		beq	.L450
 2900              	.L449:
 2901 16a6 6668     		ldr	r6, [r4, #4]
 2902 16a8 3279     		ldrb	r2, [r6, #4]	@ zero_extendqisi2
 2903 16aa 931E     		subs	r3, r2, #2
 2904 16ac DBB2     		uxtb	r3, r3
 2905 16ae 012B     		cmp	r3, #1
 2906 16b0 49D9     		bls	.L504
 2907 16b2 042A     		cmp	r2, #4
 2908 16b4 00F08C80 		beq	.L457
 2909 16b8 092A     		cmp	r2, #9
 2910 16ba 00F08980 		beq	.L457
 2911 16be 3389     		ldrh	r3, [r6, #8]
 2912 16c0 BE2B     		cmp	r3, #190
 2913 16c2 00F08580 		beq	.L457
 2914 16c6 F388     		ldrh	r3, [r6, #6]
 2915 16c8 0C2B     		cmp	r3, #12
 2916 16ca 00F08180 		beq	.L457
 2917 16ce 162B     		cmp	r3, #22
 2918 16d0 7ED0     		beq	.L457
 2919 16d2 062A     		cmp	r2, #6
 2920 16d4 00F01681 		beq	.L505
 2921 16d8 052A     		cmp	r2, #5
 2922 16da 00F01B81 		beq	.L506
 2923 16de 002A     		cmp	r2, #0
 2924 16e0 40F05481 		bne	.L477
 2925 16e4 384B     		ldr	r3, .L513
 2926 16e6 DB68     		ldr	r3, [r3, #12]
 2927 16e8 5A68     		ldr	r2, [r3, #4]
 2928 16ea 1279     		ldrb	r2, [r2, #4]	@ zero_extendqisi2
 2929 16ec 032A     		cmp	r2, #3
 2930 16ee 00F03981 		beq	.L507
 2931              	.L478:
 2932 16f2 6368     		ldr	r3, [r4, #4]
 2933 16f4 DB68     		ldr	r3, [r3, #12]
 2934 16f6 13B1     		cbz	r3, .L481
 2935 16f8 0021     		movs	r1, #0
 2936 16fa 2046     		mov	r0, r4
 2937 16fc 9847     		blx	r3
 2938              	.L481:
 2939 16fe 002F     		cmp	r7, #0
 2940 1700 53D0     		beq	.L456
 2941 1702 314B     		ldr	r3, .L513
 2942 1704 5A6D     		ldr	r2, [r3, #84]
 2943 1706 1468     		ldr	r4, [r2]
 2944 1708 DC60     		str	r4, [r3, #12]
 2945 170a 4EE0     		b	.L456
 2946              	.L444:
 2947 170c 2E4B     		ldr	r3, .L513
 2948 170e DB6E     		ldr	r3, [r3, #108]
 2949 1710 1C68     		ldr	r4, [r3]
 2950 1712 B7E7     		b	.L445
 2951              	.L503:
 2952 1714 2D4B     		ldr	r3, .L513+4
 2953 1716 9B78     		ldrb	r3, [r3, #2]	@ zero_extendqisi2
 2954 1718 43B1     		cbz	r3, .L508
 2955 171a 2B4B     		ldr	r3, .L513
 2956 171c 1869     		ldr	r0, [r3, #16]
 2957 171e 4368     		ldr	r3, [r0, #4]
 2958 1720 DB68     		ldr	r3, [r3, #12]
 2959 1722 002B     		cmp	r3, #0
 2960 1724 BFD0     		beq	.L449
 2961 1726 0021     		movs	r1, #0
 2962 1728 9847     		blx	r3
 2963 172a B6E7     		b	.L446
 2964              	.L508:
 2965 172c 0121     		movs	r1, #1
 2966 172e 0846     		mov	r0, r1
 2967 1730 FFF7FEFF 		bl	naveg_toggle_tool
 2968 1734 46E0     		b	.L426
 2969              	.L450:
 2970 1736 244B     		ldr	r3, .L513
 2971 1738 93F87030 		ldrb	r3, [r3, #112]	@ zero_extendqisi2
 2972 173c 002B     		cmp	r3, #0
 2973 173e B2D0     		beq	.L449
 2974 1740 0923     		movs	r3, #9
 2975 1742 1371     		strb	r3, [r2, #4]
 2976 1744 AFE7     		b	.L449
 2977              	.L504:
 2978 1746 204B     		ldr	r3, .L513
 2979 1748 5D65     		str	r5, [r3, #84]
 2980 174a 0023     		movs	r3, #0
 2981 174c 2373     		strb	r3, [r4, #12]
 2982 174e AD68     		ldr	r5, [r5, #8]
 2983 1750 05B3     		cbz	r5, .L452
 2984 1752 0327     		movs	r7, #3
 2985 1754 0DE0     		b	.L455
 2986              	.L453:
 2987 1756 D368     		ldr	r3, [r2, #12]
 2988 1758 13B1     		cbz	r3, .L454
 2989 175a 3946     		mov	r1, r7
 2990 175c 3046     		mov	r0, r6
 2991 175e 9847     		blx	r3
 2992              	.L454:
 2993 1760 A268     		ldr	r2, [r4, #8]
 2994 1762 237B     		ldrb	r3, [r4, #12]	@ zero_extendqisi2
 2995 1764 591C     		adds	r1, r3, #1
 2996 1766 2173     		strb	r1, [r4, #12]
 2997 1768 3168     		ldr	r1, [r6]
 2998 176a 42F82310 		str	r1, [r2, r3, lsl #2]
 2999 176e 6D69     		ldr	r5, [r5, #20]
 3000 1770 85B1     		cbz	r5, .L452
 3001              	.L455:
 3002 1772 2E68     		ldr	r6, [r5]
 3003 1774 7268     		ldr	r2, [r6, #4]
 3004 1776 1379     		ldrb	r3, [r2, #4]	@ zero_extendqisi2
 3005 1778 062B     		cmp	r3, #6
 3006 177a ECD0     		beq	.L453
 3007 177c 0A3B     		subs	r3, r3, #10
 3008 177e DBB2     		uxtb	r3, r3
 3009 1780 012B     		cmp	r3, #1
 3010 1782 E8D9     		bls	.L453
 3011 1784 D388     		ldrh	r3, [r2, #6]
 3012 1786 B42B     		cmp	r3, #180
 3013 1788 E5D0     		beq	.L453
 3014 178a 1E2B     		cmp	r3, #30
 3015 178c E3D0     		beq	.L453
 3016 178e AA2B     		cmp	r3, #170
 3017 1790 E6D1     		bne	.L454
 3018 1792 E0E7     		b	.L453
 3019              	.L452:
 3020 1794 6268     		ldr	r2, [r4, #4]
 3021 1796 D388     		ldrh	r3, [r2, #6]
 3022 1798 B42B     		cmp	r3, #180
 3023 179a 06D0     		beq	.L456
 3024 179c AA2B     		cmp	r3, #170
 3025 179e 04D0     		beq	.L456
 3026 17a0 D368     		ldr	r3, [r2, #12]
 3027 17a2 13B1     		cbz	r3, .L456
 3028 17a4 0021     		movs	r1, #0
 3029 17a6 2046     		mov	r0, r4
 3030 17a8 9847     		blx	r3
 3031              	.L456:
 3032 17aa 084B     		ldr	r3, .L513+4
 3033 17ac 1B78     		ldrb	r3, [r3]	@ zero_extendqisi2
 3034 17ae 23B1     		cbz	r3, .L485
 3035              	.L487:
 3036 17b0 064B     		ldr	r3, .L513+4
 3037 17b2 1B79     		ldrb	r3, [r3, #4]	@ zero_extendqisi2
 3038 17b4 002B     		cmp	r3, #0
 3039 17b6 00F01781 		beq	.L509
 3040              	.L485:
 3041 17ba 6368     		ldr	r3, [r4, #4]
 3042 17bc 1B79     		ldrb	r3, [r3, #4]	@ zero_extendqisi2
 3043 17be 082B     		cmp	r3, #8
 3044 17c0 00F02381 		beq	.L510
 3045              	.L426:
 3046 17c4 03B0     		add	sp, sp, #12
 3047              		@ sp needed
 3048 17c6 F0BD     		pop	{r4, r5, r6, r7, pc}
 3049              	.L514:
 3050              		.align	2
 3051              	.L513:
 3052 17c8 00000000 		.word	.LANCHOR0
 3053 17cc 00000000 		.word	g_tool
 3054              	.L457:
 3055 17d0 0123     		movs	r3, #1
 3056 17d2 A373     		strb	r3, [r4, #14]
 3057 17d4 0223     		movs	r3, #2
 3058 17d6 2373     		strb	r3, [r4, #12]
 3059 17d8 0023     		movs	r3, #0
 3060 17da 6361     		str	r3, [r4, #20]
 3061 17dc B6F806C0 		ldrh	ip, [r6, #6]
 3062 17e0 6746     		mov	r7, ip
 3063 17e2 BCF1820F 		cmp	ip, #130
 3064 17e6 00F01981 		beq	.L459
 3065 17ea 9349     		ldr	r1, .L515
 3066              	.L460:
 3067 17ec 0133     		adds	r3, r3, #1
 3068 17ee DBB2     		uxtb	r3, r3
 3069 17f0 1D46     		mov	r5, r3
 3070 17f2 03EB4302 		add	r2, r3, r3, lsl #1
 3071 17f6 01EB8202 		add	r2, r1, r2, lsl #2
 3072 17fa D069     		ldr	r0, [r2, #28]
 3073 17fc 0028     		cmp	r0, #0
 3074 17fe D4D0     		beq	.L456
 3075 1800 03EB4302 		add	r2, r3, r3, lsl #1
 3076 1804 01EB8202 		add	r2, r1, r2, lsl #2
 3077 1808 B2F91420 		ldrsh	r2, [r2, #20]
 3078 180c BA42     		cmp	r2, r7
 3079 180e EDD1     		bne	.L460
 3080 1810 3389     		ldrh	r3, [r6, #8]
 3081 1812 BE2B     		cmp	r3, #190
 3082 1814 11D0     		beq	.L511
 3083 1816 BCF1C30F 		cmp	ip, #195
 3084 181a 2ED0     		beq	.L462
 3085 181c BCF10C0F 		cmp	ip, #12
 3086 1820 56D0     		beq	.L466
 3087 1822 BCF1160F 		cmp	ip, #22
 3088 1826 53D0     		beq	.L466
 3089              	.L467:
 3090 1828 6061     		str	r0, [r4, #20]
 3091 182a 05EB4505 		add	r5, r5, r5, lsl #1
 3092 182e 824B     		ldr	r3, .L515
 3093 1830 03EB8503 		add	r3, r3, r5, lsl #2
 3094 1834 9B69     		ldr	r3, [r3, #24]
 3095 1836 2361     		str	r3, [r4, #16]
 3096 1838 B7E7     		b	.L456
 3097              	.L511:
 3098 183a BCF1C30F 		cmp	ip, #195
 3099 183e 1CD0     		beq	.L462
 3100              	.L486:
 3101 1840 B4F91C30 		ldrsh	r3, [r4, #28]
 3102 1844 83B1     		cbz	r3, .L463
 3103 1846 0535     		adds	r5, r5, #5
 3104 1848 7B4B     		ldr	r3, .L515
 3105 184a 6A00     		lsls	r2, r5, #1
 3106 184c 5119     		adds	r1, r2, r5
 3107 184e 03EB8101 		add	r1, r3, r1, lsl #2
 3108 1852 C969     		ldr	r1, [r1, #28]
 3109 1854 6161     		str	r1, [r4, #20]
 3110 1856 2A44     		add	r2, r2, r5
 3111 1858 03EB8203 		add	r3, r3, r2, lsl #2
 3112 185c 9B69     		ldr	r3, [r3, #24]
 3113 185e 2361     		str	r3, [r4, #16]
 3114 1860 A3E7     		b	.L456
 3115              	.L494:
 3116 1862 7648     		ldr	r0, .L515+4
 3117 1864 0025     		movs	r5, #0
 3118 1866 EBE7     		b	.L486
 3119              	.L463:
 3120 1868 6061     		str	r0, [r4, #20]
 3121 186a 05EB4505 		add	r5, r5, r5, lsl #1
 3122 186e 724B     		ldr	r3, .L515
 3123 1870 03EB8503 		add	r3, r3, r5, lsl #2
 3124 1874 9B69     		ldr	r3, [r3, #24]
 3125 1876 2361     		str	r3, [r4, #16]
 3126 1878 97E7     		b	.L456
 3127              	.L462:
 3128 187a 6061     		str	r0, [r4, #20]
 3129 187c B4F91C30 		ldrsh	r3, [r4, #28]
 3130 1880 012B     		cmp	r3, #1
 3131 1882 09D0     		beq	.L489
 3132 1884 022B     		cmp	r3, #2
 3133 1886 1FD0     		beq	.L490
 3134 1888 032B     		cmp	r3, #3
 3135 188a 1FD0     		beq	.L491
 3136 188c 6C4F     		ldr	r7, .L515+8
 3137 188e 6D4A     		ldr	r2, .L515+12
 3138 1890 042B     		cmp	r3, #4
 3139 1892 18BF     		it	ne
 3140 1894 1746     		movne	r7, r2
 3141 1896 00E0     		b	.L465
 3142              	.L489:
 3143 1898 6B4F     		ldr	r7, .L515+16
 3144              	.L465:
 3145 189a 05EB4505 		add	r5, r5, r5, lsl #1
 3146 189e 664B     		ldr	r3, .L515
 3147 18a0 03EB8505 		add	r5, r3, r5, lsl #2
 3148 18a4 AE69     		ldr	r6, [r5, #24]
 3149 18a6 3046     		mov	r0, r6
 3150 18a8 FFF7FEFF 		bl	strlen
 3151 18ac 0230     		adds	r0, r0, #2
 3152 18ae FFF7FEFF 		bl	malloc
 3153 18b2 0546     		mov	r5, r0
 3154 18b4 3146     		mov	r1, r6
 3155 18b6 FFF7FEFF 		bl	strcpy
 3156 18ba 2846     		mov	r0, r5
 3157 18bc FFF7FEFF 		bl	strlen
 3158 18c0 3B88     		ldrh	r3, [r7]
 3159 18c2 2B52     		strh	r3, [r5, r0]	@ unaligned
 3160 18c4 2561     		str	r5, [r4, #16]
 3161 18c6 70E7     		b	.L456
 3162              	.L490:
 3163 18c8 604F     		ldr	r7, .L515+20
 3164 18ca E6E7     		b	.L465
 3165              	.L491:
 3166 18cc 604F     		ldr	r7, .L515+24
 3167 18ce E4E7     		b	.L465
 3168              	.L466:
 3169 18d0 B4F91C30 		ldrsh	r3, [r4, #28]
 3170 18d4 43B9     		cbnz	r3, .L468
 3171 18d6 6061     		str	r0, [r4, #20]
 3172 18d8 05EB4505 		add	r5, r5, r5, lsl #1
 3173 18dc 564B     		ldr	r3, .L515
 3174 18de 03EB8503 		add	r3, r3, r5, lsl #2
 3175 18e2 9B69     		ldr	r3, [r3, #24]
 3176 18e4 2361     		str	r3, [r4, #16]
 3177 18e6 60E7     		b	.L456
 3178              	.L468:
 3179 18e8 0135     		adds	r5, r5, #1
 3180 18ea 534B     		ldr	r3, .L515
 3181 18ec 6A00     		lsls	r2, r5, #1
 3182 18ee 5119     		adds	r1, r2, r5
 3183 18f0 03EB8101 		add	r1, r3, r1, lsl #2
 3184 18f4 C969     		ldr	r1, [r1, #28]
 3185 18f6 6161     		str	r1, [r4, #20]
 3186 18f8 2A44     		add	r2, r2, r5
 3187 18fa 03EB8203 		add	r3, r3, r2, lsl #2
 3188 18fe 9B69     		ldr	r3, [r3, #24]
 3189 1900 2361     		str	r3, [r4, #16]
 3190 1902 52E7     		b	.L456
 3191              	.L505:
 3192 1904 F368     		ldr	r3, [r6, #12]
 3193 1906 002B     		cmp	r3, #0
 3194 1908 00F08F80 		beq	.L471
 3195 190c 0021     		movs	r1, #0
 3196 190e 2046     		mov	r0, r4
 3197 1910 9847     		blx	r3
 3198 1912 4AE7     		b	.L456
 3199              	.L506:
 3200 1914 0023     		movs	r3, #0
 3201 1916 A373     		strb	r3, [r4, #14]
 3202 1918 0122     		movs	r2, #1
 3203 191a 2273     		strb	r2, [r4, #12]
 3204 191c 6361     		str	r3, [r4, #20]
 3205 191e F588     		ldrh	r5, [r6, #6]
 3206 1920 822D     		cmp	r5, #130
 3207 1922 1DD0     		beq	.L493
 3208 1924 4448     		ldr	r0, .L515
 3209              	.L474:
 3210 1926 0133     		adds	r3, r3, #1
 3211 1928 DBB2     		uxtb	r3, r3
 3212 192a 03EB4302 		add	r2, r3, r3, lsl #1
 3213 192e 00EB8202 		add	r2, r0, r2, lsl #2
 3214 1932 D169     		ldr	r1, [r2, #28]
 3215 1934 41B1     		cbz	r1, .L475
 3216 1936 03EB4302 		add	r2, r3, r3, lsl #1
 3217 193a 00EB8202 		add	r2, r0, r2, lsl #2
 3218 193e B2F91420 		ldrsh	r2, [r2, #20]
 3219 1942 AA42     		cmp	r2, r5
 3220 1944 EFD1     		bne	.L474
 3221              	.L473:
 3222 1946 6161     		str	r1, [r4, #20]
 3223              	.L475:
 3224 1948 F368     		ldr	r3, [r6, #12]
 3225 194a 002B     		cmp	r3, #0
 3226 194c 3FF42DAF 		beq	.L456
 3227 1950 F288     		ldrh	r2, [r6, #6]
 3228 1952 962A     		cmp	r2, #150
 3229 1954 3FF429AF 		beq	.L456
 3230 1958 0021     		movs	r1, #0
 3231 195a 2046     		mov	r0, r4
 3232 195c 9847     		blx	r3
 3233 195e 24E7     		b	.L456
 3234              	.L493:
 3235 1960 3649     		ldr	r1, .L515+4
 3236 1962 F0E7     		b	.L473
 3237              	.L507:
 3238 1964 1A7B     		ldrb	r2, [r3, #12]	@ zero_extendqisi2
 3239 1966 012A     		cmp	r2, #1
 3240 1968 0CD9     		bls	.L479
 3241 196a 0125     		movs	r5, #1
 3242 196c 394E     		ldr	r6, .L515+28
 3243              	.L480:
 3244 196e 9B68     		ldr	r3, [r3, #8]
 3245 1970 53F82500 		ldr	r0, [r3, r5, lsl #2]
 3246 1974 FFF7FEFF 		bl	deselect_item
 3247 1978 0135     		adds	r5, r5, #1
 3248 197a EDB2     		uxtb	r5, r5
 3249 197c F368     		ldr	r3, [r6, #12]
 3250 197e 1A7B     		ldrb	r2, [r3, #12]	@ zero_extendqisi2
 3251 1980 AA42     		cmp	r2, r5
 3252 1982 F4D8     		bhi	.L480
 3253              	.L479:
 3254 1984 2068     		ldr	r0, [r4]
 3255 1986 FFF7FEFF 		bl	select_item
 3256 198a B2E6     		b	.L478
 3257              	.L477:
 3258 198c A2F10A03 		sub	r3, r2, #10
 3259 1990 DBB2     		uxtb	r3, r3
 3260 1992 012B     		cmp	r3, #1
 3261 1994 3FF609AF 		bhi	.L456
 3262 1998 002F     		cmp	r7, #0
 3263 199a 3FF406AF 		beq	.L456
 3264 199e 2D4B     		ldr	r3, .L515+28
 3265 19a0 93F87130 		ldrb	r3, [r3, #113]	@ zero_extendqisi2
 3266 19a4 6BB9     		cbnz	r3, .L482
 3267 19a6 2B4B     		ldr	r3, .L515+28
 3268 19a8 0121     		movs	r1, #1
 3269 19aa 83F87110 		strb	r1, [r3, #113]
 3270 19ae F368     		ldr	r3, [r6, #12]
 3271 19b0 002B     		cmp	r3, #0
 3272 19b2 3FF4FAAE 		beq	.L456
 3273 19b6 0B2A     		cmp	r2, #11
 3274 19b8 37D0     		beq	.L471
 3275 19ba 0021     		movs	r1, #0
 3276 19bc 2046     		mov	r0, r4
 3277 19be 9847     		blx	r3
 3278 19c0 F3E6     		b	.L456
 3279              	.L482:
 3280 19c2 244B     		ldr	r3, .L515+28
 3281 19c4 0021     		movs	r1, #0
 3282 19c6 83F87110 		strb	r1, [r3, #113]
 3283 19ca 0A2A     		cmp	r2, #10
 3284 19cc 08D0     		beq	.L512
 3285 19ce F368     		ldr	r3, [r6, #12]
 3286 19d0 0021     		movs	r1, #0
 3287 19d2 2046     		mov	r0, r4
 3288 19d4 9847     		blx	r3
 3289              	.L484:
 3290 19d6 1F4B     		ldr	r3, .L515+28
 3291 19d8 5A6D     		ldr	r2, [r3, #84]
 3292 19da 1468     		ldr	r4, [r2]
 3293 19dc DC60     		str	r4, [r3, #12]
 3294 19de E4E6     		b	.L456
 3295              	.L512:
 3296 19e0 2046     		mov	r0, r4
 3297 19e2 FFF7FEFF 		bl	system_save_gains_cb
 3298 19e6 F6E7     		b	.L484
 3299              	.L509:
 3300 19e8 2046     		mov	r0, r4
 3301 19ea FFF7FEFF 		bl	screen_system_menu
 3302 19ee 194B     		ldr	r3, .L515+28
 3303 19f0 0022     		movs	r2, #0
 3304 19f2 9A65     		str	r2, [r3, #88]
 3305 19f4 DA65     		str	r2, [r3, #92]
 3306 19f6 6368     		ldr	r3, [r4, #4]
 3307 19f8 1A7C     		ldrb	r2, [r3, #16]	@ zero_extendqisi2
 3308 19fa 002A     		cmp	r2, #0
 3309 19fc 3FF4DDAE 		beq	.L485
 3310 1a00 144A     		ldr	r2, .L515+28
 3311 1a02 DB68     		ldr	r3, [r3, #12]
 3312 1a04 9365     		str	r3, [r2, #88]
 3313 1a06 D465     		str	r4, [r2, #92]
 3314 1a08 D7E6     		b	.L485
 3315              	.L510:
 3316 1a0a 02A9     		add	r1, sp, #8
 3317 1a0c 0023     		movs	r3, #0
 3318 1a0e 41F8043D 		str	r3, [r1, #-4]!
 3319 1a12 104B     		ldr	r3, .L515+28
 3320 1a14 586E     		ldr	r0, [r3, #100]
 3321 1a16 FFF7FEFF 		bl	xQueueGiveFromISR
 3322 1a1a D3E6     		b	.L426
 3323              	.L459:
 3324 1a1c 3389     		ldrh	r3, [r6, #8]
 3325 1a1e BE2B     		cmp	r3, #190
 3326 1a20 3FF41FAF 		beq	.L494
 3327 1a24 0548     		ldr	r0, .L515+4
 3328 1a26 0025     		movs	r5, #0
 3329 1a28 FEE6     		b	.L467
 3330              	.L471:
 3331 1a2a 0B4B     		ldr	r3, .L515+32
 3332 1a2c 1B78     		ldrb	r3, [r3]	@ zero_extendqisi2
 3333 1a2e 002B     		cmp	r3, #0
 3334 1a30 3FF4C8AE 		beq	.L426
 3335 1a34 BCE6     		b	.L487
 3336              	.L516:
 3337 1a36 00BF     		.align	2
 3338              	.L515:
 3339 1a38 00000000 		.word	.LANCHOR2
 3340 1a3c 68000000 		.word	.LC14
 3341 1a40 C4000000 		.word	.LC18
 3342 1a44 C8000000 		.word	.LC19
 3343 1a48 B8000000 		.word	.LC15
 3344 1a4c BC000000 		.word	.LC16
 3345 1a50 C0000000 		.word	.LC17
 3346 1a54 00000000 		.word	.LANCHOR0
 3347 1a58 00000000 		.word	g_tool
 3349              		.align	1
 3350              		.global	naveg_ui_connection
 3351              		.syntax unified
 3352              		.thumb
 3353              		.thumb_func
 3354              		.fpu softvfp
 3356              	naveg_ui_connection:
 3357              		@ args = 0, pretend = 0, frame = 0
 3358              		@ frame_needed = 0, uses_anonymous_args = 0
 3359 1a5c F8B5     		push	{r3, r4, r5, r6, r7, lr}
 3360 1a5e 1A4B     		ldr	r3, .L530
 3361 1a60 93F86030 		ldrb	r3, [r3, #96]	@ zero_extendqisi2
 3362 1a64 5BB3     		cbz	r3, .L517
 3363 1a66 0128     		cmp	r0, #1
 3364 1a68 174B     		ldr	r3, .L530
 3365 1a6a 0CBF     		ite	eq
 3366 1a6c 0122     		moveq	r2, #1
 3367 1a6e 0022     		movne	r2, #0
 3368 1a70 83F87020 		strb	r2, [r3, #112]
 3369 1a74 154B     		ldr	r3, .L530+4
 3370 1a76 1B79     		ldrb	r3, [r3, #4]	@ zero_extendqisi2
 3371 1a78 13B9     		cbnz	r3, .L521
 3372 1a7a 144B     		ldr	r3, .L530+4
 3373 1a7c 1B78     		ldrb	r3, [r3]	@ zero_extendqisi2
 3374 1a7e F3B1     		cbz	r3, .L517
 3375              	.L521:
 3376 1a80 0021     		movs	r1, #0
 3377 1a82 0846     		mov	r0, r1
 3378 1a84 FFF7FEFF 		bl	naveg_toggle_tool
 3379 1a88 0F4B     		ldr	r3, .L530
 3380 1a8a DB6E     		ldr	r3, [r3, #108]
 3381 1a8c 9B68     		ldr	r3, [r3, #8]
 3382 1a8e B3B1     		cbz	r3, .L517
 3383 1a90 0D4A     		ldr	r2, .L530
 3384 1a92 D568     		ldr	r5, [r2, #12]
 3385 1a94 0024     		movs	r4, #0
 3386 1a96 0126     		movs	r6, #1
 3387 1a98 0227     		movs	r7, #2
 3388 1a9a A446     		mov	ip, r4
 3389 1a9c 05E0     		b	.L524
 3390              	.L525:
 3391 1a9e 3A46     		mov	r2, r7
 3392              	.L522:
 3393 1aa0 0271     		strb	r2, [r0, #4]
 3394 1aa2 0D46     		mov	r5, r1
 3395 1aa4 3446     		mov	r4, r6
 3396              	.L523:
 3397 1aa6 5B69     		ldr	r3, [r3, #20]
 3398 1aa8 43B1     		cbz	r3, .L528
 3399              	.L524:
 3400 1aaa 1968     		ldr	r1, [r3]
 3401 1aac 4868     		ldr	r0, [r1, #4]
 3402 1aae C288     		ldrh	r2, [r0, #6]
 3403 1ab0 822A     		cmp	r2, #130
 3404 1ab2 F4D0     		beq	.L525
 3405 1ab4 962A     		cmp	r2, #150
 3406 1ab6 F6D1     		bne	.L523
 3407 1ab8 6246     		mov	r2, ip
 3408 1aba F1E7     		b	.L522
 3409              	.L528:
 3410 1abc 04B9     		cbnz	r4, .L529
 3411              	.L517:
 3412 1abe F8BD     		pop	{r3, r4, r5, r6, r7, pc}
 3413              	.L529:
 3414 1ac0 014B     		ldr	r3, .L530
 3415 1ac2 DD60     		str	r5, [r3, #12]
 3416 1ac4 FBE7     		b	.L517
 3417              	.L531:
 3418 1ac6 00BF     		.align	2
 3419              	.L530:
 3420 1ac8 00000000 		.word	.LANCHOR0
 3421 1acc 00000000 		.word	g_tool
 3423              		.align	1
 3424              		.global	naveg_up
 3425              		.syntax unified
 3426              		.thumb
 3427              		.thumb_func
 3428              		.fpu softvfp
 3430              	naveg_up:
 3431              		@ args = 0, pretend = 0, frame = 0
 3432              		@ frame_needed = 0, uses_anonymous_args = 0
 3433 1ad0 2F4B     		ldr	r3, .L548
 3434 1ad2 93F86030 		ldrb	r3, [r3, #96]	@ zero_extendqisi2
 3435 1ad6 002B     		cmp	r3, #0
 3436 1ad8 58D0     		beq	.L543
 3437 1ada 10B5     		push	{r4, lr}
 3438 1adc 0446     		mov	r4, r0
 3439 1ade FEF78FFA 		bl	display_has_tool_enabled
 3440 1ae2 E0B1     		cbz	r0, .L532
 3441 1ae4 002C     		cmp	r4, #0
 3442 1ae6 34D1     		bne	.L534
 3443 1ae8 2A4B     		ldr	r3, .L548+4
 3444 1aea 9B78     		ldrb	r3, [r3, #2]	@ zero_extendqisi2
 3445 1aec 23B9     		cbnz	r3, .L541
 3446 1aee 294B     		ldr	r3, .L548+4
 3447 1af0 1B79     		ldrb	r3, [r3, #4]	@ zero_extendqisi2
 3448 1af2 ABB1     		cbz	r3, .L536
 3449 1af4 0220     		movs	r0, #2
 3450 1af6 00E0     		b	.L535
 3451              	.L541:
 3452 1af8 0120     		movs	r0, #1
 3453              	.L535:
 3454 1afa 0021     		movs	r1, #0
 3455 1afc FFF7FEFF 		bl	naveg_toggle_tool
 3456 1b00 244B     		ldr	r3, .L548+4
 3457 1b02 0122     		movs	r2, #1
 3458 1b04 9A71     		strb	r2, [r3, #6]
 3459 1b06 DA71     		strb	r2, [r3, #7]
 3460 1b08 214B     		ldr	r3, .L548
 3461 1b0a DA6E     		ldr	r2, [r3, #108]
 3462 1b0c 5A65     		str	r2, [r3, #84]
 3463 1b0e 1A69     		ldr	r2, [r3, #16]
 3464 1b10 DA60     		str	r2, [r3, #12]
 3465 1b12 0020     		movs	r0, #0
 3466 1b14 FEF796FB 		bl	menu_up
 3467 1b18 0020     		movs	r0, #0
 3468 1b1a FFF74DFD 		bl	menu_enter
 3469              	.L532:
 3470 1b1e 10BD     		pop	{r4, pc}
 3471              	.L536:
 3472 1b20 1C4B     		ldr	r3, .L548+4
 3473 1b22 1B78     		ldrb	r3, [r3]	@ zero_extendqisi2
 3474 1b24 002B     		cmp	r3, #0
 3475 1b26 FAD0     		beq	.L532
 3476 1b28 194B     		ldr	r3, .L548
 3477 1b2a 5A6D     		ldr	r2, [r3, #84]
 3478 1b2c 1B6D     		ldr	r3, [r3, #80]
 3479 1b2e 9A42     		cmp	r2, r3
 3480 1b30 04D0     		beq	.L537
 3481 1b32 174B     		ldr	r3, .L548
 3482 1b34 DB68     		ldr	r3, [r3, #12]
 3483 1b36 5B68     		ldr	r3, [r3, #4]
 3484 1b38 DB88     		ldrh	r3, [r3, #6]
 3485 1b3a 1BB9     		cbnz	r3, .L538
 3486              	.L537:
 3487 1b3c 144B     		ldr	r3, .L548
 3488 1b3e DA66     		str	r2, [r3, #108]
 3489 1b40 DA68     		ldr	r2, [r3, #12]
 3490 1b42 1A61     		str	r2, [r3, #16]
 3491              	.L538:
 3492 1b44 0020     		movs	r0, #0
 3493 1b46 FEF77DFB 		bl	menu_up
 3494 1b4a 0020     		movs	r0, #0
 3495 1b4c FFF734FD 		bl	menu_enter
 3496 1b50 E5E7     		b	.L532
 3497              	.L534:
 3498 1b52 012C     		cmp	r4, #1
 3499 1b54 E3D1     		bne	.L532
 3500 1b56 0F4B     		ldr	r3, .L548+4
 3501 1b58 1B7A     		ldrb	r3, [r3, #8]	@ zero_extendqisi2
 3502 1b5a 63B9     		cbnz	r3, .L546
 3503 1b5c 0D4B     		ldr	r3, .L548+4
 3504 1b5e 9B79     		ldrb	r3, [r3, #6]	@ zero_extendqisi2
 3505 1b60 002B     		cmp	r3, #0
 3506 1b62 DCD0     		beq	.L532
 3507 1b64 0A4B     		ldr	r3, .L548
 3508 1b66 5A6D     		ldr	r2, [r3, #84]
 3509 1b68 1B6D     		ldr	r3, [r3, #80]
 3510 1b6a 9A42     		cmp	r2, r3
 3511 1b6c 07D0     		beq	.L547
 3512              	.L540:
 3513 1b6e 0120     		movs	r0, #1
 3514 1b70 FEF768FB 		bl	menu_up
 3515 1b74 D3E7     		b	.L532
 3516              	.L546:
 3517 1b76 0120     		movs	r0, #1
 3518 1b78 FFF7FEFF 		bl	naveg_set_master_volume
 3519 1b7c CFE7     		b	.L532
 3520              	.L547:
 3521 1b7e 044B     		ldr	r3, .L548
 3522 1b80 DB68     		ldr	r3, [r3, #12]
 3523 1b82 5B68     		ldr	r3, [r3, #4]
 3524 1b84 DB88     		ldrh	r3, [r3, #6]
 3525 1b86 002B     		cmp	r3, #0
 3526 1b88 F1D1     		bne	.L540
 3527 1b8a C8E7     		b	.L532
 3528              	.L543:
 3529 1b8c 7047     		bx	lr
 3530              	.L549:
 3531 1b8e 00BF     		.align	2
 3532              	.L548:
 3533 1b90 00000000 		.word	.LANCHOR0
 3534 1b94 00000000 		.word	g_tool
 3536              		.align	1
 3537              		.global	naveg_down
 3538              		.syntax unified
 3539              		.thumb
 3540              		.thumb_func
 3541              		.fpu softvfp
 3543              	naveg_down:
 3544              		@ args = 0, pretend = 0, frame = 0
 3545              		@ frame_needed = 0, uses_anonymous_args = 0
 3546 1b98 2F4B     		ldr	r3, .L566
 3547 1b9a 93F86030 		ldrb	r3, [r3, #96]	@ zero_extendqisi2
 3548 1b9e 002B     		cmp	r3, #0
 3549 1ba0 58D0     		beq	.L561
 3550 1ba2 10B5     		push	{r4, lr}
 3551 1ba4 0446     		mov	r4, r0
 3552 1ba6 FEF72BFA 		bl	display_has_tool_enabled
 3553 1baa E0B1     		cbz	r0, .L550
 3554 1bac 002C     		cmp	r4, #0
 3555 1bae 34D1     		bne	.L552
 3556 1bb0 2A4B     		ldr	r3, .L566+4
 3557 1bb2 9B78     		ldrb	r3, [r3, #2]	@ zero_extendqisi2
 3558 1bb4 23B9     		cbnz	r3, .L559
 3559 1bb6 294B     		ldr	r3, .L566+4
 3560 1bb8 1B79     		ldrb	r3, [r3, #4]	@ zero_extendqisi2
 3561 1bba ABB1     		cbz	r3, .L554
 3562 1bbc 0220     		movs	r0, #2
 3563 1bbe 00E0     		b	.L553
 3564              	.L559:
 3565 1bc0 0120     		movs	r0, #1
 3566              	.L553:
 3567 1bc2 0021     		movs	r1, #0
 3568 1bc4 FFF7FEFF 		bl	naveg_toggle_tool
 3569 1bc8 244B     		ldr	r3, .L566+4
 3570 1bca 0122     		movs	r2, #1
 3571 1bcc 9A71     		strb	r2, [r3, #6]
 3572 1bce DA71     		strb	r2, [r3, #7]
 3573 1bd0 214B     		ldr	r3, .L566
 3574 1bd2 DA6E     		ldr	r2, [r3, #108]
 3575 1bd4 5A65     		str	r2, [r3, #84]
 3576 1bd6 1A69     		ldr	r2, [r3, #16]
 3577 1bd8 DA60     		str	r2, [r3, #12]
 3578 1bda 0020     		movs	r0, #0
 3579 1bdc FEF75EFB 		bl	menu_down
 3580 1be0 0020     		movs	r0, #0
 3581 1be2 FFF7E9FC 		bl	menu_enter
 3582              	.L550:
 3583 1be6 10BD     		pop	{r4, pc}
 3584              	.L554:
 3585 1be8 1C4B     		ldr	r3, .L566+4
 3586 1bea 1B78     		ldrb	r3, [r3]	@ zero_extendqisi2
 3587 1bec 002B     		cmp	r3, #0
 3588 1bee FAD0     		beq	.L550
 3589 1bf0 194B     		ldr	r3, .L566
 3590 1bf2 5A6D     		ldr	r2, [r3, #84]
 3591 1bf4 1B6D     		ldr	r3, [r3, #80]
 3592 1bf6 9A42     		cmp	r2, r3
 3593 1bf8 04D0     		beq	.L555
 3594 1bfa 174B     		ldr	r3, .L566
 3595 1bfc DB68     		ldr	r3, [r3, #12]
 3596 1bfe 5B68     		ldr	r3, [r3, #4]
 3597 1c00 DB88     		ldrh	r3, [r3, #6]
 3598 1c02 1BB9     		cbnz	r3, .L556
 3599              	.L555:
 3600 1c04 144B     		ldr	r3, .L566
 3601 1c06 DA66     		str	r2, [r3, #108]
 3602 1c08 DA68     		ldr	r2, [r3, #12]
 3603 1c0a 1A61     		str	r2, [r3, #16]
 3604              	.L556:
 3605 1c0c 0020     		movs	r0, #0
 3606 1c0e FEF745FB 		bl	menu_down
 3607 1c12 0020     		movs	r0, #0
 3608 1c14 FFF7D0FC 		bl	menu_enter
 3609 1c18 E5E7     		b	.L550
 3610              	.L552:
 3611 1c1a 012C     		cmp	r4, #1
 3612 1c1c E3D1     		bne	.L550
 3613 1c1e 0F4B     		ldr	r3, .L566+4
 3614 1c20 1B7A     		ldrb	r3, [r3, #8]	@ zero_extendqisi2
 3615 1c22 63B9     		cbnz	r3, .L564
 3616 1c24 0D4B     		ldr	r3, .L566+4
 3617 1c26 9B79     		ldrb	r3, [r3, #6]	@ zero_extendqisi2
 3618 1c28 002B     		cmp	r3, #0
 3619 1c2a DCD0     		beq	.L550
 3620 1c2c 0A4B     		ldr	r3, .L566
 3621 1c2e 5A6D     		ldr	r2, [r3, #84]
 3622 1c30 1B6D     		ldr	r3, [r3, #80]
 3623 1c32 9A42     		cmp	r2, r3
 3624 1c34 07D0     		beq	.L565
 3625              	.L558:
 3626 1c36 0120     		movs	r0, #1
 3627 1c38 FEF730FB 		bl	menu_down
 3628 1c3c D3E7     		b	.L550
 3629              	.L564:
 3630 1c3e 0020     		movs	r0, #0
 3631 1c40 FFF7FEFF 		bl	naveg_set_master_volume
 3632 1c44 CFE7     		b	.L550
 3633              	.L565:
 3634 1c46 044B     		ldr	r3, .L566
 3635 1c48 DB68     		ldr	r3, [r3, #12]
 3636 1c4a 5B68     		ldr	r3, [r3, #4]
 3637 1c4c DB88     		ldrh	r3, [r3, #6]
 3638 1c4e 002B     		cmp	r3, #0
 3639 1c50 F1D1     		bne	.L558
 3640 1c52 C8E7     		b	.L550
 3641              	.L561:
 3642 1c54 7047     		bx	lr
 3643              	.L567:
 3644 1c56 00BF     		.align	2
 3645              	.L566:
 3646 1c58 00000000 		.word	.LANCHOR0
 3647 1c5c 00000000 		.word	g_tool
 3649              		.align	1
 3650              		.global	naveg_reset_menu
 3651              		.syntax unified
 3652              		.thumb
 3653              		.thumb_func
 3654              		.fpu softvfp
 3656              	naveg_reset_menu:
 3657              		@ args = 0, pretend = 0, frame = 0
 3658              		@ frame_needed = 0, uses_anonymous_args = 0
 3659 1c60 08B5     		push	{r3, lr}
 3660 1c62 074B     		ldr	r3, .L572
 3661 1c64 93F86030 		ldrb	r3, [r3, #96]	@ zero_extendqisi2
 3662 1c68 03B9     		cbnz	r3, .L571
 3663              	.L568:
 3664 1c6a 08BD     		pop	{r3, pc}
 3665              	.L571:
 3666 1c6c 044B     		ldr	r3, .L572
 3667 1c6e 186D     		ldr	r0, [r3, #80]
 3668 1c70 5865     		str	r0, [r3, #84]
 3669 1c72 8268     		ldr	r2, [r0, #8]
 3670 1c74 1268     		ldr	r2, [r2]
 3671 1c76 DA60     		str	r2, [r3, #12]
 3672 1c78 D866     		str	r0, [r3, #108]
 3673 1c7a FEF7D5F9 		bl	reset_menu_hover
 3674 1c7e F4E7     		b	.L568
 3675              	.L573:
 3676              		.align	2
 3677              	.L572:
 3678 1c80 00000000 		.word	.LANCHOR0
 3680              		.align	1
 3681              		.global	naveg_need_update
 3682              		.syntax unified
 3683              		.thumb
 3684              		.thumb_func
 3685              		.fpu softvfp
 3687              	naveg_need_update:
 3688              		@ args = 0, pretend = 0, frame = 0
 3689              		@ frame_needed = 0, uses_anonymous_args = 0
 3690              		@ link register save eliminated.
 3691 1c84 024B     		ldr	r3, .L575
 3692 1c86 986D     		ldr	r0, [r3, #88]
 3693 1c88 0030     		adds	r0, r0, #0
 3694 1c8a 18BF     		it	ne
 3695 1c8c 0120     		movne	r0, #1
 3696 1c8e 7047     		bx	lr
 3697              	.L576:
 3698              		.align	2
 3699              	.L575:
 3700 1c90 00000000 		.word	.LANCHOR0
 3702              		.align	1
 3703              		.global	naveg_update
 3704              		.syntax unified
 3705              		.thumb
 3706              		.thumb_func
 3707              		.fpu softvfp
 3709              	naveg_update:
 3710              		@ args = 0, pretend = 0, frame = 0
 3711              		@ frame_needed = 0, uses_anonymous_args = 0
 3712 1c94 064B     		ldr	r3, .L583
 3713 1c96 9B6D     		ldr	r3, [r3, #88]
 3714 1c98 43B1     		cbz	r3, .L580
 3715 1c9a 10B5     		push	{r4, lr}
 3716 1c9c 044C     		ldr	r4, .L583
 3717 1c9e 0021     		movs	r1, #0
 3718 1ca0 E06D     		ldr	r0, [r4, #92]
 3719 1ca2 9847     		blx	r3
 3720 1ca4 E06D     		ldr	r0, [r4, #92]
 3721 1ca6 FFF7FEFF 		bl	screen_system_menu
 3722 1caa 10BD     		pop	{r4, pc}
 3723              	.L580:
 3724 1cac 7047     		bx	lr
 3725              	.L584:
 3726 1cae 00BF     		.align	2
 3727              	.L583:
 3728 1cb0 00000000 		.word	.LANCHOR0
 3730              		.align	1
 3731              		.global	naveg_dialog
 3732              		.syntax unified
 3733              		.thumb
 3734              		.thumb_func
 3735              		.fpu softvfp
 3737              	naveg_dialog:
 3738              		@ args = 0, pretend = 0, frame = 0
 3739              		@ frame_needed = 0, uses_anonymous_args = 0
 3740 1cb4 38B5     		push	{r3, r4, r5, lr}
 3741 1cb6 184B     		ldr	r3, .L589
 3742 1cb8 5B6F     		ldr	r3, [r3, #116]
 3743 1cba CBB1     		cbz	r3, .L588
 3744              	.L586:
 3745 1cbc 174B     		ldr	r3, .L589+4
 3746 1cbe 0122     		movs	r2, #1
 3747 1cc0 1A70     		strb	r2, [r3]
 3748 1cc2 0025     		movs	r5, #0
 3749 1cc4 5D70     		strb	r5, [r3, #1]
 3750 1cc6 144C     		ldr	r4, .L589
 3751 1cc8 636F     		ldr	r3, [r4, #116]
 3752 1cca 6365     		str	r3, [r4, #84]
 3753 1ccc 1868     		ldr	r0, [r3]
 3754 1cce E060     		str	r0, [r4, #12]
 3755 1cd0 FFF7FEFF 		bl	screen_system_menu
 3756 1cd4 2B46     		mov	r3, r5
 3757 1cd6 4FF0FF32 		mov	r2, #-1
 3758 1cda 2946     		mov	r1, r5
 3759 1cdc 606E     		ldr	r0, [r4, #100]
 3760 1cde FFF7FEFF 		bl	xQueueGenericReceive
 3761 1ce2 2946     		mov	r1, r5
 3762 1ce4 2846     		mov	r0, r5
 3763 1ce6 FFF7FEFF 		bl	naveg_toggle_tool
 3764 1cea E368     		ldr	r3, [r4, #12]
 3765 1cec 987B     		ldrb	r0, [r3, #14]	@ zero_extendqisi2
 3766 1cee 38BD     		pop	{r3, r4, r5, pc}
 3767              	.L588:
 3768 1cf0 0446     		mov	r4, r0
 3769 1cf2 2020     		movs	r0, #32
 3770 1cf4 FFF7FEFF 		bl	pvPortMalloc
 3771 1cf8 0022     		movs	r2, #0
 3772 1cfa 8273     		strb	r2, [r0, #14]
 3773 1cfc FF21     		movs	r1, #255
 3774 1cfe 4173     		strb	r1, [r0, #13]
 3775 1d00 0221     		movs	r1, #2
 3776 1d02 0173     		strb	r1, [r0, #12]
 3777 1d04 8260     		str	r2, [r0, #8]
 3778 1d06 4461     		str	r4, [r0, #20]
 3779 1d08 0549     		ldr	r1, .L589+8
 3780 1d0a 4160     		str	r1, [r0, #4]
 3781 1d0c 0260     		str	r2, [r0]
 3782 1d0e FFF7FEFF 		bl	node_create
 3783 1d12 014B     		ldr	r3, .L589
 3784 1d14 5867     		str	r0, [r3, #116]
 3785 1d16 D1E7     		b	.L586
 3786              	.L590:
 3787              		.align	2
 3788              	.L589:
 3789 1d18 00000000 		.word	.LANCHOR0
 3790 1d1c 00000000 		.word	g_tool
 3791 1d20 08060000 		.word	.LANCHOR1+1544
 3793              		.align	1
 3794              		.global	naveg_ui_status
 3795              		.syntax unified
 3796              		.thumb
 3797              		.thumb_func
 3798              		.fpu softvfp
 3800              	naveg_ui_status:
 3801              		@ args = 0, pretend = 0, frame = 0
 3802              		@ frame_needed = 0, uses_anonymous_args = 0
 3803              		@ link register save eliminated.
 3804 1d24 014B     		ldr	r3, .L592
 3805 1d26 93F87000 		ldrb	r0, [r3, #112]	@ zero_extendqisi2
 3806 1d2a 7047     		bx	lr
 3807              	.L593:
 3808              		.align	2
 3809              	.L592:
 3810 1d2c 00000000 		.word	.LANCHOR0
 3812              		.align	1
 3813              		.global	naveg_tap_tempo_status
 3814              		.syntax unified
 3815              		.thumb
 3816              		.thumb_func
 3817              		.fpu softvfp
 3819              	naveg_tap_tempo_status:
 3820              		@ args = 0, pretend = 0, frame = 0
 3821              		@ frame_needed = 0, uses_anonymous_args = 0
 3822              		@ link register save eliminated.
 3823 1d30 00EB4000 		add	r0, r0, r0, lsl #1
 3824 1d34 034B     		ldr	r3, .L595
 3825 1d36 03EB8000 		add	r0, r3, r0, lsl #2
 3826 1d3a 007A     		ldrb	r0, [r0, #8]	@ zero_extendqisi2
 3827 1d3c 0030     		adds	r0, r0, #0
 3828 1d3e 18BF     		it	ne
 3829 1d40 0120     		movne	r0, #1
 3830 1d42 7047     		bx	lr
 3831              	.L596:
 3832              		.align	2
 3833              	.L595:
 3834 1d44 00000000 		.word	g_tap_tempo
 3836              		.align	1
 3837              		.global	naveg_settings_refresh
 3838              		.syntax unified
 3839              		.thumb
 3840              		.thumb_func
 3841              		.fpu softvfp
 3843              	naveg_settings_refresh:
 3844              		@ args = 0, pretend = 0, frame = 0
 3845              		@ frame_needed = 0, uses_anonymous_args = 0
 3846 1d48 08B5     		push	{r3, lr}
 3847 1d4a 20B9     		cbnz	r0, .L601
 3848 1d4c 044B     		ldr	r3, .L602
 3849 1d4e 1869     		ldr	r0, [r3, #16]
 3850 1d50 FFF7FEFF 		bl	screen_system_menu
 3851              	.L597:
 3852 1d54 08BD     		pop	{r3, pc}
 3853              	.L601:
 3854 1d56 024B     		ldr	r3, .L602
 3855 1d58 D868     		ldr	r0, [r3, #12]
 3856 1d5a FFF7FEFF 		bl	screen_system_menu
 3857 1d5e F9E7     		b	.L597
 3858              	.L603:
 3859              		.align	2
 3860              	.L602:
 3861 1d60 00000000 		.word	.LANCHOR0
 3863              		.align	1
 3864              		.global	naveg_menu_refresh
 3865              		.syntax unified
 3866              		.thumb
 3867              		.thumb_func
 3868              		.fpu softvfp
 3870              	naveg_menu_refresh:
 3871              		@ args = 0, pretend = 0, frame = 0
 3872              		@ frame_needed = 0, uses_anonymous_args = 0
 3873 1d64 70B5     		push	{r4, r5, r6, lr}
 3874 1d66 0646     		mov	r6, r0
 3875 1d68 88B1     		cbz	r0, .L605
 3876 1d6a 0A4B     		ldr	r3, .L612
 3877 1d6c 5B6D     		ldr	r3, [r3, #84]
 3878              	.L606:
 3879 1d6e 9C68     		ldr	r4, [r3, #8]
 3880 1d70 4CB1     		cbz	r4, .L607
 3881 1d72 0325     		movs	r5, #3
 3882              	.L609:
 3883 1d74 2068     		ldr	r0, [r4]
 3884 1d76 4368     		ldr	r3, [r0, #4]
 3885 1d78 DB68     		ldr	r3, [r3, #12]
 3886 1d7a 0BB1     		cbz	r3, .L608
 3887 1d7c 2946     		mov	r1, r5
 3888 1d7e 9847     		blx	r3
 3889              	.L608:
 3890 1d80 6469     		ldr	r4, [r4, #20]
 3891 1d82 002C     		cmp	r4, #0
 3892 1d84 F6D1     		bne	.L609
 3893              	.L607:
 3894 1d86 3046     		mov	r0, r6
 3895 1d88 FFF7FEFF 		bl	naveg_settings_refresh
 3896 1d8c 70BD     		pop	{r4, r5, r6, pc}
 3897              	.L605:
 3898 1d8e 014B     		ldr	r3, .L612
 3899 1d90 DB6E     		ldr	r3, [r3, #108]
 3900 1d92 ECE7     		b	.L606
 3901              	.L613:
 3902              		.align	2
 3903              	.L612:
 3904 1d94 00000000 		.word	.LANCHOR0
 3906              		.align	1
 3907              		.global	naveg_bypass_refresh
 3908              		.syntax unified
 3909              		.thumb
 3910              		.thumb_func
 3911              		.fpu softvfp
 3913              	naveg_bypass_refresh:
 3914              		@ args = 0, pretend = 0, frame = 16
 3915              		@ frame_needed = 0, uses_anonymous_args = 0
 3916 1d98 2DE9F04F 		push	{r4, r5, r6, r7, r8, r9, r10, fp, lr}
 3917 1d9c 85B0     		sub	sp, sp, #20
 3918 1d9e 0090     		str	r0, [sp]
 3919 1da0 0191     		str	r1, [sp, #4]
 3920 1da2 384B     		ldr	r3, .L637
 3921 1da4 5B6D     		ldr	r3, [r3, #84]
 3922 1da6 D3F80890 		ldr	r9, [r3, #8]
 3923 1daa B9F1000F 		cmp	r9, #0
 3924 1dae 62D0     		beq	.L615
 3925 1db0 9346     		mov	fp, r2
 3926 1db2 DFF8E8A0 		ldr	r10, .L637+24
 3927 1db6 30E0     		b	.L629
 3928              	.L635:
 3929 1db8 009B     		ldr	r3, [sp]
 3930 1dba B383     		strh	r3, [r6, #28]	@ movhi
 3931              	.L617:
 3932 1dbc 1168     		ldr	r1, [r2]
 3933 1dbe 3068     		ldr	r0, [r6]
 3934 1dc0 FFF7FEFF 		bl	strcpy
 3935 1dc4 3068     		ldr	r0, [r6]
 3936 1dc6 FFF7FEFF 		bl	strlen
 3937 1dca C0B2     		uxtb	r0, r0
 3938 1dcc C0F11C07 		rsb	r7, r0, #28
 3939 1dd0 002F     		cmp	r7, #0
 3940 1dd2 0CDD     		ble	.L620
 3941 1dd4 0024     		movs	r4, #0
 3942 1dd6 BAF80080 		ldrh	r8, [r10]	@ unaligned
 3943              	.L621:
 3944 1dda 3568     		ldr	r5, [r6]
 3945 1ddc 2846     		mov	r0, r5
 3946 1dde FFF7FEFF 		bl	strlen
 3947 1de2 25F80080 		strh	r8, [r5, r0]	@ unaligned
 3948 1de6 0134     		adds	r4, r4, #1
 3949 1de8 E4B2     		uxtb	r4, r4
 3950 1dea BC42     		cmp	r4, r7
 3951 1dec F5DB     		blt	.L621
 3952              	.L620:
 3953 1dee 7368     		ldr	r3, [r6, #4]
 3954 1df0 DB88     		ldrh	r3, [r3, #6]
 3955 1df2 AE2B     		cmp	r3, #174
 3956 1df4 28D0     		beq	.L634
 3957 1df6 3568     		ldr	r5, [r6]
 3958 1df8 B6F91C30 		ldrsh	r3, [r6, #28]
 3959 1dfc 224C     		ldr	r4, .L637+4
 3960 1dfe 234A     		ldr	r2, .L637+8
 3961 1e00 002B     		cmp	r3, #0
 3962 1e02 18BF     		it	ne
 3963 1e04 1446     		movne	r4, r2
 3964 1e06 2846     		mov	r0, r5
 3965 1e08 FFF7FEFF 		bl	strlen
 3966 1e0c 2368     		ldr	r3, [r4]
 3967 1e0e 2B50     		str	r3, [r5, r0]	@ unaligned
 3968              	.L627:
 3969 1e10 D9F81490 		ldr	r9, [r9, #20]
 3970 1e14 B9F1000F 		cmp	r9, #0
 3971 1e18 2DD0     		beq	.L615
 3972              	.L629:
 3973 1e1a D9F80060 		ldr	r6, [r9]
 3974 1e1e 7268     		ldr	r2, [r6, #4]
 3975 1e20 D388     		ldrh	r3, [r2, #6]
 3976 1e22 AB2B     		cmp	r3, #171
 3977 1e24 C8D0     		beq	.L635
 3978 1e26 AC2B     		cmp	r3, #172
 3979 1e28 08D0     		beq	.L636
 3980 1e2a AD2B     		cmp	r3, #173
 3981 1e2c C6D1     		bne	.L617
 3982 1e2e 009B     		ldr	r3, [sp]
 3983 1e30 3BB1     		cbz	r3, .L619
 3984 1e32 019B     		ldr	r3, [sp, #4]
 3985 1e34 2BB1     		cbz	r3, .L619
 3986 1e36 0123     		movs	r3, #1
 3987 1e38 B383     		strh	r3, [r6, #28]	@ movhi
 3988 1e3a BFE7     		b	.L617
 3989              	.L636:
 3990 1e3c 019B     		ldr	r3, [sp, #4]
 3991 1e3e B383     		strh	r3, [r6, #28]	@ movhi
 3992 1e40 BCE7     		b	.L617
 3993              	.L619:
 3994 1e42 0023     		movs	r3, #0
 3995 1e44 B383     		strh	r3, [r6, #28]	@ movhi
 3996 1e46 B9E7     		b	.L617
 3997              	.L634:
 3998 1e48 BBF1010F 		cmp	fp, #1
 3999 1e4c 0DD0     		beq	.L624
 4000 1e4e BBF1000F 		cmp	fp, #0
 4001 1e52 07D0     		beq	.L625
 4002 1e54 BBF1020F 		cmp	fp, #2
 4003 1e58 0AD0     		beq	.L626
 4004              	.L623:
 4005 1e5a 03A9     		add	r1, sp, #12
 4006 1e5c 3068     		ldr	r0, [r6]
 4007 1e5e FFF7FEFF 		bl	strcat
 4008 1e62 D5E7     		b	.L627
 4009              	.L625:
 4010 1e64 0A4B     		ldr	r3, .L637+12
 4011 1e66 0393     		str	r3, [sp, #12]
 4012 1e68 F7E7     		b	.L623
 4013              	.L624:
 4014 1e6a 0A4B     		ldr	r3, .L637+16
 4015 1e6c 0393     		str	r3, [sp, #12]
 4016 1e6e F4E7     		b	.L623
 4017              	.L626:
 4018 1e70 094B     		ldr	r3, .L637+20
 4019 1e72 0393     		str	r3, [sp, #12]
 4020 1e74 F1E7     		b	.L623
 4021              	.L615:
 4022 1e76 0120     		movs	r0, #1
 4023 1e78 FFF7FEFF 		bl	naveg_settings_refresh
 4024 1e7c 05B0     		add	sp, sp, #20
 4025              		@ sp needed
 4026 1e7e BDE8F08F 		pop	{r4, r5, r6, r7, r8, r9, r10, fp, pc}
 4027              	.L638:
 4028 1e82 00BF     		.align	2
 4029              	.L637:
 4030 1e84 00000000 		.word	.LANCHOR0
 4031 1e88 D0000000 		.word	.LC21
 4032 1e8c CC000000 		.word	.LC20
 4033 1e90 20203100 		.word	3219488
 4034 1e94 20203200 		.word	3285024
 4035 1e98 31263200 		.word	3286577
 4036 1e9c D4000000 		.word	.LC22
 4038              		.align	1
 4039              		.global	naveg_update_gain
 4040              		.syntax unified
 4041              		.thumb
 4042              		.thumb_func
 4043              		.fpu softvfp
 4045              	naveg_update_gain:
 4046              		@ args = 0, pretend = 0, frame = 16
 4047              		@ frame_needed = 0, uses_anonymous_args = 0
 4048 1ea0 2DE9F04F 		push	{r4, r5, r6, r7, r8, r9, r10, fp, lr}
 4049 1ea4 85B0     		sub	sp, sp, #20
 4050 1ea6 98B1     		cbz	r0, .L640
 4051 1ea8 2B4B     		ldr	r3, .L651
 4052 1eaa 5B6D     		ldr	r3, [r3, #84]
 4053              	.L641:
 4054 1eac 9C68     		ldr	r4, [r3, #8]
 4055 1eae 64B1     		cbz	r4, .L639
 4056 1eb0 0192     		str	r2, [sp, #4]	@ float
 4057 1eb2 1FFA81F8 		uxth	r8, r1
 4058 1eb6 DFF8A8B0 		ldr	fp, .L651+8
 4059              	.L646:
 4060 1eba 2668     		ldr	r6, [r4]
 4061 1ebc 7368     		ldr	r3, [r6, #4]
 4062 1ebe DB88     		ldrh	r3, [r3, #6]
 4063 1ec0 4345     		cmp	r3, r8
 4064 1ec2 08D0     		beq	.L650
 4065              	.L643:
 4066 1ec4 6469     		ldr	r4, [r4, #20]
 4067 1ec6 002C     		cmp	r4, #0
 4068 1ec8 F7D1     		bne	.L646
 4069              	.L639:
 4070 1eca 05B0     		add	sp, sp, #20
 4071              		@ sp needed
 4072 1ecc BDE8F08F 		pop	{r4, r5, r6, r7, r8, r9, r10, fp, pc}
 4073              	.L640:
 4074 1ed0 214B     		ldr	r3, .L651
 4075 1ed2 DB6E     		ldr	r3, [r3, #108]
 4076 1ed4 EAE7     		b	.L641
 4077              	.L650:
 4078 1ed6 019D     		ldr	r5, [sp, #4]	@ float
 4079 1ed8 2846     		mov	r0, r5
 4080 1eda FFF7FEFF 		bl	__aeabi_f2iz
 4081 1ede B083     		strh	r0, [r6, #28]	@ movhi
 4082 1ee0 0123     		movs	r3, #1
 4083 1ee2 0822     		movs	r2, #8
 4084 1ee4 0DEB0201 		add	r1, sp, r2
 4085 1ee8 2846     		mov	r0, r5
 4086 1eea FFF7FEFF 		bl	float_to_str
 4087 1eee 7368     		ldr	r3, [r6, #4]
 4088 1ef0 1968     		ldr	r1, [r3]
 4089 1ef2 3068     		ldr	r0, [r6]
 4090 1ef4 FFF7FEFF 		bl	strcpy
 4091 1ef8 02A8     		add	r0, sp, #8
 4092 1efa FFF7FEFF 		bl	strlen
 4093 1efe 8146     		mov	r9, r0
 4094 1f00 3068     		ldr	r0, [r6]
 4095 1f02 FFF7FEFF 		bl	strlen
 4096 1f06 C0B2     		uxtb	r0, r0
 4097 1f08 5FFA89F9 		uxtb	r9, r9
 4098 1f0c C9F11D09 		rsb	r9, r9, #29
 4099 1f10 A9EB0009 		sub	r9, r9, r0
 4100 1f14 B9F1000F 		cmp	r9, #0
 4101 1f18 0DDD     		ble	.L644
 4102 1f1a 0025     		movs	r5, #0
 4103 1f1c 0F4B     		ldr	r3, .L651+4
 4104 1f1e B3F800A0 		ldrh	r10, [r3]	@ unaligned
 4105              	.L645:
 4106 1f22 3768     		ldr	r7, [r6]
 4107 1f24 3846     		mov	r0, r7
 4108 1f26 FFF7FEFF 		bl	strlen
 4109 1f2a 27F800A0 		strh	r10, [r7, r0]	@ unaligned
 4110 1f2e 0135     		adds	r5, r5, #1
 4111 1f30 EDB2     		uxtb	r5, r5
 4112 1f32 4D45     		cmp	r5, r9
 4113 1f34 F5DB     		blt	.L645
 4114              	.L644:
 4115 1f36 02A9     		add	r1, sp, #8
 4116 1f38 3068     		ldr	r0, [r6]
 4117 1f3a FFF7FEFF 		bl	strcat
 4118 1f3e 3568     		ldr	r5, [r6]
 4119 1f40 2846     		mov	r0, r5
 4120 1f42 FFF7FEFF 		bl	strlen
 4121 1f46 2918     		adds	r1, r5, r0
 4122 1f48 BBF80020 		ldrh	r2, [fp]	@ unaligned
 4123 1f4c 9BF80230 		ldrb	r3, [fp, #2]	@ zero_extendqisi2
 4124 1f50 2A52     		strh	r2, [r5, r0]	@ unaligned
 4125 1f52 8B70     		strb	r3, [r1, #2]
 4126 1f54 B6E7     		b	.L643
 4127              	.L652:
 4128 1f56 00BF     		.align	2
 4129              	.L651:
 4130 1f58 00000000 		.word	.LANCHOR0
 4131 1f5c D4000000 		.word	.LC22
 4132 1f60 D8000000 		.word	.LC23
 4134              		.comm	g_tool,10,4
 4135              		.comm	g_tap_tempo,84,4
 4136              		.section	.rodata
 4137              		.align	2
 4138              		.set	.LANCHOR2,. + 0
 4139              	.LC9:
 4140 0000 DC000000 		.word	.LC0
 4141 0004 02       		.byte	2
 4142 0005 00       		.space	1
 4143 0006 FFFF     		.short	-1
 4144 0008 FFFF     		.short	-1
 4145 000a 0000     		.space	2
 4146 000c 00000000 		.word	0
 4147 0010 00       		.byte	0
 4148 0011 000000   		.space	3
 4151              	g_menu_popups:
 4152 0014 8200     		.short	130
 4153 0016 0000     		.space	2
 4154 0018 E4000000 		.word	.LC24
 4155 001c 68000000 		.word	.LC14
 4156 0020 9600     		.short	150
 4157 0022 0000     		.space	2
 4158 0024 F0000000 		.word	.LC25
 4159 0028 68000000 		.word	.LC14
 4160 002c 8400     		.short	132
 4161 002e 0000     		.space	2
 4162 0030 F8000000 		.word	.LC26
 4163 0034 04010000 		.word	.LC27
 4164 0038 8500     		.short	133
 4165 003a 0000     		.space	2
 4166 003c 6C010000 		.word	.LC28
 4167 0040 78010000 		.word	.LC29
 4168 0044 8E00     		.short	142
 4169 0046 0000     		.space	2
 4170 0048 E0010000 		.word	.LC30
 4171 004c F4010000 		.word	.LC31
 4172 0050 6400     		.short	100
 4173 0052 0000     		.space	2
 4174 0054 2C020000 		.word	.LC32
 4175 0058 44020000 		.word	.LC33
 4176 005c BF00     		.short	191
 4177 005e 0000     		.space	2
 4178 0060 B0020000 		.word	.LC34
 4179 0064 C4020000 		.word	.LC35
 4180 0068 C000     		.short	192
 4181 006a 0000     		.space	2
 4182 006c 98030000 		.word	.LC36
 4183 0070 C4020000 		.word	.LC35
 4184 0074 C100     		.short	193
 4185 0076 0000     		.space	2
 4186 0078 AC030000 		.word	.LC37
 4187 007c C4020000 		.word	.LC35
 4188 0080 C200     		.short	194
 4189 0082 0000     		.space	2
 4190 0084 C0030000 		.word	.LC38
 4191 0088 C4020000 		.word	.LC35
 4192 008c C300     		.short	195
 4193 008e 0000     		.space	2
 4194 0090 D4030000 		.word	.LC39
 4195 0094 EC030000 		.word	.LC40
 4196 0098 C400     		.short	196
 4197 009a 0000     		.space	2
 4198 009c 34040000 		.word	.LC41
 4199 00a0 4C040000 		.word	.LC42
 4200 00a4 C500     		.short	197
 4201 00a6 0000     		.space	2
 4202 00a8 E8040000 		.word	.LC43
 4203 00ac 4C040000 		.word	.LC42
 4204 00b0 C600     		.short	198
 4205 00b2 0000     		.space	2
 4206 00b4 00050000 		.word	.LC44
 4207 00b8 4C040000 		.word	.LC42
 4208 00bc C700     		.short	199
 4209 00be 0000     		.space	2
 4210 00c0 18050000 		.word	.LC45
 4211 00c4 4C040000 		.word	.LC42
 4212 00c8 0C00     		.short	12
 4213 00ca 0000     		.space	2
 4214 00cc 30050000 		.word	.LC46
 4215 00d0 44050000 		.word	.LC47
 4216 00d4 0D00     		.short	13
 4217 00d6 0000     		.space	2
 4218 00d8 34060000 		.word	.LC48
 4219 00dc 44060000 		.word	.LC49
 4220 00e0 1600     		.short	22
 4221 00e2 0000     		.space	2
 4222 00e4 AC060000 		.word	.LC50
 4223 00e8 C0060000 		.word	.LC51
 4224 00ec 1700     		.short	23
 4225 00ee 0000     		.space	2
 4226 00f0 9C070000 		.word	.LC52
 4227 00f4 B0070000 		.word	.LC53
 4228 00f8 FFFF     		.short	-1
 4229 00fa 0000     		.space	2
 4230 00fc 00000000 		.word	0
 4231 0100 00000000 		.word	0
 4232              		.data
 4233              		.align	2
 4234              		.set	.LANCHOR1,. + 0
 4237              	g_menu_desc:
 4238 0000 80080000 		.word	.LC54
 4239 0004 02       		.byte	2
 4240 0005 00       		.space	1
 4241 0006 0000     		.short	0
 4242 0008 FFFF     		.short	-1
 4243 000a 0000     		.space	2
 4244 000c 00000000 		.word	0
 4245 0010 00       		.byte	0
 4246 0011 000000   		.space	3
 4247 0014 8C080000 		.word	.LC55
 4248 0018 09       		.byte	9
 4249 0019 00       		.space	1
 4250 001a 9600     		.short	150
 4251 001c 0000     		.short	0
 4252 001e 0000     		.space	2
 4253 0020 00000000 		.word	0
 4254 0024 00       		.byte	0
 4255 0025 000000   		.space	3
 4256 0028 94080000 		.word	.LC56
 4257 002c 02       		.byte	2
 4258 002d 00       		.space	1
 4259 002e 8200     		.short	130
 4260 0030 0000     		.short	0
 4261 0032 0000     		.space	2
 4262 0034 00000000 		.word	0
 4263 0038 00       		.byte	0
 4264 0039 000000   		.space	3
 4265 003c A8080000 		.word	.LC57
 4266 0040 04       		.byte	4
 4267 0041 00       		.space	1
 4268 0042 8400     		.short	132
 4269 0044 8200     		.short	130
 4270 0046 0000     		.space	2
 4271 0048 00000000 		.word	system_pedalboard_cb
 4272 004c 00       		.byte	0
 4273 004d 000000   		.space	3
 4274 0050 B4080000 		.word	.LC58
 4275 0054 04       		.byte	4
 4276 0055 00       		.space	1
 4277 0056 8500     		.short	133
 4278 0058 8200     		.short	130
 4279 005a 0000     		.space	2
 4280 005c 00000000 		.word	system_pedalboard_cb
 4281 0060 00       		.byte	0
 4282 0061 000000   		.space	3
 4283 0064 C0080000 		.word	.LC59
 4284 0068 02       		.byte	2
 4285 0069 00       		.space	1
 4286 006a AA00     		.short	170
 4287 006c 0000     		.short	0
 4288 006e 0000     		.space	2
 4289 0070 00000000 		.word	system_quick_bypass_cb
 4290 0074 00       		.byte	0
 4291 0075 000000   		.space	3
 4292 0078 D0080000 		.word	.LC60
 4293 007c 06       		.byte	6
 4294 007d 00       		.space	1
 4295 007e AB00     		.short	171
 4296 0080 AA00     		.short	170
 4297 0082 0000     		.space	2
 4298 0084 00000000 		.word	system_bypass_cb
 4299 0088 00       		.byte	0
 4300 0089 000000   		.space	3
 4301 008c DC080000 		.word	.LC61
 4302 0090 06       		.byte	6
 4303 0091 00       		.space	1
 4304 0092 AC00     		.short	172
 4305 0094 AA00     		.short	170
 4306 0096 0000     		.space	2
 4307 0098 00000000 		.word	system_bypass_cb
 4308 009c 00       		.byte	0
 4309 009d 000000   		.space	3
 4310 00a0 E8080000 		.word	.LC62
 4311 00a4 06       		.byte	6
 4312 00a5 00       		.space	1
 4313 00a6 AD00     		.short	173
 4314 00a8 AA00     		.short	170
 4315 00aa 0000     		.space	2
 4316 00ac 00000000 		.word	system_bypass_cb
 4317 00b0 00       		.byte	0
 4318 00b1 000000   		.space	3
 4319 00b4 F8080000 		.word	.LC63
 4320 00b8 06       		.byte	6
 4321 00b9 00       		.space	1
 4322 00ba AE00     		.short	174
 4323 00bc AA00     		.short	170
 4324 00be 0000     		.space	2
 4325 00c0 00000000 		.word	system_bypass_cb
 4326 00c4 00       		.byte	0
 4327 00c5 000000   		.space	3
 4328 00c8 10090000 		.word	.LC64
 4329 00cc 02       		.byte	2
 4330 00cd 00       		.space	1
 4331 00ce B400     		.short	180
 4332 00d0 0000     		.short	0
 4333 00d2 0000     		.space	2
 4334 00d4 00000000 		.word	system_play_cb
 4335 00d8 00       		.byte	0
 4336 00d9 000000   		.space	3
 4337 00dc 24090000 		.word	.LC65
 4338 00e0 0B       		.byte	11
 4339 00e1 00       		.space	1
 4340 00e2 B500     		.short	181
 4341 00e4 B400     		.short	180
 4342 00e6 0000     		.space	2
 4343 00e8 00000000 		.word	system_tempo_cb
 4344 00ec 00       		.byte	0
 4345 00ed 000000   		.space	3
 4346 00f0 2C090000 		.word	.LC66
 4347 00f4 0B       		.byte	11
 4348 00f5 00       		.space	1
 4349 00f6 B600     		.short	182
 4350 00f8 B400     		.short	180
 4351 00fa 0000     		.space	2
 4352 00fc 00000000 		.word	system_bpb_cb
 4353 0100 00       		.byte	0
 4354 0101 000000   		.space	3
 4355 0104 3C090000 		.word	.LC67
 4356 0108 00       		.byte	0
 4357 0109 00       		.space	1
 4358 010a 1E00     		.short	30
 4359 010c 0000     		.short	0
 4360 010e 0000     		.space	2
 4361 0110 00000000 		.word	system_tuner_cb
 4362 0114 00       		.byte	0
 4363 0115 000000   		.space	3
 4364 0118 44090000 		.word	.LC68
 4365 011c 02       		.byte	2
 4366 011d 00       		.space	1
 4367 011e BE00     		.short	190
 4368 0120 0000     		.short	0
 4369 0122 0000     		.space	2
 4370 0124 00000000 		.word	0
 4371 0128 00       		.byte	0
 4372 0129 000000   		.space	3
 4373 012c 54090000 		.word	.LC69
 4374 0130 06       		.byte	6
 4375 0131 00       		.space	1
 4376 0132 BF00     		.short	191
 4377 0134 BE00     		.short	190
 4378 0136 0000     		.space	2
 4379 0138 00000000 		.word	system_load_pro_cb
 4380 013c 00       		.byte	0
 4381 013d 000000   		.space	3
 4382 0140 64090000 		.word	.LC70
 4383 0144 06       		.byte	6
 4384 0145 00       		.space	1
 4385 0146 C000     		.short	192
 4386 0148 BE00     		.short	190
 4387 014a 0000     		.space	2
 4388 014c 00000000 		.word	system_load_pro_cb
 4389 0150 00       		.byte	0
 4390 0151 000000   		.space	3
 4391 0154 74090000 		.word	.LC71
 4392 0158 06       		.byte	6
 4393 0159 00       		.space	1
 4394 015a C100     		.short	193
 4395 015c BE00     		.short	190
 4396 015e 0000     		.space	2
 4397 0160 00000000 		.word	system_load_pro_cb
 4398 0164 00       		.byte	0
 4399 0165 000000   		.space	3
 4400 0168 84090000 		.word	.LC72
 4401 016c 06       		.byte	6
 4402 016d 00       		.space	1
 4403 016e C200     		.short	194
 4404 0170 BE00     		.short	190
 4405 0172 0000     		.space	2
 4406 0174 00000000 		.word	system_load_pro_cb
 4407 0178 00       		.byte	0
 4408 0179 000000   		.space	3
 4409 017c 94090000 		.word	.LC73
 4410 0180 06       		.byte	6
 4411 0181 00       		.space	1
 4412 0182 C300     		.short	195
 4413 0184 BE00     		.short	190
 4414 0186 0000     		.space	2
 4415 0188 00000000 		.word	system_save_pro_cb
 4416 018c 00       		.byte	0
 4417 018d 000000   		.space	3
 4418 0190 B0090000 		.word	.LC74
 4419 0194 02       		.byte	2
 4420 0195 00       		.space	1
 4421 0196 2800     		.short	40
 4422 0198 0000     		.short	0
 4423 019a 0000     		.space	2
 4424 019c 00000000 		.word	0
 4425 01a0 00       		.byte	0
 4426 01a1 000000   		.space	3
 4427 01a4 B8090000 		.word	.LC75
 4428 01a8 02       		.byte	2
 4429 01a9 00       		.space	1
 4430 01aa 0A00     		.short	10
 4431 01ac 2800     		.short	40
 4432 01ae 0000     		.space	2
 4433 01b0 00000000 		.word	0
 4434 01b4 00       		.byte	0
 4435 01b5 000000   		.space	3
 4436 01b8 C0090000 		.word	.LC76
 4437 01bc 01       		.byte	1
 4438 01bd 00       		.space	1
 4439 01be 0B00     		.short	11
 4440 01c0 0A00     		.short	10
 4441 01c2 0000     		.space	2
 4442 01c4 00000000 		.word	0
 4443 01c8 00       		.byte	0
 4444 01c9 000000   		.space	3
 4445 01cc D4090000 		.word	.LC77
 4446 01d0 06       		.byte	6
 4447 01d1 00       		.space	1
 4448 01d2 0B00     		.short	11
 4449 01d4 0A00     		.short	10
 4450 01d6 0000     		.space	2
 4451 01d8 00000000 		.word	system_sl_in_cb
 4452 01dc 00       		.byte	0
 4453 01dd 000000   		.space	3
 4454 01e0 E0090000 		.word	.LC78
 4455 01e4 0A       		.byte	10
 4456 01e5 00       		.space	1
 4457 01e6 6E00     		.short	110
 4458 01e8 0A00     		.short	10
 4459 01ea 0000     		.space	2
 4460 01ec 00000000 		.word	system_volume_cb
 4461 01f0 00       		.byte	0
 4462 01f1 000000   		.space	3
 4463 01f4 F0090000 		.word	.LC79
 4464 01f8 0A       		.byte	10
 4465 01f9 00       		.space	1
 4466 01fa 6F00     		.short	111
 4467 01fc 0A00     		.short	10
 4468 01fe 0000     		.space	2
 4469 0200 00000000 		.word	system_volume_cb
 4470 0204 00       		.byte	0
 4471 0205 000000   		.space	3
 4472 0208 000A0000 		.word	.LC80
 4473 020c 02       		.byte	2
 4474 020d 00       		.space	1
 4475 020e 1400     		.short	20
 4476 0210 2800     		.short	40
 4477 0212 0000     		.space	2
 4478 0214 00000000 		.word	0
 4479 0218 00       		.byte	0
 4480 0219 000000   		.space	3
 4481 021c C0090000 		.word	.LC76
 4482 0220 01       		.byte	1
 4483 0221 00       		.space	1
 4484 0222 1500     		.short	21
 4485 0224 1400     		.short	20
 4486 0226 0000     		.space	2
 4487 0228 00000000 		.word	0
 4488 022c 00       		.byte	0
 4489 022d 000000   		.space	3
 4490 0230 080A0000 		.word	.LC81
 4491 0234 06       		.byte	6
 4492 0235 00       		.space	1
 4493 0236 1500     		.short	21
 4494 0238 1400     		.short	20
 4495 023a 0000     		.space	2
 4496 023c 00000000 		.word	system_sl_out_cb
 4497 0240 00       		.byte	0
 4498 0241 000000   		.space	3
 4499 0244 180A0000 		.word	.LC82
 4500 0248 0A       		.byte	10
 4501 0249 00       		.space	1
 4502 024a 7000     		.short	112
 4503 024c 1400     		.short	20
 4504 024e 0000     		.space	2
 4505 0250 00000000 		.word	system_volume_cb
 4506 0254 00       		.byte	0
 4507 0255 000000   		.space	3
 4508 0258 280A0000 		.word	.LC83
 4509 025c 0A       		.byte	10
 4510 025d 00       		.space	1
 4511 025e 7100     		.short	113
 4512 0260 1400     		.short	20
 4513 0262 0000     		.space	2
 4514 0264 00000000 		.word	system_volume_cb
 4515 0268 00       		.byte	0
 4516 0269 000000   		.space	3
 4517 026c 380A0000 		.word	.LC84
 4518 0270 06       		.byte	6
 4519 0271 00       		.space	1
 4520 0272 1700     		.short	23
 4521 0274 1400     		.short	20
 4522 0276 0000     		.space	2
 4523 0278 00000000 		.word	system_master_vol_link_cb
 4524 027c 00       		.byte	0
 4525 027d 000000   		.space	3
 4526 0280 4C0A0000 		.word	.LC85
 4527 0284 0A       		.byte	10
 4528 0285 00       		.space	1
 4529 0286 7200     		.short	114
 4530 0288 1400     		.short	20
 4531 028a 0000     		.space	2
 4532 028c 00000000 		.word	system_volume_cb
 4533 0290 00       		.byte	0
 4534 0291 000000   		.space	3
 4535 0294 600A0000 		.word	.LC86
 4536 0298 02       		.byte	2
 4537 0299 00       		.space	1
 4538 029a C800     		.short	200
 4539 029c 2800     		.short	40
 4540 029e 0000     		.space	2
 4541 02a0 00000000 		.word	0
 4542 02a4 00       		.byte	0
 4543 02a5 000000   		.space	3
 4544 02a8 C0090000 		.word	.LC76
 4545 02ac 01       		.byte	1
 4546 02ad 00       		.space	1
 4547 02ae C900     		.short	201
 4548 02b0 C800     		.short	200
 4549 02b2 0000     		.space	2
 4550 02b4 00000000 		.word	0
 4551 02b8 00       		.byte	0
 4552 02b9 000000   		.space	3
 4553 02bc 6C0A0000 		.word	.LC87
 4554 02c0 06       		.byte	6
 4555 02c1 00       		.space	1
 4556 02c2 CA00     		.short	202
 4557 02c4 C800     		.short	200
 4558 02c6 0000     		.space	2
 4559 02c8 00000000 		.word	system_midi_src_cb
 4560 02cc 00       		.byte	0
 4561 02cd 000000   		.space	3
 4562 02d0 7C0A0000 		.word	.LC88
 4563 02d4 06       		.byte	6
 4564 02d5 00       		.space	1
 4565 02d6 CB00     		.short	203
 4566 02d8 C800     		.short	200
 4567 02da 0000     		.space	2
 4568 02dc 00000000 		.word	system_midi_send_cb
 4569 02e0 00       		.byte	0
 4570 02e1 000000   		.space	3
 4571 02e4 8C0A0000 		.word	.LC89
 4572 02e8 0B       		.byte	11
 4573 02e9 00       		.space	1
 4574 02ea CC00     		.short	204
 4575 02ec C800     		.short	200
 4576 02ee 0000     		.space	2
 4577 02f0 00000000 		.word	system_ss_prog_change_cb
 4578 02f4 00       		.byte	0
 4579 02f5 000000   		.space	3
 4580 02f8 A40A0000 		.word	.LC90
 4581 02fc 0B       		.byte	11
 4582 02fd 00       		.space	1
 4583 02fe CD00     		.short	205
 4584 0300 C800     		.short	200
 4585 0302 0000     		.space	2
 4586 0304 00000000 		.word	system_pb_prog_change_cb
 4587 0308 00       		.byte	0
 4588 0309 000000   		.space	3
 4589 030c BC0A0000 		.word	.LC91
 4590 0310 02       		.byte	2
 4591 0311 00       		.space	1
 4592 0312 8C00     		.short	140
 4593 0314 2800     		.short	40
 4594 0316 0000     		.space	2
 4595 0318 00000000 		.word	system_bluetooth_cb
 4596 031c 00       		.byte	0
 4597 031d 000000   		.space	3
 4598 0320 C0090000 		.word	.LC76
 4599 0324 01       		.byte	1
 4600 0325 00       		.space	1
 4601 0326 8D00     		.short	141
 4602 0328 8C00     		.short	140
 4603 032a 0000     		.space	2
 4604 032c 00000000 		.word	0
 4605 0330 00       		.byte	0
 4606 0331 000000   		.space	3
 4607 0334 C80A0000 		.word	.LC92
 4608 0338 09       		.byte	9
 4609 0339 00       		.space	1
 4610 033a 8E00     		.short	142
 4611 033c 8C00     		.short	140
 4612 033e 0000     		.space	2
 4613 0340 00000000 		.word	system_bluetooth_cb
 4614 0344 00       		.byte	0
 4615 0345 000000   		.space	3
 4616 0348 DC0A0000 		.word	.LC93
 4617 034c 00       		.byte	0
 4618 034d 00       		.space	1
 4619 034e 8F00     		.short	143
 4620 0350 8C00     		.short	140
 4621 0352 0000     		.space	2
 4622 0354 00000000 		.word	0
 4623 0358 00       		.byte	0
 4624 0359 000000   		.space	3
 4625 035c E40A0000 		.word	.LC94
 4626 0360 00       		.byte	0
 4627 0361 00       		.space	1
 4628 0362 9000     		.short	144
 4629 0364 8C00     		.short	140
 4630 0366 0000     		.space	2
 4631 0368 00000000 		.word	0
 4632 036c 00       		.byte	0
 4633 036d 000000   		.space	3
 4634 0370 EC0A0000 		.word	.LC95
 4635 0374 00       		.byte	0
 4636 0375 00       		.space	1
 4637 0376 9100     		.short	145
 4638 0378 8C00     		.short	140
 4639 037a 0000     		.space	2
 4640 037c 00000000 		.word	0
 4641 0380 00       		.byte	0
 4642 0381 000000   		.space	3
 4643 0384 F80A0000 		.word	.LC96
 4644 0388 06       		.byte	6
 4645 0389 00       		.space	1
 4646 038a A000     		.short	160
 4647 038c 2800     		.short	40
 4648 038e 0000     		.space	2
 4649 0390 00000000 		.word	system_display_cb
 4650 0394 00       		.byte	0
 4651 0395 000000   		.space	3
 4652 0398 0C0B0000 		.word	.LC97
 4653 039c 02       		.byte	2
 4654 039d 00       		.space	1
 4655 039e 4600     		.short	70
 4656 03a0 2800     		.short	40
 4657 03a2 0000     		.space	2
 4658 03a4 00000000 		.word	0
 4659 03a8 00       		.byte	0
 4660 03a9 000000   		.space	3
 4661 03ac C0090000 		.word	.LC76
 4662 03b0 01       		.byte	1
 4663 03b1 00       		.space	1
 4664 03b2 4700     		.short	71
 4665 03b4 4600     		.short	70
 4666 03b6 0000     		.space	2
 4667 03b8 00000000 		.word	0
 4668 03bc 00       		.byte	0
 4669 03bd 000000   		.space	3
 4670 03c0 140B0000 		.word	.LC98
 4671 03c4 02       		.byte	2
 4672 03c5 00       		.space	1
 4673 03c6 5000     		.short	80
 4674 03c8 4600     		.short	70
 4675 03ca 0000     		.space	2
 4676 03cc 00000000 		.word	system_services_cb
 4677 03d0 01       		.byte	1
 4678 03d1 000000   		.space	3
 4679 03d4 200B0000 		.word	.LC99
 4680 03d8 01       		.byte	1
 4681 03d9 00       		.space	1
 4682 03da 5100     		.short	81
 4683 03dc 5000     		.short	80
 4684 03de 0000     		.space	2
 4685 03e0 00000000 		.word	0
 4686 03e4 00       		.byte	0
 4687 03e5 000000   		.space	3
 4688 03e8 300B0000 		.word	.LC100
 4689 03ec 00       		.byte	0
 4690 03ed 00       		.space	1
 4691 03ee 5200     		.short	82
 4692 03f0 5000     		.short	80
 4693 03f2 0000     		.space	2
 4694 03f4 00000000 		.word	0
 4695 03f8 00       		.byte	0
 4696 03f9 000000   		.space	3
 4697 03fc 380B0000 		.word	.LC101
 4698 0400 00       		.byte	0
 4699 0401 00       		.space	1
 4700 0402 5300     		.short	83
 4701 0404 5000     		.short	80
 4702 0406 0000     		.space	2
 4703 0408 00000000 		.word	0
 4704 040c 00       		.byte	0
 4705 040d 000000   		.space	3
 4706 0410 400B0000 		.word	.LC102
 4707 0414 00       		.byte	0
 4708 0415 00       		.space	1
 4709 0416 5400     		.short	84
 4710 0418 5000     		.short	80
 4711 041a 0000     		.space	2
 4712 041c 00000000 		.word	0
 4713 0420 00       		.byte	0
 4714 0421 000000   		.space	3
 4715 0424 480B0000 		.word	.LC103
 4716 0428 00       		.byte	0
 4717 0429 00       		.space	1
 4718 042a 5500     		.short	85
 4719 042c 5000     		.short	80
 4720 042e 0000     		.space	2
 4721 0430 00000000 		.word	0
 4722 0434 00       		.byte	0
 4723 0435 000000   		.space	3
 4724 0438 540B0000 		.word	.LC104
 4725 043c 02       		.byte	2
 4726 043d 00       		.space	1
 4727 043e 5A00     		.short	90
 4728 0440 4600     		.short	70
 4729 0442 0000     		.space	2
 4730 0444 00000000 		.word	system_versions_cb
 4731 0448 00       		.byte	0
 4732 0449 000000   		.space	3
 4733 044c 200B0000 		.word	.LC99
 4734 0450 01       		.byte	1
 4735 0451 00       		.space	1
 4736 0452 5B00     		.short	91
 4737 0454 5A00     		.short	90
 4738 0456 0000     		.space	2
 4739 0458 00000000 		.word	0
 4740 045c 00       		.byte	0
 4741 045d 000000   		.space	3
 4742 0460 600B0000 		.word	.LC105
 4743 0464 09       		.byte	9
 4744 0465 00       		.space	1
 4745 0466 5C00     		.short	92
 4746 0468 5A00     		.short	90
 4747 046a 0000     		.space	2
 4748 046c 00000000 		.word	system_release_cb
 4749 0470 00       		.byte	0
 4750 0471 000000   		.space	3
 4751 0474 6C0B0000 		.word	.LC106
 4752 0478 00       		.byte	0
 4753 0479 00       		.space	1
 4754 047a 5D00     		.short	93
 4755 047c 5A00     		.short	90
 4756 047e 0000     		.space	2
 4757 0480 00000000 		.word	0
 4758 0484 00       		.byte	0
 4759 0485 000000   		.space	3
 4760 0488 780B0000 		.word	.LC107
 4761 048c 00       		.byte	0
 4762 048d 00       		.space	1
 4763 048e 5E00     		.short	94
 4764 0490 5A00     		.short	90
 4765 0492 0000     		.space	2
 4766 0494 00000000 		.word	0
 4767 0498 00       		.byte	0
 4768 0499 000000   		.space	3
 4769 049c 800B0000 		.word	.LC108
 4770 04a0 00       		.byte	0
 4771 04a1 00       		.space	1
 4772 04a2 5F00     		.short	95
 4773 04a4 5A00     		.short	90
 4774 04a6 0000     		.space	2
 4775 04a8 00000000 		.word	0
 4776 04ac 00       		.byte	0
 4777 04ad 000000   		.space	3
 4778 04b0 8C0B0000 		.word	.LC109
 4779 04b4 02       		.byte	2
 4780 04b5 00       		.space	1
 4781 04b6 7800     		.short	120
 4782 04b8 4600     		.short	70
 4783 04ba 0000     		.space	2
 4784 04bc 00000000 		.word	system_device_cb
 4785 04c0 00       		.byte	0
 4786 04c1 000000   		.space	3
 4787 04c4 200B0000 		.word	.LC99
 4788 04c8 01       		.byte	1
 4789 04c9 00       		.space	1
 4790 04ca 7900     		.short	121
 4791 04cc 7800     		.short	120
 4792 04ce 0000     		.space	2
 4793 04d0 00000000 		.word	0
 4794 04d4 00       		.byte	0
 4795 04d5 000000   		.space	3
 4796 04d8 940B0000 		.word	.LC110
 4797 04dc 09       		.byte	9
 4798 04dd 00       		.space	1
 4799 04de 7A00     		.short	122
 4800 04e0 7800     		.short	120
 4801 04e2 0000     		.space	2
 4802 04e4 00000000 		.word	system_tag_cb
 4803 04e8 00       		.byte	0
 4804 04e9 000000   		.space	3
 4805 04ec A40B0000 		.word	.LC111
 4806 04f0 04       		.byte	4
 4807 04f1 00       		.space	1
 4808 04f2 6400     		.short	100
 4809 04f4 2800     		.short	40
 4810 04f6 0000     		.space	2
 4811 04f8 00000000 		.word	system_upgrade_cb
 4812 04fc 00       		.byte	0
 4813 04fd 000000   		.space	3
 4814 0500 B40B0000 		.word	.LC112
 4815 0504 02       		.byte	2
 4816 0505 00       		.space	1
 4817 0506 D200     		.short	210
 4818 0508 7800     		.short	120
 4819 050a 0000     		.space	2
 4820 050c 00000000 		.word	0
 4821 0510 00       		.byte	0
 4822 0511 000000   		.space	3
 4823 0514 C0090000 		.word	.LC76
 4824 0518 01       		.byte	1
 4825 0519 00       		.space	1
 4826 051a D300     		.short	211
 4827 051c D200     		.short	210
 4828 051e 0000     		.space	2
 4829 0520 00000000 		.word	0
 4830 0524 00       		.byte	0
 4831 0525 000000   		.space	3
 4832 0528 D00B0000 		.word	.LC113
 4833 052c 03       		.byte	3
 4834 052d 00       		.space	1
 4835 052e D400     		.short	212
 4836 0530 D200     		.short	210
 4837 0532 0000     		.space	2
 4838 0534 00000000 		.word	system_stage_cb
 4839 0538 00       		.byte	0
 4840 0539 000000   		.space	3
 4841 053c DC0B0000 		.word	.LC114
 4842 0540 01       		.byte	1
 4843 0541 00       		.space	1
 4844 0542 D500     		.short	213
 4845 0544 D400     		.short	212
 4846 0546 0000     		.space	2
 4847 0548 00000000 		.word	0
 4848 054c 00       		.byte	0
 4849 054d 000000   		.space	3
 4850 0550 EC0B0000 		.word	.LC115
 4851 0554 00       		.byte	0
 4852 0555 00       		.space	1
 4853 0556 D600     		.short	214
 4854 0558 D400     		.short	212
 4855 055a 0000     		.space	2
 4856 055c 00000000 		.word	system_stage_cb
 4857 0560 00       		.byte	0
 4858 0561 000000   		.space	3
 4859 0564 F00B0000 		.word	.LC116
 4860 0568 00       		.byte	0
 4861 0569 00       		.space	1
 4862 056a D700     		.short	215
 4863 056c D400     		.short	212
 4864 056e 0000     		.space	2
 4865 0570 00000000 		.word	system_stage_cb
 4866 0574 00       		.byte	0
 4867 0575 000000   		.space	3
 4868 0578 F40B0000 		.word	.LC117
 4869 057c 00       		.byte	0
 4870 057d 00       		.space	1
 4871 057e D800     		.short	216
 4872 0580 D400     		.short	212
 4873 0582 0000     		.space	2
 4874 0584 00000000 		.word	system_stage_cb
 4875 0588 00       		.byte	0
 4876 0589 000000   		.space	3
 4877 058c FC0B0000 		.word	.LC118
 4878 0590 03       		.byte	3
 4879 0591 00       		.space	1
 4880 0592 D900     		.short	217
 4881 0594 D200     		.short	210
 4882 0596 0000     		.space	2
 4883 0598 00000000 		.word	system_stage_cb
 4884 059c 00       		.byte	0
 4885 059d 000000   		.space	3
 4886 05a0 DC0B0000 		.word	.LC114
 4887 05a4 01       		.byte	1
 4888 05a5 00       		.space	1
 4889 05a6 DA00     		.short	218
 4890 05a8 D900     		.short	217
 4891 05aa 0000     		.space	2
 4892 05ac 00000000 		.word	0
 4893 05b0 00       		.byte	0
 4894 05b1 000000   		.space	3
 4895 05b4 EC0B0000 		.word	.LC115
 4896 05b8 00       		.byte	0
 4897 05b9 00       		.space	1
 4898 05ba DB00     		.short	219
 4899 05bc D900     		.short	217
 4900 05be 0000     		.space	2
 4901 05c0 00000000 		.word	system_stage_cb
 4902 05c4 00       		.byte	0
 4903 05c5 000000   		.space	3
 4904 05c8 F00B0000 		.word	.LC116
 4905 05cc 00       		.byte	0
 4906 05cd 00       		.space	1
 4907 05ce DC00     		.short	220
 4908 05d0 D900     		.short	217
 4909 05d2 0000     		.space	2
 4910 05d4 00000000 		.word	system_stage_cb
 4911 05d8 00       		.byte	0
 4912 05d9 000000   		.space	3
 4913 05dc F40B0000 		.word	.LC117
 4914 05e0 00       		.byte	0
 4915 05e1 00       		.space	1
 4916 05e2 DD00     		.short	221
 4917 05e4 D900     		.short	217
 4918 05e6 0000     		.space	2
 4919 05e8 00000000 		.word	system_stage_cb
 4920 05ec 00       		.byte	0
 4921 05ed 000000   		.space	3
 4922 05f0 00000000 		.word	0
 4923 05f4 00       		.byte	0
 4924 05f5 00       		.space	1
 4925 05f6 FFFF     		.short	-1
 4926 05f8 FFFF     		.short	-1
 4927 05fa 0000     		.space	2
 4928 05fc 00000000 		.word	0
 4929 0600 00       		.byte	0
 4930 0601 000000   		.space	3
 4933              	input.9344:
 4934 0604 01       		.byte	1
 4935 0605 000000   		.space	3
 4938              	desc.9506:
 4939 0608 00000000 		.word	0
 4940 060c 08       		.byte	8
 4941 060d 00       		.space	1
 4942 060e FEFF     		.short	-2
 4943 0610 FEFF     		.short	-2
 4944 0612 0000     		.space	2
 4945 0614 00000000 		.word	0
 4946 0618 00       		.byte	0
 4947 0619 000000   		.space	3
 4948              		.bss
 4949              		.align	2
 4950              		.set	.LANCHOR0,. + 0
 4953              	g_encoders:
 4954 0000 00000000 		.space	8
 4954      00000000 
 4957              	g_max_items_list:
 4958 0008 00       		.space	1
 4959 0009 000000   		.space	3
 4962              	g_current_item:
 4963 000c 00000000 		.space	4
 4966              	g_current_main_item:
 4967 0010 00000000 		.space	4
 4970              	g_foots:
 4971 0014 00000000 		.space	28
 4971      00000000 
 4971      00000000 
 4971      00000000 
 4971      00000000 
 4974              	g_pots:
 4975 0030 00000000 		.space	32
 4975      00000000 
 4975      00000000 
 4975      00000000 
 4975      00000000 
 4978              	g_menu:
 4979 0050 00000000 		.space	4
 4982              	g_current_menu:
 4983 0054 00000000 		.space	4
 4986              	g_update_cb:
 4987 0058 00000000 		.space	4
 4990              	g_update_data:
 4991 005c 00000000 		.space	4
 4994              	g_initialized:
 4995 0060 00       		.space	1
 4996 0061 000000   		.space	3
 4999              	g_dialog_sem:
 5000 0064 00000000 		.space	4
 5003              	snapshot_loaded.9441:
 5004 0068 00       		.space	1
 5007              	page.9442:
 5008 0069 00       		.space	1
 5011              	master_vol_value:
 5012 006a 0000     		.space	2
 5015              	g_current_main_menu:
 5016 006c 00000000 		.space	4
 5019              	g_ui_connected:
 5020 0070 00       		.space	1
 5023              	toggle.9331:
 5024 0071 00       		.space	1
 5025 0072 0000     		.space	2
 5028              	dummy_menu.9505:
 5029 0074 00000000 		.space	4
 5030              		.section	.rodata.str1.4,"aMS",%progbits,1
 5031              		.align	2
 5032              	.LC2:
 5033 0000 74756E65 		.ascii	"tuner off\000"
 5033      72206F66 
 5033      6600
 5034 000a 0000     		.space	2
 5035              	.LC3:
 5036 000c 4F464600 		.ascii	"OFF\000"
 5037              	.LC4:
 5038 0010 4F4E00   		.ascii	"ON\000"
 5039 0013 00       		.space	1
 5040              	.LC5:
 5041 0014 6D7300   		.ascii	"ms\000"
 5042 0017 00       		.space	1
 5043              	.LC6:
 5044 0018 7300     		.ascii	"s\000"
 5045 001a 0000     		.space	2
 5046              	.LC7:
 5047 001c 62706D00 		.ascii	"bpm\000"
 5048              	.LC8:
 5049 0020 636F6E74 		.ascii	"control_set %i %s %f\000"
 5049      726F6C5F 
 5049      73657420 
 5049      25692025 
 5049      73202566 
 5050 0035 000000   		.space	3
 5051              	.LC10:
 5052 0038 74756E65 		.ascii	"tuner_input %i\000"
 5052      725F696E 
 5052      70757420 
 5052      256900
 5053 0047 00       		.space	1
 5054              	.LC11:
 5055 0048 3A616C6C 		.ascii	":all\000"
 5055      00
 5056 004d 000000   		.space	3
 5057              	.LC12:
 5058 0050 6765745F 		.ascii	"get_pb_name\000"
 5058      70625F6E 
 5058      616D6500 
 5059              	.LC13:
 5060 005c 74756E65 		.ascii	"tuner on\000"
 5060      72206F6E 
 5060      00
 5061 0065 000000   		.space	3
 5062              	.LC14:
 5063 0068 546F2061 		.ascii	"To access pedalboard options  please disconnect fro"
 5063      63636573 
 5063      73207065 
 5063      64616C62 
 5063      6F617264 
 5064 009b 6D207468 		.ascii	"m the    graphical interface\000"
 5064      65202020 
 5064      20677261 
 5064      70686963 
 5064      616C2069 
 5065              	.LC15:
 5066 00b8 4100     		.ascii	"A\000"
 5067 00ba 0000     		.space	2
 5068              	.LC16:
 5069 00bc 4200     		.ascii	"B\000"
 5070 00be 0000     		.space	2
 5071              	.LC17:
 5072 00c0 4300     		.ascii	"C\000"
 5073 00c2 0000     		.space	2
 5074              	.LC18:
 5075 00c4 4400     		.ascii	"D\000"
 5076 00c6 0000     		.space	2
 5077              	.LC19:
 5078 00c8 5800     		.ascii	"X\000"
 5079 00ca 0000     		.space	2
 5080              	.LC20:
 5081 00cc 5B585D00 		.ascii	"[X]\000"
 5082              	.LC21:
 5083 00d0 5B205D00 		.ascii	"[ ]\000"
 5084              	.LC22:
 5085 00d4 2000     		.ascii	" \000"
 5086 00d6 0000     		.space	2
 5087              	.LC23:
 5088 00d8 444200   		.ascii	"DB\000"
 5089 00db 00       		.space	1
 5090              	.LC0:
 5091 00dc 726F6F74 		.ascii	"root\000"
 5091      00
 5092 00e1 000000   		.space	3
 5093              	.LC24:
 5094 00e4 70656461 		.ascii	"pedalboard\000"
 5094      6C626F61 
 5094      726400
 5095 00ef 00       		.space	1
 5096              	.LC25:
 5097 00f0 42616E6B 		.ascii	"Banks\000"
 5097      7300
 5098 00f6 0000     		.space	2
 5099              	.LC26:
 5100 00f8 53617665 		.ascii	"Save state\000"
 5100      20737461 
 5100      746500
 5101 0103 00       		.space	1
 5102              	.LC27:
 5103 0104 576F756C 		.ascii	"Would you like to save the    current parameter val"
 5103      6420796F 
 5103      75206C69 
 5103      6B652074 
 5103      6F207361 
 5104 0137 75657320 		.ascii	"ues as   the default for the active    pedalboard?\000"
 5104      61732020 
 5104      20746865 
 5104      20646566 
 5104      61756C74 
 5105 016a 0000     		.space	2
 5106              	.LC28:
 5107 016c 52657365 		.ascii	"Reset state\000"
 5107      74207374 
 5107      61746500 
 5108              	.LC29:
 5109 0178 576F756C 		.ascii	"Would you like to reset all   parameter values to t"
 5109      6420796F 
 5109      75206C69 
 5109      6B652074 
 5109      6F207265 
 5110 01ab 6865206C 		.ascii	"he last  saved state for the active    pedalboard?\000"
 5110      61737420 
 5110      20736176 
 5110      65642073 
 5110      74617465 
 5111 01de 0000     		.space	2
 5112              	.LC30:
 5113 01e0 456E6162 		.ascii	"Enable Bluetooth\000"
 5113      6C652042 
 5113      6C756574 
 5113      6F6F7468 
 5113      00
 5114 01f1 000000   		.space	3
 5115              	.LC31:
 5116 01f4 426C7565 		.ascii	"Bluetooth discovery mode is   now enabled for 2 min"
 5116      746F6F74 
 5116      68206469 
 5116      73636F76 
 5116      65727920 
 5117 0227 75746573 		.ascii	"utes\000"
 5117      00
 5118              	.LC32:
 5119 022c 53746172 		.ascii	"Start System Upgrade\000"
 5119      74205379 
 5119      7374656D 
 5119      20557067 
 5119      72616465 
 5120 0241 000000   		.space	3
 5121              	.LC33:
 5122 0244 546F2073 		.ascii	"To start the system upgrade   process, please press"
 5122      74617274 
 5122      20746865 
 5122      20737973 
 5122      74656D20 
 5123 0277 20616E64 		.ascii	" and     hold down the left most buttonand press ye"
 5123      20202020 
 5123      20686F6C 
 5123      6420646F 
 5123      776E2074 
 5124 02aa 732E2000 		.ascii	"s. \000"
 5125 02ae 0000     		.space	2
 5126              	.LC34:
 5127 02b0 4C6F6164 		.ascii	"Load user profile A\000"
 5127      20757365 
 5127      72207072 
 5127      6F66696C 
 5127      65204100 
 5128              	.LC35:
 5129 02c4 4C6F6164 		.ascii	"Loading a new profile may     change your in-/outpu"
 5129      696E6720 
 5129      61206E65 
 5129      77207072 
 5129      6F66696C 
 5130 02f7 74202020 		.ascii	"t        configuration. Are you sure   you want to "
 5130      20202020 
 5130      20636F6E 
 5130      66696775 
 5130      72617469 
 5131 032a 636F6E74 		.ascii	"continue? This    will discard any changes you  hav"
 5131      696E7565 
 5131      3F205468 
 5131      69732020 
 5131      20207769 
 5132 035d 65206D61 		.ascii	"e made to the current user profile since last savin"
 5132      64652074 
 5132      6F207468 
 5132      65206375 
 5132      7272656E 
 5133 0390 67206974 		.ascii	"g it.\000"
 5133      2E00
 5134 0396 0000     		.space	2
 5135              	.LC36:
 5136 0398 4C6F6164 		.ascii	"Load user profile B\000"
 5136      20757365 
 5136      72207072 
 5136      6F66696C 
 5136      65204200 
 5137              	.LC37:
 5138 03ac 4C6F6164 		.ascii	"Load user profile C\000"
 5138      20757365 
 5138      72207072 
 5138      6F66696C 
 5138      65204300 
 5139              	.LC38:
 5140 03c0 4C6F6164 		.ascii	"Load user profile D\000"
 5140      20757365 
 5140      72207072 
 5140      6F66696C 
 5140      65204400 
 5141              	.LC39:
 5142 03d4 4F766572 		.ascii	"Overwrite user profile\000"
 5142      77726974 
 5142      65207573 
 5142      65722070 
 5142      726F6669 
 5143 03eb 00       		.space	1
 5144              	.LC40:
 5145 03ec 41726520 		.ascii	"Are you sure you want to      overwrite the active "
 5145      796F7520 
 5145      73757265 
 5145      20796F75 
 5145      2077616E 
 5146 041f 75736572 		.ascii	"user     profile?\000"
 5146      20202020 
 5146      2070726F 
 5146      66696C65 
 5146      3F00
 5147 0431 000000   		.space	3
 5148              	.LC41:
 5149 0434 52656C6F 		.ascii	"Reload user profile A\000"
 5149      61642075 
 5149      73657220 
 5149      70726F66 
 5149      696C6520 
 5150 044a 0000     		.space	2
 5151              	.LC42:
 5152 044c 41726520 		.ascii	"Are you sure you want to      reload the active use"
 5152      796F7520 
 5152      73757265 
 5152      20796F75 
 5152      2077616E 
 5153 047f 72207072 		.ascii	"r profile? This will discard any       changes you "
 5153      6F66696C 
 5153      653F2054 
 5153      68697320 
 5153      77696C6C 
 5154 04b2 68617665 		.ascii	"have made to this user profile since last saving it"
 5154      206D6164 
 5154      6520746F 
 5154      20746869 
 5154      73207573 
 5155 04e5 2E00     		.ascii	".\000"
 5156 04e7 00       		.space	1
 5157              	.LC43:
 5158 04e8 52656C6F 		.ascii	"Reload user profile B\000"
 5158      61642075 
 5158      73657220 
 5158      70726F66 
 5158      696C6520 
 5159 04fe 0000     		.space	2
 5160              	.LC44:
 5161 0500 52656C6F 		.ascii	"Reload user profile C\000"
 5161      61642075 
 5161      73657220 
 5161      70726F66 
 5161      696C6520 
 5162 0516 0000     		.space	2
 5163              	.LC45:
 5164 0518 52656C6F 		.ascii	"Reload user profile D\000"
 5164      61642075 
 5164      73657220 
 5164      70726F66 
 5164      696C6520 
 5165 052e 0000     		.space	2
 5166              	.LC46:
 5167 0530 53657420 		.ascii	"Set input to EXP\000"
 5167      696E7075 
 5167      7420746F 
 5167      20455850 
 5167      00
 5168 0541 000000   		.space	3
 5169              	.LC47:
 5170 0544 596F7520 		.ascii	"You are about to set the      stereo input port to "
 5170      61726520 
 5170      61626F75 
 5170      7420746F 
 5170      20736574 
 5171 0577 20202020 		.ascii	"         expression pedal mode. To     prevent dama"
 5171      20202020 
 5171      20657870 
 5171      72657373 
 5171      696F6E20 
 5172 05aa 67696E67 		.ascii	"ging your         equipment, please make sure   tha"
 5172      20796F75 
 5172      72202020 
 5172      20202020 
 5172      20206571 
 5173 05dd 74207468 		.ascii	"t there are no control     voltage devices connecte"
 5173      65726520 
 5173      61726520 
 5173      6E6F2063 
 5173      6F6E7472 
 5174 0610 642E2020 		.ascii	"d.    Would you like to continue?\000"
 5174      2020576F 
 5174      756C6420 
 5174      796F7520 
 5174      6C696B65 
 5175 0632 0000     		.space	2
 5176              	.LC48:
 5177 0634 53657420 		.ascii	"Set input to CV\000"
 5177      696E7075 
 5177      7420746F 
 5177      20435600 
 5178              	.LC49:
 5179 0644 596F7520 		.ascii	"You are about to set the      stereo input port to "
 5179      61726520 
 5179      61626F75 
 5179      7420746F 
 5179      20736574 
 5180 0677 636F6E74 		.ascii	"control  voltage mode. Would you like  to continue?"
 5180      726F6C20 
 5180      20766F6C 
 5180      74616765 
 5180      206D6F64 
 5181 06aa 00       		.ascii	"\000"
 5182 06ab 00       		.space	1
 5183              	.LC50:
 5184 06ac 53657420 		.ascii	"Set output to HP\000"
 5184      6F757470 
 5184      75742074 
 5184      6F204850 
 5184      00
 5185 06bd 000000   		.space	3
 5186              	.LC51:
 5187 06c0 596F7520 		.ascii	"You are about to set the      stereo output port to"
 5187      61726520 
 5187      61626F75 
 5187      7420746F 
 5187      20736574 
 5188 06f3 20202020 		.ascii	"         headphone mode. To prevent    damaging you"
 5188      20202020 
 5188      20686561 
 5188      6470686F 
 5188      6E65206D 
 5189 0726 72206571 		.ascii	"r equipment,      please make sure that there   are"
 5189      7569706D 
 5189      656E742C 
 5189      20202020 
 5189      2020706C 
 5190 0759 206E6F20 		.ascii	" no control voltage devicesconnected. Would you lik"
 5190      636F6E74 
 5190      726F6C20 
 5190      766F6C74 
 5190      61676520 
 5191 078c 6520746F 		.ascii	"e to  continue?\000"
 5191      2020636F 
 5191      6E74696E 
 5191      75653F00 
 5192              	.LC52:
 5193 079c 53657420 		.ascii	"Set output to CV\000"
 5193      6F757470 
 5193      75742074 
 5193      6F204356 
 5193      00
 5194 07ad 000000   		.space	3
 5195              	.LC53:
 5196 07b0 596F7520 		.ascii	"You are about to set the      stereo output port to"
 5196      61726520 
 5196      61626F75 
 5196      7420746F 
 5196      20736574 
 5197 07e3 20636F6E 		.ascii	" control voltage mode. To prevent      damaging you"
 5197      74726F6C 
 5197      20766F6C 
 5197      74616765 
 5197      206D6F64 
 5198 0816 72206571 		.ascii	"r equipment,      please make sure that there   are"
 5198      7569706D 
 5198      656E742C 
 5198      20202020 
 5198      2020706C 
 5199 0849 206E6F20 		.ascii	" no headphones connected.  Would you like to contin"
 5199      68656164 
 5199      70686F6E 
 5199      65732063 
 5199      6F6E6E65 
 5200 087c 75653F00 		.ascii	"ue?\000"
 5201              	.LC54:
 5202 0880 53455454 		.ascii	"SETTINGS\000"
 5202      494E4753 
 5202      00
 5203 0889 000000   		.space	3
 5204              	.LC55:
 5205 088c 42414E4B 		.ascii	"BANKS\000"
 5205      5300
 5206 0892 0000     		.space	2
 5207              	.LC56:
 5208 0894 43555252 		.ascii	"CURRENT PEDALBOARD\000"
 5208      454E5420 
 5208      50454441 
 5208      4C424F41 
 5208      524400
 5209 08a7 00       		.space	1
 5210              	.LC57:
 5211 08a8 53415645 		.ascii	"SAVE STATE\000"
 5211      20535441 
 5211      544500
 5212 08b3 00       		.space	1
 5213              	.LC58:
 5214 08b4 52455345 		.ascii	"RESET STATE\000"
 5214      54205354 
 5214      41544500 
 5215              	.LC59:
 5216 08c0 48415244 		.ascii	"HARDWARE BYPASS\000"
 5216      57415245 
 5216      20425950 
 5216      41535300 
 5217              	.LC60:
 5218 08d0 4348414E 		.ascii	"CHANNEL 1\000"
 5218      4E454C20 
 5218      3100
 5219 08da 0000     		.space	2
 5220              	.LC61:
 5221 08dc 4348414E 		.ascii	"CHANNEL 2\000"
 5221      4E454C20 
 5221      3200
 5222 08e6 0000     		.space	2
 5223              	.LC62:
 5224 08e8 4348414E 		.ascii	"CHANNEL 1 & 2\000"
 5224      4E454C20 
 5224      31202620 
 5224      3200
 5225 08f6 0000     		.space	2
 5226              	.LC63:
 5227 08f8 51554943 		.ascii	"QUICK BYPASS CHANNEL(S)\000"
 5227      4B204259 
 5227      50415353 
 5227      20434841 
 5227      4E4E454C 
 5228              	.LC64:
 5229 0910 54454D50 		.ascii	"TEMPO & TRANSPORT\000"
 5229      4F202620 
 5229      5452414E 
 5229      53504F52 
 5229      5400
 5230 0922 0000     		.space	2
 5231              	.LC65:
 5232 0924 54454D50 		.ascii	"TEMPO\000"
 5232      4F00
 5233 092a 0000     		.space	2
 5234              	.LC66:
 5235 092c 42454154 		.ascii	"BEATS PER BAR\000"
 5235      53205045 
 5235      52204241 
 5235      5200
 5236 093a 0000     		.space	2
 5237              	.LC67:
 5238 093c 54554E45 		.ascii	"TUNER\000"
 5238      5200
 5239 0942 0000     		.space	2
 5240              	.LC68:
 5241 0944 55534552 		.ascii	"USER PROFILES\000"
 5241      2050524F 
 5241      46494C45 
 5241      5300
 5242 0952 0000     		.space	2
 5243              	.LC69:
 5244 0954 55534552 		.ascii	"USER PROFILE A\000"
 5244      2050524F 
 5244      46494C45 
 5244      204100
 5245 0963 00       		.space	1
 5246              	.LC70:
 5247 0964 55534552 		.ascii	"USER PROFILE B\000"
 5247      2050524F 
 5247      46494C45 
 5247      204200
 5248 0973 00       		.space	1
 5249              	.LC71:
 5250 0974 55534552 		.ascii	"USER PROFILE C\000"
 5250      2050524F 
 5250      46494C45 
 5250      204300
 5251 0983 00       		.space	1
 5252              	.LC72:
 5253 0984 55534552 		.ascii	"USER PROFILE D\000"
 5253      2050524F 
 5253      46494C45 
 5253      204400
 5254 0993 00       		.space	1
 5255              	.LC73:
 5256 0994 4F564552 		.ascii	"OVERWRITE CURRENT PROFILE\000"
 5256      57524954 
 5256      45204355 
 5256      5252454E 
 5256      54205052 
 5257 09ae 0000     		.space	2
 5258              	.LC74:
 5259 09b0 53595354 		.ascii	"SYSTEM\000"
 5259      454D00
 5260 09b7 00       		.space	1
 5261              	.LC75:
 5262 09b8 494E5055 		.ascii	"INPUTS\000"
 5262      545300
 5263 09bf 00       		.space	1
 5264              	.LC76:
 5265 09c0 3C204241 		.ascii	"< BACK TO SYSTEM\000"
 5265      434B2054 
 5265      4F205359 
 5265      5354454D 
 5265      00
 5266 09d1 000000   		.space	3
 5267              	.LC77:
 5268 09d4 53544552 		.ascii	"STEREO LINK\000"
 5268      454F204C 
 5268      494E4B00 
 5269              	.LC78:
 5270 09e0 494E5055 		.ascii	"INPUT 1 GAIN\000"
 5270      54203120 
 5270      4741494E 
 5270      00
 5271 09ed 000000   		.space	3
 5272              	.LC79:
 5273 09f0 494E5055 		.ascii	"INPUT 2 GAIN\000"
 5273      54203220 
 5273      4741494E 
 5273      00
 5274 09fd 000000   		.space	3
 5275              	.LC80:
 5276 0a00 4F555450 		.ascii	"OUTPUTS\000"
 5276      55545300 
 5277              	.LC81:
 5278 0a08 53544552 		.ascii	"STEREO LINK \000"
 5278      454F204C 
 5278      494E4B20 
 5278      00
 5279 0a15 000000   		.space	3
 5280              	.LC82:
 5281 0a18 4F555450 		.ascii	"OUTPUT 1 GAIN\000"
 5281      55542031 
 5281      20474149 
 5281      4E00
 5282 0a26 0000     		.space	2
 5283              	.LC83:
 5284 0a28 4F555450 		.ascii	"OUTPUT 2 GAIN\000"
 5284      55542032 
 5284      20474149 
 5284      4E00
 5285 0a36 0000     		.space	2
 5286              	.LC84:
 5287 0a38 4D415354 		.ascii	"MASTER VOLUME LINK \000"
 5287      45522056 
 5287      4F4C554D 
 5287      45204C49 
 5287      4E4B2000 
 5288              	.LC85:
 5289 0a4c 48454144 		.ascii	"HEADPHONE VOLUME\000"
 5289      50484F4E 
 5289      4520564F 
 5289      4C554D45 
 5289      00
 5290 0a5d 000000   		.space	3
 5291              	.LC86:
 5292 0a60 53594E43 		.ascii	"SYNC & MIDI\000"
 5292      2026204D 
 5292      49444900 
 5293              	.LC87:
 5294 0a6c 434C4F43 		.ascii	"CLOCK SOURCE\000"
 5294      4B20534F 
 5294      55524345 
 5294      00
 5295 0a79 000000   		.space	3
 5296              	.LC88:
 5297 0a7c 53454E44 		.ascii	"SEND MIDI CLOCK\000"
 5297      204D4944 
 5297      4920434C 
 5297      4F434B00 
 5298              	.LC89:
 5299 0a8c 534E4150 		.ascii	"SNAPSHOT NAV MIDI CHAN\000"
 5299      53484F54 
 5299      204E4156 
 5299      204D4944 
 5299      49204348 
 5300 0aa3 00       		.space	1
 5301              	.LC90:
 5302 0aa4 50454441 		.ascii	"PEDALBOARD NAV MIDI CHN\000"
 5302      4C424F41 
 5302      5244204E 
 5302      4156204D 
 5302      49444920 
 5303              	.LC91:
 5304 0abc 424C5545 		.ascii	"BLUETOOTH\000"
 5304      544F4F54 
 5304      4800
 5305 0ac6 0000     		.space	2
 5306              	.LC92:
 5307 0ac8 454E4142 		.ascii	"ENABLE DISCOVERY\000"
 5307      4C452044 
 5307      4953434F 
 5307      56455259 
 5307      00
 5308 0ad9 000000   		.space	3
 5309              	.LC93:
 5310 0adc 53544154 		.ascii	"STATUS:\000"
 5310      55533A00 
 5311              	.LC94:
 5312 0ae4 4E414D45 		.ascii	"NAME:\000"
 5312      3A00
 5313 0aea 0000     		.space	2
 5314              	.LC95:
 5315 0aec 41444452 		.ascii	"ADDRESS:\000"
 5315      4553533A 
 5315      00
 5316 0af5 000000   		.space	3
 5317              	.LC96:
 5318 0af8 44495350 		.ascii	"DISPLAY BRIGHTNESS\000"
 5318      4C415920 
 5318      42524947 
 5318      48544E45 
 5318      535300
 5319 0b0b 00       		.space	1
 5320              	.LC97:
 5321 0b0c 494E464F 		.ascii	"INFO\000"
 5321      00
 5322 0b11 000000   		.space	3
 5323              	.LC98:
 5324 0b14 53455256 		.ascii	"SERVICES\000"
 5324      49434553 
 5324      00
 5325 0b1d 000000   		.space	3
 5326              	.LC99:
 5327 0b20 3C204241 		.ascii	"< BACK TO INFO\000"
 5327      434B2054 
 5327      4F20494E 
 5327      464F00
 5328 0b2f 00       		.space	1
 5329              	.LC100:
 5330 0b30 4A41434B 		.ascii	"JACK:\000"
 5330      3A00
 5331 0b36 0000     		.space	2
 5332              	.LC101:
 5333 0b38 53534844 		.ascii	"SSHD:\000"
 5333      3A00
 5334 0b3e 0000     		.space	2
 5335              	.LC102:
 5336 0b40 4D4F442D 		.ascii	"MOD-UI:\000"
 5336      55493A00 
 5337              	.LC103:
 5338 0b48 444E534D 		.ascii	"DNSMASQ:\000"
 5338      4153513A 
 5338      00
 5339 0b51 000000   		.space	3
 5340              	.LC104:
 5341 0b54 56455253 		.ascii	"VERSIONS\000"
 5341      494F4E53 
 5341      00
 5342 0b5d 000000   		.space	3
 5343              	.LC105:
 5344 0b60 56455253 		.ascii	"VERSION:\000"
 5344      494F4E3A 
 5344      00
 5345 0b69 000000   		.space	3
 5346              	.LC106:
 5347 0b6c 52455354 		.ascii	"RESTORE:\000"
 5347      4F52453A 
 5347      00
 5348 0b75 000000   		.space	3
 5349              	.LC107:
 5350 0b78 53595354 		.ascii	"SYSTEM:\000"
 5350      454D3A00 
 5351              	.LC108:
 5352 0b80 434F4E54 		.ascii	"CONTROLLER:\000"
 5352      524F4C4C 
 5352      45523A00 
 5353              	.LC109:
 5354 0b8c 44455649 		.ascii	"DEVICE\000"
 5354      434500
 5355 0b93 00       		.space	1
 5356              	.LC110:
 5357 0b94 53455249 		.ascii	"SERIAL NUMBER:\000"
 5357      414C204E 
 5357      554D4245 
 5357      523A00
 5358 0ba3 00       		.space	1
 5359              	.LC111:
 5360 0ba4 53595354 		.ascii	"SYSTEM UPGRADE\000"
 5360      454D2055 
 5360      50475241 
 5360      444500
 5361 0bb3 00       		.space	1
 5362              	.LC112:
 5363 0bb4 4741494E 		.ascii	"GAIN STAGES (LEGACY DUO)\000"
 5363      20535441 
 5363      47455320 
 5363      284C4547 
 5363      41435920 
 5364 0bcd 000000   		.space	3
 5365              	.LC113:
 5366 0bd0 53544147 		.ascii	"STAGE IN 1\000"
 5366      4520494E 
 5366      203100
 5367 0bdb 00       		.space	1
 5368              	.LC114:
 5369 0bdc 3C204261 		.ascii	"< Back to Gains\000"
 5369      636B2074 
 5369      6F204761 
 5369      696E7300 
 5370              	.LC115:
 5371 0bec 4C6F7700 		.ascii	"Low\000"
 5372              	.LC116:
 5373 0bf0 4D696400 		.ascii	"Mid\000"
 5374              	.LC117:
 5375 0bf4 48696768 		.ascii	"High\000"
 5375      00
 5376 0bf9 000000   		.space	3
 5377              	.LC118:
 5378 0bfc 53544147 		.ascii	"STAGE IN 2\000"
 5378      4520494E 
 5378      203200
 5379              		.ident	"GCC: (GNU Tools for Arm Embedded Processors 7-2018-q3-update) 7.3.1 20180622 (release) [AR
DEFINED SYMBOLS
                            *ABS*:0000000000000000 naveg.c
     /tmp/ccabXaWR.s:13     .text:0000000000000000 $t
     /tmp/ccabXaWR.s:19     .text:0000000000000000 display_has_tool_enabled
     /tmp/ccabXaWR.s:45     .text:0000000000000024 $d
                            *COM*:000000000000000a g_tool
     /tmp/ccabXaWR.s:47     .text:0000000000000028 $t
     /tmp/ccabXaWR.s:53     .text:0000000000000028 reset_menu_hover
     /tmp/ccabXaWR.s:83     .text:000000000000004e bank_config_check
     /tmp/ccabXaWR.s:96     .text:0000000000000052 search_encoder
     /tmp/ccabXaWR.s:141    .text:00000000000000a0 $d
     /tmp/ccabXaWR.s:143    .text:00000000000000a4 $t
     /tmp/ccabXaWR.s:149    .text:00000000000000a4 create_menu_tree
     /tmp/ccabXaWR.s:222    .text:000000000000014c $d
     /tmp/ccabXaWR.s:225    .text:0000000000000154 $t
     /tmp/ccabXaWR.s:231    .text:0000000000000154 display_disable_all_tools
     /tmp/ccabXaWR.s:260    .text:0000000000000180 $d
     /tmp/ccabXaWR.s:273    .text:0000000000000188 $t
     /tmp/ccabXaWR.s:279    .text:0000000000000188 step_to_value
     /tmp/ccabXaWR.s:370    .text:0000000000000244 menu_up
     /tmp/ccabXaWR.s:418    .text:0000000000000298 $d
     /tmp/ccabXaWR.s:420    .text:000000000000029c $t
     /tmp/ccabXaWR.s:426    .text:000000000000029c menu_down
     /tmp/ccabXaWR.s:477    .text:00000000000002f8 $d
     /tmp/ccabXaWR.s:484    .text:00000000000002fc $t
     /tmp/ccabXaWR.s:490    .text:00000000000002fc foot_control_add
     /tmp/ccabXaWR.s:519    .text:0000000000000336 $d
     /tmp/ccabXaWR.s:551    .text:0000000000000376 $t
     /tmp/ccabXaWR.s:802    .text:00000000000005bc $d
                            *COM*:0000000000000054 g_tap_tempo
     /tmp/ccabXaWR.s:811    .text:00000000000005dc $t
     /tmp/ccabXaWR.s:872    .text:0000000000000660 control_set
     /tmp/ccabXaWR.s:1115   .text:0000000000000890 $d
     /tmp/ccabXaWR.s:1119   .text:000000000000089c $t
     /tmp/ccabXaWR.s:1126   .text:000000000000089c draw_all_pots
     /tmp/ccabXaWR.s:1149   .text:00000000000008c4 $d
     /tmp/ccabXaWR.s:1151   .text:00000000000008c8 $t
     /tmp/ccabXaWR.s:1158   .text:00000000000008c8 draw_all_foots
     /tmp/ccabXaWR.s:1196   .text:000000000000090c $d
     /tmp/ccabXaWR.s:1198   .text:0000000000000910 $t
     /tmp/ccabXaWR.s:1205   .text:0000000000000910 naveg_init
     /tmp/ccabXaWR.s:1331   .text:0000000000000a10 $d
     /tmp/ccabXaWR.s:1336   .text:0000000000000a20 $t
     /tmp/ccabXaWR.s:1343   .text:0000000000000a20 naveg_inc_control
     /tmp/ccabXaWR.s:1397   .text:0000000000000a90 $d
     /tmp/ccabXaWR.s:1399   .text:0000000000000a94 $t
     /tmp/ccabXaWR.s:1406   .text:0000000000000a94 naveg_dec_control
     /tmp/ccabXaWR.s:1456   .text:0000000000000af8 $d
     /tmp/ccabXaWR.s:1458   .text:0000000000000afc $t
     /tmp/ccabXaWR.s:1465   .text:0000000000000afc naveg_set_control
     /tmp/ccabXaWR.s:1525   .text:0000000000000b7c $d
     /tmp/ccabXaWR.s:1527   .text:0000000000000b80 $t
     /tmp/ccabXaWR.s:1534   .text:0000000000000b80 naveg_get_control
     /tmp/ccabXaWR.s:1559   .text:0000000000000ba8 $d
     /tmp/ccabXaWR.s:1561   .text:0000000000000bac $t
     /tmp/ccabXaWR.s:1568   .text:0000000000000bac naveg_pot_change
     /tmp/ccabXaWR.s:1643   .text:0000000000000c64 $d
     /tmp/ccabXaWR.s:1647   .text:0000000000000c70 $t
     /tmp/ccabXaWR.s:1654   .text:0000000000000c70 naveg_foot_change
     /tmp/ccabXaWR.s:1667   .text:0000000000000c86 $d
     /tmp/ccabXaWR.s:1717   .text:0000000000000cec $d
     /tmp/ccabXaWR.s:1721   .text:0000000000000cf0 $t
     /tmp/ccabXaWR.s:1776   .text:0000000000000d78 $d
     /tmp/ccabXaWR.s:1778   .text:0000000000000d7c $t
     /tmp/ccabXaWR.s:1785   .text:0000000000000d7c naveg_is_tool_mode
     /tmp/ccabXaWR.s:1800   .text:0000000000000d86 naveg_set_master_volume
     /tmp/ccabXaWR.s:1861   .text:0000000000000e18 $d
     /tmp/ccabXaWR.s:1865   .text:0000000000000e24 $t
     /tmp/ccabXaWR.s:1872   .text:0000000000000e24 naveg_is_master_vol
     /tmp/ccabXaWR.s:1885   .text:0000000000000e30 $d
     /tmp/ccabXaWR.s:1887   .text:0000000000000e34 $t
     /tmp/ccabXaWR.s:1894   .text:0000000000000e34 naveg_enter
     /tmp/ccabXaWR.s:2760   .text:00000000000015b8 menu_enter
     /tmp/ccabXaWR.s:2006   .text:0000000000000f14 $d
     /tmp/ccabXaWR.s:2011   .text:0000000000000f24 $t
     /tmp/ccabXaWR.s:2018   .text:0000000000000f24 naveg_master_volume
     /tmp/ccabXaWR.s:2089   .text:0000000000000fc0 $d
     /tmp/ccabXaWR.s:2093   .text:0000000000000fcc $t
     /tmp/ccabXaWR.s:2100   .text:0000000000000fcc naveg_remove_control
     /tmp/ccabXaWR.s:2339   .text:00000000000011dc $d
     /tmp/ccabXaWR.s:2350   .text:00000000000011f8 $t
     /tmp/ccabXaWR.s:2357   .text:00000000000011f8 naveg_add_control
     /tmp/ccabXaWR.s:2574   .text:0000000000001430 $d
     /tmp/ccabXaWR.s:2576   .text:0000000000001434 $t
     /tmp/ccabXaWR.s:2583   .text:0000000000001434 naveg_toggle_tool
     /tmp/ccabXaWR.s:2747   .text:00000000000015a0 $d
     /tmp/ccabXaWR.s:2754   .text:00000000000015b8 $t
     /tmp/ccabXaWR.s:3052   .text:00000000000017c8 $d
     /tmp/ccabXaWR.s:3055   .text:00000000000017d0 $t
     /tmp/ccabXaWR.s:3339   .text:0000000000001a38 $d
     /tmp/ccabXaWR.s:3349   .text:0000000000001a5c $t
     /tmp/ccabXaWR.s:3356   .text:0000000000001a5c naveg_ui_connection
     /tmp/ccabXaWR.s:3420   .text:0000000000001ac8 $d
     /tmp/ccabXaWR.s:3423   .text:0000000000001ad0 $t
     /tmp/ccabXaWR.s:3430   .text:0000000000001ad0 naveg_up
     /tmp/ccabXaWR.s:3533   .text:0000000000001b90 $d
     /tmp/ccabXaWR.s:3536   .text:0000000000001b98 $t
     /tmp/ccabXaWR.s:3543   .text:0000000000001b98 naveg_down
     /tmp/ccabXaWR.s:3646   .text:0000000000001c58 $d
     /tmp/ccabXaWR.s:3649   .text:0000000000001c60 $t
     /tmp/ccabXaWR.s:3656   .text:0000000000001c60 naveg_reset_menu
     /tmp/ccabXaWR.s:3678   .text:0000000000001c80 $d
     /tmp/ccabXaWR.s:3680   .text:0000000000001c84 $t
     /tmp/ccabXaWR.s:3687   .text:0000000000001c84 naveg_need_update
     /tmp/ccabXaWR.s:3700   .text:0000000000001c90 $d
     /tmp/ccabXaWR.s:3702   .text:0000000000001c94 $t
     /tmp/ccabXaWR.s:3709   .text:0000000000001c94 naveg_update
     /tmp/ccabXaWR.s:3728   .text:0000000000001cb0 $d
     /tmp/ccabXaWR.s:3730   .text:0000000000001cb4 $t
     /tmp/ccabXaWR.s:3737   .text:0000000000001cb4 naveg_dialog
     /tmp/ccabXaWR.s:3789   .text:0000000000001d18 $d
     /tmp/ccabXaWR.s:3793   .text:0000000000001d24 $t
     /tmp/ccabXaWR.s:3800   .text:0000000000001d24 naveg_ui_status
     /tmp/ccabXaWR.s:3810   .text:0000000000001d2c $d
     /tmp/ccabXaWR.s:3812   .text:0000000000001d30 $t
     /tmp/ccabXaWR.s:3819   .text:0000000000001d30 naveg_tap_tempo_status
     /tmp/ccabXaWR.s:3834   .text:0000000000001d44 $d
     /tmp/ccabXaWR.s:3836   .text:0000000000001d48 $t
     /tmp/ccabXaWR.s:3843   .text:0000000000001d48 naveg_settings_refresh
     /tmp/ccabXaWR.s:3861   .text:0000000000001d60 $d
     /tmp/ccabXaWR.s:3863   .text:0000000000001d64 $t
     /tmp/ccabXaWR.s:3870   .text:0000000000001d64 naveg_menu_refresh
     /tmp/ccabXaWR.s:3904   .text:0000000000001d94 $d
     /tmp/ccabXaWR.s:3906   .text:0000000000001d98 $t
     /tmp/ccabXaWR.s:3913   .text:0000000000001d98 naveg_bypass_refresh
     /tmp/ccabXaWR.s:4030   .text:0000000000001e84 $d
     /tmp/ccabXaWR.s:4038   .text:0000000000001ea0 $t
     /tmp/ccabXaWR.s:4045   .text:0000000000001ea0 naveg_update_gain
     /tmp/ccabXaWR.s:4130   .text:0000000000001f58 $d
     /tmp/ccabXaWR.s:4137   .rodata:0000000000000000 $d
     /tmp/ccabXaWR.s:4151   .rodata:0000000000000014 g_menu_popups
     /tmp/ccabXaWR.s:4233   .data:0000000000000000 $d
     /tmp/ccabXaWR.s:4237   .data:0000000000000000 g_menu_desc
     /tmp/ccabXaWR.s:4933   .data:0000000000000604 input.9344
     /tmp/ccabXaWR.s:4938   .data:0000000000000608 desc.9506
     /tmp/ccabXaWR.s:4949   .bss:0000000000000000 $d
     /tmp/ccabXaWR.s:4953   .bss:0000000000000000 g_encoders
     /tmp/ccabXaWR.s:4957   .bss:0000000000000008 g_max_items_list
     /tmp/ccabXaWR.s:4962   .bss:000000000000000c g_current_item
     /tmp/ccabXaWR.s:4966   .bss:0000000000000010 g_current_main_item
     /tmp/ccabXaWR.s:4970   .bss:0000000000000014 g_foots
     /tmp/ccabXaWR.s:4974   .bss:0000000000000030 g_pots
     /tmp/ccabXaWR.s:4978   .bss:0000000000000050 g_menu
     /tmp/ccabXaWR.s:4982   .bss:0000000000000054 g_current_menu
     /tmp/ccabXaWR.s:4986   .bss:0000000000000058 g_update_cb
     /tmp/ccabXaWR.s:4990   .bss:000000000000005c g_update_data
     /tmp/ccabXaWR.s:4994   .bss:0000000000000060 g_initialized
     /tmp/ccabXaWR.s:4999   .bss:0000000000000064 g_dialog_sem
     /tmp/ccabXaWR.s:5003   .bss:0000000000000068 snapshot_loaded.9441
     /tmp/ccabXaWR.s:5007   .bss:0000000000000069 page.9442
     /tmp/ccabXaWR.s:5011   .bss:000000000000006a master_vol_value
     /tmp/ccabXaWR.s:5015   .bss:000000000000006c g_current_main_menu
     /tmp/ccabXaWR.s:5019   .bss:0000000000000070 g_ui_connected
     /tmp/ccabXaWR.s:5023   .bss:0000000000000071 toggle.9331
     /tmp/ccabXaWR.s:5028   .bss:0000000000000074 dummy_menu.9505
     /tmp/ccabXaWR.s:5031   .rodata.str1.4:0000000000000000 $d
     /tmp/ccabXaWR.s:1674   .text:0000000000000c8d $d
     /tmp/ccabXaWR.s:1674   .text:0000000000000c8e $t

UNDEFINED SYMBOLS
strcmp
pvPortMalloc
strcpy
node_child
comm_webgui_send
__aeabi_i2f
__aeabi_fdiv
__aeabi_fsub
__aeabi_fmul
__aeabi_fadd
__aeabi_f2d
__aeabi_dmul
__aeabi_d2f
__aeabi_fcmpgt
__aeabi_fcmplt
pow
screen_system_menu
hardware_get_acceleration
__aeabi_fcmple
__aeabi_dadd
__aeabi_d2uiz
__aeabi_fcmpeq
__aeabi_f2iz
data_free_control
hardware_leds
ledz_on
screen_footer
ledz_off
convert_to_ms
ledz_blink
strcasecmp
int_to_str
float_to_str
__aeabi_ui2f
hardware_timestamp
convert_from_ms
screen_pot
screen_encoder
copy_command
strlen
node_create
xQueueGenericCreate
xQueueGenericSend
xQueueGenericReceive
hardware_get_pot_value
system_master_volume_cb
screen_master_vol
screen_tuner_input
system_save_gains_cb
comm_webgui_set_response_cb
screen_top_info
__aeabi_i2d
__aeabi_ddiv
__aeabi_d2iz
log
screen_clear
screen_tool
malloc
deselect_item
select_item
xQueueGiveFromISR
strcat
system_pedalboard_cb
system_quick_bypass_cb
system_bypass_cb
system_play_cb
system_tempo_cb
system_bpb_cb
system_tuner_cb
system_load_pro_cb
system_save_pro_cb
system_sl_in_cb
system_volume_cb
system_sl_out_cb
system_master_vol_link_cb
system_midi_src_cb
system_midi_send_cb
system_ss_prog_change_cb
system_pb_prog_change_cb
system_bluetooth_cb
system_display_cb
system_services_cb
system_versions_cb
system_release_cb
system_device_cb
system_tag_cb
system_upgrade_cb
system_stage_cb
