   1              		.cpu cortex-m3
   2              		.eabi_attribute 20, 1
   3              		.eabi_attribute 21, 1
   4              		.eabi_attribute 23, 3
   5              		.eabi_attribute 24, 1
   6              		.eabi_attribute 25, 1
   7              		.eabi_attribute 26, 1
   8              		.eabi_attribute 30, 2
   9              		.eabi_attribute 34, 1
  10              		.eabi_attribute 18, 4
  11              		.file	"naveg.c"
  12              		.text
  13              		.align	1
  14              		.p2align 2,,3
  15              		.syntax unified
  16              		.thumb
  17              		.thumb_func
  18              		.fpu softvfp
  20              	bank_config_footer:
  21              		@ args = 0, pretend = 0, frame = 0
  22              		@ frame_needed = 0, uses_anonymous_args = 0
  23 0000 2DE9F047 		push	{r4, r5, r6, r7, r8, r9, r10, lr}
  24 0004 3D4E     		ldr	r6, .L45
  25 0006 3568     		ldr	r5, [r6]
  26 0008 1DB1     		cbz	r5, .L2
  27 000a AA7A     		ldrb	r2, [r5, #10]	@ zero_extendqisi2
  28 000c 2B68     		ldr	r3, [r5]
  29 000e 53F82250 		ldr	r5, [r3, r2, lsl #2]
  30              	.L2:
  31 0012 3B4C     		ldr	r4, .L45+4
  32 0014 DFF8F4A0 		ldr	r10, .L45+16
  33 0018 DFF8F490 		ldr	r9, .L45+20
  34 001c DFF8F480 		ldr	r8, .L45+24
  35 0020 04F10F07 		add	r7, r4, #15
  36              	.L21:
  37 0024 637A     		ldrb	r3, [r4, #9]	@ zero_extendqisi2
  38 0026 022B     		cmp	r3, #2
  39 0028 39D0     		beq	.L4
  40 002a 032B     		cmp	r3, #3
  41 002c 1FD0     		beq	.L5
  42 002e 012B     		cmp	r3, #1
  43 0030 04D0     		beq	.L39
  44              	.L3:
  45 0032 0534     		adds	r4, r4, #5
  46 0034 BC42     		cmp	r4, r7
  47 0036 F5D1     		bne	.L21
  48 0038 BDE8F087 		pop	{r4, r5, r6, r7, r8, r9, r10, pc}
  49              	.L39:
  50 003c 207A     		ldrb	r0, [r4, #8]	@ zero_extendqisi2
  51 003e FFF7FEFF 		bl	hardware_leds
  52 0042 0721     		movs	r1, #7
  53 0044 FFF7FEFF 		bl	ledz_on
  54 0048 2E4B     		ldr	r3, .L45+8
  55 004a 207A     		ldrb	r0, [r4, #8]	@ zero_extendqisi2
  56 004c 03F10A01 		add	r1, r3, #10
  57              	.L8:
  58 0050 5A78     		ldrb	r2, [r3, #1]	@ zero_extendqisi2
  59 0052 8242     		cmp	r2, r0
  60 0054 07D0     		beq	.L40
  61              	.L7:
  62 0056 0233     		adds	r3, r3, #2
  63 0058 9942     		cmp	r1, r3
  64 005a F9D1     		bne	.L8
  65 005c 4246     		mov	r2, r8
  66 005e 2A49     		ldr	r1, .L45+12
  67 0060 FFF7FEFF 		bl	screen_footer
  68 0064 E5E7     		b	.L3
  69              	.L40:
  70 0066 1A78     		ldrb	r2, [r3]	@ zero_extendqisi2
  71 0068 012A     		cmp	r2, #1
  72 006a F4D1     		bne	.L7
  73 006c E1E7     		b	.L3
  74              	.L5:
  75 006e 337E     		ldrb	r3, [r6, #24]	@ zero_extendqisi2
  76 0070 207A     		ldrb	r0, [r4, #8]	@ zero_extendqisi2
  77 0072 012B     		cmp	r3, #1
  78 0074 2ED0     		beq	.L41
  79 0076 FFF7FEFF 		bl	hardware_leds
  80 007a 0721     		movs	r1, #7
  81 007c FFF7FEFF 		bl	ledz_on
  82              	.L17:
  83 0080 204B     		ldr	r3, .L45+8
  84 0082 207A     		ldrb	r0, [r4, #8]	@ zero_extendqisi2
  85 0084 03F10A01 		add	r1, r3, #10
  86              	.L19:
  87 0088 5A78     		ldrb	r2, [r3, #1]	@ zero_extendqisi2
  88 008a 8242     		cmp	r2, r0
  89 008c 2ED0     		beq	.L42
  90              	.L18:
  91 008e 0233     		adds	r3, r3, #2
  92 0090 9942     		cmp	r1, r3
  93 0092 F9D1     		bne	.L19
  94 0094 4A46     		mov	r2, r9
  95 0096 2946     		mov	r1, r5
  96 0098 FFF7FEFF 		bl	screen_footer
  97 009c C9E7     		b	.L3
  98              	.L4:
  99 009e 3368     		ldr	r3, [r6]
 100 00a0 327E     		ldrb	r2, [r6, #24]	@ zero_extendqisi2
 101 00a2 1B7A     		ldrb	r3, [r3, #8]	@ zero_extendqisi2
 102 00a4 207A     		ldrb	r0, [r4, #8]	@ zero_extendqisi2
 103 00a6 013B     		subs	r3, r3, #1
 104 00a8 9A42     		cmp	r2, r3
 105 00aa 19D0     		beq	.L43
 106 00ac FFF7FEFF 		bl	hardware_leds
 107 00b0 0721     		movs	r1, #7
 108 00b2 FFF7FEFF 		bl	ledz_on
 109              	.L11:
 110 00b6 134B     		ldr	r3, .L45+8
 111 00b8 207A     		ldrb	r0, [r4, #8]	@ zero_extendqisi2
 112 00ba 03F10A01 		add	r1, r3, #10
 113              	.L14:
 114 00be 5A78     		ldrb	r2, [r3, #1]	@ zero_extendqisi2
 115 00c0 8242     		cmp	r2, r0
 116 00c2 17D0     		beq	.L44
 117              	.L12:
 118 00c4 0233     		adds	r3, r3, #2
 119 00c6 8B42     		cmp	r3, r1
 120 00c8 F9D1     		bne	.L14
 121 00ca 5246     		mov	r2, r10
 122 00cc 2946     		mov	r1, r5
 123 00ce FFF7FEFF 		bl	screen_footer
 124 00d2 AEE7     		b	.L3
 125              	.L41:
 126 00d4 FFF7FEFF 		bl	hardware_leds
 127 00d8 FF21     		movs	r1, #255
 128 00da FFF7FEFF 		bl	ledz_off
 129 00de CFE7     		b	.L17
 130              	.L43:
 131 00e0 FFF7FEFF 		bl	hardware_leds
 132 00e4 FF21     		movs	r1, #255
 133 00e6 FFF7FEFF 		bl	ledz_off
 134 00ea E4E7     		b	.L11
 135              	.L42:
 136 00ec 1A78     		ldrb	r2, [r3]	@ zero_extendqisi2
 137 00ee 012A     		cmp	r2, #1
 138 00f0 CDD1     		bne	.L18
 139 00f2 9EE7     		b	.L3
 140              	.L44:
 141 00f4 1A78     		ldrb	r2, [r3]	@ zero_extendqisi2
 142 00f6 012A     		cmp	r2, #1
 143 00f8 E4D1     		bne	.L12
 144 00fa 9AE7     		b	.L3
 145              	.L46:
 146              		.align	2
 147              	.L45:
 148 00fc 00000000 		.word	.LANCHOR0
 149 0100 04000000 		.word	.LANCHOR0+4
 150 0104 00000000 		.word	g_tool
 151 0108 04000000 		.word	.LC3
 152 010c 10000000 		.word	.LC4
 153 0110 14000000 		.word	.LC5
 154 0114 00000000 		.word	.LC2
 156              		.align	1
 157              		.p2align 2,,3
 158              		.syntax unified
 159              		.thumb
 160              		.thumb_func
 161              		.fpu softvfp
 163              	search_encoder:
 164              		@ args = 0, pretend = 0, frame = 0
 165              		@ frame_needed = 0, uses_anonymous_args = 0
 166 0118 2DE9F041 		push	{r4, r5, r6, r7, r8, lr}
 167 011c 114D     		ldr	r5, .L63
 168 011e 0646     		mov	r6, r0
 169 0120 EC69     		ldr	r4, [r5, #28]
 170 0122 9046     		mov	r8, r2
 171 0124 0F46     		mov	r7, r1
 172 0126 1CB1     		cbz	r4, .L48
 173 0128 94F91030 		ldrsb	r3, [r4, #16]
 174 012c 9842     		cmp	r0, r3
 175 012e 09D0     		beq	.L61
 176              	.L48:
 177 0130 2C6A     		ldr	r4, [r5, #32]
 178 0132 24B1     		cbz	r4, .L47
 179 0134 94F91030 		ldrsb	r3, [r4, #16]
 180 0138 B342     		cmp	r3, r6
 181 013a 0BD0     		beq	.L62
 182              	.L53:
 183 013c 0024     		movs	r4, #0
 184              	.L47:
 185 013e 2046     		mov	r0, r4
 186 0140 BDE8F081 		pop	{r4, r5, r6, r7, r8, pc}
 187              	.L61:
 188 0144 A068     		ldr	r0, [r4, #8]
 189 0146 FFF7FEFF 		bl	strcmp
 190 014a 0028     		cmp	r0, #0
 191 014c F0D1     		bne	.L48
 192              	.L49:
 193 014e 88F80000 		strb	r0, [r8]
 194 0152 F4E7     		b	.L47
 195              	.L62:
 196 0154 3946     		mov	r1, r7
 197 0156 A068     		ldr	r0, [r4, #8]
 198 0158 FFF7FEFF 		bl	strcmp
 199 015c 0028     		cmp	r0, #0
 200 015e EDD1     		bne	.L53
 201 0160 0120     		movs	r0, #1
 202 0162 F4E7     		b	.L49
 203              	.L64:
 204              		.align	2
 205              	.L63:
 206 0164 00000000 		.word	.LANCHOR0
 208              		.global	__aeabi_fcmple
 209              		.global	__aeabi_f2d
 210              		.global	__aeabi_dadd
 211              		.global	__aeabi_d2uiz
 212              		.global	__aeabi_fcmpeq
 213              		.global	__aeabi_f2iz
 214              		.global	__aeabi_i2f
 215              		.align	1
 216              		.p2align 2,,3
 217              		.syntax unified
 218              		.thumb
 219              		.thumb_func
 220              		.fpu softvfp
 222              	foot_control_add:
 223              		@ args = 0, pretend = 0, frame = 32
 224              		@ frame_needed = 0, uses_anonymous_args = 0
 225 0168 2DE9F043 		push	{r4, r5, r6, r7, r8, r9, lr}
 226 016c C578     		ldrb	r5, [r0, #3]	@ zero_extendqisi2
 227 016e 89B0     		sub	sp, sp, #36
 228 0170 062D     		cmp	r5, #6
 229 0172 00F2BC80 		bhi	.L65
 230 0176 0446     		mov	r4, r0
 231 0178 B04B     		ldr	r3, .L182
 232 017a 03F10F01 		add	r1, r3, #15
 233              	.L69:
 234 017e 1A7A     		ldrb	r2, [r3, #8]	@ zero_extendqisi2
 235 0180 AA42     		cmp	r2, r5
 236 0182 00F0B780 		beq	.L171
 237              	.L67:
 238 0186 0533     		adds	r3, r3, #5
 239 0188 8B42     		cmp	r3, r1
 240 018a F8D1     		bne	.L69
 241 018c AC4B     		ldr	r3, .L182+4
 242 018e A900     		lsls	r1, r5, #2
 243 0190 5A18     		adds	r2, r3, r1
 244 0192 526A     		ldr	r2, [r2, #36]
 245 0194 12B1     		cbz	r2, .L71
 246 0196 A242     		cmp	r2, r4
 247 0198 40F0B080 		bne	.L68
 248              	.L71:
 249 019c A27C     		ldrb	r2, [r4, #18]	@ zero_extendqisi2
 250 019e 0B44     		add	r3, r3, r1
 251 01a0 013A     		subs	r2, r2, #1
 252 01a2 5C62     		str	r4, [r3, #36]
 253 01a4 1F2A     		cmp	r2, #31
 254 01a6 00F2A280 		bhi	.L65
 255 01aa DFE812F0 		tbh	[pc, r2, lsl #1]
 256              	.L73:
 257 01ae D700     		.2byte	(.L72-.L73)/2
 258 01b0 2000     		.2byte	(.L74-.L73)/2
 259 01b2 A000     		.2byte	(.L65-.L73)/2
 260 01b4 0101     		.2byte	(.L75-.L73)/2
 261 01b6 A000     		.2byte	(.L65-.L73)/2
 262 01b8 A000     		.2byte	(.L65-.L73)/2
 263 01ba A000     		.2byte	(.L65-.L73)/2
 264 01bc 0101     		.2byte	(.L75-.L73)/2
 265 01be A000     		.2byte	(.L65-.L73)/2
 266 01c0 A000     		.2byte	(.L65-.L73)/2
 267 01c2 A000     		.2byte	(.L65-.L73)/2
 268 01c4 A000     		.2byte	(.L65-.L73)/2
 269 01c6 A000     		.2byte	(.L65-.L73)/2
 270 01c8 A000     		.2byte	(.L65-.L73)/2
 271 01ca A000     		.2byte	(.L65-.L73)/2
 272 01cc 5B01     		.2byte	(.L76-.L73)/2
 273 01ce A000     		.2byte	(.L65-.L73)/2
 274 01d0 A000     		.2byte	(.L65-.L73)/2
 275 01d2 A000     		.2byte	(.L65-.L73)/2
 276 01d4 A000     		.2byte	(.L65-.L73)/2
 277 01d6 A000     		.2byte	(.L65-.L73)/2
 278 01d8 A000     		.2byte	(.L65-.L73)/2
 279 01da A000     		.2byte	(.L65-.L73)/2
 280 01dc A000     		.2byte	(.L65-.L73)/2
 281 01de A000     		.2byte	(.L65-.L73)/2
 282 01e0 A000     		.2byte	(.L65-.L73)/2
 283 01e2 A000     		.2byte	(.L65-.L73)/2
 284 01e4 A000     		.2byte	(.L65-.L73)/2
 285 01e6 A000     		.2byte	(.L65-.L73)/2
 286 01e8 A000     		.2byte	(.L65-.L73)/2
 287 01ea A000     		.2byte	(.L65-.L73)/2
 288 01ec AD00     		.2byte	(.L77-.L73)/2
 289              		.p2align 1
 290              	.L74:
 291 01ee 2846     		mov	r0, r5
 292 01f0 FFF7FEFF 		bl	hardware_leds
 293 01f4 0221     		movs	r1, #2
 294 01f6 FFF7FEFF 		bl	ledz_on
 295 01fa 6169     		ldr	r1, [r4, #20]	@ float
 296 01fc E068     		ldr	r0, [r4, #12]
 297 01fe FFF7FEFF 		bl	convert_to_ms
 298 0202 FFF7FEFF 		bl	__aeabi_f2d
 299 0206 0022     		movs	r2, #0
 300 0208 8E4B     		ldr	r3, .L182+8
 301 020a FFF7FEFF 		bl	__aeabi_dadd
 302 020e FFF7FEFF 		bl	__aeabi_d2uiz
 303 0212 85B2     		uxth	r5, r0
 304 0214 642D     		cmp	r5, #100
 305 0216 E078     		ldrb	r0, [r4, #3]	@ zero_extendqisi2
 306 0218 40F25481 		bls	.L89
 307 021c FFF7FEFF 		bl	hardware_leds
 308 0220 A5F16403 		sub	r3, r5, #100
 309 0224 9BB2     		uxth	r3, r3
 310 0226 6422     		movs	r2, #100
 311 0228 0221     		movs	r1, #2
 312 022a FFF7FEFF 		bl	ledz_blink
 313              	.L90:
 314 022e E578     		ldrb	r5, [r4, #3]	@ zero_extendqisi2
 315 0230 854E     		ldr	r6, .L182+12
 316 0232 6F00     		lsls	r7, r5, #1
 317 0234 7B19     		adds	r3, r7, r5
 318 0236 06EB8303 		add	r3, r6, r3, lsl #2
 319 023a 1B7A     		ldrb	r3, [r3, #8]	@ zero_extendqisi2
 320 023c 03BB     		cbnz	r3, .L91
 321 023e D4F80C80 		ldr	r8, [r4, #12]
 322 0242 8249     		ldr	r1, .L182+16
 323 0244 4046     		mov	r0, r8
 324 0246 FFF7FEFF 		bl	strcmp
 325 024a 0028     		cmp	r0, #0
 326 024c 00F05981 		beq	.L92
 327 0250 7F49     		ldr	r1, .L182+20
 328 0252 4046     		mov	r0, r8
 329 0254 FFF7FEFF 		bl	strcmp
 330 0258 0028     		cmp	r0, #0
 331 025a 00F05281 		beq	.L92
 332 025e D4F81890 		ldr	r9, [r4, #24]	@ float
 333 0262 0021     		movs	r1, #0
 334 0264 4846     		mov	r0, r9
 335 0266 FFF7FEFF 		bl	__aeabi_fcmpeq
 336 026a 0028     		cmp	r0, #0
 337 026c 00F06D81 		beq	.L172
 338 0270 40F6B830 		movw	r0, #3000
 339              	.L94:
 340 0274 0123     		movs	r3, #1
 341 0276 2F44     		add	r7, r7, r5
 342 0278 06EB8706 		add	r6, r6, r7, lsl #2
 343 027c 7060     		str	r0, [r6, #4]
 344 027e 3372     		strb	r3, [r6, #8]
 345              	.L91:
 346 0280 012D     		cmp	r5, #1
 347 0282 94BF     		ite	ls
 348 0284 0022     		movls	r2, #0
 349 0286 0122     		movhi	r2, #1
 350 0288 724B     		ldr	r3, .L182+24
 351 028a 03F10A00 		add	r0, r3, #10
 352              	.L96:
 353 028e 5978     		ldrb	r1, [r3, #1]	@ zero_extendqisi2
 354 0290 9142     		cmp	r1, r2
 355 0292 00F00481 		beq	.L173
 356              	.L95:
 357 0296 0233     		adds	r3, r3, #2
 358 0298 9842     		cmp	r0, r3
 359 029a F8D1     		bne	.L96
 360 029c E568     		ldr	r5, [r4, #12]
 361 029e 6B49     		ldr	r1, .L182+16
 362 02a0 2846     		mov	r0, r5
 363 02a2 FFF7FEFF 		bl	strcasecmp
 364 02a6 6669     		ldr	r6, [r4, #20]	@ float
 365 02a8 30B1     		cbz	r0, .L118
 366 02aa 2846     		mov	r0, r5
 367 02ac 6A49     		ldr	r1, .L182+28
 368 02ae FFF7FEFF 		bl	strcasecmp
 369 02b2 0028     		cmp	r0, #0
 370 02b4 40F03981 		bne	.L98
 371              	.L118:
 372 02b8 6D46     		mov	r5, sp
 373 02ba 3046     		mov	r0, r6
 374 02bc FFF7FEFF 		bl	__aeabi_f2iz
 375 02c0 0023     		movs	r3, #0
 376 02c2 2946     		mov	r1, r5
 377 02c4 2022     		movs	r2, #32
 378 02c6 FFF7FEFF 		bl	int_to_str
 379 02ca C3B2     		uxtb	r3, r0
 380              	.L99:
 381 02cc 2022     		movs	r2, #32
 382 02ce 581C     		adds	r0, r3, #1
 383 02d0 0DEB0201 		add	r1, sp, r2
 384 02d4 C0B2     		uxtb	r0, r0
 385 02d6 0B44     		add	r3, r3, r1
 386 02d8 2844     		add	r0, r0, r5
 387 02da E168     		ldr	r1, [r4, #12]
 388 02dc 03F8202C 		strb	r2, [r3, #-32]
 389 02e0 FFF7FEFF 		bl	strcpy
 390 02e4 2A46     		mov	r2, r5
 391 02e6 6168     		ldr	r1, [r4, #4]
 392 02e8 E078     		ldrb	r0, [r4, #3]	@ zero_extendqisi2
 393 02ea FFF7FEFF 		bl	screen_footer
 394              	.L65:
 395 02ee 09B0     		add	sp, sp, #36
 396              		@ sp needed
 397 02f0 BDE8F083 		pop	{r4, r5, r6, r7, r8, r9, pc}
 398              	.L171:
 399 02f4 5A7A     		ldrb	r2, [r3, #9]	@ zero_extendqisi2
 400 02f6 002A     		cmp	r2, #0
 401 02f8 3FF445AF 		beq	.L67
 402              	.L68:
 403 02fc 2046     		mov	r0, r4
 404 02fe FFF7FEFF 		bl	data_free_control
 405 0302 09B0     		add	sp, sp, #36
 406              		@ sp needed
 407 0304 BDE8F083 		pop	{r4, r5, r6, r7, r8, r9, pc}
 408              	.L77:
 409 0308 0021     		movs	r1, #0
 410 030a 6069     		ldr	r0, [r4, #20]	@ float
 411 030c FFF7FEFF 		bl	__aeabi_fcmple
 412 0310 0028     		cmp	r0, #0
 413 0312 40F0E880 		bne	.L174
 414 0316 2846     		mov	r0, r5
 415 0318 FFF7FEFF 		bl	hardware_leds
 416 031c 0221     		movs	r1, #2
 417 031e FFF7FEFF 		bl	ledz_on
 418              	.L80:
 419 0322 E578     		ldrb	r5, [r4, #3]	@ zero_extendqisi2
 420 0324 4B4B     		ldr	r3, .L182+24
 421 0326 012D     		cmp	r5, #1
 422 0328 94BF     		ite	ls
 423 032a 0021     		movls	r1, #0
 424 032c 0121     		movhi	r1, #1
 425 032e 03F10A00 		add	r0, r3, #10
 426              	.L83:
 427 0332 5A78     		ldrb	r2, [r3, #1]	@ zero_extendqisi2
 428 0334 8A42     		cmp	r2, r1
 429 0336 00F0C080 		beq	.L175
 430              	.L81:
 431 033a 0233     		adds	r3, r3, #2
 432 033c 9842     		cmp	r0, r3
 433 033e F8D1     		bne	.L83
 434 0340 0021     		movs	r1, #0
 435 0342 6069     		ldr	r0, [r4, #20]	@ float
 436 0344 FFF7FEFF 		bl	__aeabi_fcmple
 437 0348 444B     		ldr	r3, .L182+32
 438 034a 454A     		ldr	r2, .L182+36
 439 034c 6168     		ldr	r1, [r4, #4]
 440 034e 0028     		cmp	r0, #0
 441 0350 08BF     		it	eq
 442 0352 1A46     		moveq	r2, r3
 443 0354 2846     		mov	r0, r5
 444 0356 FFF7FEFF 		bl	screen_footer
 445 035a C8E7     		b	.L65
 446              	.L72:
 447 035c 0021     		movs	r1, #0
 448 035e 6069     		ldr	r0, [r4, #20]	@ float
 449 0360 FFF7FEFF 		bl	__aeabi_fcmple
 450 0364 0028     		cmp	r0, #0
 451 0366 40F0C580 		bne	.L176
 452 036a 2846     		mov	r0, r5
 453 036c FFF7FEFF 		bl	hardware_leds
 454 0370 0121     		movs	r1, #1
 455 0372 FFF7FEFF 		bl	ledz_off
 456              	.L102:
 457 0376 E578     		ldrb	r5, [r4, #3]	@ zero_extendqisi2
 458 0378 364B     		ldr	r3, .L182+24
 459 037a 012D     		cmp	r5, #1
 460 037c 94BF     		ite	ls
 461 037e 0021     		movls	r1, #0
 462 0380 0121     		movhi	r1, #1
 463 0382 03F10A00 		add	r0, r3, #10
 464              	.L104:
 465 0386 5A78     		ldrb	r2, [r3, #1]	@ zero_extendqisi2
 466 0388 8A42     		cmp	r2, r1
 467 038a 00F08D80 		beq	.L177
 468              	.L103:
 469 038e 0233     		adds	r3, r3, #2
 470 0390 9842     		cmp	r0, r3
 471 0392 F8D1     		bne	.L104
 472 0394 0021     		movs	r1, #0
 473 0396 6069     		ldr	r0, [r4, #20]	@ float
 474 0398 FFF7FEFF 		bl	__aeabi_fcmpeq
 475 039c 2F4B     		ldr	r3, .L182+32
 476 039e 304A     		ldr	r2, .L182+36
 477 03a0 6168     		ldr	r1, [r4, #4]
 478 03a2 0028     		cmp	r0, #0
 479 03a4 18BF     		it	ne
 480 03a6 1A46     		movne	r2, r3
 481 03a8 2846     		mov	r0, r5
 482 03aa FFF7FEFF 		bl	screen_footer
 483 03ae 9EE7     		b	.L65
 484              	.L75:
 485 03b0 4FF00009 		mov	r9, #0
 486 03b4 2846     		mov	r0, r5
 487 03b6 FFF7FEFF 		bl	hardware_leds
 488 03ba 0221     		movs	r1, #2
 489 03bc FFF7FEFF 		bl	ledz_on
 490 03c0 94F82470 		ldrb	r7, [r4, #36]	@ zero_extendqisi2
 491 03c4 84F82090 		strb	r9, [r4, #32]
 492 03c8 002F     		cmp	r7, #0
 493 03ca 00F0B780 		beq	.L123
 494 03ce A66A     		ldr	r6, [r4, #40]
 495 03d0 D4F81480 		ldr	r8, [r4, #20]	@ float
 496 03d4 3368     		ldr	r3, [r6]
 497 03d6 93F90400 		ldrsb	r0, [r3, #4]
 498 03da FFF7FEFF 		bl	__aeabi_i2f
 499 03de 0146     		mov	r1, r0
 500 03e0 4046     		mov	r0, r8
 501 03e2 FFF7FEFF 		bl	__aeabi_fcmpeq
 502 03e6 0546     		mov	r5, r0
 503 03e8 58B1     		cbz	r0, .L109
 504 03ea AAE0     		b	.L178
 505              	.L111:
 506 03ec 56F8043F 		ldr	r3, [r6, #4]!
 507 03f0 93F90400 		ldrsb	r0, [r3, #4]
 508 03f4 FFF7FEFF 		bl	__aeabi_i2f
 509 03f8 4146     		mov	r1, r8
 510 03fa FFF7FEFF 		bl	__aeabi_fcmpeq
 511 03fe 0028     		cmp	r0, #0
 512 0400 68D1     		bne	.L179
 513              	.L109:
 514 0402 0135     		adds	r5, r5, #1
 515 0404 EDB2     		uxtb	r5, r5
 516 0406 BD42     		cmp	r5, r7
 517 0408 F0D1     		bne	.L111
 518 040a 012D     		cmp	r5, #1
 519 040c 94BF     		ite	ls
 520 040e 0021     		movls	r1, #0
 521 0410 0121     		movhi	r1, #1
 522 0412 6FB2     		sxtb	r7, r5
 523              	.L106:
 524 0414 0F4B     		ldr	r3, .L182+24
 525 0416 84F82170 		strb	r7, [r4, #33]
 526 041a 03F10A00 		add	r0, r3, #10
 527              	.L113:
 528 041e 5A78     		ldrb	r2, [r3, #1]	@ zero_extendqisi2
 529 0420 8A42     		cmp	r2, r1
 530 0422 38D0     		beq	.L180
 531              	.L112:
 532 0424 0233     		adds	r3, r3, #2
 533 0426 9842     		cmp	r0, r3
 534 0428 F9D1     		bne	.L113
 535 042a A36A     		ldr	r3, [r4, #40]
 536 042c 6168     		ldr	r1, [r4, #4]
 537 042e 53F82530 		ldr	r3, [r3, r5, lsl #2]
 538 0432 E078     		ldrb	r0, [r4, #3]	@ zero_extendqisi2
 539 0434 1A68     		ldr	r2, [r3]
 540 0436 FFF7FEFF 		bl	screen_footer
 541 043a 58E7     		b	.L65
 542              	.L183:
 543              		.align	2
 544              	.L182:
 545 043c 04000000 		.word	.LANCHOR0+4
 546 0440 00000000 		.word	.LANCHOR0
 547 0444 0000E03F 		.word	1071644672
 548 0448 00000000 		.word	g_tap_tempo
 549 044c 1C000000 		.word	.LC7
 550 0450 20000000 		.word	.LC8
 551 0454 00000000 		.word	g_tool
 552 0458 24000000 		.word	.LC9
 553 045c 00000000 		.word	.LC2
 554 0460 18000000 		.word	.LC6
 555              	.L76:
 556 0464 2846     		mov	r0, r5
 557 0466 FFF7FEFF 		bl	hardware_leds
 558 046a 0221     		movs	r1, #2
 559 046c FFF7FEFF 		bl	ledz_on
 560 0470 E078     		ldrb	r0, [r4, #3]	@ zero_extendqisi2
 561 0472 374B     		ldr	r3, .L184
 562 0474 0128     		cmp	r0, #1
 563 0476 94BF     		ite	ls
 564 0478 0021     		movls	r1, #0
 565 047a 0121     		movhi	r1, #1
 566 047c 03F10A05 		add	r5, r3, #10
 567              	.L87:
 568 0480 5A78     		ldrb	r2, [r3, #1]	@ zero_extendqisi2
 569 0482 8A42     		cmp	r2, r1
 570 0484 15D0     		beq	.L181
 571              	.L86:
 572 0486 0233     		adds	r3, r3, #2
 573 0488 AB42     		cmp	r3, r5
 574 048a F9D1     		bne	.L87
 575 048c 6168     		ldr	r1, [r4, #4]
 576 048e 0022     		movs	r2, #0
 577 0490 FFF7FEFF 		bl	screen_footer
 578 0494 2BE7     		b	.L65
 579              	.L180:
 580 0496 1A78     		ldrb	r2, [r3]	@ zero_extendqisi2
 581 0498 012A     		cmp	r2, #1
 582 049a C3D1     		bne	.L112
 583 049c 27E7     		b	.L65
 584              	.L173:
 585 049e 1978     		ldrb	r1, [r3]	@ zero_extendqisi2
 586 04a0 0129     		cmp	r1, #1
 587 04a2 7FF4F8AE 		bne	.L95
 588 04a6 22E7     		b	.L65
 589              	.L177:
 590 04a8 1A78     		ldrb	r2, [r3]	@ zero_extendqisi2
 591 04aa 012A     		cmp	r2, #1
 592 04ac 7FF46FAF 		bne	.L103
 593 04b0 1DE7     		b	.L65
 594              	.L181:
 595 04b2 1A78     		ldrb	r2, [r3]	@ zero_extendqisi2
 596 04b4 012A     		cmp	r2, #1
 597 04b6 E6D1     		bne	.L86
 598 04b8 19E7     		b	.L65
 599              	.L175:
 600 04ba 1A78     		ldrb	r2, [r3]	@ zero_extendqisi2
 601 04bc 012A     		cmp	r2, #1
 602 04be 7FF43CAF 		bne	.L81
 603 04c2 14E7     		b	.L65
 604              	.L89:
 605 04c4 FFF7FEFF 		bl	hardware_leds
 606 04c8 6B08     		lsrs	r3, r5, #1
 607 04ca 1A46     		mov	r2, r3
 608 04cc 0221     		movs	r1, #2
 609 04ce FFF7FEFF 		bl	ledz_blink
 610 04d2 ACE6     		b	.L90
 611              	.L179:
 612 04d4 012D     		cmp	r5, #1
 613 04d6 94BF     		ite	ls
 614 04d8 0021     		movls	r1, #0
 615 04da 0121     		movhi	r1, #1
 616 04dc 6BB2     		sxtb	r3, r5
 617              	.L107:
 618 04de 84F82030 		strb	r3, [r4, #32]
 619 04e2 7FB2     		sxtb	r7, r7
 620 04e4 96E7     		b	.L106
 621              	.L174:
 622 04e6 2846     		mov	r0, r5
 623 04e8 FFF7FEFF 		bl	hardware_leds
 624 04ec 0221     		movs	r1, #2
 625 04ee FFF7FEFF 		bl	ledz_off
 626 04f2 16E7     		b	.L80
 627              	.L176:
 628 04f4 2846     		mov	r0, r5
 629 04f6 FFF7FEFF 		bl	hardware_leds
 630 04fa 0121     		movs	r1, #1
 631 04fc FFF7FEFF 		bl	ledz_on
 632 0500 39E7     		b	.L102
 633              	.L92:
 634 0502 4046     		mov	r0, r8
 635 0504 E169     		ldr	r1, [r4, #28]	@ float
 636              	.L170:
 637 0506 FFF7FEFF 		bl	convert_to_ms
 638 050a FFF7FEFF 		bl	__aeabi_f2d
 639 050e 114B     		ldr	r3, .L184+4
 640 0510 0022     		movs	r2, #0
 641 0512 FFF7FEFF 		bl	__aeabi_dadd
 642 0516 FFF7FEFF 		bl	__aeabi_d2uiz
 643 051a 40F6B833 		movw	r3, #3000
 644 051e E578     		ldrb	r5, [r4, #3]	@ zero_extendqisi2
 645 0520 9842     		cmp	r0, r3
 646 0522 28BF     		it	cs
 647 0524 1846     		movcs	r0, r3
 648 0526 6F00     		lsls	r7, r5, #1
 649 0528 A4E6     		b	.L94
 650              	.L98:
 651 052a 6D46     		mov	r5, sp
 652 052c 0223     		movs	r3, #2
 653 052e 3046     		mov	r0, r6
 654 0530 2946     		mov	r1, r5
 655 0532 2022     		movs	r2, #32
 656 0534 FFF7FEFF 		bl	float_to_str
 657 0538 C3B2     		uxtb	r3, r0
 658 053a C7E6     		b	.L99
 659              	.L123:
 660 053c 3946     		mov	r1, r7
 661 053e 3D46     		mov	r5, r7
 662 0540 68E7     		b	.L106
 663              	.L178:
 664 0542 4946     		mov	r1, r9
 665 0544 4B46     		mov	r3, r9
 666 0546 4D46     		mov	r5, r9
 667 0548 C9E7     		b	.L107
 668              	.L172:
 669 054a 4946     		mov	r1, r9
 670 054c 4046     		mov	r0, r8
 671 054e DAE7     		b	.L170
 672              	.L185:
 673              		.align	2
 674              	.L184:
 675 0550 00000000 		.word	g_tool
 676 0554 0000E03F 		.word	1071644672
 678              		.align	1
 679              		.p2align 2,,3
 680              		.syntax unified
 681              		.thumb
 682              		.thumb_func
 683              		.fpu softvfp
 685              	parse_pedalboards_list:
 686              		@ args = 0, pretend = 0, frame = 0
 687              		@ frame_needed = 0, uses_anonymous_args = 0
 688 0558 70B5     		push	{r4, r5, r6, lr}
 689 055a 0546     		mov	r5, r0
 690 055c FFF7FEFF 		bl	strarr_length
 691 0560 084C     		ldr	r4, .L196
 692 0562 861E     		subs	r6, r0, #2
 693 0564 206C     		ldr	r0, [r4, #64]
 694 0566 28B1     		cbz	r0, .L187
 695 0568 2368     		ldr	r3, [r4]
 696 056a 0BB1     		cbz	r3, .L188
 697 056c 9842     		cmp	r0, r3
 698 056e 01D0     		beq	.L187
 699              	.L188:
 700 0570 FFF7FEFF 		bl	data_free_pedalboards_list
 701              	.L187:
 702 0574 3146     		mov	r1, r6
 703 0576 05F10800 		add	r0, r5, #8
 704 057a FFF7FEFF 		bl	data_parse_pedalboards_list
 705 057e 2064     		str	r0, [r4, #64]
 706 0580 70BD     		pop	{r4, r5, r6, pc}
 707              	.L197:
 708 0582 00BF     		.align	2
 709              	.L196:
 710 0584 00000000 		.word	.LANCHOR0
 712              		.align	1
 713              		.p2align 2,,3
 714              		.syntax unified
 715              		.thumb
 716              		.thumb_func
 717              		.fpu softvfp
 719              	display_disable_all_tools:
 720              		@ args = 0, pretend = 0, frame = 0
 721              		@ frame_needed = 0, uses_anonymous_args = 0
 722 0588 10B5     		push	{r4, lr}
 723 058a 0B4B     		ldr	r3, .L208
 724 058c 0446     		mov	r4, r0
 725 058e 9B78     		ldrb	r3, [r3, #2]	@ zero_extendqisi2
 726 0590 63B9     		cbnz	r3, .L207
 727              	.L199:
 728 0592 0020     		movs	r0, #0
 729 0594 084B     		ldr	r3, .L208
 730 0596 03F10A01 		add	r1, r3, #10
 731              	.L201:
 732 059a 5A78     		ldrb	r2, [r3, #1]	@ zero_extendqisi2
 733 059c 0233     		adds	r3, r3, #2
 734 059e A242     		cmp	r2, r4
 735 05a0 08BF     		it	eq
 736 05a2 03F8020C 		strbeq	r0, [r3, #-2]
 737 05a6 8B42     		cmp	r3, r1
 738 05a8 F7D1     		bne	.L201
 739 05aa 10BD     		pop	{r4, pc}
 740              	.L207:
 741 05ac 0921     		movs	r1, #9
 742 05ae 0348     		ldr	r0, .L208+4
 743 05b0 FFF7FEFF 		bl	comm_webgui_send
 744 05b4 EDE7     		b	.L199
 745              	.L209:
 746 05b6 00BF     		.align	2
 747              	.L208:
 748 05b8 00000000 		.word	g_tool
 749 05bc 28000000 		.word	.LC10
 751              		.global	__aeabi_fdiv
 752              		.global	__aeabi_fsub
 753              		.global	__aeabi_fmul
 754              		.global	__aeabi_fadd
 755              		.global	__aeabi_dmul
 756              		.global	__aeabi_d2f
 757              		.global	__aeabi_fcmpgt
 758              		.align	1
 759              		.p2align 2,,3
 760              		.syntax unified
 761              		.thumb
 762              		.thumb_func
 763              		.fpu softvfp
 765              	step_to_value:
 766              		@ args = 0, pretend = 0, frame = 0
 767              		@ frame_needed = 0, uses_anonymous_args = 0
 768 05c0 2DE9F843 		push	{r3, r4, r5, r6, r7, r8, r9, lr}
 769 05c4 90F92050 		ldrsb	r5, [r0, #32]
 770 05c8 0446     		mov	r4, r0
 771 05ca 2846     		mov	r0, r5
 772 05cc FFF7FEFF 		bl	__aeabi_i2f
 773 05d0 0646     		mov	r6, r0
 774 05d2 94F92100 		ldrsb	r0, [r4, #33]
 775 05d6 0138     		subs	r0, r0, #1
 776 05d8 FFF7FEFF 		bl	__aeabi_i2f
 777 05dc 0146     		mov	r1, r0
 778 05de 3046     		mov	r0, r6
 779 05e0 FFF7FEFF 		bl	__aeabi_fdiv
 780 05e4 A37C     		ldrb	r3, [r4, #18]	@ zero_extendqisi2
 781 05e6 A669     		ldr	r6, [r4, #24]	@ float
 782 05e8 082B     		cmp	r3, #8
 783 05ea E769     		ldr	r7, [r4, #28]	@ float
 784 05ec 44D0     		beq	.L212
 785 05ee 8046     		mov	r8, r0
 786 05f0 3CD9     		bls	.L236
 787 05f2 402B     		cmp	r3, #64
 788 05f4 2BD1     		bne	.L237
 789 05f6 FFF7FEFF 		bl	__aeabi_f2d
 790 05fa 8046     		mov	r8, r0
 791 05fc 8946     		mov	r9, r1
 792 05fe 3846     		mov	r0, r7
 793 0600 3146     		mov	r1, r6
 794 0602 FFF7FEFF 		bl	__aeabi_fdiv
 795 0606 FFF7FEFF 		bl	__aeabi_f2d
 796 060a 4246     		mov	r2, r8
 797 060c 4B46     		mov	r3, r9
 798 060e FFF7FEFF 		bl	pow
 799 0612 8046     		mov	r8, r0
 800 0614 8946     		mov	r9, r1
 801 0616 3046     		mov	r0, r6
 802 0618 FFF7FEFF 		bl	__aeabi_f2d
 803 061c 4246     		mov	r2, r8
 804 061e 4B46     		mov	r3, r9
 805 0620 FFF7FEFF 		bl	__aeabi_dmul
 806 0624 FFF7FEFF 		bl	__aeabi_d2f
 807 0628 0546     		mov	r5, r0
 808 062a E769     		ldr	r7, [r4, #28]	@ float
 809 062c A669     		ldr	r6, [r4, #24]	@ float
 810 062e 6061     		str	r0, [r4, #20]	@ float
 811              	.L216:
 812 0630 3946     		mov	r1, r7
 813 0632 2846     		mov	r0, r5
 814 0634 FFF7FEFF 		bl	__aeabi_fcmpgt
 815 0638 08B1     		cbz	r0, .L217
 816 063a 3D46     		mov	r5, r7
 817 063c 6761     		str	r7, [r4, #20]	@ float
 818              	.L217:
 819 063e 2946     		mov	r1, r5
 820 0640 3046     		mov	r0, r6
 821 0642 FFF7FEFF 		bl	__aeabi_fcmpgt
 822 0646 00B1     		cbz	r0, .L210
 823 0648 6661     		str	r6, [r4, #20]	@ float
 824              	.L210:
 825 064a BDE8F883 		pop	{r3, r4, r5, r6, r7, r8, r9, pc}
 826              	.L237:
 827 064e 802B     		cmp	r3, #128
 828 0650 10D1     		bne	.L211
 829              	.L214:
 830 0652 3146     		mov	r1, r6
 831 0654 3846     		mov	r0, r7
 832 0656 FFF7FEFF 		bl	__aeabi_fsub
 833 065a 4146     		mov	r1, r8
 834 065c FFF7FEFF 		bl	__aeabi_fmul
 835 0660 3146     		mov	r1, r6
 836 0662 FFF7FEFF 		bl	__aeabi_fadd
 837 0666 0546     		mov	r5, r0
 838 0668 6061     		str	r0, [r4, #20]	@ float
 839 066a E1E7     		b	.L216
 840              	.L236:
 841 066c 002B     		cmp	r3, #0
 842 066e F0D0     		beq	.L214
 843 0670 042B     		cmp	r3, #4
 844 0672 01D0     		beq	.L212
 845              	.L211:
 846 0674 6569     		ldr	r5, [r4, #20]	@ float
 847 0676 DBE7     		b	.L216
 848              	.L212:
 849 0678 A36A     		ldr	r3, [r4, #40]
 850 067a 53F82530 		ldr	r3, [r3, r5, lsl #2]
 851 067e 93F90400 		ldrsb	r0, [r3, #4]
 852 0682 FFF7FEFF 		bl	__aeabi_i2f
 853 0686 0546     		mov	r5, r0
 854 0688 6061     		str	r0, [r4, #20]	@ float
 855 068a D1E7     		b	.L216
 857              		.align	1
 858              		.p2align 2,,3
 859              		.syntax unified
 860              		.thumb
 861              		.thumb_func
 862              		.fpu softvfp
 864              	send_load_pedalboard:
 865              		@ args = 0, pretend = 0, frame = 128
 866              		@ frame_needed = 0, uses_anonymous_args = 0
 867 068c 70B5     		push	{r4, r5, r6, lr}
 868 068e A0B0     		sub	sp, sp, #128
 869 0690 0646     		mov	r6, r0
 870 0692 0C46     		mov	r4, r1
 871 0694 6846     		mov	r0, sp
 872 0696 1749     		ldr	r1, .L244
 873 0698 FFF7FEFF 		bl	copy_command
 874 069c 0023     		movs	r3, #0
 875 069e 0546     		mov	r5, r0
 876 06a0 0DEB0001 		add	r1, sp, r0
 877 06a4 0822     		movs	r2, #8
 878 06a6 3046     		mov	r0, r6
 879 06a8 FFF7FEFF 		bl	int_to_str
 880 06ac 2021     		movs	r1, #32
 881 06ae 2844     		add	r0, r0, r5
 882 06b0 C0B2     		uxtb	r0, r0
 883 06b2 20AD     		add	r5, sp, #128
 884 06b4 2278     		ldrb	r2, [r4]	@ zero_extendqisi2
 885 06b6 431C     		adds	r3, r0, #1
 886 06b8 2844     		add	r0, r0, r5
 887 06ba DBB2     		uxtb	r3, r3
 888 06bc 00F8801C 		strb	r1, [r0, #-128]
 889 06c0 AAB1     		cbz	r2, .L241
 890              	.L240:
 891 06c2 20A9     		add	r1, sp, #128
 892 06c4 1944     		add	r1, r1, r3
 893 06c6 01F8802C 		strb	r2, [r1, #-128]
 894 06ca 0133     		adds	r3, r3, #1
 895 06cc 14F8012F 		ldrb	r2, [r4, #1]!	@ zero_extendqisi2
 896 06d0 D9B2     		uxtb	r1, r3
 897 06d2 0B46     		mov	r3, r1
 898 06d4 002A     		cmp	r2, #0
 899 06d6 F4D1     		bne	.L240
 900              	.L239:
 901 06d8 0022     		movs	r2, #0
 902 06da 20AB     		add	r3, sp, #128
 903 06dc 0B44     		add	r3, r3, r1
 904 06de 1046     		mov	r0, r2
 905 06e0 1146     		mov	r1, r2
 906 06e2 03F8802C 		strb	r2, [r3, #-128]
 907 06e6 FFF7FEFF 		bl	comm_webgui_set_response_cb
 908 06ea 20B0     		add	sp, sp, #128
 909              		@ sp needed
 910 06ec 70BD     		pop	{r4, r5, r6, pc}
 911              	.L241:
 912 06ee 1946     		mov	r1, r3
 913 06f0 F2E7     		b	.L239
 914              	.L245:
 915 06f2 00BF     		.align	2
 916              	.L244:
 917 06f4 34000000 		.word	.LC11
 919              		.global	__aeabi_fcmplt
 920              		.global	__aeabi_ui2f
 921              		.align	1
 922              		.p2align 2,,3
 923              		.syntax unified
 924              		.thumb
 925              		.thumb_func
 926              		.fpu softvfp
 928              	control_set:
 929              		@ args = 0, pretend = 0, frame = 128
 930              		@ frame_needed = 0, uses_anonymous_args = 0
 931 06f8 F0B5     		push	{r4, r5, r6, r7, lr}
 932 06fa 8B7C     		ldrb	r3, [r1, #18]	@ zero_extendqisi2
 933 06fc A1B0     		sub	sp, sp, #132
 934 06fe 082B     		cmp	r3, #8
 935 0700 0F46     		mov	r7, r1
 936 0702 0446     		mov	r4, r0
 937 0704 00F09C80 		beq	.L248
 938 0708 50D8     		bhi	.L249
 939 070a 012B     		cmp	r3, #1
 940 070c 00F0E380 		beq	.L250
 941 0710 C0F0CA80 		bcc	.L251
 942 0714 022B     		cmp	r3, #2
 943 0716 40F09180 		bne	.L322
 944 071a FFF7FEFF 		bl	hardware_timestamp
 945 071e FB78     		ldrb	r3, [r7, #3]	@ zero_extendqisi2
 946 0720 8F4A     		ldr	r2, .L331
 947 0722 03EB4303 		add	r3, r3, r3, lsl #1
 948 0726 9B00     		lsls	r3, r3, #2
 949 0728 D118     		adds	r1, r2, r3
 950 072a 0D7A     		ldrb	r5, [r1, #8]	@ zero_extendqisi2
 951 072c D458     		ldr	r4, [r2, r3]
 952 072e 012D     		cmp	r5, #1
 953 0730 D050     		str	r0, [r2, r3]
 954 0732 47D1     		bne	.L247
 955 0734 4B68     		ldr	r3, [r1, #4]
 956 0736 041B     		subs	r4, r0, r4
 957 0738 A342     		cmp	r3, r4
 958 073a C0F0FB80 		bcc	.L323
 959              	.L274:
 960 073e 7969     		ldr	r1, [r7, #20]	@ float
 961 0740 F868     		ldr	r0, [r7, #12]
 962 0742 FFF7FEFF 		bl	convert_to_ms
 963 0746 0546     		mov	r5, r0
 964 0748 2046     		mov	r0, r4
 965 074a FFF7FEFF 		bl	__aeabi_ui2f
 966 074e 0146     		mov	r1, r0
 967 0750 0446     		mov	r4, r0
 968 0752 2846     		mov	r0, r5
 969 0754 FFF7FEFF 		bl	__aeabi_fsub
 970 0758 FFF7FEFF 		bl	__aeabi_f2iz
 971 075c 6330     		adds	r0, r0, #99
 972 075e C628     		cmp	r0, #198
 973 0760 00F2F780 		bhi	.L324
 974 0764 7969     		ldr	r1, [r7, #20]	@ float
 975 0766 0846     		mov	r0, r1
 976 0768 FFF7FEFF 		bl	__aeabi_fadd
 977 076c 2146     		mov	r1, r4
 978 076e 0546     		mov	r5, r0
 979 0770 F868     		ldr	r0, [r7, #12]
 980 0772 FFF7FEFF 		bl	convert_from_ms
 981 0776 0146     		mov	r1, r0
 982 0778 2846     		mov	r0, r5
 983 077a FFF7FEFF 		bl	__aeabi_fadd
 984 077e 7949     		ldr	r1, .L331+4
 985 0780 FFF7FEFF 		bl	__aeabi_fdiv
 986 0784 0446     		mov	r4, r0
 987 0786 7861     		str	r0, [r7, #20]	@ float
 988              	.L275:
 989 0788 FD69     		ldr	r5, [r7, #28]	@ float
 990 078a 2146     		mov	r1, r4
 991 078c 2846     		mov	r0, r5
 992 078e FFF7FEFF 		bl	__aeabi_fcmplt
 993 0792 08B1     		cbz	r0, .L276
 994 0794 2C46     		mov	r4, r5
 995 0796 7D61     		str	r5, [r7, #20]	@ float
 996              	.L276:
 997 0798 BD69     		ldr	r5, [r7, #24]	@ float
 998 079a 2146     		mov	r1, r4
 999 079c 2846     		mov	r0, r5
 1000 079e FFF7FEFF 		bl	__aeabi_fcmpgt
 1001 07a2 0028     		cmp	r0, #0
 1002 07a4 00F09E80 		beq	.L273
 1003 07a8 7D61     		str	r5, [r7, #20]	@ float
 1004 07aa 9BE0     		b	.L273
 1005              	.L249:
 1006 07ac 202B     		cmp	r3, #32
 1007 07ae 00F09280 		beq	.L250
 1008 07b2 75D8     		bhi	.L253
 1009 07b4 102B     		cmp	r3, #16
 1010 07b6 05D1     		bne	.L247
 1011 07b8 4FF07E53 		mov	r3, #1065353216
 1012 07bc 0846     		mov	r0, r1
 1013 07be 4B61     		str	r3, [r1, #20]	@ float
 1014 07c0 FFF7D2FC 		bl	foot_control_add
 1015              	.L247:
 1016 07c4 6846     		mov	r0, sp
 1017 07c6 6849     		ldr	r1, .L331+8
 1018 07c8 FFF7FEFF 		bl	copy_command
 1019 07cc 0023     		movs	r3, #0
 1020 07ce C0F18002 		rsb	r2, r0, #128
 1021 07d2 0DEB0001 		add	r1, sp, r0
 1022 07d6 0446     		mov	r4, r0
 1023 07d8 97F91000 		ldrsb	r0, [r7, #16]
 1024 07dc FFF7FEFF 		bl	int_to_str
 1025 07e0 2026     		movs	r6, #32
 1026 07e2 2044     		add	r0, r0, r4
 1027 07e4 C0B2     		uxtb	r0, r0
 1028 07e6 BD68     		ldr	r5, [r7, #8]
 1029 07e8 441C     		adds	r4, r0, #1
 1030 07ea E4B2     		uxtb	r4, r4
 1031 07ec 20AB     		add	r3, sp, #128
 1032 07ee 0344     		add	r3, r3, r0
 1033 07f0 2946     		mov	r1, r5
 1034 07f2 0DEB0400 		add	r0, sp, r4
 1035 07f6 03F8806C 		strb	r6, [r3, #-128]
 1036 07fa FFF7FEFF 		bl	strcpy
 1037 07fe 2846     		mov	r0, r5
 1038 0800 FFF7FEFF 		bl	strlen
 1039 0804 0444     		add	r4, r4, r0
 1040 0806 E4B2     		uxtb	r4, r4
 1041 0808 651C     		adds	r5, r4, #1
 1042 080a EDB2     		uxtb	r5, r5
 1043 080c 20AB     		add	r3, sp, #128
 1044 080e 1C44     		add	r4, r4, r3
 1045 0810 C5F18002 		rsb	r2, r5, #128
 1046 0814 0DEB0501 		add	r1, sp, r5
 1047 0818 7869     		ldr	r0, [r7, #20]	@ float
 1048 081a 0323     		movs	r3, #3
 1049 081c 04F8806C 		strb	r6, [r4, #-128]
 1050 0820 FFF7FEFF 		bl	float_to_str
 1051 0824 0022     		movs	r2, #0
 1052 0826 2844     		add	r0, r0, r5
 1053 0828 C1B2     		uxtb	r1, r0
 1054 082a 20AB     		add	r3, sp, #128
 1055 082c 0B44     		add	r3, r3, r1
 1056 082e 6846     		mov	r0, sp
 1057 0830 03F8802C 		strb	r2, [r3, #-128]
 1058 0834 FFF7FEFF 		bl	comm_webgui_send
 1059 0838 21B0     		add	sp, sp, #132
 1060              		@ sp needed
 1061 083a F0BD     		pop	{r4, r5, r6, r7, pc}
 1062              	.L322:
 1063 083c 042B     		cmp	r3, #4
 1064 083e C1D1     		bne	.L247
 1065              	.L248:
 1066 0840 BB78     		ldrb	r3, [r7, #2]	@ zero_extendqisi2
 1067 0842 022B     		cmp	r3, #2
 1068 0844 68D0     		beq	.L325
 1069 0846 012B     		cmp	r3, #1
 1070 0848 BCD1     		bne	.L247
 1071 084a 97F82030 		ldrb	r3, [r7, #32]	@ zero_extendqisi2
 1072 084e 97F82420 		ldrb	r2, [r7, #36]	@ zero_extendqisi2
 1073 0852 0133     		adds	r3, r3, #1
 1074 0854 5BB2     		sxtb	r3, r3
 1075 0856 9342     		cmp	r3, r2
 1076 0858 A8BF     		it	ge
 1077 085a 0022     		movge	r2, #0
 1078 085c 87F82030 		strb	r3, [r7, #32]
 1079 0860 A4BF     		itt	ge
 1080 0862 1346     		movge	r3, r2
 1081 0864 87F82020 		strbge	r2, [r7, #32]
 1082 0868 BA6A     		ldr	r2, [r7, #40]
 1083 086a B8BF     		it	lt
 1084 086c 9B00     		lsllt	r3, r3, #2
 1085 086e D558     		ldr	r5, [r2, r3]
 1086 0870 95F90400 		ldrsb	r0, [r5, #4]
 1087 0874 FFF7FEFF 		bl	__aeabi_i2f
 1088 0878 012C     		cmp	r4, #1
 1089 087a 94BF     		ite	ls
 1090 087c 0024     		movls	r4, #0
 1091 087e 0124     		movhi	r4, #1
 1092 0880 3A4B     		ldr	r3, .L331+12
 1093 0882 7861     		str	r0, [r7, #20]	@ float
 1094 0884 03F10A01 		add	r1, r3, #10
 1095              	.L269:
 1096 0888 5A78     		ldrb	r2, [r3, #1]	@ zero_extendqisi2
 1097 088a A242     		cmp	r2, r4
 1098 088c 59D0     		beq	.L326
 1099              	.L268:
 1100 088e 0233     		adds	r3, r3, #2
 1101 0890 9942     		cmp	r1, r3
 1102 0892 F9D1     		bne	.L269
 1103 0894 2A68     		ldr	r2, [r5]
 1104 0896 7968     		ldr	r1, [r7, #4]
 1105 0898 F878     		ldrb	r0, [r7, #3]	@ zero_extendqisi2
 1106 089a FFF7FEFF 		bl	screen_footer
 1107 089e 91E7     		b	.L247
 1108              	.L253:
 1109 08a0 402B     		cmp	r3, #64
 1110 08a2 01D0     		beq	.L251
 1111 08a4 802B     		cmp	r3, #128
 1112 08a6 8DD1     		bne	.L247
 1113              	.L251:
 1114 08a8 BB78     		ldrb	r3, [r7, #2]	@ zero_extendqisi2
 1115 08aa 022B     		cmp	r3, #2
 1116 08ac 22D0     		beq	.L327
 1117 08ae 032B     		cmp	r3, #3
 1118 08b0 88D1     		bne	.L247
 1119 08b2 032C     		cmp	r4, #3
 1120 08b4 94BF     		ite	ls
 1121 08b6 0021     		movls	r1, #0
 1122 08b8 0121     		movhi	r1, #1
 1123 08ba 2C4B     		ldr	r3, .L331+12
 1124 08bc 03F10A00 		add	r0, r3, #10
 1125              	.L261:
 1126 08c0 5A78     		ldrb	r2, [r3, #1]	@ zero_extendqisi2
 1127 08c2 8A42     		cmp	r2, r1
 1128 08c4 41D0     		beq	.L328
 1129              	.L260:
 1130 08c6 0233     		adds	r3, r3, #2
 1131 08c8 8342     		cmp	r3, r0
 1132 08ca F9D1     		bne	.L261
 1133 08cc 2046     		mov	r0, r4
 1134 08ce 3946     		mov	r1, r7
 1135 08d0 FFF7FEFF 		bl	screen_pot
 1136 08d4 76E7     		b	.L247
 1137              	.L250:
 1138 08d6 0024     		movs	r4, #0
 1139 08d8 7869     		ldr	r0, [r7, #20]	@ float
 1140 08da 2146     		mov	r1, r4
 1141 08dc FFF7FEFF 		bl	__aeabi_fcmpgt
 1142 08e0 20B1     		cbz	r0, .L318
 1143 08e2 7C61     		str	r4, [r7, #20]	@ float
 1144              	.L273:
 1145 08e4 3846     		mov	r0, r7
 1146 08e6 FFF73FFC 		bl	foot_control_add
 1147 08ea 6BE7     		b	.L247
 1148              	.L318:
 1149 08ec 4FF07E53 		mov	r3, #1065353216
 1150 08f0 7B61     		str	r3, [r7, #20]	@ float
 1151 08f2 F7E7     		b	.L273
 1152              	.L327:
 1153 08f4 1D4B     		ldr	r3, .L331+12
 1154 08f6 03F10A01 		add	r1, r3, #10
 1155              	.L257:
 1156 08fa 5A78     		ldrb	r2, [r3, #1]	@ zero_extendqisi2
 1157 08fc A242     		cmp	r2, r4
 1158 08fe 07D0     		beq	.L329
 1159              	.L256:
 1160 0900 0233     		adds	r3, r3, #2
 1161 0902 8B42     		cmp	r3, r1
 1162 0904 F9D1     		bne	.L257
 1163              	.L258:
 1164 0906 2046     		mov	r0, r4
 1165 0908 3946     		mov	r1, r7
 1166 090a FFF7FEFF 		bl	screen_encoder
 1167 090e 59E7     		b	.L247
 1168              	.L329:
 1169 0910 1A78     		ldrb	r2, [r3]	@ zero_extendqisi2
 1170 0912 012A     		cmp	r2, #1
 1171 0914 F4D1     		bne	.L256
 1172 0916 55E7     		b	.L247
 1173              	.L325:
 1174 0918 144B     		ldr	r3, .L331+12
 1175 091a 03F10A01 		add	r1, r3, #10
 1176              	.L265:
 1177 091e 5A78     		ldrb	r2, [r3, #1]	@ zero_extendqisi2
 1178 0920 A242     		cmp	r2, r4
 1179 0922 03D0     		beq	.L330
 1180              	.L264:
 1181 0924 0233     		adds	r3, r3, #2
 1182 0926 9942     		cmp	r1, r3
 1183 0928 F9D1     		bne	.L265
 1184 092a ECE7     		b	.L258
 1185              	.L330:
 1186 092c 1A78     		ldrb	r2, [r3]	@ zero_extendqisi2
 1187 092e 012A     		cmp	r2, #1
 1188 0930 F8D1     		bne	.L264
 1189 0932 47E7     		b	.L247
 1190              	.L323:
 1191 0934 A4F13200 		sub	r0, r4, #50
 1192 0938 8342     		cmp	r3, r0
 1193 093a 7FF643AF 		bls	.L247
 1194 093e 1C46     		mov	r4, r3
 1195 0940 FDE6     		b	.L274
 1196              	.L326:
 1197 0942 1A78     		ldrb	r2, [r3]	@ zero_extendqisi2
 1198 0944 012A     		cmp	r2, #1
 1199 0946 A2D1     		bne	.L268
 1200 0948 3CE7     		b	.L247
 1201              	.L328:
 1202 094a 1A78     		ldrb	r2, [r3]	@ zero_extendqisi2
 1203 094c 012A     		cmp	r2, #1
 1204 094e BAD1     		bne	.L260
 1205 0950 38E7     		b	.L247
 1206              	.L324:
 1207 0952 2146     		mov	r1, r4
 1208 0954 F868     		ldr	r0, [r7, #12]
 1209 0956 FFF7FEFF 		bl	convert_from_ms
 1210 095a 0446     		mov	r4, r0
 1211 095c 7861     		str	r0, [r7, #20]	@ float
 1212 095e 13E7     		b	.L275
 1213              	.L332:
 1214              		.align	2
 1215              	.L331:
 1216 0960 00000000 		.word	g_tap_tempo
 1217 0964 00004040 		.word	1077936128
 1218 0968 48000000 		.word	.LC12
 1219 096c 00000000 		.word	g_tool
 1221              		.align	1
 1222              		.p2align 2,,3
 1223              		.syntax unified
 1224              		.thumb
 1225              		.thumb_func
 1226              		.fpu softvfp
 1228              	parse_banks_list:
 1229              		@ args = 0, pretend = 0, frame = 0
 1230              		@ frame_needed = 0, uses_anonymous_args = 0
 1231 0970 70B5     		push	{r4, r5, r6, lr}
 1232 0972 0546     		mov	r5, r0
 1233 0974 FFF7FEFF 		bl	strarr_length
 1234 0978 084C     		ldr	r4, .L343
 1235 097a 861E     		subs	r6, r0, #2
 1236 097c 606C     		ldr	r0, [r4, #68]
 1237 097e 08B1     		cbz	r0, .L334
 1238 0980 FFF7FEFF 		bl	data_free_banks_list
 1239              	.L334:
 1240 0984 3146     		mov	r1, r6
 1241 0986 05F10800 		add	r0, r5, #8
 1242 098a FFF7FEFF 		bl	data_parse_banks_list
 1243 098e 6064     		str	r0, [r4, #68]
 1244 0990 10B1     		cbz	r0, .L333
 1245 0992 94F84830 		ldrb	r3, [r4, #72]	@ zero_extendqisi2
 1246 0996 8372     		strb	r3, [r0, #10]
 1247              	.L333:
 1248 0998 70BD     		pop	{r4, r5, r6, pc}
 1249              	.L344:
 1250 099a 00BF     		.align	2
 1251              	.L343:
 1252 099c 00000000 		.word	.LANCHOR0
 1254              		.align	1
 1255              		.p2align 2,,3
 1256              		.syntax unified
 1257              		.thumb
 1258              		.thumb_func
 1259              		.fpu softvfp
 1261              	menu_up:
 1262              		@ args = 0, pretend = 0, frame = 0
 1263              		@ frame_needed = 0, uses_anonymous_args = 0
 1264 09a0 38B5     		push	{r3, r4, r5, lr}
 1265 09a2 164B     		ldr	r3, .L362
 1266 09a4 88B1     		cbz	r0, .L346
 1267 09a6 DC6C     		ldr	r4, [r3, #76]
 1268 09a8 6268     		ldr	r2, [r4, #4]
 1269 09aa 1379     		ldrb	r3, [r2, #4]	@ zero_extendqisi2
 1270 09ac 093B     		subs	r3, r3, #9
 1271 09ae 012B     		cmp	r3, #1
 1272 09b0 11D9     		bls	.L360
 1273              	.L348:
 1274 09b2 A37B     		ldrb	r3, [r4, #14]	@ zero_extendqisi2
 1275 09b4 FBB9     		cbnz	r3, .L361
 1276              	.L350:
 1277 09b6 D368     		ldr	r3, [r2, #12]
 1278 09b8 13B1     		cbz	r3, .L351
 1279 09ba 0121     		movs	r1, #1
 1280 09bc 2046     		mov	r0, r4
 1281 09be 9847     		blx	r3
 1282              	.L351:
 1283 09c0 2046     		mov	r0, r4
 1284 09c2 BDE83840 		pop	{r3, r4, r5, lr}
 1285 09c6 FFF7FEBF 		b	screen_system_menu
 1286              	.L346:
 1287 09ca 1C6D     		ldr	r4, [r3, #80]
 1288 09cc 6268     		ldr	r2, [r4, #4]
 1289 09ce 1379     		ldrb	r3, [r2, #4]	@ zero_extendqisi2
 1290 09d0 093B     		subs	r3, r3, #9
 1291 09d2 012B     		cmp	r3, #1
 1292 09d4 EDD8     		bhi	.L348
 1293              	.L360:
 1294 09d6 B4F91E50 		ldrsh	r5, [r4, #30]
 1295 09da FFF7FEFF 		bl	hardware_get_acceleration
 1296 09de A28B     		ldrh	r2, [r4, #28]
 1297 09e0 B4F91830 		ldrsh	r3, [r4, #24]
 1298 09e4 05FB1020 		mls	r0, r5, r0, r2
 1299 09e8 00B2     		sxth	r0, r0
 1300 09ea 9842     		cmp	r0, r3
 1301 09ec A083     		strh	r0, [r4, #28]	@ movhi
 1302 09ee 6268     		ldr	r2, [r4, #4]
 1303 09f0 B8BF     		it	lt
 1304 09f2 A383     		strhlt	r3, [r4, #28]	@ movhi
 1305 09f4 DFE7     		b	.L350
 1306              	.L361:
 1307 09f6 013B     		subs	r3, r3, #1
 1308 09f8 A373     		strb	r3, [r4, #14]
 1309 09fa DCE7     		b	.L350
 1310              	.L363:
 1311              		.align	2
 1312              	.L362:
 1313 09fc 00000000 		.word	.LANCHOR0
 1315              		.align	1
 1316              		.p2align 2,,3
 1317              		.syntax unified
 1318              		.thumb
 1319              		.thumb_func
 1320              		.fpu softvfp
 1322              	menu_down:
 1323              		@ args = 0, pretend = 0, frame = 0
 1324              		@ frame_needed = 0, uses_anonymous_args = 0
 1325 0a00 38B5     		push	{r3, r4, r5, lr}
 1326 0a02 174B     		ldr	r3, .L377
 1327 0a04 B0B1     		cbz	r0, .L365
 1328 0a06 DC6C     		ldr	r4, [r3, #76]
 1329 0a08 6268     		ldr	r2, [r4, #4]
 1330 0a0a 1379     		ldrb	r3, [r2, #4]	@ zero_extendqisi2
 1331 0a0c 093B     		subs	r3, r3, #9
 1332 0a0e 012B     		cmp	r3, #1
 1333 0a10 16D9     		bls	.L376
 1334              	.L367:
 1335 0a12 237B     		ldrb	r3, [r4, #12]	@ zero_extendqisi2
 1336 0a14 A17B     		ldrb	r1, [r4, #14]	@ zero_extendqisi2
 1337 0a16 013B     		subs	r3, r3, #1
 1338 0a18 9942     		cmp	r1, r3
 1339 0a1a BCBF     		itt	lt
 1340 0a1c 0131     		addlt	r1, r1, #1
 1341 0a1e A173     		strblt	r1, [r4, #14]
 1342              	.L369:
 1343 0a20 D368     		ldr	r3, [r2, #12]
 1344 0a22 13B1     		cbz	r3, .L370
 1345 0a24 0221     		movs	r1, #2
 1346 0a26 2046     		mov	r0, r4
 1347 0a28 9847     		blx	r3
 1348              	.L370:
 1349 0a2a 2046     		mov	r0, r4
 1350 0a2c BDE83840 		pop	{r3, r4, r5, lr}
 1351 0a30 FFF7FEBF 		b	screen_system_menu
 1352              	.L365:
 1353 0a34 1C6D     		ldr	r4, [r3, #80]
 1354 0a36 6268     		ldr	r2, [r4, #4]
 1355 0a38 1379     		ldrb	r3, [r2, #4]	@ zero_extendqisi2
 1356 0a3a 093B     		subs	r3, r3, #9
 1357 0a3c 012B     		cmp	r3, #1
 1358 0a3e E8D8     		bhi	.L367
 1359              	.L376:
 1360 0a40 B4F91E50 		ldrsh	r5, [r4, #30]
 1361 0a44 FFF7FEFF 		bl	hardware_get_acceleration
 1362 0a48 A28B     		ldrh	r2, [r4, #28]
 1363 0a4a B4F91A30 		ldrsh	r3, [r4, #26]
 1364 0a4e 05FB0020 		mla	r0, r5, r0, r2
 1365 0a52 00B2     		sxth	r0, r0
 1366 0a54 9842     		cmp	r0, r3
 1367 0a56 A083     		strh	r0, [r4, #28]	@ movhi
 1368 0a58 6268     		ldr	r2, [r4, #4]
 1369 0a5a C8BF     		it	gt
 1370 0a5c A383     		strhgt	r3, [r4, #28]	@ movhi
 1371 0a5e DFE7     		b	.L369
 1372              	.L378:
 1373              		.align	2
 1374              	.L377:
 1375 0a60 00000000 		.word	.LANCHOR0
 1377              		.align	1
 1378              		.p2align 2,,3
 1379              		.syntax unified
 1380              		.thumb
 1381              		.thumb_func
 1382              		.fpu softvfp
 1384              	reset_menu_hover.isra.0:
 1385              		@ args = 0, pretend = 0, frame = 0
 1386              		@ frame_needed = 0, uses_anonymous_args = 0
 1387 0a64 80B1     		cbz	r0, .L388
 1388 0a66 38B5     		push	{r3, r4, r5, lr}
 1389 0a68 0446     		mov	r4, r0
 1390 0a6a 0025     		movs	r5, #0
 1391              	.L382:
 1392 0a6c 2268     		ldr	r2, [r4]
 1393 0a6e 5368     		ldr	r3, [r2, #4]
 1394 0a70 1B79     		ldrb	r3, [r3, #4]	@ zero_extendqisi2
 1395 0a72 023B     		subs	r3, r3, #2
 1396 0a74 012B     		cmp	r3, #1
 1397 0a76 98BF     		it	ls
 1398 0a78 9573     		strbls	r5, [r2, #14]
 1399 0a7a A068     		ldr	r0, [r4, #8]
 1400 0a7c FFF7F2FF 		bl	reset_menu_hover.isra.0
 1401 0a80 6469     		ldr	r4, [r4, #20]
 1402 0a82 002C     		cmp	r4, #0
 1403 0a84 F2D1     		bne	.L382
 1404 0a86 38BD     		pop	{r3, r4, r5, pc}
 1405              	.L388:
 1406 0a88 7047     		bx	lr
 1408              		.align	1
 1409 0a8a 00BF     		.p2align 2,,3
 1410              		.syntax unified
 1411              		.thumb
 1412              		.thumb_func
 1413              		.fpu softvfp
 1415              	create_menu_tree.isra.1:
 1416              		@ args = 0, pretend = 0, frame = 0
 1417              		@ frame_needed = 0, uses_anonymous_args = 0
 1418 0a8c 2DE9F84F 		push	{r3, r4, r5, r6, r7, r8, r9, r10, fp, lr}
 1419 0a90 224E     		ldr	r6, .L403
 1420 0a92 3368     		ldr	r3, [r6]
 1421 0a94 BBB1     		cbz	r3, .L391
 1422 0a96 0024     		movs	r4, #0
 1423 0a98 8B46     		mov	fp, r1
 1424 0a9a 8046     		mov	r8, r0
 1425 0a9c 4FF47F4A 		mov	r10, #65280
 1426 0aa0 2346     		mov	r3, r4
 1427              	.L396:
 1428 0aa2 03EB8305 		add	r5, r3, r3, lsl #2
 1429 0aa6 06EB8507 		add	r7, r6, r5, lsl #2
 1430 0aaa 3B89     		ldrh	r3, [r7, #8]
 1431 0aac BBF80020 		ldrh	r2, [fp]
 1432 0ab0 9A42     		cmp	r2, r3
 1433 0ab2 0AD0     		beq	.L402
 1434              	.L394:
 1435 0ab4 0134     		adds	r4, r4, #1
 1436 0ab6 E4B2     		uxtb	r4, r4
 1437 0ab8 04EB8403 		add	r3, r4, r4, lsl #2
 1438 0abc 56F82320 		ldr	r2, [r6, r3, lsl #2]
 1439 0ac0 2346     		mov	r3, r4
 1440 0ac2 002A     		cmp	r2, #0
 1441 0ac4 EDD1     		bne	.L396
 1442              	.L391:
 1443 0ac6 BDE8F88F 		pop	{r3, r4, r5, r6, r7, r8, r9, r10, fp, pc}
 1444              	.L402:
 1445 0aca 2020     		movs	r0, #32
 1446 0acc FFF7FEFF 		bl	pvPortMalloc
 1447 0ad0 0022     		movs	r2, #0
 1448 0ad2 8146     		mov	r9, r0
 1449 0ad4 124B     		ldr	r3, .L403+4
 1450 0ad6 89F80E20 		strb	r2, [r9, #14]
 1451 0ada 93F85400 		ldrb	r0, [r3, #84]	@ zero_extendqisi2
 1452 0ade A9F80CA0 		strh	r10, [r9, #12]	@ movhi
 1453 0ae2 8000     		lsls	r0, r0, #2
 1454 0ae4 FFF7FEFF 		bl	pvPortMalloc
 1455 0ae8 C9E90170 		strd	r7, r0, [r9, #4]
 1456 0aec 2020     		movs	r0, #32
 1457 0aee FFF7FEFF 		bl	pvPortMalloc
 1458 0af2 56F82510 		ldr	r1, [r6, r5, lsl #2]
 1459 0af6 C9F80000 		str	r0, [r9]
 1460 0afa FFF7FEFF 		bl	strcpy
 1461 0afe 4946     		mov	r1, r9
 1462 0b00 4046     		mov	r0, r8
 1463 0b02 FFF7FEFF 		bl	node_child
 1464 0b06 D9F80430 		ldr	r3, [r9, #4]
 1465 0b0a 1B79     		ldrb	r3, [r3, #4]	@ zero_extendqisi2
 1466 0b0c 023B     		subs	r3, r3, #2
 1467 0b0e 012B     		cmp	r3, #1
 1468 0b10 D0D8     		bhi	.L394
 1469 0b12 B91D     		adds	r1, r7, #6
 1470 0b14 FFF7BAFF 		bl	create_menu_tree.isra.1
 1471 0b18 CCE7     		b	.L394
 1472              	.L404:
 1473 0b1a 00BF     		.align	2
 1474              	.L403:
 1475 0b1c 00000000 		.word	.LANCHOR1
 1476 0b20 00000000 		.word	.LANCHOR0
 1478              		.align	1
 1479              		.p2align 2,,3
 1480              		.syntax unified
 1481              		.thumb
 1482              		.thumb_func
 1483              		.fpu softvfp
 1485              	print_pb_name.isra.2:
 1486              		@ args = 0, pretend = 0, frame = 0
 1487              		@ frame_needed = 0, uses_anonymous_args = 0
 1488 0b24 08B5     		push	{r3, lr}
 1489 0b26 0021     		movs	r1, #0
 1490 0b28 0448     		ldr	r0, .L407
 1491 0b2a FFF7FEFF 		bl	comm_webgui_set_response_cb
 1492 0b2e BDE80840 		pop	{r3, lr}
 1493 0b32 0B21     		movs	r1, #11
 1494 0b34 0248     		ldr	r0, .L407+4
 1495 0b36 FFF7FEBF 		b	comm_webgui_send
 1496              	.L408:
 1497 0b3a 00BF     		.align	2
 1498              	.L407:
 1499 0b3c 00000000 		.word	screen_top_info
 1500 0b40 60000000 		.word	.LC13
 1502              		.global	__aeabi_f2uiz
 1503              		.align	1
 1504              		.p2align 2,,3
 1505              		.syntax unified
 1506              		.thumb
 1507              		.thumb_func
 1508              		.fpu softvfp
 1510              	naveg_set_master_volume.part.3:
 1511              		@ args = 0, pretend = 0, frame = 0
 1512              		@ frame_needed = 0, uses_anonymous_args = 0
 1513 0b44 70B5     		push	{r4, r5, r6, lr}
 1514 0b46 A8B1     		cbz	r0, .L410
 1515 0b48 FFF7FEFF 		bl	hardware_get_acceleration
 1516 0b4c 4000     		lsls	r0, r0, #1
 1517 0b4e FFF7FEFF 		bl	__aeabi_i2f
 1518 0b52 1F4C     		ldr	r4, .L418
 1519 0b54 0146     		mov	r1, r0
 1520 0b56 A06D     		ldr	r0, [r4, #88]	@ float
 1521 0b58 FFF7FEFF 		bl	__aeabi_fsub
 1522 0b5c 1D4E     		ldr	r6, .L418+4
 1523 0b5e 0546     		mov	r5, r0
 1524 0b60 3146     		mov	r1, r6
 1525 0b62 FFF7FEFF 		bl	__aeabi_fcmplt
 1526 0b66 70BB     		cbnz	r0, .L411
 1527 0b68 A565     		str	r5, [r4, #88]	@ float
 1528              	.L412:
 1529 0b6a 2846     		mov	r0, r5
 1530 0b6c 0221     		movs	r1, #2
 1531 0b6e FFF7FEFF 		bl	system_master_volume_cb
 1532 0b72 14E0     		b	.L413
 1533              	.L410:
 1534 0b74 FFF7FEFF 		bl	hardware_get_acceleration
 1535 0b78 154C     		ldr	r4, .L418
 1536 0b7a 4000     		lsls	r0, r0, #1
 1537 0b7c FFF7FEFF 		bl	__aeabi_i2f
 1538 0b80 0025     		movs	r5, #0
 1539 0b82 A16D     		ldr	r1, [r4, #88]	@ float
 1540 0b84 FFF7FEFF 		bl	__aeabi_fadd
 1541 0b88 2946     		mov	r1, r5
 1542 0b8a 0646     		mov	r6, r0
 1543 0b8c FFF7FEFF 		bl	__aeabi_fcmpgt
 1544 0b90 E0B1     		cbz	r0, .L417
 1545 0b92 2E46     		mov	r6, r5
 1546 0b94 A565     		str	r5, [r4, #88]	@ float
 1547              	.L415:
 1548 0b96 3046     		mov	r0, r6
 1549 0b98 0121     		movs	r1, #1
 1550 0b9a FFF7FEFF 		bl	system_master_volume_cb
 1551              	.L413:
 1552 0b9e A06D     		ldr	r0, [r4, #88]	@ float
 1553 0ba0 0D49     		ldr	r1, .L418+8
 1554 0ba2 FFF7FEFF 		bl	__aeabi_fadd
 1555 0ba6 0C49     		ldr	r1, .L418+8
 1556 0ba8 FFF7FEFF 		bl	__aeabi_fdiv
 1557 0bac 0B49     		ldr	r1, .L418+12
 1558 0bae FFF7FEFF 		bl	__aeabi_fmul
 1559 0bb2 0021     		movs	r1, #0
 1560 0bb4 FFF7FEFF 		bl	__aeabi_fadd
 1561 0bb8 FFF7FEFF 		bl	__aeabi_f2uiz
 1562 0bbc BDE87040 		pop	{r4, r5, r6, lr}
 1563 0bc0 40B2     		sxtb	r0, r0
 1564 0bc2 FFF7FEBF 		b	screen_master_vol
 1565              	.L411:
 1566 0bc6 3546     		mov	r5, r6
 1567 0bc8 A665     		str	r6, [r4, #88]	@ float
 1568 0bca CEE7     		b	.L412
 1569              	.L417:
 1570 0bcc A665     		str	r6, [r4, #88]	@ float
 1571 0bce E2E7     		b	.L415
 1572              	.L419:
 1573              		.align	2
 1574              	.L418:
 1575 0bd0 00000000 		.word	.LANCHOR0
 1576 0bd4 000070C2 		.word	-1032847360
 1577 0bd8 00007042 		.word	1114636288
 1578 0bdc 0000C842 		.word	1120403456
 1580              		.align	1
 1581              		.p2align 2,,3
 1582              		.global	draw_all_pots
 1583              		.syntax unified
 1584              		.thumb
 1585              		.thumb_func
 1586              		.fpu softvfp
 1588              	draw_all_pots:
 1589              		@ args = 0, pretend = 0, frame = 0
 1590              		@ frame_needed = 0, uses_anonymous_args = 0
 1591 0be0 0128     		cmp	r0, #1
 1592 0be2 14BF     		ite	ne
 1593 0be4 0023     		movne	r3, #0
 1594 0be6 0423     		moveq	r3, #4
 1595 0be8 70B5     		push	{r4, r5, r6, lr}
 1596 0bea 1C46     		mov	r4, r3
 1597 0bec 074D     		ldr	r5, .L426
 1598 0bee 1E1D     		adds	r6, r3, #4
 1599 0bf0 05EB8305 		add	r5, r5, r3, lsl #2
 1600 0bf4 F6B2     		uxtb	r6, r6
 1601              	.L422:
 1602 0bf6 2046     		mov	r0, r4
 1603 0bf8 0134     		adds	r4, r4, #1
 1604 0bfa 55F8041B 		ldr	r1, [r5], #4
 1605 0bfe E4B2     		uxtb	r4, r4
 1606 0c00 FFF7FEFF 		bl	screen_pot
 1607 0c04 B442     		cmp	r4, r6
 1608 0c06 F6D1     		bne	.L422
 1609 0c08 70BD     		pop	{r4, r5, r6, pc}
 1610              	.L427:
 1611 0c0a 00BF     		.align	2
 1612              	.L426:
 1613 0c0c 5C000000 		.word	.LANCHOR0+92
 1615              		.align	1
 1616              		.p2align 2,,3
 1617              		.global	draw_all_foots
 1618              		.syntax unified
 1619              		.thumb
 1620              		.thumb_func
 1621              		.fpu softvfp
 1623              	draw_all_foots:
 1624              		@ args = 0, pretend = 0, frame = 0
 1625              		@ frame_needed = 0, uses_anonymous_args = 0
 1626 0c10 0128     		cmp	r0, #1
 1627 0c12 14BF     		ite	ne
 1628 0c14 0023     		movne	r3, #0
 1629 0c16 0223     		moveq	r3, #2
 1630 0c18 70B5     		push	{r4, r5, r6, lr}
 1631 0c1a 124C     		ldr	r4, .L437
 1632 0c1c 1E46     		mov	r6, r3
 1633 0c1e 04EB8303 		add	r3, r4, r3, lsl #2
 1634 0c22 586A     		ldr	r0, [r3, #36]
 1635 0c24 14BF     		ite	ne
 1636 0c26 0125     		movne	r5, #1
 1637 0c28 0325     		moveq	r5, #3
 1638 0c2a 50B1     		cbz	r0, .L435
 1639 0c2c 04EB8504 		add	r4, r4, r5, lsl #2
 1640 0c30 FFF79AFA 		bl	foot_control_add
 1641 0c34 626A     		ldr	r2, [r4, #36]
 1642 0c36 72B1     		cbz	r2, .L436
 1643              	.L432:
 1644 0c38 BDE87040 		pop	{r4, r5, r6, lr}
 1645 0c3c 1046     		mov	r0, r2
 1646 0c3e FFF793BA 		b	foot_control_add
 1647              	.L435:
 1648 0c42 0246     		mov	r2, r0
 1649 0c44 0146     		mov	r1, r0
 1650 0c46 04EB8504 		add	r4, r4, r5, lsl #2
 1651 0c4a 3046     		mov	r0, r6
 1652 0c4c FFF7FEFF 		bl	screen_footer
 1653 0c50 626A     		ldr	r2, [r4, #36]
 1654 0c52 002A     		cmp	r2, #0
 1655 0c54 F0D1     		bne	.L432
 1656              	.L436:
 1657 0c56 701C     		adds	r0, r6, #1
 1658 0c58 1146     		mov	r1, r2
 1659 0c5a BDE87040 		pop	{r4, r5, r6, lr}
 1660 0c5e FFF7FEBF 		b	screen_footer
 1661              	.L438:
 1662 0c62 00BF     		.align	2
 1663              	.L437:
 1664 0c64 00000000 		.word	.LANCHOR0
 1666              		.align	1
 1667              		.p2align 2,,3
 1668              		.global	naveg_init
 1669              		.syntax unified
 1670              		.thumb
 1671              		.thumb_func
 1672              		.fpu softvfp
 1674              	naveg_init:
 1675              		@ args = 0, pretend = 0, frame = 24
 1676              		@ frame_needed = 0, uses_anonymous_args = 0
 1677 0c68 2DE9F043 		push	{r4, r5, r6, r7, r8, r9, lr}
 1678 0c6c 4D4D     		ldr	r5, .L462
 1679 0c6e 0020     		movs	r0, #0
 1680 0c70 2B46     		mov	r3, r5
 1681 0c72 4D49     		ldr	r1, .L462+4
 1682 0c74 0246     		mov	r2, r0
 1683 0c76 43F8200F 		str	r0, [r3, #32]!
 1684 0c7a E861     		str	r0, [r5, #28]
 1685 0c7c 87B0     		sub	sp, sp, #28
 1686 0c7e 05F13C00 		add	r0, r5, #60
 1687              	.L440:
 1688 0c82 43F8042F 		str	r2, [r3, #4]!
 1689 0c86 8342     		cmp	r3, r0
 1690 0c88 0A72     		strb	r2, [r1, #8]
 1691 0c8a 01F10C01 		add	r1, r1, #12
 1692 0c8e F8D1     		bne	.L440
 1693 0c90 0124     		movs	r4, #1
 1694 0c92 0020     		movs	r0, #0
 1695 0c94 FF21     		movs	r1, #255
 1696 0c96 454B     		ldr	r3, .L462+8
 1697 0c98 C5E91722 		strd	r2, r2, [r5, #92]
 1698 0c9c C5E91922 		strd	r2, r2, [r5, #100]
 1699 0ca0 C5E91B22 		strd	r2, r2, [r5, #108]
 1700 0ca4 C5E91D22 		strd	r2, r2, [r5, #116]
 1701 0ca8 C5E91022 		strd	r2, r2, [r5, #64]
 1702 0cac 2A60     		str	r2, [r5]
 1703 0cae 85F87C20 		strb	r2, [r5, #124]
 1704 0cb2 2C76     		strb	r4, [r5, #24]
 1705 0cb4 03F11402 		add	r2, r3, #20
 1706              	.L441:
 1707 0cb8 1871     		strb	r0, [r3, #4]
 1708 0cba 1970     		strb	r1, [r3]
 1709 0cbc 5970     		strb	r1, [r3, #1]
 1710 0cbe 9970     		strb	r1, [r3, #2]
 1711 0cc0 D970     		strb	r1, [r3, #3]
 1712 0cc2 0533     		adds	r3, r3, #5
 1713 0cc4 9A42     		cmp	r2, r3
 1714 0cc6 F7D1     		bne	.L441
 1715 0cc8 3949     		ldr	r1, .L462+12
 1716 0cca 95F85470 		ldrb	r7, [r5, #84]	@ zero_extendqisi2
 1717 0cce 0B68     		ldr	r3, [r1]
 1718 0cd0 83B3     		cbz	r3, .L442
 1719 0cd2 8C46     		mov	ip, r1
 1720 0cd4 0126     		movs	r6, #1
 1721 0cd6 DCF81400 		ldr	r0, [ip, #20]
 1722 0cda BE46     		mov	lr, r7
 1723 0cdc 4FF00008 		mov	r8, #0
 1724 0ce0 F3B2     		uxtb	r3, r6
 1725 0ce2 3246     		mov	r2, r6
 1726 0ce4 10B3     		cbz	r0, .L443
 1727              	.L461:
 1728 0ce6 0024     		movs	r4, #0
 1729 0ce8 BCF80690 		ldrh	r9, [ip, #6]
 1730              	.L445:
 1731 0cec 02EB8202 		add	r2, r2, r2, lsl #2
 1732 0cf0 01EB8202 		add	r2, r1, r2, lsl #2
 1733 0cf4 0133     		adds	r3, r3, #1
 1734 0cf6 1089     		ldrh	r0, [r2, #8]
 1735 0cf8 DBB2     		uxtb	r3, r3
 1736 0cfa 03EB8302 		add	r2, r3, r3, lsl #2
 1737 0cfe 4845     		cmp	r0, r9
 1738 0d00 51F82200 		ldr	r0, [r1, r2, lsl #2]
 1739 0d04 04BF     		itt	eq
 1740 0d06 0134     		addeq	r4, r4, #1
 1741 0d08 E4B2     		uxtbeq	r4, r4
 1742 0d0a 1A46     		mov	r2, r3
 1743 0d0c 0028     		cmp	r0, #0
 1744 0d0e EDD1     		bne	.L445
 1745 0d10 A645     		cmp	lr, r4
 1746 0d12 02D2     		bcs	.L446
 1747 0d14 A646     		mov	lr, r4
 1748 0d16 4FF00108 		mov	r8, #1
 1749              	.L446:
 1750 0d1a 0CF1140C 		add	ip, ip, #20
 1751 0d1e DCF81400 		ldr	r0, [ip, #20]
 1752 0d22 0136     		adds	r6, r6, #1
 1753 0d24 F3B2     		uxtb	r3, r6
 1754 0d26 3246     		mov	r2, r6
 1755 0d28 0028     		cmp	r0, #0
 1756 0d2a DCD1     		bne	.L461
 1757              	.L443:
 1758 0d2c B8F1000F 		cmp	r8, #0
 1759 0d30 18BF     		it	ne
 1760 0d32 7746     		movne	r7, lr
 1761              	.L442:
 1762 0d34 1F4E     		ldr	r6, .L462+16
 1763 0d36 01AC     		add	r4, sp, #4
 1764 0d38 0FCE     		ldmia	r6!, {r0, r1, r2, r3}
 1765 0d3a 0FC4     		stmia	r4!, {r0, r1, r2, r3}
 1766 0d3c 3368     		ldr	r3, [r6]
 1767 0d3e 0137     		adds	r7, r7, #1
 1768 0d40 0020     		movs	r0, #0
 1769 0d42 2360     		str	r3, [r4]
 1770 0d44 85F85470 		strb	r7, [r5, #84]
 1771 0d48 FFF7FEFF 		bl	node_create
 1772 0d4c 0DF10A01 		add	r1, sp, #10
 1773 0d50 C5F88000 		str	r0, [r5, #128]
 1774 0d54 0024     		movs	r4, #0
 1775 0d56 FFF799FE 		bl	create_menu_tree.isra.1
 1776 0d5a 0123     		movs	r3, #1
 1777 0d5c D5F88060 		ldr	r6, [r5, #128]
 1778 0d60 2146     		mov	r1, r4
 1779 0d62 B268     		ldr	r2, [r6, #8]
 1780 0d64 1846     		mov	r0, r3
 1781 0d66 1768     		ldr	r7, [r2]
 1782 0d68 0322     		movs	r2, #3
 1783 0d6a C5F88460 		str	r6, [r5, #132]
 1784 0d6e EF64     		str	r7, [r5, #76]
 1785 0d70 C5E92244 		strd	r4, r4, [r5, #136]
 1786 0d74 85F89030 		strb	r3, [r5, #144]
 1787 0d78 FFF7FEFF 		bl	xQueueGenericCreate
 1788 0d7c 0246     		mov	r2, r0
 1789 0d7e C5F89400 		str	r0, [r5, #148]
 1790 0d82 30B1     		cbz	r0, .L447
 1791 0d84 2246     		mov	r2, r4
 1792 0d86 2346     		mov	r3, r4
 1793 0d88 2146     		mov	r1, r4
 1794 0d8a FFF7FEFF 		bl	xQueueGenericSend
 1795 0d8e D5F89420 		ldr	r2, [r5, #148]
 1796              	.L447:
 1797 0d92 0023     		movs	r3, #0
 1798 0d94 1046     		mov	r0, r2
 1799 0d96 1946     		mov	r1, r3
 1800 0d98 1A46     		mov	r2, r3
 1801 0d9a FFF7FEFF 		bl	xQueueGenericReceive
 1802 0d9e 07B0     		add	sp, sp, #28
 1803              		@ sp needed
 1804 0da0 BDE8F083 		pop	{r4, r5, r6, r7, r8, r9, pc}
 1805              	.L463:
 1806              		.align	2
 1807              	.L462:
 1808 0da4 00000000 		.word	.LANCHOR0
 1809 0da8 00000000 		.word	g_tap_tempo
 1810 0dac 04000000 		.word	.LANCHOR0+4
 1811 0db0 00000000 		.word	.LANCHOR1
 1812 0db4 00000000 		.word	.LANCHOR2
 1814              		.align	1
 1815              		.p2align 2,,3
 1816              		.global	naveg_initial_state
 1817              		.syntax unified
 1818              		.thumb
 1819              		.thumb_func
 1820              		.fpu softvfp
 1822              	naveg_initial_state:
 1823              		@ args = 0, pretend = 0, frame = 0
 1824              		@ frame_needed = 0, uses_anonymous_args = 0
 1825 0db8 2DE9F047 		push	{r4, r5, r6, r7, r8, r9, r10, lr}
 1826 0dbc 002A     		cmp	r2, #0
 1827 0dbe 3DD0     		beq	.L497
 1828 0dc0 1546     		mov	r5, r2
 1829 0dc2 0F46     		mov	r7, r1
 1830 0dc4 FFF7FEFF 		bl	atoi
 1831 0dc8 244E     		ldr	r6, .L498
 1832 0dca 0130     		adds	r0, r0, #1
 1833 0dcc 736C     		ldr	r3, [r6, #68]
 1834 0dce C0B2     		uxtb	r0, r0
 1835 0dd0 86F84800 		strb	r0, [r6, #72]
 1836 0dd4 0BB1     		cbz	r3, .L469
 1837 0dd6 9872     		strb	r0, [r3, #10]
 1838 0dd8 5872     		strb	r0, [r3, #9]
 1839              	.L469:
 1840 0dda 306C     		ldr	r0, [r6, #64]
 1841 0ddc 08B1     		cbz	r0, .L470
 1842 0dde FFF7FEFF 		bl	data_free_pedalboards_list
 1843              	.L470:
 1844 0de2 3068     		ldr	r0, [r6]
 1845 0de4 08B1     		cbz	r0, .L471
 1846 0de6 FFF7FEFF 		bl	data_free_pedalboards_list
 1847              	.L471:
 1848 0dea 0024     		movs	r4, #0
 1849 0dec 2846     		mov	r0, r5
 1850 0dee 3460     		str	r4, [r6]
 1851 0df0 FFF7FEFF 		bl	strarr_length
 1852 0df4 0146     		mov	r1, r0
 1853 0df6 2846     		mov	r0, r5
 1854 0df8 FFF7FEFF 		bl	data_parse_pedalboards_list
 1855 0dfc 8146     		mov	r9, r0
 1856 0dfe 3064     		str	r0, [r6, #64]
 1857 0e00 D0B1     		cbz	r0, .L464
 1858 0e02 90F80880 		ldrb	r8, [r0, #8]	@ zero_extendqisi2
 1859 0e06 B8F1000F 		cmp	r8, #0
 1860 0e0a 15D0     		beq	.L464
 1861 0e0c 4568     		ldr	r5, [r0, #4]
 1862 0e0e A246     		mov	r10, r4
 1863 0e10 043D     		subs	r5, r5, #4
 1864 0e12 03E0     		b	.L473
 1865              	.L472:
 1866 0e14 5FFA84FA 		uxtb	r10, r4
 1867 0e18 D045     		cmp	r8, r10
 1868 0e1a 0DD9     		bls	.L464
 1869              	.L473:
 1870 0e1c 3946     		mov	r1, r7
 1871 0e1e 55F8040F 		ldr	r0, [r5, #4]!
 1872 0e22 FFF7FEFF 		bl	strcmp
 1873 0e26 0134     		adds	r4, r4, #1
 1874 0e28 0028     		cmp	r0, #0
 1875 0e2a F3D1     		bne	.L472
 1876 0e2c 89F80AA0 		strb	r10, [r9, #10]
 1877 0e30 89F809A0 		strb	r10, [r9, #9]
 1878 0e34 86F818A0 		strb	r10, [r6, #24]
 1879              	.L464:
 1880 0e38 BDE8F087 		pop	{r4, r5, r6, r7, r8, r9, r10, pc}
 1881              	.L497:
 1882 0e3c 074E     		ldr	r6, .L498
 1883 0e3e 736C     		ldr	r3, [r6, #68]
 1884 0e40 1BB1     		cbz	r3, .L466
 1885 0e42 9A72     		strb	r2, [r3, #10]
 1886 0e44 5A72     		strb	r2, [r3, #9]
 1887 0e46 86F84820 		strb	r2, [r6, #72]
 1888              	.L466:
 1889 0e4a 336C     		ldr	r3, [r6, #64]
 1890 0e4c 002B     		cmp	r3, #0
 1891 0e4e F3D0     		beq	.L464
 1892 0e50 0022     		movs	r2, #0
 1893 0e52 9A72     		strb	r2, [r3, #10]
 1894 0e54 5A72     		strb	r2, [r3, #9]
 1895 0e56 3276     		strb	r2, [r6, #24]
 1896 0e58 BDE8F087 		pop	{r4, r5, r6, r7, r8, r9, r10, pc}
 1897              	.L499:
 1898              		.align	2
 1899              	.L498:
 1900 0e5c 00000000 		.word	.LANCHOR0
 1902              		.align	1
 1903              		.p2align 2,,3
 1904              		.global	naveg_inc_control
 1905              		.syntax unified
 1906              		.thumb
 1907              		.thumb_func
 1908              		.fpu softvfp
 1910              	naveg_inc_control:
 1911              		@ args = 0, pretend = 0, frame = 0
 1912              		@ frame_needed = 0, uses_anonymous_args = 0
 1913 0e60 38B5     		push	{r3, r4, r5, lr}
 1914 0e62 1B49     		ldr	r1, .L529
 1915 0e64 91F89030 		ldrb	r3, [r1, #144]	@ zero_extendqisi2
 1916 0e68 3BB3     		cbz	r3, .L500
 1917 0e6a 1A4B     		ldr	r3, .L529+4
 1918 0e6c 03F10A04 		add	r4, r3, #10
 1919              	.L503:
 1920 0e70 5A78     		ldrb	r2, [r3, #1]	@ zero_extendqisi2
 1921 0e72 8242     		cmp	r2, r0
 1922 0e74 1ED0     		beq	.L528
 1923              	.L502:
 1924 0e76 0233     		adds	r3, r3, #2
 1925 0e78 9C42     		cmp	r4, r3
 1926 0e7a F9D1     		bne	.L503
 1927 0e7c 01EB8001 		add	r1, r1, r0, lsl #2
 1928 0e80 CC69     		ldr	r4, [r1, #28]
 1929 0e82 D4B1     		cbz	r4, .L500
 1930 0e84 A37C     		ldrb	r3, [r4, #18]	@ zero_extendqisi2
 1931 0e86 042B     		cmp	r3, #4
 1932 0e88 18D0     		beq	.L505
 1933 0e8a 082B     		cmp	r3, #8
 1934 0e8c 16D0     		beq	.L505
 1935              	.L506:
 1936 0e8e 94F92130 		ldrsb	r3, [r4, #33]
 1937 0e92 94F92020 		ldrsb	r2, [r4, #32]
 1938 0e96 013B     		subs	r3, r3, #1
 1939 0e98 9A42     		cmp	r2, r3
 1940 0e9a 0EDA     		bge	.L500
 1941 0e9c 0546     		mov	r5, r0
 1942 0e9e 0132     		adds	r2, r2, #1
 1943 0ea0 2046     		mov	r0, r4
 1944 0ea2 84F82020 		strb	r2, [r4, #32]
 1945 0ea6 FFF78BFB 		bl	step_to_value
 1946 0eaa 2146     		mov	r1, r4
 1947 0eac 2846     		mov	r0, r5
 1948 0eae BDE83840 		pop	{r3, r4, r5, lr}
 1949 0eb2 21E4     		b	control_set
 1950              	.L528:
 1951 0eb4 1A78     		ldrb	r2, [r3]	@ zero_extendqisi2
 1952 0eb6 012A     		cmp	r2, #1
 1953 0eb8 DDD1     		bne	.L502
 1954              	.L500:
 1955 0eba 38BD     		pop	{r3, r4, r5, pc}
 1956              	.L505:
 1957 0ebc E37C     		ldrb	r3, [r4, #19]	@ zero_extendqisi2
 1958 0ebe 002B     		cmp	r3, #0
 1959 0ec0 E5D1     		bne	.L506
 1960 0ec2 0123     		movs	r3, #1
 1961 0ec4 E374     		strb	r3, [r4, #19]
 1962 0ec6 2146     		mov	r1, r4
 1963 0ec8 BDE83840 		pop	{r3, r4, r5, lr}
 1964 0ecc 14E4     		b	control_set
 1965              	.L530:
 1966 0ece 00BF     		.align	2
 1967              	.L529:
 1968 0ed0 00000000 		.word	.LANCHOR0
 1969 0ed4 00000000 		.word	g_tool
 1971              		.align	1
 1972              		.p2align 2,,3
 1973              		.global	naveg_dec_control
 1974              		.syntax unified
 1975              		.thumb
 1976              		.thumb_func
 1977              		.fpu softvfp
 1979              	naveg_dec_control:
 1980              		@ args = 0, pretend = 0, frame = 0
 1981              		@ frame_needed = 0, uses_anonymous_args = 0
 1982 0ed8 38B5     		push	{r3, r4, r5, lr}
 1983 0eda 1A49     		ldr	r1, .L560
 1984 0edc 91F89030 		ldrb	r3, [r1, #144]	@ zero_extendqisi2
 1985 0ee0 2BB3     		cbz	r3, .L531
 1986 0ee2 194B     		ldr	r3, .L560+4
 1987 0ee4 03F10A04 		add	r4, r3, #10
 1988              	.L534:
 1989 0ee8 5A78     		ldrb	r2, [r3, #1]	@ zero_extendqisi2
 1990 0eea 8242     		cmp	r2, r0
 1991 0eec 1CD0     		beq	.L559
 1992              	.L533:
 1993 0eee 0233     		adds	r3, r3, #2
 1994 0ef0 9C42     		cmp	r4, r3
 1995 0ef2 F9D1     		bne	.L534
 1996 0ef4 01EB8001 		add	r1, r1, r0, lsl #2
 1997 0ef8 CC69     		ldr	r4, [r1, #28]
 1998 0efa C4B1     		cbz	r4, .L531
 1999 0efc A37C     		ldrb	r3, [r4, #18]	@ zero_extendqisi2
 2000 0efe 042B     		cmp	r3, #4
 2001 0f00 16D0     		beq	.L536
 2002 0f02 082B     		cmp	r3, #8
 2003 0f04 14D0     		beq	.L536
 2004              	.L537:
 2005 0f06 94F92030 		ldrsb	r3, [r4, #32]
 2006 0f0a 002B     		cmp	r3, #0
 2007 0f0c 0FDD     		ble	.L531
 2008 0f0e 0546     		mov	r5, r0
 2009 0f10 013B     		subs	r3, r3, #1
 2010 0f12 2046     		mov	r0, r4
 2011 0f14 84F82030 		strb	r3, [r4, #32]
 2012 0f18 FFF752FB 		bl	step_to_value
 2013 0f1c 2146     		mov	r1, r4
 2014 0f1e 2846     		mov	r0, r5
 2015 0f20 BDE83840 		pop	{r3, r4, r5, lr}
 2016 0f24 FFF7E8BB 		b	control_set
 2017              	.L559:
 2018 0f28 1A78     		ldrb	r2, [r3]	@ zero_extendqisi2
 2019 0f2a 012A     		cmp	r2, #1
 2020 0f2c DFD1     		bne	.L533
 2021              	.L531:
 2022 0f2e 38BD     		pop	{r3, r4, r5, pc}
 2023              	.L536:
 2024 0f30 E37C     		ldrb	r3, [r4, #19]	@ zero_extendqisi2
 2025 0f32 002B     		cmp	r3, #0
 2026 0f34 E7D0     		beq	.L537
 2027 0f36 0023     		movs	r3, #0
 2028 0f38 E374     		strb	r3, [r4, #19]
 2029 0f3a 2146     		mov	r1, r4
 2030 0f3c BDE83840 		pop	{r3, r4, r5, lr}
 2031 0f40 FFF7DABB 		b	control_set
 2032              	.L561:
 2033              		.align	2
 2034              	.L560:
 2035 0f44 00000000 		.word	.LANCHOR0
 2036 0f48 00000000 		.word	g_tool
 2038              		.align	1
 2039              		.p2align 2,,3
 2040              		.global	naveg_set_control
 2041              		.syntax unified
 2042              		.thumb
 2043              		.thumb_func
 2044              		.fpu softvfp
 2046              	naveg_set_control:
 2047              		@ args = 0, pretend = 0, frame = 8
 2048              		@ frame_needed = 0, uses_anonymous_args = 0
 2049 0f4c 204B     		ldr	r3, .L582
 2050 0f4e 93F89030 		ldrb	r3, [r3, #144]	@ zero_extendqisi2
 2051 0f52 03B9     		cbnz	r3, .L580
 2052 0f54 7047     		bx	lr
 2053              	.L580:
 2054 0f56 70B5     		push	{r4, r5, r6, lr}
 2055 0f58 82B0     		sub	sp, sp, #8
 2056 0f5a 1546     		mov	r5, r2
 2057 0f5c 0DF10702 		add	r2, sp, #7
 2058 0f60 FFF7DAF8 		bl	search_encoder
 2059 0f64 0446     		mov	r4, r0
 2060 0f66 0028     		cmp	r0, #0
 2061 0f68 2DD0     		beq	.L562
 2062 0f6a 8669     		ldr	r6, [r0, #24]	@ float
 2063 0f6c 4561     		str	r5, [r0, #20]	@ float
 2064 0f6e 2946     		mov	r1, r5
 2065 0f70 3046     		mov	r0, r6
 2066 0f72 FFF7FEFF 		bl	__aeabi_fcmpgt
 2067 0f76 00B1     		cbz	r0, .L564
 2068 0f78 6661     		str	r6, [r4, #20]	@ float
 2069              	.L564:
 2070 0f7a E669     		ldr	r6, [r4, #28]	@ float
 2071 0f7c 2946     		mov	r1, r5
 2072 0f7e 3046     		mov	r0, r6
 2073 0f80 FFF7FEFF 		bl	__aeabi_fcmplt
 2074 0f84 08BB     		cbnz	r0, .L581
 2075              	.L566:
 2076 0f86 2146     		mov	r1, r4
 2077 0f88 9DF80700 		ldrb	r0, [sp, #7]	@ zero_extendqisi2
 2078 0f8c FFF7B4FB 		bl	control_set
 2079 0f90 A569     		ldr	r5, [r4, #24]	@ float
 2080 0f92 6069     		ldr	r0, [r4, #20]	@ float
 2081 0f94 2946     		mov	r1, r5
 2082 0f96 FFF7FEFF 		bl	__aeabi_fsub
 2083 0f9a 2946     		mov	r1, r5
 2084 0f9c 0646     		mov	r6, r0
 2085 0f9e E069     		ldr	r0, [r4, #28]	@ float
 2086 0fa0 FFF7FEFF 		bl	__aeabi_fsub
 2087 0fa4 0546     		mov	r5, r0
 2088 0fa6 94F92100 		ldrsb	r0, [r4, #33]
 2089 0faa FFF7FEFF 		bl	__aeabi_i2f
 2090 0fae 0146     		mov	r1, r0
 2091 0fb0 2846     		mov	r0, r5
 2092 0fb2 FFF7FEFF 		bl	__aeabi_fdiv
 2093 0fb6 0146     		mov	r1, r0
 2094 0fb8 3046     		mov	r0, r6
 2095 0fba FFF7FEFF 		bl	__aeabi_fdiv
 2096 0fbe FFF7FEFF 		bl	__aeabi_f2iz
 2097 0fc2 84F82000 		strb	r0, [r4, #32]
 2098              	.L562:
 2099 0fc6 02B0     		add	sp, sp, #8
 2100              		@ sp needed
 2101 0fc8 70BD     		pop	{r4, r5, r6, pc}
 2102              	.L581:
 2103 0fca 6661     		str	r6, [r4, #20]	@ float
 2104 0fcc DBE7     		b	.L566
 2105              	.L583:
 2106 0fce 00BF     		.align	2
 2107              	.L582:
 2108 0fd0 00000000 		.word	.LANCHOR0
 2110              		.align	1
 2111              		.p2align 2,,3
 2112              		.global	naveg_get_control
 2113              		.syntax unified
 2114              		.thumb
 2115              		.thumb_func
 2116              		.fpu softvfp
 2118              	naveg_get_control:
 2119              		@ args = 0, pretend = 0, frame = 8
 2120              		@ frame_needed = 0, uses_anonymous_args = 0
 2121 0fd4 0A4B     		ldr	r3, .L594
 2122 0fd6 93F89030 		ldrb	r3, [r3, #144]	@ zero_extendqisi2
 2123 0fda 0BB9     		cbnz	r3, .L585
 2124 0fdc 0020     		movs	r0, #0
 2125 0fde 7047     		bx	lr
 2126              	.L585:
 2127 0fe0 00B5     		push	{lr}
 2128 0fe2 83B0     		sub	sp, sp, #12
 2129 0fe4 0DF10702 		add	r2, sp, #7
 2130 0fe8 FFF796F8 		bl	search_encoder
 2131 0fec 18B1     		cbz	r0, .L587
 2132 0fee 4069     		ldr	r0, [r0, #20]	@ float
 2133 0ff0 03B0     		add	sp, sp, #12
 2134              		@ sp needed
 2135 0ff2 5DF804FB 		ldr	pc, [sp], #4
 2136              	.L587:
 2137 0ff6 0020     		movs	r0, #0
 2138 0ff8 03B0     		add	sp, sp, #12
 2139              		@ sp needed
 2140 0ffa 5DF804FB 		ldr	pc, [sp], #4
 2141              	.L595:
 2142 0ffe 00BF     		.align	2
 2143              	.L594:
 2144 1000 00000000 		.word	.LANCHOR0
 2146              		.align	1
 2147              		.p2align 2,,3
 2148              		.global	naveg_pot_change
 2149              		.syntax unified
 2150              		.thumb
 2151              		.thumb_func
 2152              		.fpu softvfp
 2154              	naveg_pot_change:
 2155              		@ args = 0, pretend = 0, frame = 0
 2156              		@ frame_needed = 0, uses_anonymous_args = 0
 2157 1004 2DE9F041 		push	{r4, r5, r6, r7, r8, lr}
 2158 1008 224C     		ldr	r4, .L609
 2159 100a 94F89030 		ldrb	r3, [r4, #144]	@ zero_extendqisi2
 2160 100e 8BB1     		cbz	r3, .L596
 2161 1010 0728     		cmp	r0, #7
 2162 1012 0546     		mov	r5, r0
 2163 1014 0ED8     		bhi	.L596
 2164 1016 8600     		lsls	r6, r0, #2
 2165 1018 A319     		adds	r3, r4, r6
 2166 101a DB6D     		ldr	r3, [r3, #92]
 2167 101c 53B1     		cbz	r3, .L596
 2168 101e FFF7FEFF 		bl	hardware_get_pot_value
 2169 1022 3128     		cmp	r0, #49
 2170 1024 08D9     		bls	.L599
 2171 1026 40F66E72 		movw	r2, #3950
 2172 102a 9042     		cmp	r0, r2
 2173 102c 2DD9     		bls	.L608
 2174 102e DFF86880 		ldr	r8, .L609+4
 2175 1032 03E0     		b	.L598
 2176              	.L596:
 2177 1034 BDE8F081 		pop	{r4, r5, r6, r7, r8, pc}
 2178              	.L599:
 2179 1038 4FF00008 		mov	r8, #0
 2180              	.L598:
 2181 103c 3444     		add	r4, r4, r6
 2182 103e E46D     		ldr	r4, [r4, #92]
 2183 1040 A669     		ldr	r6, [r4, #24]	@ float
 2184 1042 E069     		ldr	r0, [r4, #28]	@ float
 2185 1044 3146     		mov	r1, r6
 2186 1046 FFF7FEFF 		bl	__aeabi_fsub
 2187 104a 4146     		mov	r1, r8
 2188 104c 0746     		mov	r7, r0
 2189 104e FFF7FEFF 		bl	__aeabi_fmul
 2190 1052 1149     		ldr	r1, .L609+4
 2191 1054 FFF7FEFF 		bl	__aeabi_fdiv
 2192 1058 3146     		mov	r1, r6
 2193 105a FFF7FEFF 		bl	__aeabi_fadd
 2194 105e 0646     		mov	r6, r0
 2195 1060 94F92100 		ldrsb	r0, [r4, #33]
 2196 1064 6661     		str	r6, [r4, #20]	@ float
 2197 1066 FFF7FEFF 		bl	__aeabi_i2f
 2198 106a 3146     		mov	r1, r6
 2199 106c FFF7FEFF 		bl	__aeabi_fmul
 2200 1070 3946     		mov	r1, r7
 2201 1072 FFF7FEFF 		bl	__aeabi_fdiv
 2202 1076 FFF7FEFF 		bl	__aeabi_f2iz
 2203 107a 84F82000 		strb	r0, [r4, #32]
 2204 107e 2146     		mov	r1, r4
 2205 1080 2846     		mov	r0, r5
 2206 1082 BDE8F041 		pop	{r4, r5, r6, r7, r8, lr}
 2207 1086 FFF737BB 		b	control_set
 2208              	.L608:
 2209 108a FFF7FEFF 		bl	__aeabi_i2f
 2210 108e 8046     		mov	r8, r0
 2211 1090 D4E7     		b	.L598
 2212              	.L610:
 2213 1092 00BF     		.align	2
 2214              	.L609:
 2215 1094 00000000 		.word	.LANCHOR0
 2216 1098 00F07F45 		.word	1166012416
 2218              		.align	1
 2219              		.p2align 2,,3
 2220              		.global	naveg_foot_change
 2221              		.syntax unified
 2222              		.thumb
 2223              		.thumb_func
 2224              		.fpu softvfp
 2226              	naveg_foot_change:
 2227              		@ args = 0, pretend = 0, frame = 0
 2228              		@ frame_needed = 0, uses_anonymous_args = 0
 2229 109c 10B5     		push	{r4, lr}
 2230 109e 6C4C     		ldr	r4, .L664
 2231 10a0 94F89030 		ldrb	r3, [r4, #144]	@ zero_extendqisi2
 2232 10a4 4BB3     		cbz	r3, .L611
 2233 10a6 0628     		cmp	r0, #6
 2234 10a8 27D8     		bhi	.L611
 2235 10aa 0528     		cmp	r0, #5
 2236 10ac 26D0     		beq	.L616
 2237 10ae 0628     		cmp	r0, #6
 2238 10b0 34D0     		beq	.L617
 2239 10b2 0428     		cmp	r0, #4
 2240 10b4 32D0     		beq	.L617
 2241 10b6 231D     		adds	r3, r4, #4
 2242 10b8 04F11301 		add	r1, r4, #19
 2243              	.L620:
 2244 10bc 1A7A     		ldrb	r2, [r3, #8]	@ zero_extendqisi2
 2245 10be 8242     		cmp	r2, r0
 2246 10c0 3DD0     		beq	.L662
 2247              	.L618:
 2248 10c2 0533     		adds	r3, r3, #5
 2249 10c4 9942     		cmp	r1, r3
 2250 10c6 F9D1     		bne	.L620
 2251 10c8 04EB8004 		add	r4, r4, r0, lsl #2
 2252 10cc 616A     		ldr	r1, [r4, #36]
 2253 10ce A1B1     		cbz	r1, .L611
 2254 10d0 BDE81040 		pop	{r4, lr}
 2255 10d4 FFF710BB 		b	control_set
 2256              	.L635:
 2257 10d8 0520     		movs	r0, #5
 2258 10da FFF7FEFF 		bl	hardware_leds
 2259 10de 0521     		movs	r1, #5
 2260 10e0 FFF7FEFF 		bl	ledz_off
 2261 10e4 0520     		movs	r0, #5
 2262 10e6 FFF7FEFF 		bl	hardware_leds
 2263 10ea 0621     		movs	r1, #6
 2264 10ec FFF7FEFF 		bl	ledz_on
 2265 10f0 94F89930 		ldrb	r3, [r4, #153]	@ zero_extendqisi2
 2266 10f4 0133     		adds	r3, r3, #1
 2267 10f6 84F89930 		strb	r3, [r4, #153]
 2268              	.L611:
 2269 10fa 10BD     		pop	{r4, pc}
 2270              	.L616:
 2271 10fc 94F89930 		ldrb	r3, [r4, #153]	@ zero_extendqisi2
 2272 1100 032B     		cmp	r3, #3
 2273 1102 FAD8     		bhi	.L611
 2274 1104 01A2     		adr	r2, .L633
 2275 1106 52F823F0 		ldr	pc, [r2, r3, lsl #2]
 2276 110a 00BF     		.p2align 2
 2277              	.L633:
 2278 110c 0F120000 		.word	.L632+1
 2279 1110 EB110000 		.word	.L634+1
 2280 1114 D9100000 		.word	.L635+1
 2281 1118 D7110000 		.word	.L636+1
 2282              		.p2align 1
 2283              	.L617:
 2284 111c 0628     		cmp	r0, #6
 2285 111e 08BF     		it	eq
 2286 1120 0134     		addeq	r4, r4, #1
 2287 1122 94F89830 		ldrb	r3, [r4, #152]	@ zero_extendqisi2
 2288 1126 012B     		cmp	r3, #1
 2289 1128 4BD0     		beq	.L663
 2290 112a 0123     		movs	r3, #1
 2291 112c 84F89830 		strb	r3, [r4, #152]
 2292 1130 FFF7FEFF 		bl	hardware_leds
 2293 1134 BDE81040 		pop	{r4, lr}
 2294 1138 0721     		movs	r1, #7
 2295 113a FFF7FEBF 		b	ledz_on
 2296              	.L662:
 2297 113e 5A7A     		ldrb	r2, [r3, #9]	@ zero_extendqisi2
 2298 1140 002A     		cmp	r2, #0
 2299 1142 BED0     		beq	.L618
 2300 1144 022A     		cmp	r2, #2
 2301 1146 217E     		ldrb	r1, [r4, #24]	@ zero_extendqisi2
 2302 1148 6DD0     		beq	.L622
 2303 114a 032A     		cmp	r2, #3
 2304 114c 18D1     		bne	.L624
 2305 114e 2268     		ldr	r2, [r4]
 2306 1150 B2B1     		cbz	r2, .L624
 2307 1152 4B1E     		subs	r3, r1, #1
 2308 1154 DBB2     		uxtb	r3, r3
 2309 1156 2376     		strb	r3, [r4, #24]
 2310 1158 33B9     		cbnz	r3, .L629
 2311 115a A37C     		ldrb	r3, [r4, #18]	@ zero_extendqisi2
 2312 115c 002B     		cmp	r3, #0
 2313 115e 70D1     		bne	.L630
 2314 1160 137A     		ldrb	r3, [r2, #8]	@ zero_extendqisi2
 2315 1162 013B     		subs	r3, r3, #1
 2316 1164 DBB2     		uxtb	r3, r3
 2317 1166 2376     		strb	r3, [r4, #24]
 2318              	.L629:
 2319 1168 9942     		cmp	r1, r3
 2320 116a 9372     		strb	r3, [r2, #10]
 2321 116c 08D0     		beq	.L624
 2322 116e 94F84800 		ldrb	r0, [r4, #72]	@ zero_extendqisi2
 2323 1172 5268     		ldr	r2, [r2, #4]
 2324 1174 0138     		subs	r0, r0, #1
 2325 1176 52F82310 		ldr	r1, [r2, r3, lsl #2]
 2326 117a C0B2     		uxtb	r0, r0
 2327 117c FFF786FA 		bl	send_load_pedalboard
 2328              	.L624:
 2329 1180 FEF73EFF 		bl	bank_config_footer
 2330 1184 2368     		ldr	r3, [r4]
 2331 1186 002B     		cmp	r3, #0
 2332 1188 B7D0     		beq	.L611
 2333 118a 626C     		ldr	r2, [r4, #68]
 2334 118c 94F84810 		ldrb	r1, [r4, #72]	@ zero_extendqisi2
 2335 1190 507A     		ldrb	r0, [r2, #9]	@ zero_extendqisi2
 2336 1192 8842     		cmp	r0, r1
 2337 1194 B1D1     		bne	.L611
 2338 1196 2F49     		ldr	r1, .L664+4
 2339 1198 0979     		ldrb	r1, [r1, #4]	@ zero_extendqisi2
 2340 119a 0029     		cmp	r1, #0
 2341 119c ADD0     		beq	.L611
 2342 119e 94F87C10 		ldrb	r1, [r4, #124]	@ zero_extendqisi2
 2343 11a2 0129     		cmp	r1, #1
 2344 11a4 A9D1     		bne	.L611
 2345 11a6 206C     		ldr	r0, [r4, #64]
 2346 11a8 9C7A     		ldrb	r4, [r3, #10]	@ zero_extendqisi2
 2347 11aa 0146     		mov	r1, r0
 2348 11ac 8472     		strb	r4, [r0, #10]
 2349 11ae 9B7A     		ldrb	r3, [r3, #10]	@ zero_extendqisi2
 2350 11b0 4372     		strb	r3, [r0, #9]
 2351 11b2 507A     		ldrb	r0, [r2, #9]	@ zero_extendqisi2
 2352 11b4 1368     		ldr	r3, [r2]
 2353 11b6 BDE81040 		pop	{r4, lr}
 2354 11ba 53F82000 		ldr	r0, [r3, r0, lsl #2]
 2355 11be FFF7FEBF 		b	screen_bp_list
 2356              	.L663:
 2357 11c2 0023     		movs	r3, #0
 2358 11c4 84F89830 		strb	r3, [r4, #152]
 2359 11c8 FFF7FEFF 		bl	hardware_leds
 2360 11cc BDE81040 		pop	{r4, lr}
 2361 11d0 0721     		movs	r1, #7
 2362 11d2 FFF7FEBF 		b	ledz_off
 2363              	.L636:
 2364 11d6 0520     		movs	r0, #5
 2365 11d8 FFF7FEFF 		bl	hardware_leds
 2366 11dc 0621     		movs	r1, #6
 2367 11de FFF7FEFF 		bl	ledz_off
 2368 11e2 0023     		movs	r3, #0
 2369 11e4 84F89930 		strb	r3, [r4, #153]
 2370 11e8 10BD     		pop	{r4, pc}
 2371              	.L634:
 2372 11ea 0520     		movs	r0, #5
 2373 11ec FFF7FEFF 		bl	hardware_leds
 2374 11f0 0321     		movs	r1, #3
 2375 11f2 FFF7FEFF 		bl	ledz_off
 2376 11f6 0520     		movs	r0, #5
 2377 11f8 FFF7FEFF 		bl	hardware_leds
 2378 11fc 0521     		movs	r1, #5
 2379 11fe FFF7FEFF 		bl	ledz_on
 2380 1202 94F89930 		ldrb	r3, [r4, #153]	@ zero_extendqisi2
 2381 1206 0133     		adds	r3, r3, #1
 2382 1208 84F89930 		strb	r3, [r4, #153]
 2383 120c 10BD     		pop	{r4, pc}
 2384              	.L632:
 2385 120e 0520     		movs	r0, #5
 2386 1210 FFF7FEFF 		bl	hardware_leds
 2387 1214 0321     		movs	r1, #3
 2388 1216 FFF7FEFF 		bl	ledz_on
 2389 121a 94F89930 		ldrb	r3, [r4, #153]	@ zero_extendqisi2
 2390 121e 0133     		adds	r3, r3, #1
 2391 1220 84F89930 		strb	r3, [r4, #153]
 2392 1224 10BD     		pop	{r4, pc}
 2393              	.L622:
 2394 1226 2268     		ldr	r2, [r4]
 2395 1228 002A     		cmp	r2, #0
 2396 122a A9D0     		beq	.L624
 2397 122c 4B1C     		adds	r3, r1, #1
 2398 122e 107A     		ldrb	r0, [r2, #8]	@ zero_extendqisi2
 2399 1230 DBB2     		uxtb	r3, r3
 2400 1232 9842     		cmp	r0, r3
 2401 1234 2376     		strb	r3, [r4, #24]
 2402 1236 97D1     		bne	.L629
 2403 1238 E37D     		ldrb	r3, [r4, #23]	@ zero_extendqisi2
 2404 123a 33B9     		cbnz	r3, .L626
 2405 123c 0123     		movs	r3, #1
 2406 123e 2376     		strb	r3, [r4, #24]
 2407 1240 92E7     		b	.L629
 2408              	.L630:
 2409 1242 0123     		movs	r3, #1
 2410 1244 2376     		strb	r3, [r4, #24]
 2411 1246 9372     		strb	r3, [r2, #10]
 2412 1248 9AE7     		b	.L624
 2413              	.L626:
 2414 124a 2176     		strb	r1, [r4, #24]
 2415 124c 9172     		strb	r1, [r2, #10]
 2416 124e 97E7     		b	.L624
 2417              	.L665:
 2418              		.align	2
 2419              	.L664:
 2420 1250 00000000 		.word	.LANCHOR0
 2421 1254 00000000 		.word	g_tool
 2423              		.align	1
 2424              		.p2align 2,,3
 2425              		.global	naveg_is_tool_mode
 2426              		.syntax unified
 2427              		.thumb
 2428              		.thumb_func
 2429              		.fpu softvfp
 2431              	naveg_is_tool_mode:
 2432              		@ args = 0, pretend = 0, frame = 0
 2433              		@ frame_needed = 0, uses_anonymous_args = 0
 2434              		@ link register save eliminated.
 2435 1258 0146     		mov	r1, r0
 2436 125a 094B     		ldr	r3, .L677
 2437 125c 10B4     		push	{r4}
 2438 125e 03F10A04 		add	r4, r3, #10
 2439              	.L669:
 2440 1262 5A78     		ldrb	r2, [r3, #1]	@ zero_extendqisi2
 2441 1264 8A42     		cmp	r2, r1
 2442 1266 05D0     		beq	.L676
 2443              	.L667:
 2444 1268 0233     		adds	r3, r3, #2
 2445 126a A342     		cmp	r3, r4
 2446 126c F9D1     		bne	.L669
 2447 126e 0020     		movs	r0, #0
 2448 1270 10BC     		pop	{r4}
 2449 1272 7047     		bx	lr
 2450              	.L676:
 2451 1274 1878     		ldrb	r0, [r3]	@ zero_extendqisi2
 2452 1276 0128     		cmp	r0, #1
 2453 1278 F6D1     		bne	.L667
 2454 127a 10BC     		pop	{r4}
 2455 127c 7047     		bx	lr
 2456              	.L678:
 2457 127e 00BF     		.align	2
 2458              	.L677:
 2459 1280 00000000 		.word	g_tool
 2461              		.align	1
 2462              		.p2align 2,,3
 2463              		.global	naveg_set_master_volume
 2464              		.syntax unified
 2465              		.thumb
 2466              		.thumb_func
 2467              		.fpu softvfp
 2469              	naveg_set_master_volume:
 2470              		@ args = 0, pretend = 0, frame = 0
 2471              		@ frame_needed = 0, uses_anonymous_args = 0
 2472              		@ link register save eliminated.
 2473 1284 024B     		ldr	r3, .L681
 2474 1286 1B7A     		ldrb	r3, [r3, #8]	@ zero_extendqisi2
 2475 1288 03B1     		cbz	r3, .L679
 2476 128a 5BE4     		b	naveg_set_master_volume.part.3
 2477              	.L679:
 2478 128c 7047     		bx	lr
 2479              	.L682:
 2480 128e 00BF     		.align	2
 2481              	.L681:
 2482 1290 00000000 		.word	g_tool
 2484              		.align	1
 2485              		.p2align 2,,3
 2486              		.global	naveg_is_master_vol
 2487              		.syntax unified
 2488              		.thumb
 2489              		.thumb_func
 2490              		.fpu softvfp
 2492              	naveg_is_master_vol:
 2493              		@ args = 0, pretend = 0, frame = 0
 2494              		@ frame_needed = 0, uses_anonymous_args = 0
 2495              		@ link register save eliminated.
 2496 1294 024B     		ldr	r3, .L684
 2497 1296 187A     		ldrb	r0, [r3, #8]	@ zero_extendqisi2
 2498 1298 0030     		adds	r0, r0, #0
 2499 129a 18BF     		it	ne
 2500 129c 0120     		movne	r0, #1
 2501 129e 7047     		bx	lr
 2502              	.L685:
 2503              		.align	2
 2504              	.L684:
 2505 12a0 00000000 		.word	g_tool
 2507              		.align	1
 2508              		.p2align 2,,3
 2509              		.global	naveg_set_banks
 2510              		.syntax unified
 2511              		.thumb
 2512              		.thumb_func
 2513              		.fpu softvfp
 2515              	naveg_set_banks:
 2516              		@ args = 0, pretend = 0, frame = 0
 2517              		@ frame_needed = 0, uses_anonymous_args = 0
 2518              		@ link register save eliminated.
 2519 12a4 024B     		ldr	r3, .L691
 2520 12a6 93F89020 		ldrb	r2, [r3, #144]	@ zero_extendqisi2
 2521 12aa 02B1     		cbz	r2, .L686
 2522 12ac 5864     		str	r0, [r3, #68]
 2523              	.L686:
 2524 12ae 7047     		bx	lr
 2525              	.L692:
 2526              		.align	2
 2527              	.L691:
 2528 12b0 00000000 		.word	.LANCHOR0
 2530              		.align	1
 2531              		.p2align 2,,3
 2532              		.global	naveg_get_banks
 2533              		.syntax unified
 2534              		.thumb
 2535              		.thumb_func
 2536              		.fpu softvfp
 2538              	naveg_get_banks:
 2539              		@ args = 0, pretend = 0, frame = 0
 2540              		@ frame_needed = 0, uses_anonymous_args = 0
 2541              		@ link register save eliminated.
 2542 12b4 024B     		ldr	r3, .L696
 2543 12b6 93F89000 		ldrb	r0, [r3, #144]	@ zero_extendqisi2
 2544 12ba 00B1     		cbz	r0, .L693
 2545 12bc 586C     		ldr	r0, [r3, #68]
 2546              	.L693:
 2547 12be 7047     		bx	lr
 2548              	.L697:
 2549              		.align	2
 2550              	.L696:
 2551 12c0 00000000 		.word	.LANCHOR0
 2553              		.align	1
 2554              		.p2align 2,,3
 2555              		.global	naveg_bank_config
 2556              		.syntax unified
 2557              		.thumb
 2558              		.thumb_func
 2559              		.fpu softvfp
 2561              	naveg_bank_config:
 2562              		@ args = 0, pretend = 0, frame = 0
 2563              		@ frame_needed = 0, uses_anonymous_args = 0
 2564 12c4 2DE9F047 		push	{r4, r5, r6, r7, r8, r9, r10, lr}
 2565 12c8 4B4D     		ldr	r5, .L744
 2566 12ca 95F89030 		ldrb	r3, [r5, #144]	@ zero_extendqisi2
 2567 12ce 2BB1     		cbz	r3, .L698
 2568 12d0 0379     		ldrb	r3, [r0, #4]	@ zero_extendqisi2
 2569 12d2 032B     		cmp	r3, #3
 2570 12d4 02D8     		bhi	.L698
 2571 12d6 8278     		ldrb	r2, [r0, #2]	@ zero_extendqisi2
 2572 12d8 012A     		cmp	r2, #1
 2573 12da 01D0     		beq	.L738
 2574              	.L698:
 2575 12dc BDE8F087 		pop	{r4, r5, r6, r7, r8, r9, r10, pc}
 2576              	.L738:
 2577 12e0 C278     		ldrb	r2, [r0, #3]	@ zero_extendqisi2
 2578 12e2 062A     		cmp	r2, #6
 2579 12e4 FAD8     		bhi	.L698
 2580 12e6 05F10408 		add	r8, r5, #4
 2581 12ea 0446     		mov	r4, r0
 2582 12ec 4646     		mov	r6, r8
 2583 12ee 4FF0000A 		mov	r10, #0
 2584 12f2 4FF0FF09 		mov	r9, #255
 2585 12f6 05F11307 		add	r7, r5, #19
 2586              	.L713:
 2587 12fa 727A     		ldrb	r2, [r6, #9]	@ zero_extendqisi2
 2588 12fc 83B3     		cbz	r3, .L700
 2589 12fe 9342     		cmp	r3, r2
 2590 1300 0BD0     		beq	.L739
 2591              	.L701:
 2592 1302 F179     		ldrb	r1, [r6, #7]	@ zero_extendqisi2
 2593 1304 A278     		ldrb	r2, [r4, #2]	@ zero_extendqisi2
 2594 1306 9142     		cmp	r1, r2
 2595 1308 40D0     		beq	.L740
 2596              	.L702:
 2597 130a 0536     		adds	r6, r6, #5
 2598 130c BE42     		cmp	r6, r7
 2599 130e F4D1     		bne	.L713
 2600 1310 4BBB     		cbnz	r3, .L741
 2601              	.L715:
 2602 1312 BDE8F047 		pop	{r4, r5, r6, r7, r8, r9, r10, lr}
 2603 1316 FEF773BE 		b	bank_config_footer
 2604              	.L739:
 2605 131a 307A     		ldrb	r0, [r6, #8]	@ zero_extendqisi2
 2606 131c E278     		ldrb	r2, [r4, #3]	@ zero_extendqisi2
 2607 131e 8242     		cmp	r2, r0
 2608 1320 F3D0     		beq	.L702
 2609 1322 FFF7FEFF 		bl	hardware_leds
 2610 1326 FF21     		movs	r1, #255
 2611 1328 FFF7FEFF 		bl	ledz_off
 2612 132c 334B     		ldr	r3, .L744+4
 2613 132e 307A     		ldrb	r0, [r6, #8]	@ zero_extendqisi2
 2614 1330 03F10A01 		add	r1, r3, #10
 2615              	.L705:
 2616 1334 5A78     		ldrb	r2, [r3, #1]	@ zero_extendqisi2
 2617 1336 8242     		cmp	r2, r0
 2618 1338 56D0     		beq	.L742
 2619              	.L703:
 2620 133a 0233     		adds	r3, r3, #2
 2621 133c 8B42     		cmp	r3, r1
 2622 133e F9D1     		bne	.L705
 2623 1340 0022     		movs	r2, #0
 2624 1342 1146     		mov	r1, r2
 2625 1344 FFF7FEFF 		bl	screen_footer
 2626              	.L704:
 2627 1348 0022     		movs	r2, #0
 2628 134a 86F809A0 		strb	r10, [r6, #9]
 2629 134e 86F80590 		strb	r9, [r6, #5]
 2630 1352 86F80690 		strb	r9, [r6, #6]
 2631 1356 86F80790 		strb	r9, [r6, #7]
 2632 135a 86F80890 		strb	r9, [r6, #8]
 2633 135e 2379     		ldrb	r3, [r4, #4]	@ zero_extendqisi2
 2634              	.L700:
 2635 1360 9342     		cmp	r3, r2
 2636 1362 CED1     		bne	.L701
 2637 1364 D1E7     		b	.L702
 2638              	.L741:
 2639 1366 2268     		ldr	r2, [r4]	@ unaligned
 2640 1368 03EB8303 		add	r3, r3, r3, lsl #2
 2641 136c 48F80320 		str	r2, [r8, r3]	@ unaligned
 2642 1370 2279     		ldrb	r2, [r4, #4]	@ zero_extendqisi2
 2643 1372 4344     		add	r3, r3, r8
 2644 1374 1A71     		strb	r2, [r3, #4]
 2645 1376 2379     		ldrb	r3, [r4, #4]	@ zero_extendqisi2
 2646 1378 023B     		subs	r3, r3, #2
 2647 137a 012B     		cmp	r3, #1
 2648 137c C9D8     		bhi	.L715
 2649 137e 95F89A30 		ldrb	r3, [r5, #154]	@ zero_extendqisi2
 2650 1382 002B     		cmp	r3, #0
 2651 1384 C5D1     		bne	.L715
 2652 1386 2B6C     		ldr	r3, [r5, #64]
 2653 1388 2B60     		str	r3, [r5]
 2654 138a C2E7     		b	.L715
 2655              	.L740:
 2656 138c 317A     		ldrb	r1, [r6, #8]	@ zero_extendqisi2
 2657 138e E278     		ldrb	r2, [r4, #3]	@ zero_extendqisi2
 2658 1390 9142     		cmp	r1, r2
 2659 1392 BAD1     		bne	.L702
 2660 1394 86F809A0 		strb	r10, [r6, #9]
 2661 1398 86F80590 		strb	r9, [r6, #5]
 2662 139c 86F80690 		strb	r9, [r6, #6]
 2663 13a0 86F80790 		strb	r9, [r6, #7]
 2664 13a4 86F80890 		strb	r9, [r6, #8]
 2665 13a8 2379     		ldrb	r3, [r4, #4]	@ zero_extendqisi2
 2666 13aa 002B     		cmp	r3, #0
 2667 13ac ADD1     		bne	.L702
 2668 13ae E078     		ldrb	r0, [r4, #3]	@ zero_extendqisi2
 2669 13b0 FFF7FEFF 		bl	hardware_leds
 2670 13b4 FF21     		movs	r1, #255
 2671 13b6 FFF7FEFF 		bl	ledz_off
 2672 13ba 104B     		ldr	r3, .L744+4
 2673 13bc E078     		ldrb	r0, [r4, #3]	@ zero_extendqisi2
 2674 13be 03F10A01 		add	r1, r3, #10
 2675              	.L710:
 2676 13c2 5A78     		ldrb	r2, [r3, #1]	@ zero_extendqisi2
 2677 13c4 8242     		cmp	r2, r0
 2678 13c6 13D0     		beq	.L743
 2679              	.L708:
 2680 13c8 0233     		adds	r3, r3, #2
 2681 13ca 8B42     		cmp	r3, r1
 2682 13cc F9D1     		bne	.L710
 2683 13ce 0022     		movs	r2, #0
 2684 13d0 1146     		mov	r1, r2
 2685 13d2 FFF7FEFF 		bl	screen_footer
 2686 13d6 E078     		ldrb	r0, [r4, #3]	@ zero_extendqisi2
 2687              	.L709:
 2688 13d8 05EB8000 		add	r0, r5, r0, lsl #2
 2689 13dc 406A     		ldr	r0, [r0, #36]
 2690 13de 08B1     		cbz	r0, .L737
 2691 13e0 FEF7C2FE 		bl	foot_control_add
 2692              	.L737:
 2693 13e4 2379     		ldrb	r3, [r4, #4]	@ zero_extendqisi2
 2694 13e6 90E7     		b	.L702
 2695              	.L742:
 2696 13e8 1A78     		ldrb	r2, [r3]	@ zero_extendqisi2
 2697 13ea 012A     		cmp	r2, #1
 2698 13ec A5D1     		bne	.L703
 2699 13ee ABE7     		b	.L704
 2700              	.L743:
 2701 13f0 1A78     		ldrb	r2, [r3]	@ zero_extendqisi2
 2702 13f2 012A     		cmp	r2, #1
 2703 13f4 E8D1     		bne	.L708
 2704 13f6 EFE7     		b	.L709
 2705              	.L745:
 2706              		.align	2
 2707              	.L744:
 2708 13f8 00000000 		.word	.LANCHOR0
 2709 13fc 00000000 		.word	g_tool
 2711              		.align	1
 2712              		.p2align 2,,3
 2713              		.global	naveg_set_pedalboards
 2714              		.syntax unified
 2715              		.thumb
 2716              		.thumb_func
 2717              		.fpu softvfp
 2719              	naveg_set_pedalboards:
 2720              		@ args = 0, pretend = 0, frame = 0
 2721              		@ frame_needed = 0, uses_anonymous_args = 0
 2722              		@ link register save eliminated.
 2723 1400 024B     		ldr	r3, .L751
 2724 1402 93F89020 		ldrb	r2, [r3, #144]	@ zero_extendqisi2
 2725 1406 02B1     		cbz	r2, .L746
 2726 1408 1864     		str	r0, [r3, #64]
 2727              	.L746:
 2728 140a 7047     		bx	lr
 2729              	.L752:
 2730              		.align	2
 2731              	.L751:
 2732 140c 00000000 		.word	.LANCHOR0
 2734              		.align	1
 2735              		.p2align 2,,3
 2736              		.global	naveg_get_pedalboards
 2737              		.syntax unified
 2738              		.thumb
 2739              		.thumb_func
 2740              		.fpu softvfp
 2742              	naveg_get_pedalboards:
 2743              		@ args = 0, pretend = 0, frame = 0
 2744              		@ frame_needed = 0, uses_anonymous_args = 0
 2745              		@ link register save eliminated.
 2746 1410 024B     		ldr	r3, .L756
 2747 1412 93F89000 		ldrb	r0, [r3, #144]	@ zero_extendqisi2
 2748 1416 00B1     		cbz	r0, .L753
 2749 1418 186C     		ldr	r0, [r3, #64]
 2750              	.L753:
 2751 141a 7047     		bx	lr
 2752              	.L757:
 2753              		.align	2
 2754              	.L756:
 2755 141c 00000000 		.word	.LANCHOR0
 2757              		.align	1
 2758              		.p2align 2,,3
 2759              		.global	naveg_enter
 2760              		.syntax unified
 2761              		.thumb
 2762              		.thumb_func
 2763              		.fpu softvfp
 2765              	naveg_enter:
 2766              		@ args = 0, pretend = 0, frame = 128
 2767              		@ frame_needed = 0, uses_anonymous_args = 0
 2768 1420 F0B5     		push	{r4, r5, r6, r7, lr}
 2769 1422 744D     		ldr	r5, .L821
 2770 1424 A1B0     		sub	sp, sp, #132
 2771 1426 95F89030 		ldrb	r3, [r5, #144]	@ zero_extendqisi2
 2772 142a 53B1     		cbz	r3, .L758
 2773 142c 724E     		ldr	r6, .L821+4
 2774 142e 0446     		mov	r4, r0
 2775 1430 3346     		mov	r3, r6
 2776 1432 06F10A01 		add	r1, r6, #10
 2777              	.L763:
 2778 1436 5A78     		ldrb	r2, [r3, #1]	@ zero_extendqisi2
 2779 1438 A242     		cmp	r2, r4
 2780 143a 04D0     		beq	.L814
 2781              	.L761:
 2782 143c 0233     		adds	r3, r3, #2
 2783 143e 9942     		cmp	r1, r3
 2784 1440 F9D1     		bne	.L763
 2785              	.L758:
 2786 1442 21B0     		add	sp, sp, #132
 2787              		@ sp needed
 2788 1444 F0BD     		pop	{r4, r5, r6, r7, pc}
 2789              	.L814:
 2790 1446 1A78     		ldrb	r2, [r3]	@ zero_extendqisi2
 2791 1448 012A     		cmp	r2, #1
 2792 144a F7D1     		bne	.L761
 2793 144c 74B9     		cbnz	r4, .L815
 2794 144e B378     		ldrb	r3, [r6, #2]	@ zero_extendqisi2
 2795 1450 F3B9     		cbnz	r3, .L813
 2796 1452 E86C     		ldr	r0, [r5, #76]
 2797 1454 4268     		ldr	r2, [r0, #4]
 2798 1456 D388     		ldrh	r3, [r2, #6]
 2799 1458 B42B     		cmp	r3, #180
 2800 145a 01D0     		beq	.L766
 2801 145c AA2B     		cmp	r3, #170
 2802 145e F0D1     		bne	.L758
 2803              	.L766:
 2804 1460 D368     		ldr	r3, [r2, #12]
 2805 1462 002B     		cmp	r3, #0
 2806 1464 EDD0     		beq	.L758
 2807 1466 0021     		movs	r1, #0
 2808 1468 9847     		blx	r3
 2809 146a EAE7     		b	.L758
 2810              	.L815:
 2811 146c 012C     		cmp	r4, #1
 2812 146e E8D1     		bne	.L758
 2813 1470 B378     		ldrb	r3, [r6, #2]	@ zero_extendqisi2
 2814 1472 8BB9     		cbnz	r3, .L816
 2815 1474 3279     		ldrb	r2, [r6, #4]	@ zero_extendqisi2
 2816 1476 92BB     		cbnz	r2, .L817
 2817 1478 B379     		ldrb	r3, [r6, #6]	@ zero_extendqisi2
 2818 147a 002B     		cmp	r3, #0
 2819 147c E1D0     		beq	.L758
 2820 147e D5E92032 		ldrd	r3, r2, [r5, #128]
 2821 1482 9A42     		cmp	r2, r3
 2822 1484 DDD0     		beq	.L758
 2823 1486 EB6C     		ldr	r3, [r5, #76]
 2824 1488 5B68     		ldr	r3, [r3, #4]
 2825 148a DB88     		ldrh	r3, [r3, #6]
 2826 148c 002B     		cmp	r3, #0
 2827 148e D8D0     		beq	.L758
 2828              	.L813:
 2829 1490 2046     		mov	r0, r4
 2830 1492 00F069FC 		bl	menu_enter
 2831 1496 D4E7     		b	.L758
 2832              	.L816:
 2833 1498 6E46     		mov	r6, sp
 2834 149a 5849     		ldr	r1, .L821+8
 2835 149c 3046     		mov	r0, r6
 2836 149e FFF7FEFF 		bl	copy_command
 2837 14a2 574F     		ldr	r7, .L821+12
 2838 14a4 0546     		mov	r5, r0
 2839 14a6 97F81435 		ldrb	r3, [r7, #1300]	@ zero_extendqisi2
 2840 14aa C5F18002 		rsb	r2, r5, #128
 2841 14ae 012B     		cmp	r3, #1
 2842 14b0 08BF     		it	eq
 2843 14b2 0224     		moveq	r4, #2
 2844 14b4 7119     		adds	r1, r6, r5
 2845 14b6 2046     		mov	r0, r4
 2846 14b8 0023     		movs	r3, #0
 2847 14ba 87F81445 		strb	r4, [r7, #1300]
 2848 14be FFF7FEFF 		bl	int_to_str
 2849 14c2 0022     		movs	r2, #0
 2850 14c4 2918     		adds	r1, r5, r0
 2851 14c6 20AB     		add	r3, sp, #128
 2852 14c8 0B44     		add	r3, r3, r1
 2853 14ca 3046     		mov	r0, r6
 2854 14cc 03F8802C 		strb	r2, [r3, #-128]
 2855 14d0 FFF7FEFF 		bl	comm_webgui_send
 2856 14d4 97F81405 		ldrb	r0, [r7, #1300]	@ zero_extendqisi2
 2857 14d8 FFF7FEFF 		bl	screen_tuner_input
 2858 14dc B1E7     		b	.L758
 2859              	.L817:
 2860 14de 95F89B20 		ldrb	r2, [r5, #155]	@ zero_extendqisi2
 2861 14e2 62B9     		cbnz	r2, .L818
 2862              	.L770:
 2863 14e4 6C6C     		ldr	r4, [r5, #68]
 2864 14e6 002C     		cmp	r4, #0
 2865 14e8 ABD0     		beq	.L758
 2866 14ea 95F87C30 		ldrb	r3, [r5, #124]	@ zero_extendqisi2
 2867 14ee 7BB1     		cbz	r3, .L819
 2868 14f0 012B     		cmp	r3, #1
 2869 14f2 4BD0     		beq	.L820
 2870              	.L774:
 2871 14f4 2146     		mov	r1, r4
 2872 14f6 3846     		mov	r0, r7
 2873 14f8 FFF7FEFF 		bl	screen_bp_list
 2874 14fc A1E7     		b	.L758
 2875              	.L818:
 2876 14fe E86C     		ldr	r0, [r5, #76]
 2877 1500 3371     		strb	r3, [r6, #4]
 2878 1502 3470     		strb	r4, [r6]
 2879 1504 7370     		strb	r3, [r6, #1]
 2880 1506 B471     		strb	r4, [r6, #6]
 2881 1508 F471     		strb	r4, [r6, #7]
 2882 150a FFF7FEFF 		bl	screen_system_menu
 2883 150e E9E7     		b	.L770
 2884              	.L819:
 2885 1510 6E46     		mov	r6, sp
 2886 1512 627A     		ldrb	r2, [r4, #9]	@ zero_extendqisi2
 2887 1514 6368     		ldr	r3, [r4, #4]
 2888 1516 3046     		mov	r0, r6
 2889 1518 3A49     		ldr	r1, .L821+16
 2890 151a 53F82270 		ldr	r7, [r3, r2, lsl #2]
 2891 151e FFF7FEFF 		bl	copy_command
 2892 1522 3A78     		ldrb	r2, [r7]	@ zero_extendqisi2
 2893 1524 0346     		mov	r3, r0
 2894 1526 002A     		cmp	r2, #0
 2895 1528 37D0     		beq	.L781
 2896              	.L773:
 2897 152a 20A9     		add	r1, sp, #128
 2898 152c 1944     		add	r1, r1, r3
 2899 152e 01F8802C 		strb	r2, [r1, #-128]
 2900 1532 0133     		adds	r3, r3, #1
 2901 1534 17F8012F 		ldrb	r2, [r7, #1]!	@ zero_extendqisi2
 2902 1538 DCB2     		uxtb	r4, r3
 2903 153a 2346     		mov	r3, r4
 2904 153c 002A     		cmp	r2, #0
 2905 153e F4D1     		bne	.L773
 2906              	.L772:
 2907 1540 0027     		movs	r7, #0
 2908 1542 20AB     		add	r3, sp, #128
 2909 1544 2344     		add	r3, r3, r4
 2910 1546 3946     		mov	r1, r7
 2911 1548 2F48     		ldr	r0, .L821+20
 2912 154a 03F8807C 		strb	r7, [r3, #-128]
 2913 154e FFF7FEFF 		bl	comm_webgui_set_response_cb
 2914 1552 2146     		mov	r1, r4
 2915 1554 3046     		mov	r0, r6
 2916 1556 FFF7FEFF 		bl	comm_webgui_send
 2917 155a FFF7FEFF 		bl	comm_webgui_wait_response
 2918 155e 2C6C     		ldr	r4, [r5, #64]
 2919 1560 002C     		cmp	r4, #0
 2920 1562 3FF46EAF 		beq	.L758
 2921 1566 0121     		movs	r1, #1
 2922 1568 6B6C     		ldr	r3, [r5, #68]
 2923 156a 6772     		strb	r7, [r4, #9]
 2924 156c 5A7A     		ldrb	r2, [r3, #9]	@ zero_extendqisi2
 2925 156e 1E68     		ldr	r6, [r3]
 2926 1570 207A     		ldrb	r0, [r4, #8]	@ zero_extendqisi2
 2927 1572 56F82270 		ldr	r7, [r6, r2, lsl #2]
 2928 1576 A072     		strb	r0, [r4, #10]
 2929 1578 9B7A     		ldrb	r3, [r3, #10]	@ zero_extendqisi2
 2930 157a 85F87C10 		strb	r1, [r5, #124]
 2931 157e 9342     		cmp	r3, r2
 2932 1580 85F89A10 		strb	r1, [r5, #154]
 2933 1584 B6D1     		bne	.L774
 2934 1586 2B7E     		ldrb	r3, [r5, #24]	@ zero_extendqisi2
 2935 1588 A372     		strb	r3, [r4, #10]
 2936 158a B3E7     		b	.L774
 2937              	.L820:
 2938 158c 2A6C     		ldr	r2, [r5, #64]
 2939 158e 537A     		ldrb	r3, [r2, #9]	@ zero_extendqisi2
 2940 1590 2BB9     		cbnz	r3, .L775
 2941 1592 85F87C30 		strb	r3, [r5, #124]
 2942 1596 1D4F     		ldr	r7, .L821+24
 2943 1598 ACE7     		b	.L774
 2944              	.L781:
 2945 159a 0446     		mov	r4, r0
 2946 159c D0E7     		b	.L772
 2947              	.L775:
 2948 159e 0020     		movs	r0, #0
 2949 15a0 617A     		ldrb	r1, [r4, #9]	@ zero_extendqisi2
 2950 15a2 85F89A00 		strb	r0, [r5, #154]
 2951 15a6 A172     		strb	r1, [r4, #10]
 2952 15a8 9372     		strb	r3, [r2, #10]
 2953 15aa A07A     		ldrb	r0, [r4, #10]	@ zero_extendqisi2
 2954 15ac 5268     		ldr	r2, [r2, #4]
 2955 15ae 0138     		subs	r0, r0, #1
 2956 15b0 52F82310 		ldr	r1, [r2, r3, lsl #2]
 2957 15b4 C0B2     		uxtb	r0, r0
 2958 15b6 FFF769F8 		bl	send_load_pedalboard
 2959 15ba 6A6C     		ldr	r2, [r5, #68]
 2960 15bc 95F84830 		ldrb	r3, [r5, #72]	@ zero_extendqisi2
 2961 15c0 927A     		ldrb	r2, [r2, #10]	@ zero_extendqisi2
 2962 15c2 9A42     		cmp	r2, r3
 2963 15c4 05D0     		beq	.L776
 2964 15c6 2868     		ldr	r0, [r5]
 2965 15c8 08B1     		cbz	r0, .L777
 2966 15ca FFF7FEFF 		bl	data_free_pedalboards_list
 2967              	.L777:
 2968 15ce 0023     		movs	r3, #0
 2969 15d0 2B60     		str	r3, [r5]
 2970              	.L776:
 2971 15d2 D5E91043 		ldrd	r4, r3, [r5, #64]
 2972 15d6 9E7A     		ldrb	r6, [r3, #10]	@ zero_extendqisi2
 2973 15d8 587A     		ldrb	r0, [r3, #9]	@ zero_extendqisi2
 2974 15da 1968     		ldr	r1, [r3]
 2975 15dc A27A     		ldrb	r2, [r4, #10]	@ zero_extendqisi2
 2976 15de 2B68     		ldr	r3, [r5]
 2977 15e0 85F84860 		strb	r6, [r5, #72]
 2978 15e4 51F82070 		ldr	r7, [r1, r0, lsl #2]
 2979 15e8 2A76     		strb	r2, [r5, #24]
 2980 15ea 002B     		cmp	r3, #0
 2981 15ec 82D0     		beq	.L774
 2982 15ee FEF707FD 		bl	bank_config_footer
 2983 15f2 7FE7     		b	.L774
 2984              	.L822:
 2985              		.align	2
 2986              	.L821:
 2987 15f4 00000000 		.word	.LANCHOR0
 2988 15f8 00000000 		.word	g_tool
 2989 15fc 74000000 		.word	.LC16
 2990 1600 00000000 		.word	.LANCHOR1
 2991 1604 84000000 		.word	.LC17
 2992 1608 00000000 		.word	parse_pedalboards_list
 2993 160c 6C000000 		.word	.LC15
 2995              		.align	1
 2996              		.p2align 2,,3
 2997              		.global	naveg_master_volume
 2998              		.syntax unified
 2999              		.thumb
 3000              		.thumb_func
 3001              		.fpu softvfp
 3003              	naveg_master_volume:
 3004              		@ args = 0, pretend = 0, frame = 0
 3005              		@ frame_needed = 0, uses_anonymous_args = 0
 3006 1610 F8B5     		push	{r3, r4, r5, r6, r7, lr}
 3007 1612 1E4D     		ldr	r5, .L836
 3008 1614 2E78     		ldrb	r6, [r5]	@ zero_extendqisi2
 3009 1616 5EBB     		cbnz	r6, .L832
 3010 1618 1D4F     		ldr	r7, .L836+4
 3011 161a 0446     		mov	r4, r0
 3012 161c 0021     		movs	r1, #0
 3013 161e B86D     		ldr	r0, [r7, #88]	@ float
 3014 1620 FFF7FEFF 		bl	__aeabi_fcmpeq
 3015 1624 E8B9     		cbnz	r0, .L833
 3016 1626 012C     		cmp	r4, #1
 3017 1628 03D1     		bne	.L827
 3018              	.L835:
 3019 162a 2B7A     		ldrb	r3, [r5, #8]	@ zero_extendqisi2
 3020 162c 23BB     		cbnz	r3, .L834
 3021 162e 2C72     		strb	r4, [r5, #8]
 3022 1630 6C72     		strb	r4, [r5, #9]
 3023              	.L827:
 3024 1632 0321     		movs	r1, #3
 3025 1634 0020     		movs	r0, #0
 3026 1636 FFF7FEFF 		bl	system_master_volume_cb
 3027 163a 1649     		ldr	r1, .L836+8
 3028 163c B865     		str	r0, [r7, #88]	@ float
 3029              	.L831:
 3030 163e FFF7FEFF 		bl	__aeabi_fadd
 3031 1642 1549     		ldr	r1, .L836+12
 3032 1644 FFF7FEFF 		bl	__aeabi_fmul
 3033 1648 1249     		ldr	r1, .L836+8
 3034 164a FFF7FEFF 		bl	__aeabi_fdiv
 3035 164e 0021     		movs	r1, #0
 3036 1650 FFF7FEFF 		bl	__aeabi_fadd
 3037 1654 FFF7FEFF 		bl	__aeabi_f2iz
 3038 1658 BDE8F840 		pop	{r3, r4, r5, r6, r7, lr}
 3039 165c 40B2     		sxtb	r0, r0
 3040 165e FFF7FEBF 		b	screen_master_vol
 3041              	.L833:
 3042 1662 3146     		mov	r1, r6
 3043 1664 3046     		mov	r0, r6
 3044 1666 FFF7FEFF 		bl	system_save_gains_cb
 3045 166a 012C     		cmp	r4, #1
 3046 166c DDD0     		beq	.L835
 3047 166e E0E7     		b	.L827
 3048              	.L832:
 3049 1670 BDE8F840 		pop	{r3, r4, r5, r6, r7, lr}
 3050 1674 FFF7FEBF 		b	naveg_enter
 3051              	.L834:
 3052 1678 0023     		movs	r3, #0
 3053 167a 1946     		mov	r1, r3
 3054 167c 1846     		mov	r0, r3
 3055 167e 2B72     		strb	r3, [r5, #8]
 3056 1680 FFF7FEFF 		bl	system_save_gains_cb
 3057 1684 B86D     		ldr	r0, [r7, #88]	@ float
 3058 1686 0349     		ldr	r1, .L836+8
 3059 1688 D9E7     		b	.L831
 3060              	.L837:
 3061 168a 00BF     		.align	2
 3062              	.L836:
 3063 168c 00000000 		.word	g_tool
 3064 1690 00000000 		.word	.LANCHOR0
 3065 1694 00007042 		.word	1114636288
 3066 1698 0000C842 		.word	1120403456
 3068              		.align	1
 3069              		.p2align 2,,3
 3070              		.syntax unified
 3071              		.thumb
 3072              		.thumb_func
 3073              		.fpu softvfp
 3075              	naveg_remove_control.part.6:
 3076              		@ args = 0, pretend = 0, frame = 16
 3077              		@ frame_needed = 0, uses_anonymous_args = 0
 3078 169c 2DE9F04F 		push	{r4, r5, r6, r7, r8, r9, r10, fp, lr}
 3079 16a0 85B0     		sub	sp, sp, #20
 3080 16a2 0DF10F02 		add	r2, sp, #15
 3081 16a6 0646     		mov	r6, r0
 3082 16a8 0F46     		mov	r7, r1
 3083 16aa FEF735FD 		bl	search_encoder
 3084 16ae 0028     		cmp	r0, #0
 3085 16b0 00F00A81 		beq	.L839
 3086 16b4 FFF7FEFF 		bl	data_free_control
 3087 16b8 0021     		movs	r1, #0
 3088 16ba 9DF80F00 		ldrb	r0, [sp, #15]	@ zero_extendqisi2
 3089 16be A44A     		ldr	r2, .L975
 3090 16c0 A44B     		ldr	r3, .L975+4
 3091 16c2 02EB8002 		add	r2, r2, r0, lsl #2
 3092 16c6 D161     		str	r1, [r2, #28]
 3093 16c8 03F10A05 		add	r5, r3, #10
 3094              	.L842:
 3095 16cc 5A78     		ldrb	r2, [r3, #1]	@ zero_extendqisi2
 3096 16ce 8242     		cmp	r2, r0
 3097 16d0 00F0AE80 		beq	.L959
 3098              	.L840:
 3099 16d4 0233     		adds	r3, r3, #2
 3100 16d6 AB42     		cmp	r3, r5
 3101 16d8 F8D1     		bne	.L842
 3102 16da 0021     		movs	r1, #0
 3103 16dc FFF7FEFF 		bl	screen_encoder
 3104              	.L841:
 3105 16e0 9D49     		ldr	r1, .L975+8
 3106 16e2 3846     		mov	r0, r7
 3107 16e4 0024     		movs	r4, #0
 3108 16e6 FFF7FEFF 		bl	strcmp
 3109 16ea A246     		mov	r10, r4
 3110 16ec 8146     		mov	r9, r0
 3111 16ee DFF878B2 		ldr	fp, .L975+24
 3112 16f2 06E0     		b	.L868
 3113              	.L962:
 3114 16f4 92F91010 		ldrsb	r1, [r2, #16]
 3115 16f8 8E42     		cmp	r6, r1
 3116 16fa 0BD0     		beq	.L859
 3117              	.L888:
 3118 16fc 0134     		adds	r4, r4, #1
 3119 16fe 072C     		cmp	r4, #7
 3120 1700 43D0     		beq	.L960
 3121              	.L868:
 3122 1702 5BF8042F 		ldr	r2, [fp, #4]!
 3123 1706 5FFA84F8 		uxtb	r8, r4
 3124 170a 002A     		cmp	r2, #0
 3125 170c 00F09980 		beq	.L961
 3126              	.L852:
 3127 1710 711C     		adds	r1, r6, #1
 3128 1712 EFD1     		bne	.L962
 3129              	.L859:
 3130 1714 B9F1000F 		cmp	r9, #0
 3131 1718 07D0     		beq	.L861
 3132 171a 9168     		ldr	r1, [r2, #8]
 3133 171c 3846     		mov	r0, r7
 3134 171e 0192     		str	r2, [sp, #4]
 3135 1720 FFF7FEFF 		bl	strcmp
 3136 1724 019A     		ldr	r2, [sp, #4]
 3137 1726 0028     		cmp	r0, #0
 3138 1728 E8D1     		bne	.L888
 3139              	.L861:
 3140 172a 1046     		mov	r0, r2
 3141 172c FFF7FEFF 		bl	data_free_control
 3142 1730 8A4B     		ldr	r3, .L975+12
 3143 1732 04EB4401 		add	r1, r4, r4, lsl #1
 3144 1736 8A4A     		ldr	r2, .L975+16
 3145 1738 03EB8101 		add	r1, r3, r1, lsl #2
 3146 173c CBF800A0 		str	r10, [fp]
 3147 1740 81F808A0 		strb	r10, [r1, #8]
 3148 1744 02F10F00 		add	r0, r2, #15
 3149              	.L863:
 3150 1748 117A     		ldrb	r1, [r2, #8]	@ zero_extendqisi2
 3151 174a 4145     		cmp	r1, r8
 3152 174c 75D0     		beq	.L963
 3153              	.L862:
 3154 174e 0532     		adds	r2, r2, #5
 3155 1750 8242     		cmp	r2, r0
 3156 1752 F9D1     		bne	.L863
 3157 1754 4046     		mov	r0, r8
 3158 1756 FFF7FEFF 		bl	hardware_leds
 3159 175a FF21     		movs	r1, #255
 3160 175c FFF7FEFF 		bl	ledz_off
 3161 1760 B8F1010F 		cmp	r8, #1
 3162 1764 94BF     		ite	ls
 3163 1766 0021     		movls	r1, #0
 3164 1768 0121     		movhi	r1, #1
 3165 176a 7A4A     		ldr	r2, .L975+4
 3166              	.L866:
 3167 176c 5078     		ldrb	r0, [r2, #1]	@ zero_extendqisi2
 3168 176e 8842     		cmp	r0, r1
 3169 1770 00F0A580 		beq	.L964
 3170              	.L865:
 3171 1774 0232     		adds	r2, r2, #2
 3172 1776 9542     		cmp	r5, r2
 3173 1778 F8D1     		bne	.L866
 3174              	.L950:
 3175 177a 0022     		movs	r2, #0
 3176 177c 4046     		mov	r0, r8
 3177 177e 1146     		mov	r1, r2
 3178 1780 0134     		adds	r4, r4, #1
 3179 1782 FFF7FEFF 		bl	screen_footer
 3180 1786 072C     		cmp	r4, #7
 3181 1788 BBD1     		bne	.L868
 3182              	.L960:
 3183 178a 7349     		ldr	r1, .L975+8
 3184 178c 3846     		mov	r0, r7
 3185 178e 0024     		movs	r4, #0
 3186 1790 FFF7FEFF 		bl	strcmp
 3187 1794 A146     		mov	r9, r4
 3188 1796 8046     		mov	r8, r0
 3189 1798 DFF8D0B1 		ldr	fp, .L975+28
 3190 179c 07E0     		b	.L879
 3191              	.L967:
 3192 179e 9AF91030 		ldrsb	r3, [r10, #16]
 3193 17a2 9E42     		cmp	r6, r3
 3194 17a4 0AD0     		beq	.L873
 3195              	.L889:
 3196 17a6 0134     		adds	r4, r4, #1
 3197 17a8 E4B2     		uxtb	r4, r4
 3198 17aa 082C     		cmp	r4, #8
 3199 17ac 28D0     		beq	.L965
 3200              	.L879:
 3201 17ae 5BF804AF 		ldr	r10, [fp, #4]!
 3202 17b2 BAF1000F 		cmp	r10, #0
 3203 17b6 6AD0     		beq	.L966
 3204              	.L869:
 3205 17b8 731C     		adds	r3, r6, #1
 3206 17ba F0D1     		bne	.L967
 3207              	.L873:
 3208 17bc B8F1000F 		cmp	r8, #0
 3209 17c0 06D0     		beq	.L875
 3210 17c2 DAF80810 		ldr	r1, [r10, #8]
 3211 17c6 3846     		mov	r0, r7
 3212 17c8 FFF7FEFF 		bl	strcmp
 3213 17cc 0028     		cmp	r0, #0
 3214 17ce EAD1     		bne	.L889
 3215              	.L875:
 3216 17d0 5046     		mov	r0, r10
 3217 17d2 FFF7FEFF 		bl	data_free_control
 3218 17d6 032C     		cmp	r4, #3
 3219 17d8 94BF     		ite	ls
 3220 17da 0021     		movls	r1, #0
 3221 17dc 0121     		movhi	r1, #1
 3222 17de 5D4B     		ldr	r3, .L975+4
 3223 17e0 CBF80090 		str	r9, [fp]
 3224              	.L877:
 3225 17e4 5A78     		ldrb	r2, [r3, #1]	@ zero_extendqisi2
 3226 17e6 8A42     		cmp	r2, r1
 3227 17e8 4DD0     		beq	.L968
 3228              	.L876:
 3229 17ea 0233     		adds	r3, r3, #2
 3230 17ec 9D42     		cmp	r5, r3
 3231 17ee F9D1     		bne	.L877
 3232              	.L952:
 3233 17f0 2046     		mov	r0, r4
 3234 17f2 0134     		adds	r4, r4, #1
 3235 17f4 0021     		movs	r1, #0
 3236 17f6 E4B2     		uxtb	r4, r4
 3237 17f8 FFF7FEFF 		bl	screen_pot
 3238 17fc 082C     		cmp	r4, #8
 3239 17fe D6D1     		bne	.L879
 3240              	.L965:
 3241 1800 544C     		ldr	r4, .L975+4
 3242 1802 2346     		mov	r3, r4
 3243              	.L882:
 3244 1804 5A78     		ldrb	r2, [r3, #1]	@ zero_extendqisi2
 3245 1806 12B9     		cbnz	r2, .L880
 3246 1808 1A78     		ldrb	r2, [r3]	@ zero_extendqisi2
 3247 180a 012A     		cmp	r2, #1
 3248 180c 04D0     		beq	.L886
 3249              	.L880:
 3250 180e 0233     		adds	r3, r3, #2
 3251 1810 9D42     		cmp	r5, r3
 3252 1812 F7D1     		bne	.L882
 3253 1814 FFF786F9 		bl	print_pb_name.isra.2
 3254              	.L886:
 3255 1818 6378     		ldrb	r3, [r4, #1]	@ zero_extendqisi2
 3256 181a 012B     		cmp	r3, #1
 3257 181c 49D0     		beq	.L969
 3258              	.L884:
 3259 181e 0234     		adds	r4, r4, #2
 3260 1820 A542     		cmp	r5, r4
 3261 1822 F9D1     		bne	.L886
 3262 1824 0020     		movs	r0, #0
 3263 1826 FFF7FEFF 		bl	naveg_master_volume
 3264 182a 05B0     		add	sp, sp, #20
 3265              		@ sp needed
 3266 182c BDE8F08F 		pop	{r4, r5, r6, r7, r8, r9, r10, fp, pc}
 3267              	.L959:
 3268 1830 1A78     		ldrb	r2, [r3]	@ zero_extendqisi2
 3269 1832 012A     		cmp	r2, #1
 3270 1834 7FF44EAF 		bne	.L840
 3271 1838 52E7     		b	.L841
 3272              	.L963:
 3273 183a 517A     		ldrb	r1, [r2, #9]	@ zero_extendqisi2
 3274 183c 0029     		cmp	r1, #0
 3275 183e 86D0     		beq	.L862
 3276 1840 5CE7     		b	.L888
 3277              	.L961:
 3278 1842 4749     		ldr	r1, .L975+16
 3279 1844 01F10F0C 		add	ip, r1, #15
 3280              	.L854:
 3281 1848 087A     		ldrb	r0, [r1, #8]	@ zero_extendqisi2
 3282 184a 4045     		cmp	r0, r8
 3283 184c 17D0     		beq	.L970
 3284              	.L853:
 3285 184e 0531     		adds	r1, r1, #5
 3286 1850 8C45     		cmp	ip, r1
 3287 1852 F9D1     		bne	.L854
 3288 1854 B8F1010F 		cmp	r8, #1
 3289 1858 94BF     		ite	ls
 3290 185a 4FF0000C 		movls	ip, #0
 3291 185e 4FF0010C 		movhi	ip, #1
 3292 1862 3C49     		ldr	r1, .L975+4
 3293 1864 4878     		ldrb	r0, [r1, #1]	@ zero_extendqisi2
 3294 1866 6045     		cmp	r0, ip
 3295 1868 05D0     		beq	.L971
 3296              	.L856:
 3297 186a 0231     		adds	r1, r1, #2
 3298 186c 8D42     		cmp	r5, r1
 3299 186e 84D0     		beq	.L950
 3300 1870 4878     		ldrb	r0, [r1, #1]	@ zero_extendqisi2
 3301 1872 6045     		cmp	r0, ip
 3302 1874 F9D1     		bne	.L856
 3303              	.L971:
 3304 1876 0878     		ldrb	r0, [r1]	@ zero_extendqisi2
 3305 1878 0128     		cmp	r0, #1
 3306 187a F6D1     		bne	.L856
 3307 187c 48E7     		b	.L852
 3308              	.L970:
 3309 187e 487A     		ldrb	r0, [r1, #9]	@ zero_extendqisi2
 3310 1880 0028     		cmp	r0, #0
 3311 1882 E4D0     		beq	.L853
 3312 1884 44E7     		b	.L852
 3313              	.L968:
 3314 1886 1A78     		ldrb	r2, [r3]	@ zero_extendqisi2
 3315 1888 012A     		cmp	r2, #1
 3316 188a AED1     		bne	.L876
 3317 188c 8BE7     		b	.L889
 3318              	.L966:
 3319 188e 032C     		cmp	r4, #3
 3320 1890 94BF     		ite	ls
 3321 1892 0021     		movls	r1, #0
 3322 1894 0121     		movhi	r1, #1
 3323 1896 2F4B     		ldr	r3, .L975+4
 3324 1898 5A78     		ldrb	r2, [r3, #1]	@ zero_extendqisi2
 3325 189a 8A42     		cmp	r2, r1
 3326 189c 05D0     		beq	.L972
 3327              	.L870:
 3328 189e 0233     		adds	r3, r3, #2
 3329 18a0 9D42     		cmp	r5, r3
 3330 18a2 A5D0     		beq	.L952
 3331 18a4 5A78     		ldrb	r2, [r3, #1]	@ zero_extendqisi2
 3332 18a6 8A42     		cmp	r2, r1
 3333 18a8 F9D1     		bne	.L870
 3334              	.L972:
 3335 18aa 1A78     		ldrb	r2, [r3]	@ zero_extendqisi2
 3336 18ac 012A     		cmp	r2, #1
 3337 18ae F6D1     		bne	.L870
 3338 18b0 82E7     		b	.L869
 3339              	.L969:
 3340 18b2 2378     		ldrb	r3, [r4]	@ zero_extendqisi2
 3341 18b4 012B     		cmp	r3, #1
 3342 18b6 B2D1     		bne	.L884
 3343 18b8 05B0     		add	sp, sp, #20
 3344              		@ sp needed
 3345 18ba BDE8F08F 		pop	{r4, r5, r6, r7, r8, r9, r10, fp, pc}
 3346              	.L964:
 3347 18be 1078     		ldrb	r0, [r2]	@ zero_extendqisi2
 3348 18c0 0128     		cmp	r0, #1
 3349 18c2 7FF457AF 		bne	.L865
 3350 18c6 19E7     		b	.L888
 3351              	.L839:
 3352 18c8 8246     		mov	r10, r0
 3353 18ca 2349     		ldr	r1, .L975+8
 3354 18cc 3846     		mov	r0, r7
 3355 18ce FFF7FEFF 		bl	strcmp
 3356 18d2 D146     		mov	r9, r10
 3357 18d4 8046     		mov	r8, r0
 3358 18d6 1E4C     		ldr	r4, .L975
 3359 18d8 5046     		mov	r0, r10
 3360 18da 224D     		ldr	r5, .L975+20
 3361 18dc 8DF80FA0 		strb	r10, [sp, #15]
 3362 18e0 0CE0     		b	.L851
 3363              	.L973:
 3364 18e2 9AF91030 		ldrsb	r3, [r10, #16]
 3365 18e6 9E42     		cmp	r6, r3
 3366 18e8 0ED0     		beq	.L844
 3367              	.L845:
 3368 18ea 9DF80F00 		ldrb	r0, [sp, #15]	@ zero_extendqisi2
 3369              	.L848:
 3370 18ee 0130     		adds	r0, r0, #1
 3371 18f0 C0B2     		uxtb	r0, r0
 3372 18f2 0128     		cmp	r0, #1
 3373 18f4 8DF80F00 		strb	r0, [sp, #15]
 3374 18f8 3FF6F2AE 		bhi	.L841
 3375              	.L851:
 3376 18fc 04EB8000 		add	r0, r4, r0, lsl #2
 3377 1900 D0F81CA0 		ldr	r10, [r0, #28]
 3378 1904 701C     		adds	r0, r6, #1
 3379 1906 ECD1     		bne	.L973
 3380              	.L844:
 3381 1908 B8F1000F 		cmp	r8, #0
 3382 190c 06D0     		beq	.L846
 3383 190e 3946     		mov	r1, r7
 3384 1910 DAF80800 		ldr	r0, [r10, #8]
 3385 1914 FFF7FEFF 		bl	strcmp
 3386 1918 0028     		cmp	r0, #0
 3387 191a E6D1     		bne	.L845
 3388              	.L846:
 3389 191c 5046     		mov	r0, r10
 3390 191e FFF7FEFF 		bl	data_free_control
 3391 1922 9DF80F00 		ldrb	r0, [sp, #15]	@ zero_extendqisi2
 3392 1926 0B4B     		ldr	r3, .L975+4
 3393 1928 04EB8002 		add	r2, r4, r0, lsl #2
 3394 192c C2F81C90 		str	r9, [r2, #28]
 3395              	.L849:
 3396 1930 5A78     		ldrb	r2, [r3, #1]	@ zero_extendqisi2
 3397 1932 8242     		cmp	r2, r0
 3398 1934 08D0     		beq	.L974
 3399              	.L847:
 3400 1936 0233     		adds	r3, r3, #2
 3401 1938 AB42     		cmp	r3, r5
 3402 193a F9D1     		bne	.L849
 3403 193c 0021     		movs	r1, #0
 3404 193e FFF7FEFF 		bl	screen_encoder
 3405 1942 9DF80F00 		ldrb	r0, [sp, #15]	@ zero_extendqisi2
 3406 1946 D2E7     		b	.L848
 3407              	.L974:
 3408 1948 1A78     		ldrb	r2, [r3]	@ zero_extendqisi2
 3409 194a 012A     		cmp	r2, #1
 3410 194c F3D1     		bne	.L847
 3411 194e CEE7     		b	.L848
 3412              	.L976:
 3413              		.align	2
 3414              	.L975:
 3415 1950 00000000 		.word	.LANCHOR0
 3416 1954 00000000 		.word	g_tool
 3417 1958 94000000 		.word	.LC18
 3418 195c 00000000 		.word	g_tap_tempo
 3419 1960 04000000 		.word	.LANCHOR0+4
 3420 1964 0A000000 		.word	g_tool+10
 3421 1968 20000000 		.word	.LANCHOR0+32
 3422 196c 58000000 		.word	.LANCHOR0+88
 3424              		.align	1
 3425              		.p2align 2,,3
 3426              		.global	naveg_remove_control
 3427              		.syntax unified
 3428              		.thumb
 3429              		.thumb_func
 3430              		.fpu softvfp
 3432              	naveg_remove_control:
 3433              		@ args = 0, pretend = 0, frame = 0
 3434              		@ frame_needed = 0, uses_anonymous_args = 0
 3435              		@ link register save eliminated.
 3436 1970 024B     		ldr	r3, .L980
 3437 1972 93F89030 		ldrb	r3, [r3, #144]	@ zero_extendqisi2
 3438 1976 03B9     		cbnz	r3, .L979
 3439 1978 7047     		bx	lr
 3440              	.L979:
 3441 197a 8FE6     		b	naveg_remove_control.part.6
 3442              	.L981:
 3443              		.align	2
 3444              	.L980:
 3445 197c 00000000 		.word	.LANCHOR0
 3447              		.global	__aeabi_i2d
 3448              		.global	__aeabi_ddiv
 3449              		.global	__aeabi_d2iz
 3450              		.align	1
 3451              		.p2align 2,,3
 3452              		.global	naveg_add_control
 3453              		.syntax unified
 3454              		.thumb
 3455              		.thumb_func
 3456              		.fpu softvfp
 3458              	naveg_add_control:
 3459              		@ args = 0, pretend = 0, frame = 0
 3460              		@ frame_needed = 0, uses_anonymous_args = 0
 3461 1980 2DE9F84F 		push	{r3, r4, r5, r6, r7, r8, r9, r10, fp, lr}
 3462 1984 964C     		ldr	r4, .L1053
 3463 1986 94F89030 		ldrb	r3, [r4, #144]	@ zero_extendqisi2
 3464 198a BBB1     		cbz	r3, .L982
 3465 198c B0B1     		cbz	r0, .L982
 3466 198e 8246     		mov	r10, r0
 3467 1990 8168     		ldr	r1, [r0, #8]
 3468 1992 90F91000 		ldrsb	r0, [r0, #16]
 3469 1996 FFF781FE 		bl	naveg_remove_control.part.6
 3470 199a 9AF80230 		ldrb	r3, [r10, #2]	@ zero_extendqisi2
 3471 199e 022B     		cmp	r3, #2
 3472 19a0 00F08280 		beq	.L985
 3473 19a4 032B     		cmp	r3, #3
 3474 19a6 0BD0     		beq	.L986
 3475 19a8 012B     		cmp	r3, #1
 3476 19aa 07D1     		bne	.L982
 3477 19ac 5046     		mov	r0, r10
 3478 19ae BDE8F84F 		pop	{r3, r4, r5, r6, r7, r8, r9, r10, fp, lr}
 3479 19b2 FEF7D9BB 		b	foot_control_add
 3480              	.L1050:
 3481 19b6 1A78     		ldrb	r2, [r3]	@ zero_extendqisi2
 3482 19b8 012A     		cmp	r2, #1
 3483 19ba 6CD1     		bne	.L1011
 3484              	.L982:
 3485 19bc BDE8F88F 		pop	{r3, r4, r5, r6, r7, r8, r9, r10, fp, pc}
 3486              	.L986:
 3487 19c0 9AF803B0 		ldrb	fp, [r10, #3]	@ zero_extendqisi2
 3488 19c4 4FEA8B05 		lsl	r5, fp, #2
 3489 19c8 6319     		adds	r3, r4, r5
 3490 19ca D86D     		ldr	r0, [r3, #92]
 3491 19cc 08B1     		cbz	r0, .L1001
 3492 19ce FFF7FEFF 		bl	data_free_control
 3493              	.L1001:
 3494 19d2 2C44     		add	r4, r4, r5
 3495 19d4 C4F85CA0 		str	r10, [r4, #92]
 3496 19d8 9AF81230 		ldrb	r3, [r10, #18]	@ zero_extendqisi2
 3497 19dc 002B     		cmp	r3, #0
 3498 19de 00F0DA80 		beq	.L1003
 3499 19e2 402B     		cmp	r3, #64
 3500 19e4 4CD1     		bne	.L1002
 3501 19e6 DAF81850 		ldr	r5, [r10, #24]	@ float
 3502 19ea 0021     		movs	r1, #0
 3503 19ec 2846     		mov	r0, r5
 3504 19ee FFF7FEFF 		bl	__aeabi_fcmpeq
 3505 19f2 20B1     		cbz	r0, .L1005
 3506 19f4 4FF40003 		mov	r3, #8388608
 3507 19f8 1D46     		mov	r5, r3
 3508 19fa CAF81830 		str	r3, [r10, #24]	@ float
 3509              	.L1005:
 3510 19fe 0021     		movs	r1, #0
 3511 1a00 DAF81C00 		ldr	r0, [r10, #28]	@ float
 3512 1a04 FFF7FEFF 		bl	__aeabi_fcmpeq
 3513 1a08 18B1     		cbz	r0, .L1007
 3514 1a0a 4FF40003 		mov	r3, #8388608
 3515 1a0e CAF81C30 		str	r3, [r10, #28]	@ float
 3516              	.L1007:
 3517 1a12 DAF81440 		ldr	r4, [r10, #20]	@ float
 3518 1a16 0021     		movs	r1, #0
 3519 1a18 2046     		mov	r0, r4
 3520 1a1a FFF7FEFF 		bl	__aeabi_fcmpeq
 3521 1a1e 20B1     		cbz	r0, .L1009
 3522 1a20 4FF40003 		mov	r3, #8388608
 3523 1a24 1C46     		mov	r4, r3
 3524 1a26 CAF81430 		str	r3, [r10, #20]	@ float
 3525              	.L1009:
 3526 1a2a 9AF92100 		ldrsb	r0, [r10, #33]
 3527 1a2e 0138     		subs	r0, r0, #1
 3528 1a30 FFF7FEFF 		bl	__aeabi_i2d
 3529 1a34 0646     		mov	r6, r0
 3530 1a36 0F46     		mov	r7, r1
 3531 1a38 2046     		mov	r0, r4
 3532 1a3a 2946     		mov	r1, r5
 3533 1a3c FFF7FEFF 		bl	__aeabi_fdiv
 3534 1a40 FFF7FEFF 		bl	__aeabi_f2d
 3535 1a44 FFF7FEFF 		bl	log
 3536 1a48 8046     		mov	r8, r0
 3537 1a4a 8946     		mov	r9, r1
 3538 1a4c DAF81C00 		ldr	r0, [r10, #28]	@ float
 3539 1a50 DAF81810 		ldr	r1, [r10, #24]	@ float
 3540 1a54 FFF7FEFF 		bl	__aeabi_fdiv
 3541 1a58 FFF7FEFF 		bl	__aeabi_f2d
 3542 1a5c FFF7FEFF 		bl	log
 3543 1a60 0446     		mov	r4, r0
 3544 1a62 0D46     		mov	r5, r1
 3545 1a64 4246     		mov	r2, r8
 3546 1a66 4B46     		mov	r3, r9
 3547 1a68 3046     		mov	r0, r6
 3548 1a6a 3946     		mov	r1, r7
 3549 1a6c FFF7FEFF 		bl	__aeabi_dmul
 3550 1a70 2246     		mov	r2, r4
 3551 1a72 2B46     		mov	r3, r5
 3552 1a74 FFF7FEFF 		bl	__aeabi_ddiv
 3553 1a78 FFF7FEFF 		bl	__aeabi_d2iz
 3554 1a7c 8AF82000 		strb	r0, [r10, #32]
 3555              	.L1002:
 3556 1a80 BBF1030F 		cmp	fp, #3
 3557 1a84 94BF     		ite	ls
 3558 1a86 0021     		movls	r1, #0
 3559 1a88 0121     		movhi	r1, #1
 3560 1a8a 564B     		ldr	r3, .L1053+4
 3561 1a8c 03F10A00 		add	r0, r3, #10
 3562              	.L1012:
 3563 1a90 5A78     		ldrb	r2, [r3, #1]	@ zero_extendqisi2
 3564 1a92 8A42     		cmp	r2, r1
 3565 1a94 8FD0     		beq	.L1050
 3566              	.L1011:
 3567 1a96 0233     		adds	r3, r3, #2
 3568 1a98 8342     		cmp	r3, r0
 3569 1a9a F9D1     		bne	.L1012
 3570 1a9c 5146     		mov	r1, r10
 3571 1a9e 5846     		mov	r0, fp
 3572 1aa0 BDE8F84F 		pop	{r3, r4, r5, r6, r7, r8, r9, r10, fp, lr}
 3573 1aa4 FFF7FEBF 		b	screen_pot
 3574              	.L985:
 3575 1aa8 9AF80350 		ldrb	r5, [r10, #3]	@ zero_extendqisi2
 3576 1aac AE00     		lsls	r6, r5, #2
 3577 1aae A319     		adds	r3, r4, r6
 3578 1ab0 D869     		ldr	r0, [r3, #28]
 3579 1ab2 08B1     		cbz	r0, .L988
 3580 1ab4 FFF7FEFF 		bl	data_free_control
 3581              	.L988:
 3582 1ab8 9AF81230 		ldrb	r3, [r10, #18]	@ zero_extendqisi2
 3583 1abc 3444     		add	r4, r4, r6
 3584 1abe 082B     		cmp	r3, #8
 3585 1ac0 C4F81CA0 		str	r10, [r4, #28]
 3586 1ac4 3DD0     		beq	.L990
 3587 1ac6 802B     		cmp	r3, #128
 3588 1ac8 10D0     		beq	.L991
 3589 1aca 042B     		cmp	r3, #4
 3590 1acc 39D0     		beq	.L990
 3591              	.L989:
 3592 1ace 454B     		ldr	r3, .L1053+4
 3593 1ad0 03F10A01 		add	r1, r3, #10
 3594              	.L999:
 3595 1ad4 5A78     		ldrb	r2, [r3, #1]	@ zero_extendqisi2
 3596 1ad6 AA42     		cmp	r2, r5
 3597 1ad8 2FD0     		beq	.L1051
 3598              	.L998:
 3599 1ada 0233     		adds	r3, r3, #2
 3600 1adc 8B42     		cmp	r3, r1
 3601 1ade F9D1     		bne	.L999
 3602 1ae0 5146     		mov	r1, r10
 3603 1ae2 2846     		mov	r0, r5
 3604 1ae4 BDE8F84F 		pop	{r3, r4, r5, r6, r7, r8, r9, r10, fp, lr}
 3605 1ae8 FFF7FEBF 		b	screen_encoder
 3606              	.L991:
 3607 1aec DAF81860 		ldr	r6, [r10, #24]	@ float
 3608 1af0 DAF81C00 		ldr	r0, [r10, #28]	@ float
 3609 1af4 3146     		mov	r1, r6
 3610 1af6 FFF7FEFF 		bl	__aeabi_fsub
 3611 1afa 4FF07E51 		mov	r1, #1065353216
 3612 1afe 0746     		mov	r7, r0
 3613 1b00 FFF7FEFF 		bl	__aeabi_fadd
 3614 1b04 FFF7FEFF 		bl	__aeabi_f2iz
 3615 1b08 44B2     		sxtb	r4, r0
 3616 1b0a 3146     		mov	r1, r6
 3617 1b0c 8AF82140 		strb	r4, [r10, #33]
 3618 1b10 DAF81400 		ldr	r0, [r10, #20]	@ float
 3619 1b14 FFF7FEFF 		bl	__aeabi_fsub
 3620 1b18 0646     		mov	r6, r0
 3621 1b1a 2046     		mov	r0, r4
 3622 1b1c FFF7FEFF 		bl	__aeabi_i2f
 3623 1b20 0146     		mov	r1, r0
 3624 1b22 3846     		mov	r0, r7
 3625 1b24 FFF7FEFF 		bl	__aeabi_fdiv
 3626 1b28 0146     		mov	r1, r0
 3627 1b2a 3046     		mov	r0, r6
 3628 1b2c FFF7FEFF 		bl	__aeabi_fdiv
 3629 1b30 FFF7FEFF 		bl	__aeabi_f2iz
 3630 1b34 8AF82000 		strb	r0, [r10, #32]
 3631 1b38 C9E7     		b	.L989
 3632              	.L1051:
 3633 1b3a 1A78     		ldrb	r2, [r3]	@ zero_extendqisi2
 3634 1b3c 012A     		cmp	r2, #1
 3635 1b3e CCD1     		bne	.L998
 3636 1b40 3CE7     		b	.L982
 3637              	.L990:
 3638 1b42 0024     		movs	r4, #0
 3639 1b44 0123     		movs	r3, #1
 3640 1b46 9AF82470 		ldrb	r7, [r10, #36]	@ zero_extendqisi2
 3641 1b4a 8AF82040 		strb	r4, [r10, #32]
 3642 1b4e 8AF81330 		strb	r3, [r10, #19]
 3643 1b52 EFB1     		cbz	r7, .L992
 3644 1b54 DAF82860 		ldr	r6, [r10, #40]
 3645 1b58 DAF81480 		ldr	r8, [r10, #20]	@ float
 3646 1b5c 3368     		ldr	r3, [r6]
 3647 1b5e 93F90400 		ldrsb	r0, [r3, #4]
 3648 1b62 FFF7FEFF 		bl	__aeabi_i2f
 3649 1b66 4146     		mov	r1, r8
 3650 1b68 FFF7FEFF 		bl	__aeabi_fcmpeq
 3651 1b6c 98BB     		cbnz	r0, .L993
 3652 1b6e 0446     		mov	r4, r0
 3653 1b70 09E0     		b	.L995
 3654              	.L997:
 3655 1b72 56F8043F 		ldr	r3, [r6, #4]!
 3656 1b76 93F90400 		ldrsb	r0, [r3, #4]
 3657 1b7a FFF7FEFF 		bl	__aeabi_i2f
 3658 1b7e 4146     		mov	r1, r8
 3659 1b80 FFF7FEFF 		bl	__aeabi_fcmpeq
 3660 1b84 30BB     		cbnz	r0, .L1052
 3661              	.L995:
 3662 1b86 0134     		adds	r4, r4, #1
 3663 1b88 E4B2     		uxtb	r4, r4
 3664 1b8a BC42     		cmp	r4, r7
 3665 1b8c F1D1     		bne	.L997
 3666 1b8e 67B2     		sxtb	r7, r4
 3667              	.L992:
 3668 1b90 8AF82170 		strb	r7, [r10, #33]
 3669 1b94 9BE7     		b	.L989
 3670              	.L1003:
 3671 1b96 DAF81840 		ldr	r4, [r10, #24]	@ float
 3672 1b9a DAF81400 		ldr	r0, [r10, #20]	@ float
 3673 1b9e 2146     		mov	r1, r4
 3674 1ba0 FFF7FEFF 		bl	__aeabi_fsub
 3675 1ba4 2146     		mov	r1, r4
 3676 1ba6 0546     		mov	r5, r0
 3677 1ba8 DAF81C00 		ldr	r0, [r10, #28]	@ float
 3678 1bac FFF7FEFF 		bl	__aeabi_fsub
 3679 1bb0 0446     		mov	r4, r0
 3680 1bb2 9AF92100 		ldrsb	r0, [r10, #33]
 3681 1bb6 FFF7FEFF 		bl	__aeabi_i2f
 3682 1bba 0146     		mov	r1, r0
 3683 1bbc 2046     		mov	r0, r4
 3684 1bbe FFF7FEFF 		bl	__aeabi_fdiv
 3685 1bc2 0146     		mov	r1, r0
 3686 1bc4 2846     		mov	r0, r5
 3687 1bc6 FFF7FEFF 		bl	__aeabi_fdiv
 3688 1bca FFF7FEFF 		bl	__aeabi_f2iz
 3689 1bce 8AF82000 		strb	r0, [r10, #32]
 3690 1bd2 55E7     		b	.L1002
 3691              	.L1052:
 3692 1bd4 64B2     		sxtb	r4, r4
 3693              	.L993:
 3694 1bd6 8AF82040 		strb	r4, [r10, #32]
 3695 1bda 7FB2     		sxtb	r7, r7
 3696 1bdc D8E7     		b	.L992
 3697              	.L1054:
 3698 1bde 00BF     		.align	2
 3699              	.L1053:
 3700 1be0 00000000 		.word	.LANCHOR0
 3701 1be4 00000000 		.word	g_tool
 3703              		.align	1
 3704              		.p2align 2,,3
 3705              		.syntax unified
 3706              		.thumb
 3707              		.thumb_func
 3708              		.fpu softvfp
 3710              	naveg_toggle_tool.part.7:
 3711              		@ args = 0, pretend = 0, frame = 0
 3712              		@ frame_needed = 0, uses_anonymous_args = 0
 3713 1be8 F8B5     		push	{r3, r4, r5, r6, r7, lr}
 3714 1bea 0446     		mov	r4, r0
 3715 1bec 544E     		ldr	r6, .L1071
 3716 1bee 0846     		mov	r0, r1
 3717 1bf0 0D46     		mov	r5, r1
 3718 1bf2 FFF7FEFF 		bl	screen_clear
 3719 1bf6 16F81470 		ldrb	r7, [r6, r4, lsl #1]	@ zero_extendqisi2
 3720 1bfa DFB9     		cbnz	r7, .L1056
 3721 1bfc 012C     		cmp	r4, #1
 3722 1bfe 35D0     		beq	.L1058
 3723 1c00 45D3     		bcc	.L1059
 3724 1c02 022C     		cmp	r4, #2
 3725 1c04 0AD1     		bne	.L1057
 3726 1c06 4F4F     		ldr	r7, .L1071+4
 3727 1c08 97F89C30 		ldrb	r3, [r7, #156]	@ zero_extendqisi2
 3728 1c0c 002B     		cmp	r3, #0
 3729 1c0e 00F08980 		beq	.L1069
 3730              	.L1061:
 3731 1c12 0125     		movs	r5, #1
 3732 1c14 0023     		movs	r3, #0
 3733 1c16 87F89C50 		strb	r5, [r7, #156]
 3734 1c1a B371     		strb	r3, [r6, #6]
 3735              	.L1057:
 3736 1c1c 0122     		movs	r2, #1
 3737 1c1e 06EB4403 		add	r3, r6, r4, lsl #1
 3738 1c22 06F81420 		strb	r2, [r6, r4, lsl #1]
 3739 1c26 5D70     		strb	r5, [r3, #1]
 3740 1c28 2946     		mov	r1, r5
 3741 1c2a 2046     		mov	r0, r4
 3742 1c2c BDE8F840 		pop	{r3, r4, r5, r6, r7, lr}
 3743 1c30 FFF7FEBF 		b	screen_tool
 3744              	.L1056:
 3745 1c34 012C     		cmp	r4, #1
 3746 1c36 21D0     		beq	.L1063
 3747 1c38 43D3     		bcc	.L1064
 3748 1c3a 022C     		cmp	r4, #2
 3749 1c3c 05D1     		bne	.L1070
 3750 1c3e 0123     		movs	r3, #1
 3751 1c40 0022     		movs	r2, #0
 3752 1c42 B371     		strb	r3, [r6, #6]
 3753 1c44 3271     		strb	r2, [r6, #4]
 3754 1c46 F371     		strb	r3, [r6, #7]
 3755 1c48 F8BD     		pop	{r3, r4, r5, r6, r7, pc}
 3756              	.L1070:
 3757 1c4a 3E4B     		ldr	r3, .L1071+4
 3758 1c4c 2846     		mov	r0, r5
 3759 1c4e 03EB8503 		add	r3, r3, r5, lsl #2
 3760 1c52 D969     		ldr	r1, [r3, #28]
 3761 1c54 FFF7FEFF 		bl	screen_encoder
 3762 1c58 FEF764FF 		bl	print_pb_name.isra.2
 3763 1c5c 2846     		mov	r0, r5
 3764 1c5e FFF7FEFF 		bl	draw_all_pots
 3765 1c62 2846     		mov	r0, r5
 3766 1c64 BDE8F840 		pop	{r3, r4, r5, r6, r7, lr}
 3767 1c68 FFF7FEBF 		b	draw_all_foots
 3768              	.L1058:
 3769 1c6c 2846     		mov	r0, r5
 3770 1c6e FEF78BFC 		bl	display_disable_all_tools
 3771 1c72 0821     		movs	r1, #8
 3772 1c74 3448     		ldr	r0, .L1071+8
 3773 1c76 FFF7FEFF 		bl	comm_webgui_send
 3774 1c7a CFE7     		b	.L1057
 3775              	.L1063:
 3776 1c7c 0921     		movs	r1, #9
 3777 1c7e 3348     		ldr	r0, .L1071+12
 3778 1c80 FFF7FEFF 		bl	comm_webgui_send
 3779 1c84 0023     		movs	r3, #0
 3780 1c86 B471     		strb	r4, [r6, #6]
 3781 1c88 F471     		strb	r4, [r6, #7]
 3782 1c8a B370     		strb	r3, [r6, #2]
 3783 1c8c F8BD     		pop	{r3, r4, r5, r6, r7, pc}
 3784              	.L1059:
 3785 1c8e 0124     		movs	r4, #1
 3786 1c90 2046     		mov	r0, r4
 3787 1c92 FFF7FEFF 		bl	screen_clear
 3788 1c96 2946     		mov	r1, r5
 3789 1c98 3846     		mov	r0, r7
 3790 1c9a 7570     		strb	r5, [r6, #1]
 3791 1c9c B471     		strb	r4, [r6, #6]
 3792 1c9e F471     		strb	r4, [r6, #7]
 3793 1ca0 3470     		strb	r4, [r6]
 3794 1ca2 FFF7FEFF 		bl	screen_tool
 3795 1ca6 2046     		mov	r0, r4
 3796 1ca8 00F05EF8 		bl	menu_enter
 3797 1cac 254B     		ldr	r3, .L1071+4
 3798 1cae 3846     		mov	r0, r7
 3799 1cb0 D3F88410 		ldr	r1, [r3, #132]
 3800 1cb4 DA6C     		ldr	r2, [r3, #76]
 3801 1cb6 C3F8A010 		str	r1, [r3, #160]
 3802 1cba 1A65     		str	r2, [r3, #80]
 3803 1cbc BDE8F840 		pop	{r3, r4, r5, r6, r7, lr}
 3804 1cc0 52E0     		b	menu_enter
 3805              	.L1064:
 3806 1cc2 0024     		movs	r4, #0
 3807 1cc4 2846     		mov	r0, r5
 3808 1cc6 FEF75FFC 		bl	display_disable_all_tools
 3809 1cca 1E4E     		ldr	r6, .L1071+4
 3810 1ccc 0120     		movs	r0, #1
 3811 1cce FEF75BFC 		bl	display_disable_all_tools
 3812 1cd2 2146     		mov	r1, r4
 3813 1cd4 2046     		mov	r0, r4
 3814 1cd6 C6E92244 		strd	r4, r4, [r6, #136]
 3815 1cda 86F89C40 		strb	r4, [r6, #156]
 3816 1cde FFF7FEFF 		bl	system_save_gains_cb
 3817 1ce2 06EB8503 		add	r3, r6, r5, lsl #2
 3818 1ce6 D969     		ldr	r1, [r3, #28]
 3819 1ce8 2846     		mov	r0, r5
 3820 1cea FFF7FEFF 		bl	screen_encoder
 3821 1cee FEF719FF 		bl	print_pb_name.isra.2
 3822 1cf2 2846     		mov	r0, r5
 3823 1cf4 FFF7FEFF 		bl	draw_all_pots
 3824 1cf8 2846     		mov	r0, r5
 3825 1cfa FFF7FEFF 		bl	draw_all_foots
 3826 1cfe 0120     		movs	r0, #1
 3827 1d00 FFF7FEFF 		bl	screen_clear
 3828 1d04 2046     		mov	r0, r4
 3829 1d06 346A     		ldr	r4, [r6, #32]
 3830 1d08 FFF7FEFF 		bl	naveg_master_volume
 3831 1d0c 0120     		movs	r0, #1
 3832 1d0e FFF7FEFF 		bl	draw_all_pots
 3833 1d12 2146     		mov	r1, r4
 3834 1d14 0120     		movs	r0, #1
 3835 1d16 FFF7FEFF 		bl	screen_encoder
 3836 1d1a BDE8F840 		pop	{r3, r4, r5, r6, r7, lr}
 3837 1d1e 0120     		movs	r0, #1
 3838 1d20 FFF7FEBF 		b	draw_all_foots
 3839              	.L1069:
 3840 1d24 1946     		mov	r1, r3
 3841 1d26 0A48     		ldr	r0, .L1071+16
 3842 1d28 87F87C30 		strb	r3, [r7, #124]
 3843 1d2c FFF7FEFF 		bl	comm_webgui_set_response_cb
 3844 1d30 0521     		movs	r1, #5
 3845 1d32 0848     		ldr	r0, .L1071+20
 3846 1d34 FFF7FEFF 		bl	comm_webgui_send
 3847 1d38 FFF7FEFF 		bl	comm_webgui_wait_response
 3848 1d3c 69E7     		b	.L1061
 3849              	.L1072:
 3850 1d3e 00BF     		.align	2
 3851              	.L1071:
 3852 1d40 00000000 		.word	g_tool
 3853 1d44 00000000 		.word	.LANCHOR0
 3854 1d48 A4000000 		.word	.LC20
 3855 1d4c 28000000 		.word	.LC10
 3856 1d50 00000000 		.word	parse_banks_list
 3857 1d54 9C000000 		.word	.LC19
 3859              		.align	1
 3860              		.p2align 2,,3
 3861              		.global	naveg_toggle_tool
 3862              		.syntax unified
 3863              		.thumb
 3864              		.thumb_func
 3865              		.fpu softvfp
 3867              	naveg_toggle_tool:
 3868              		@ args = 0, pretend = 0, frame = 0
 3869              		@ frame_needed = 0, uses_anonymous_args = 0
 3870              		@ link register save eliminated.
 3871 1d58 024B     		ldr	r3, .L1076
 3872 1d5a 93F89030 		ldrb	r3, [r3, #144]	@ zero_extendqisi2
 3873 1d5e 03B9     		cbnz	r3, .L1075
 3874 1d60 7047     		bx	lr
 3875              	.L1075:
 3876 1d62 41E7     		b	naveg_toggle_tool.part.7
 3877              	.L1077:
 3878              		.align	2
 3879              	.L1076:
 3880 1d64 00000000 		.word	.LANCHOR0
 3882              		.align	1
 3883              		.p2align 2,,3
 3884              		.syntax unified
 3885              		.thumb
 3886              		.thumb_func
 3887              		.fpu softvfp
 3889              	menu_enter:
 3890              		@ args = 0, pretend = 0, frame = 8
 3891              		@ frame_needed = 0, uses_anonymous_args = 0
 3892 1d68 2DE9F047 		push	{r4, r5, r6, r7, r8, r9, r10, lr}
 3893 1d6c 0746     		mov	r7, r0
 3894 1d6e 82B0     		sub	sp, sp, #8
 3895 1d70 B34E     		ldr	r6, .L1301
 3896 1d72 E8B1     		cbz	r0, .L1079
 3897 1d74 F46C     		ldr	r4, [r6, #76]
 3898 1d76 D6F88480 		ldr	r8, [r6, #132]
 3899 1d7a 6268     		ldr	r2, [r4, #4]
 3900 1d7c 1379     		ldrb	r3, [r2, #4]	@ zero_extendqisi2
 3901 1d7e 991E     		subs	r1, r3, #2
 3902 1d80 0129     		cmp	r1, #1
 3903 1d82 1DD9     		bls	.L1284
 3904              	.L1081:
 3905 1d84 191F     		subs	r1, r3, #4
 3906 1d86 0129     		cmp	r1, #1
 3907 1d88 40F28A80 		bls	.L1091
 3908 1d8c 082B     		cmp	r3, #8
 3909 1d8e 00F08E80 		beq	.L1092
 3910 1d92 1389     		ldrh	r3, [r2, #8]
 3911 1d94 BE2B     		cmp	r3, #190
 3912 1d96 00F08580 		beq	.L1093
 3913 1d9a D388     		ldrh	r3, [r2, #6]
 3914 1d9c 0C2B     		cmp	r3, #12
 3915 1d9e 00F08180 		beq	.L1093
 3916 1da2 162B     		cmp	r3, #22
 3917 1da4 7ED0     		beq	.L1093
 3918 1da6 D4F80490 		ldr	r9, [r4, #4]
 3919 1daa B9F806C0 		ldrh	ip, [r9, #6]
 3920 1dae 2FE0     		b	.L1090
 3921              	.L1079:
 3922 1db0 346D     		ldr	r4, [r6, #80]
 3923 1db2 D6F8A080 		ldr	r8, [r6, #160]
 3924 1db6 6268     		ldr	r2, [r4, #4]
 3925 1db8 1379     		ldrb	r3, [r2, #4]	@ zero_extendqisi2
 3926 1dba 991E     		subs	r1, r3, #2
 3927 1dbc 0129     		cmp	r1, #1
 3928 1dbe E1D8     		bhi	.L1081
 3929              	.L1284:
 3930 1dc0 A17B     		ldrb	r1, [r4, #14]	@ zero_extendqisi2
 3931 1dc2 D8F80880 		ldr	r8, [r8, #8]
 3932 1dc6 31B1     		cbz	r1, .L1084
 3933 1dc8 0023     		movs	r3, #0
 3934              	.L1085:
 3935 1dca 0133     		adds	r3, r3, #1
 3936 1dcc DAB2     		uxtb	r2, r3
 3937 1dce 9142     		cmp	r1, r2
 3938 1dd0 D8F81480 		ldr	r8, [r8, #20]
 3939 1dd4 F9D8     		bhi	.L1085
 3940              	.L1084:
 3941 1dd6 D8F80040 		ldr	r4, [r8]
 3942 1dda D4F80490 		ldr	r9, [r4, #4]
 3943 1dde 99F80430 		ldrb	r3, [r9, #4]	@ zero_extendqisi2
 3944 1de2 012B     		cmp	r3, #1
 3945 1de4 00F09981 		beq	.L1285
 3946              	.L1086:
 3947 1de8 062B     		cmp	r3, #6
 3948 1dea 02D0     		beq	.L1088
 3949 1dec 002B     		cmp	r3, #0
 3950 1dee 40F02381 		bne	.L1286
 3951              	.L1088:
 3952 1df2 B9F80830 		ldrh	r3, [r9, #8]
 3953 1df6 B9F806C0 		ldrh	ip, [r9, #6]
 3954 1dfa BE2B     		cmp	r3, #190
 3955 1dfc 05D0     		beq	.L1089
 3956 1dfe BCF10C0F 		cmp	ip, #12
 3957 1e02 02D0     		beq	.L1089
 3958 1e04 BCF1160F 		cmp	ip, #22
 3959 1e08 02D1     		bne	.L1090
 3960              	.L1089:
 3961 1e0a D8F80030 		ldr	r3, [r8]
 3962 1e0e F364     		str	r3, [r6, #76]
 3963              	.L1090:
 3964 1e10 BCF11E0F 		cmp	ip, #30
 3965 1e14 8B4D     		ldr	r5, .L1301+4
 3966 1e16 65D0     		beq	.L1277
 3967              	.L1099:
 3968 1e18 BCF1820F 		cmp	ip, #130
 3969 1e1c 74D0     		beq	.L1103
 3970              	.L1295:
 3971 1e1e BCF1960F 		cmp	ip, #150
 3972 1e22 71D0     		beq	.L1103
 3973              	.L1102:
 3974 1e24 99F80430 		ldrb	r3, [r9, #4]	@ zero_extendqisi2
 3975 1e28 9A1E     		subs	r2, r3, #2
 3976 1e2a 012A     		cmp	r2, #1
 3977 1e2c 40F29980 		bls	.L1287
 3978 1e30 042B     		cmp	r3, #4
 3979 1e32 70D0     		beq	.L1104
 3980 1e34 082B     		cmp	r3, #8
 3981 1e36 6ED0     		beq	.L1104
 3982 1e38 B9F80820 		ldrh	r2, [r9, #8]
 3983 1e3c BE2A     		cmp	r2, #190
 3984 1e3e 6AD0     		beq	.L1104
 3985 1e40 BCF10C0F 		cmp	ip, #12
 3986 1e44 00F08181 		beq	.L1112
 3987 1e48 BCF1160F 		cmp	ip, #22
 3988 1e4c 00F07D81 		beq	.L1112
 3989 1e50 062B     		cmp	r3, #6
 3990 1e52 00F09681 		beq	.L1288
 3991 1e56 052B     		cmp	r3, #5
 3992 1e58 00F0AA81 		beq	.L1289
 3993 1e5c 002B     		cmp	r3, #0
 3994 1e5e 40F0CC81 		bne	.L1134
 3995 1e62 F36C     		ldr	r3, [r6, #76]
 3996 1e64 5A68     		ldr	r2, [r3, #4]
 3997 1e66 1279     		ldrb	r2, [r2, #4]	@ zero_extendqisi2
 3998 1e68 032A     		cmp	r2, #3
 3999 1e6a 00F0E981 		beq	.L1290
 4000              	.L1135:
 4001 1e6e 6368     		ldr	r3, [r4, #4]
 4002 1e70 DB68     		ldr	r3, [r3, #12]
 4003 1e72 13B1     		cbz	r3, .L1138
 4004 1e74 0021     		movs	r1, #0
 4005 1e76 2046     		mov	r0, r4
 4006 1e78 9847     		blx	r3
 4007              	.L1138:
 4008 1e7a 1FB1     		cbz	r7, .L1111
 4009              	.L1141:
 4010 1e7c D6F88430 		ldr	r3, [r6, #132]
 4011 1e80 1C68     		ldr	r4, [r3]
 4012 1e82 F464     		str	r4, [r6, #76]
 4013              	.L1111:
 4014 1e84 2B78     		ldrb	r3, [r5]	@ zero_extendqisi2
 4015 1e86 1BB1     		cbz	r3, .L1281
 4016              	.L1142:
 4017 1e88 2D79     		ldrb	r5, [r5, #4]	@ zero_extendqisi2
 4018 1e8a 002D     		cmp	r5, #0
 4019 1e8c 00F02D81 		beq	.L1144
 4020              	.L1281:
 4021 1e90 6368     		ldr	r3, [r4, #4]
 4022              	.L1143:
 4023 1e92 1B79     		ldrb	r3, [r3, #4]	@ zero_extendqisi2
 4024 1e94 072B     		cmp	r3, #7
 4025 1e96 00F0C080 		beq	.L1291
 4026              	.L1078:
 4027 1e9a 02B0     		add	sp, sp, #8
 4028              		@ sp needed
 4029 1e9c BDE8F087 		pop	{r4, r5, r6, r7, r8, r9, r10, pc}
 4030              	.L1091:
 4031 1ea0 052B     		cmp	r3, #5
 4032 1ea2 04D0     		beq	.L1092
 4033              	.L1093:
 4034 1ea4 D368     		ldr	r3, [r2, #12]
 4035 1ea6 13B1     		cbz	r3, .L1092
 4036 1ea8 0021     		movs	r1, #0
 4037 1eaa 2046     		mov	r0, r4
 4038 1eac 9847     		blx	r3
 4039              	.L1092:
 4040 1eae D4F80490 		ldr	r9, [r4, #4]
 4041 1eb2 B9F806C0 		ldrh	ip, [r9, #6]
 4042 1eb6 BCF1820F 		cmp	ip, #130
 4043 1eba 00F00D81 		beq	.L1094
 4044 1ebe BCF1960F 		cmp	ip, #150
 4045 1ec2 00F02281 		beq	.L1292
 4046 1ec6 002F     		cmp	r7, #0
 4047 1ec8 40F0B280 		bne	.L1293
 4048 1ecc D6F8A030 		ldr	r3, [r6, #160]
 4049 1ed0 1C68     		ldr	r4, [r3]
 4050              	.L1098:
 4051 1ed2 D4F80490 		ldr	r9, [r4, #4]
 4052 1ed6 F464     		str	r4, [r6, #76]
 4053 1ed8 B9F806C0 		ldrh	ip, [r9, #6]
 4054 1edc 594D     		ldr	r5, .L1301+4
 4055 1ede BCF11E0F 		cmp	ip, #30
 4056 1ee2 99D1     		bne	.L1099
 4057              	.L1277:
 4058 1ee4 AB78     		ldrb	r3, [r5, #2]	@ zero_extendqisi2
 4059 1ee6 002B     		cmp	r3, #0
 4060 1ee8 00F02881 		beq	.L1294
 4061 1eec 306D     		ldr	r0, [r6, #80]
 4062 1eee 4368     		ldr	r3, [r0, #4]
 4063 1ef0 DB68     		ldr	r3, [r3, #12]
 4064 1ef2 002B     		cmp	r3, #0
 4065 1ef4 96D0     		beq	.L1102
 4066 1ef6 0021     		movs	r1, #0
 4067 1ef8 9847     		blx	r3
 4068 1efa D4F80490 		ldr	r9, [r4, #4]
 4069 1efe B9F806C0 		ldrh	ip, [r9, #6]
 4070 1f02 BCF1820F 		cmp	ip, #130
 4071 1f06 8AD1     		bne	.L1295
 4072              	.L1103:
 4073 1f08 96F89B30 		ldrb	r3, [r6, #155]	@ zero_extendqisi2
 4074 1f0c 002B     		cmp	r3, #0
 4075 1f0e 89D0     		beq	.L1102
 4076 1f10 0823     		movs	r3, #8
 4077 1f12 89F80430 		strb	r3, [r9, #4]
 4078              	.L1104:
 4079 1f16 0122     		movs	r2, #1
 4080 1f18 0223     		movs	r3, #2
 4081 1f1a 0020     		movs	r0, #0
 4082 1f1c BCF1820F 		cmp	ip, #130
 4083 1f20 A273     		strb	r2, [r4, #14]
 4084 1f22 2373     		strb	r3, [r4, #12]
 4085 1f24 6061     		str	r0, [r4, #20]
 4086 1f26 00F03981 		beq	.L1296
 4087              	.L1115:
 4088 1f2a 0123     		movs	r3, #1
 4089 1f2c DFF81C81 		ldr	r8, .L1301+12
 4090 1f30 454F     		ldr	r7, .L1301+8
 4091 1f32 06E0     		b	.L1117
 4092              	.L1126:
 4093 1f34 B2F91420 		ldrsh	r2, [r2, #20]
 4094 1f38 BA46     		mov	r10, r7
 4095 1f3a 6245     		cmp	r2, ip
 4096 1f3c 58D0     		beq	.L1116
 4097 1f3e D1F81C80 		ldr	r8, [r1, #28]
 4098              	.L1117:
 4099 1f42 4FEA430E 		lsl	lr, r3, #1
 4100 1f46 591C     		adds	r1, r3, #1
 4101 1f48 1846     		mov	r0, r3
 4102 1f4a 7344     		add	r3, lr, r3
 4103 1f4c 07EB8302 		add	r2, r7, r3, lsl #2
 4104 1f50 CBB2     		uxtb	r3, r1
 4105 1f52 03EB4301 		add	r1, r3, r3, lsl #1
 4106 1f56 07EB8101 		add	r1, r7, r1, lsl #2
 4107 1f5a B8F1000F 		cmp	r8, #0
 4108 1f5e E9D1     		bne	.L1126
 4109 1f60 90E7     		b	.L1111
 4110              	.L1287:
 4111 1f62 0023     		movs	r3, #0
 4112 1f64 2373     		strb	r3, [r4, #12]
 4113 1f66 D8F80870 		ldr	r7, [r8, #8]
 4114 1f6a C6F88480 		str	r8, [r6, #132]
 4115 1f6e 0FB3     		cbz	r7, .L1106
 4116              	.L1110:
 4117 1f70 336D     		ldr	r3, [r6, #80]
 4118 1f72 5B68     		ldr	r3, [r3, #4]
 4119 1f74 DB88     		ldrh	r3, [r3, #6]
 4120 1f76 502B     		cmp	r3, #80
 4121 1f78 33D0     		beq	.L1297
 4122              	.L1107:
 4123 1f7a D7F80080 		ldr	r8, [r7]
 4124 1f7e D8F80430 		ldr	r3, [r8, #4]
 4125 1f82 1A79     		ldrb	r2, [r3, #4]	@ zero_extendqisi2
 4126 1f84 062A     		cmp	r2, #6
 4127 1f86 A2F10901 		sub	r1, r2, #9
 4128 1f8a 23D0     		beq	.L1108
 4129 1f8c 0129     		cmp	r1, #1
 4130 1f8e 21D9     		bls	.L1108
 4131 1f90 DA88     		ldrh	r2, [r3, #6]
 4132 1f92 B42A     		cmp	r2, #180
 4133 1f94 1ED0     		beq	.L1108
 4134 1f96 1E2A     		cmp	r2, #30
 4135 1f98 1CD0     		beq	.L1108
 4136 1f9a AA2A     		cmp	r2, #170
 4137 1f9c 1AD0     		beq	.L1108
 4138              	.L1109:
 4139 1f9e 237B     		ldrb	r3, [r4, #12]	@ zero_extendqisi2
 4140 1fa0 A268     		ldr	r2, [r4, #8]
 4141 1fa2 591C     		adds	r1, r3, #1
 4142 1fa4 2173     		strb	r1, [r4, #12]
 4143 1fa6 D8F80010 		ldr	r1, [r8]
 4144 1faa 7F69     		ldr	r7, [r7, #20]
 4145 1fac 42F82310 		str	r1, [r2, r3, lsl #2]
 4146 1fb0 002F     		cmp	r7, #0
 4147 1fb2 DDD1     		bne	.L1110
 4148              	.L1106:
 4149 1fb4 6268     		ldr	r2, [r4, #4]
 4150 1fb6 D388     		ldrh	r3, [r2, #6]
 4151 1fb8 B42B     		cmp	r3, #180
 4152 1fba 3FF463AF 		beq	.L1111
 4153 1fbe AA2B     		cmp	r3, #170
 4154 1fc0 3FF460AF 		beq	.L1111
 4155 1fc4 D368     		ldr	r3, [r2, #12]
 4156 1fc6 002B     		cmp	r3, #0
 4157 1fc8 3FF45CAF 		beq	.L1111
 4158              	.L1280:
 4159 1fcc 0021     		movs	r1, #0
 4160 1fce 2046     		mov	r0, r4
 4161 1fd0 9847     		blx	r3
 4162 1fd2 57E7     		b	.L1111
 4163              	.L1108:
 4164 1fd4 DB68     		ldr	r3, [r3, #12]
 4165 1fd6 002B     		cmp	r3, #0
 4166 1fd8 E1D0     		beq	.L1109
 4167 1fda 0321     		movs	r1, #3
 4168 1fdc 4046     		mov	r0, r8
 4169 1fde 9847     		blx	r3
 4170 1fe0 DDE7     		b	.L1109
 4171              	.L1297:
 4172 1fe2 0520     		movs	r0, #5
 4173 1fe4 FFF7FEFF 		bl	hardware_leds
 4174 1fe8 0121     		movs	r1, #1
 4175 1fea FFF7FEFF 		bl	ledz_on
 4176 1fee C4E7     		b	.L1107
 4177              	.L1116:
 4178 1ff0 B9F80830 		ldrh	r3, [r9, #8]
 4179 1ff4 BE2B     		cmp	r3, #190
 4180 1ff6 2BD0     		beq	.L1298
 4181 1ff8 BCF1C30F 		cmp	ip, #195
 4182 1ffc 45D0     		beq	.L1119
 4183 1ffe BCF10C0F 		cmp	ip, #12
 4184 2002 37D0     		beq	.L1123
 4185 2004 BCF1160F 		cmp	ip, #22
 4186 2008 34D0     		beq	.L1123
 4187              	.L1124:
 4188 200a 7044     		add	r0, r0, lr
 4189 200c 0AEB800A 		add	r10, r10, r0, lsl #2
 4190 2010 DAF81830 		ldr	r3, [r10, #24]
 4191 2014 C4E90438 		strd	r3, r8, [r4, #16]
 4192 2018 34E7     		b	.L1111
 4193              	.L1291:
 4194 201a 0023     		movs	r3, #0
 4195 201c 02A9     		add	r1, sp, #8
 4196 201e 41F8043D 		str	r3, [r1, #-4]!
 4197 2022 D6F89400 		ldr	r0, [r6, #148]
 4198 2026 FFF7FEFF 		bl	xQueueGiveFromISR
 4199 202a 02B0     		add	sp, sp, #8
 4200              		@ sp needed
 4201 202c BDE8F087 		pop	{r4, r5, r6, r7, r8, r9, r10, pc}
 4202              	.L1293:
 4203 2030 D6F88430 		ldr	r3, [r6, #132]
 4204 2034 1C68     		ldr	r4, [r3]
 4205 2036 4CE7     		b	.L1098
 4206              	.L1286:
 4207 2038 D8F80030 		ldr	r3, [r8]
 4208 203c F364     		str	r3, [r6, #76]
 4209 203e D8E6     		b	.L1088
 4210              	.L1302:
 4211              		.align	2
 4212              	.L1301:
 4213 2040 00000000 		.word	.LANCHOR0
 4214 2044 00000000 		.word	g_tool
 4215 2048 00000000 		.word	.LANCHOR2
 4216 204c B0000000 		.word	.LC21
 4217              	.L1298:
 4218 2050 BCF1C30F 		cmp	ip, #195
 4219 2054 19D0     		beq	.L1119
 4220              	.L1147:
 4221 2056 B4F91C30 		ldrsh	r3, [r4, #28]
 4222 205a 002B     		cmp	r3, #0
 4223 205c 00F08880 		beq	.L1120
 4224 2060 0530     		adds	r0, r0, #5
 4225 2062 00EB4000 		add	r0, r0, r0, lsl #1
 4226 2066 0AEB800A 		add	r10, r10, r0, lsl #2
 4227 206a DAE90632 		ldrd	r3, r2, [r10, #24]
 4228 206e C4E90432 		strd	r3, r2, [r4, #16]
 4229 2072 07E7     		b	.L1111
 4230              	.L1123:
 4231 2074 B4F91C30 		ldrsh	r3, [r4, #28]
 4232 2078 002B     		cmp	r3, #0
 4233 207a 6FD1     		bne	.L1125
 4234 207c 7044     		add	r0, r0, lr
 4235 207e 07EB8007 		add	r7, r7, r0, lsl #2
 4236 2082 BB69     		ldr	r3, [r7, #24]
 4237 2084 C4E90438 		strd	r3, r8, [r4, #16]
 4238 2088 FCE6     		b	.L1111
 4239              	.L1119:
 4240 208a B4F91C30 		ldrsh	r3, [r4, #28]
 4241 208e C4F81480 		str	r8, [r4, #20]
 4242 2092 012B     		cmp	r3, #1
 4243 2094 7FD0     		beq	.L1150
 4244 2096 022B     		cmp	r3, #2
 4245 2098 00F0C780 		beq	.L1151
 4246 209c 032B     		cmp	r3, #3
 4247 209e 00F0CA80 		beq	.L1152
 4248 20a2 7949     		ldr	r1, .L1303
 4249 20a4 794A     		ldr	r2, .L1303+4
 4250 20a6 042B     		cmp	r3, #4
 4251 20a8 14BF     		ite	ne
 4252 20aa 8846     		movne	r8, r1
 4253 20ac 9046     		moveq	r8, r2
 4254              	.L1122:
 4255 20ae 7044     		add	r0, r0, lr
 4256 20b0 07EB8007 		add	r7, r7, r0, lsl #2
 4257 20b4 D7F81890 		ldr	r9, [r7, #24]
 4258 20b8 4846     		mov	r0, r9
 4259 20ba FFF7FEFF 		bl	strlen
 4260 20be 0746     		mov	r7, r0
 4261 20c0 0230     		adds	r0, r0, #2
 4262 20c2 FFF7FEFF 		bl	malloc
 4263 20c6 7A1C     		adds	r2, r7, #1
 4264 20c8 4946     		mov	r1, r9
 4265 20ca FFF7FEFF 		bl	memcpy
 4266 20ce B8F80020 		ldrh	r2, [r8]
 4267 20d2 C253     		strh	r2, [r0, r7]	@ unaligned
 4268 20d4 2061     		str	r0, [r4, #16]
 4269 20d6 D5E6     		b	.L1111
 4270              	.L1094:
 4271 20d8 96F89B30 		ldrb	r3, [r6, #155]	@ zero_extendqisi2
 4272 20dc 002B     		cmp	r3, #0
 4273 20de 3BD0     		beq	.L1299
 4274              	.L1146:
 4275 20e0 0823     		movs	r3, #8
 4276 20e2 F464     		str	r4, [r6, #76]
 4277 20e4 89F80430 		strb	r3, [r9, #4]
 4278 20e8 92E6     		b	.L1090
 4279              	.L1144:
 4280 20ea 2046     		mov	r0, r4
 4281 20ec FFF7FEFF 		bl	screen_system_menu
 4282 20f0 6368     		ldr	r3, [r4, #4]
 4283 20f2 C6F88850 		str	r5, [r6, #136]
 4284 20f6 1A7C     		ldrb	r2, [r3, #16]	@ zero_extendqisi2
 4285 20f8 C6F88C50 		str	r5, [r6, #140]
 4286 20fc 002A     		cmp	r2, #0
 4287 20fe 3FF4C8AE 		beq	.L1143
 4288 2102 DA68     		ldr	r2, [r3, #12]
 4289 2104 C6E92224 		strd	r2, r4, [r6, #136]
 4290 2108 C3E6     		b	.L1143
 4291              	.L1292:
 4292 210a 96F89B30 		ldrb	r3, [r6, #155]	@ zero_extendqisi2
 4293 210e 002B     		cmp	r3, #0
 4294 2110 E6D1     		bne	.L1146
 4295              	.L1096:
 4296 2112 89F80430 		strb	r3, [r9, #4]
 4297 2116 F464     		str	r4, [r6, #76]
 4298 2118 7AE6     		b	.L1090
 4299              	.L1285:
 4300 211a D9F80C30 		ldr	r3, [r9, #12]
 4301 211e 13B1     		cbz	r3, .L1087
 4302 2120 2046     		mov	r0, r4
 4303 2122 0021     		movs	r1, #0
 4304 2124 9847     		blx	r3
 4305              	.L1087:
 4306 2126 D8F80430 		ldr	r3, [r8, #4]
 4307 212a D3F80480 		ldr	r8, [r3, #4]
 4308 212e D8F80040 		ldr	r4, [r8]
 4309 2132 D4F80490 		ldr	r9, [r4, #4]
 4310 2136 99F80430 		ldrb	r3, [r9, #4]	@ zero_extendqisi2
 4311 213a 55E6     		b	.L1086
 4312              	.L1294:
 4313 213c 0121     		movs	r1, #1
 4314 213e 0846     		mov	r0, r1
 4315 2140 FFF7FEFF 		bl	naveg_toggle_tool
 4316 2144 02B0     		add	sp, sp, #8
 4317              		@ sp needed
 4318 2146 BDE8F087 		pop	{r4, r5, r6, r7, r8, r9, r10, pc}
 4319              	.L1112:
 4320 214a 0121     		movs	r1, #1
 4321 214c 0222     		movs	r2, #2
 4322 214e 0023     		movs	r3, #0
 4323 2150 A173     		strb	r1, [r4, #14]
 4324 2152 2273     		strb	r2, [r4, #12]
 4325 2154 6361     		str	r3, [r4, #20]
 4326 2156 E8E6     		b	.L1115
 4327              	.L1299:
 4328 2158 0223     		movs	r3, #2
 4329 215a DAE7     		b	.L1096
 4330              	.L1125:
 4331 215c 0130     		adds	r0, r0, #1
 4332 215e 00EB4000 		add	r0, r0, r0, lsl #1
 4333 2162 07EB8007 		add	r7, r7, r0, lsl #2
 4334 2166 D7E90632 		ldrd	r3, r2, [r7, #24]
 4335 216a C4E90432 		strd	r3, r2, [r4, #16]
 4336 216e 89E6     		b	.L1111
 4337              	.L1120:
 4338 2170 00EB4000 		add	r0, r0, r0, lsl #1
 4339 2174 0AEB800A 		add	r10, r10, r0, lsl #2
 4340 2178 DAF81830 		ldr	r3, [r10, #24]
 4341 217c C4E90438 		strd	r3, r8, [r4, #16]
 4342 2180 80E6     		b	.L1111
 4343              	.L1288:
 4344 2182 D9F80C30 		ldr	r3, [r9, #12]
 4345 2186 002B     		cmp	r3, #0
 4346 2188 7FF420AF 		bne	.L1280
 4347              	.L1128:
 4348 218c 2B78     		ldrb	r3, [r5]	@ zero_extendqisi2
 4349 218e 002B     		cmp	r3, #0
 4350 2190 3FF483AE 		beq	.L1078
 4351 2194 78E6     		b	.L1142
 4352              	.L1150:
 4353 2196 DFF80081 		ldr	r8, .L1303+16
 4354 219a 88E7     		b	.L1122
 4355              	.L1296:
 4356 219c B9F80830 		ldrh	r3, [r9, #8]
 4357 21a0 DFF8EC80 		ldr	r8, .L1303+8
 4358 21a4 BE2B     		cmp	r3, #190
 4359 21a6 43D0     		beq	.L1155
 4360 21a8 8646     		mov	lr, r0
 4361 21aa DFF8E8A0 		ldr	r10, .L1303+12
 4362 21ae 2CE7     		b	.L1124
 4363              	.L1289:
 4364 21b0 0022     		movs	r2, #0
 4365 21b2 0123     		movs	r3, #1
 4366 21b4 BCF1820F 		cmp	ip, #130
 4367 21b8 A273     		strb	r2, [r4, #14]
 4368 21ba 6261     		str	r2, [r4, #20]
 4369 21bc 2373     		strb	r3, [r4, #12]
 4370 21be 3448     		ldr	r0, .L1303+8
 4371 21c0 3CD0     		beq	.L1130
 4372 21c2 3449     		ldr	r1, .L1303+12
 4373 21c4 04E0     		b	.L1131
 4374              	.L1133:
 4375 21c6 B7F91470 		ldrsh	r7, [r7, #20]
 4376 21ca BC45     		cmp	ip, r7
 4377 21cc 36D0     		beq	.L1130
 4378 21ce D069     		ldr	r0, [r2, #28]
 4379              	.L1131:
 4380 21d0 5A1C     		adds	r2, r3, #1
 4381 21d2 03EB4303 		add	r3, r3, r3, lsl #1
 4382 21d6 01EB8307 		add	r7, r1, r3, lsl #2
 4383 21da D3B2     		uxtb	r3, r2
 4384 21dc 03EB4302 		add	r2, r3, r3, lsl #1
 4385 21e0 01EB8202 		add	r2, r1, r2, lsl #2
 4386 21e4 0028     		cmp	r0, #0
 4387 21e6 EED1     		bne	.L1133
 4388              	.L1132:
 4389 21e8 D9F80C30 		ldr	r3, [r9, #12]
 4390 21ec 002B     		cmp	r3, #0
 4391 21ee CDD0     		beq	.L1128
 4392 21f0 BCF1960F 		cmp	ip, #150
 4393 21f4 7FF4EAAE 		bne	.L1280
 4394 21f8 C8E7     		b	.L1128
 4395              	.L1134:
 4396 21fa A3F10902 		sub	r2, r3, #9
 4397 21fe 012A     		cmp	r2, #1
 4398 2200 3FF640AE 		bhi	.L1111
 4399 2204 002F     		cmp	r7, #0
 4400 2206 3FF43DAE 		beq	.L1111
 4401 220a 96F8A410 		ldrb	r1, [r6, #164]	@ zero_extendqisi2
 4402 220e 69BB     		cbnz	r1, .L1139
 4403 2210 0120     		movs	r0, #1
 4404 2212 D9F80C20 		ldr	r2, [r9, #12]
 4405 2216 86F8A400 		strb	r0, [r6, #164]
 4406 221a 002A     		cmp	r2, #0
 4407 221c 3FF432AE 		beq	.L1111
 4408 2220 0A2B     		cmp	r3, #10
 4409 2222 B3D0     		beq	.L1128
 4410 2224 2046     		mov	r0, r4
 4411 2226 9047     		blx	r2
 4412 2228 2CE6     		b	.L1111
 4413              	.L1151:
 4414 222a DFF87080 		ldr	r8, .L1303+20
 4415 222e 3EE7     		b	.L1122
 4416              	.L1155:
 4417 2230 DFF860A0 		ldr	r10, .L1303+12
 4418 2234 0FE7     		b	.L1147
 4419              	.L1152:
 4420 2236 DFF86880 		ldr	r8, .L1303+24
 4421 223a 38E7     		b	.L1122
 4422              	.L1130:
 4423 223c 6061     		str	r0, [r4, #20]
 4424 223e D3E7     		b	.L1132
 4425              	.L1290:
 4426 2240 1A7B     		ldrb	r2, [r3, #12]	@ zero_extendqisi2
 4427 2242 012A     		cmp	r2, #1
 4428 2244 0ED9     		bls	.L1136
 4429 2246 4FF00108 		mov	r8, #1
 4430              	.L1137:
 4431 224a 9B68     		ldr	r3, [r3, #8]
 4432 224c 53F82800 		ldr	r0, [r3, r8, lsl #2]
 4433 2250 FFF7FEFF 		bl	deselect_item
 4434 2254 F36C     		ldr	r3, [r6, #76]
 4435 2256 08F10108 		add	r8, r8, #1
 4436 225a 1A7B     		ldrb	r2, [r3, #12]	@ zero_extendqisi2
 4437 225c 5FFA88F8 		uxtb	r8, r8
 4438 2260 4245     		cmp	r2, r8
 4439 2262 F2D8     		bhi	.L1137
 4440              	.L1136:
 4441 2264 2068     		ldr	r0, [r4]
 4442 2266 FFF7FEFF 		bl	select_item
 4443 226a 00E6     		b	.L1135
 4444              	.L1139:
 4445 226c 0021     		movs	r1, #0
 4446 226e 092B     		cmp	r3, #9
 4447 2270 86F8A410 		strb	r1, [r6, #164]
 4448 2274 04D0     		beq	.L1300
 4449 2276 D9F80C30 		ldr	r3, [r9, #12]
 4450 227a 2046     		mov	r0, r4
 4451 227c 9847     		blx	r3
 4452 227e FDE5     		b	.L1141
 4453              	.L1300:
 4454 2280 2046     		mov	r0, r4
 4455 2282 FFF7FEFF 		bl	system_save_gains_cb
 4456 2286 F9E5     		b	.L1141
 4457              	.L1304:
 4458              		.align	2
 4459              	.L1303:
 4460 2288 10010000 		.word	.LC26
 4461 228c 0C010000 		.word	.LC25
 4462 2290 B0000000 		.word	.LC21
 4463 2294 00000000 		.word	.LANCHOR2
 4464 2298 00010000 		.word	.LC22
 4465 229c 04010000 		.word	.LC23
 4466 22a0 08010000 		.word	.LC24
 4468              		.align	1
 4469              		.p2align 2,,3
 4470              		.global	naveg_ui_connection
 4471              		.syntax unified
 4472              		.thumb
 4473              		.thumb_func
 4474              		.fpu softvfp
 4476              	naveg_ui_connection:
 4477              		@ args = 0, pretend = 0, frame = 0
 4478              		@ frame_needed = 0, uses_anonymous_args = 0
 4479 22a4 70B5     		push	{r4, r5, r6, lr}
 4480 22a6 244C     		ldr	r4, .L1341
 4481 22a8 94F89030 		ldrb	r3, [r4, #144]	@ zero_extendqisi2
 4482 22ac 73B3     		cbz	r3, .L1305
 4483 22ae 0128     		cmp	r0, #1
 4484 22b0 2FD0     		beq	.L1336
 4485 22b2 0023     		movs	r3, #0
 4486 22b4 606C     		ldr	r0, [r4, #68]
 4487 22b6 84F89B30 		strb	r3, [r4, #155]
 4488 22ba 08B1     		cbz	r0, .L1314
 4489 22bc FFF7FEFF 		bl	data_free_banks_list
 4490              	.L1314:
 4491 22c0 206C     		ldr	r0, [r4, #64]
 4492 22c2 08B1     		cbz	r0, .L1315
 4493 22c4 FFF7FEFF 		bl	data_free_pedalboards_list
 4494              	.L1315:
 4495 22c8 0023     		movs	r3, #0
 4496 22ca 1C4A     		ldr	r2, .L1341+4
 4497 22cc 6364     		str	r3, [r4, #68]
 4498 22ce 1179     		ldrb	r1, [r2, #4]	@ zero_extendqisi2
 4499 22d0 2364     		str	r3, [r4, #64]
 4500 22d2 2360     		str	r3, [r4]
 4501 22d4 51B3     		cbz	r1, .L1316
 4502              	.L1311:
 4503 22d6 94F89030 		ldrb	r3, [r4, #144]	@ zero_extendqisi2
 4504 22da 13BB     		cbnz	r3, .L1309
 4505              	.L1313:
 4506 22dc D4F8A030 		ldr	r3, [r4, #160]
 4507 22e0 9B68     		ldr	r3, [r3, #8]
 4508 22e2 9BB1     		cbz	r3, .L1305
 4509 22e4 0025     		movs	r5, #0
 4510 22e6 E66C     		ldr	r6, [r4, #76]
 4511 22e8 03E0     		b	.L1319
 4512              	.L1339:
 4513 22ea 962A     		cmp	r2, #150
 4514 22ec 0FD0     		beq	.L1337
 4515 22ee 5B69     		ldr	r3, [r3, #20]
 4516 22f0 5BB1     		cbz	r3, .L1338
 4517              	.L1319:
 4518 22f2 1868     		ldr	r0, [r3]
 4519 22f4 4168     		ldr	r1, [r0, #4]
 4520 22f6 CA88     		ldrh	r2, [r1, #6]
 4521 22f8 822A     		cmp	r2, #130
 4522 22fa F6D1     		bne	.L1339
 4523 22fc 0222     		movs	r2, #2
 4524              	.L1317:
 4525 22fe 5B69     		ldr	r3, [r3, #20]
 4526 2300 0646     		mov	r6, r0
 4527 2302 0125     		movs	r5, #1
 4528 2304 0A71     		strb	r2, [r1, #4]
 4529 2306 002B     		cmp	r3, #0
 4530 2308 F3D1     		bne	.L1319
 4531              	.L1338:
 4532 230a 9DB9     		cbnz	r5, .L1340
 4533              	.L1305:
 4534 230c 70BD     		pop	{r4, r5, r6, pc}
 4535              	.L1337:
 4536 230e 0022     		movs	r2, #0
 4537 2310 F5E7     		b	.L1317
 4538              	.L1336:
 4539 2312 0A4B     		ldr	r3, .L1341+4
 4540 2314 84F89B00 		strb	r0, [r4, #155]
 4541 2318 1A79     		ldrb	r2, [r3, #4]	@ zero_extendqisi2
 4542 231a 12B9     		cbnz	r2, .L1309
 4543 231c 1B78     		ldrb	r3, [r3]	@ zero_extendqisi2
 4544 231e 002B     		cmp	r3, #0
 4545 2320 F4D0     		beq	.L1305
 4546              	.L1309:
 4547 2322 0021     		movs	r1, #0
 4548 2324 0846     		mov	r0, r1
 4549 2326 FFF75FFC 		bl	naveg_toggle_tool.part.7
 4550 232a D7E7     		b	.L1313
 4551              	.L1316:
 4552 232c 1378     		ldrb	r3, [r2]	@ zero_extendqisi2
 4553 232e 002B     		cmp	r3, #0
 4554 2330 D1D1     		bne	.L1311
 4555 2332 70BD     		pop	{r4, r5, r6, pc}
 4556              	.L1340:
 4557 2334 E664     		str	r6, [r4, #76]
 4558 2336 70BD     		pop	{r4, r5, r6, pc}
 4559              	.L1342:
 4560              		.align	2
 4561              	.L1341:
 4562 2338 00000000 		.word	.LANCHOR0
 4563 233c 00000000 		.word	g_tool
 4565              		.align	1
 4566              		.p2align 2,,3
 4567              		.global	naveg_up
 4568              		.syntax unified
 4569              		.thumb
 4570              		.thumb_func
 4571              		.fpu softvfp
 4573              	naveg_up:
 4574              		@ args = 0, pretend = 0, frame = 0
 4575              		@ frame_needed = 0, uses_anonymous_args = 0
 4576 2340 70B5     		push	{r4, r5, r6, lr}
 4577 2342 3E4C     		ldr	r4, .L1388
 4578 2344 94F89030 		ldrb	r3, [r4, #144]	@ zero_extendqisi2
 4579 2348 4BB1     		cbz	r3, .L1343
 4580 234a 3D4D     		ldr	r5, .L1388+4
 4581 234c 2B46     		mov	r3, r5
 4582 234e 05F10A01 		add	r1, r5, #10
 4583              	.L1347:
 4584 2352 5A78     		ldrb	r2, [r3, #1]	@ zero_extendqisi2
 4585 2354 8242     		cmp	r2, r0
 4586 2356 03D0     		beq	.L1382
 4587              	.L1345:
 4588 2358 0233     		adds	r3, r3, #2
 4589 235a 9942     		cmp	r1, r3
 4590 235c F9D1     		bne	.L1347
 4591              	.L1343:
 4592 235e 70BD     		pop	{r4, r5, r6, pc}
 4593              	.L1382:
 4594 2360 1A78     		ldrb	r2, [r3]	@ zero_extendqisi2
 4595 2362 012A     		cmp	r2, #1
 4596 2364 F8D1     		bne	.L1345
 4597 2366 C0B9     		cbnz	r0, .L1383
 4598 2368 AB78     		ldrb	r3, [r5, #2]	@ zero_extendqisi2
 4599 236a 4BBB     		cbnz	r3, .L1348
 4600 236c 2B79     		ldrb	r3, [r5, #4]	@ zero_extendqisi2
 4601 236e 33BB     		cbnz	r3, .L1384
 4602 2370 2B78     		ldrb	r3, [r5]	@ zero_extendqisi2
 4603 2372 002B     		cmp	r3, #0
 4604 2374 F3D0     		beq	.L1343
 4605 2376 D4E92013 		ldrd	r1, r3, [r4, #128]
 4606 237a 8B42     		cmp	r3, r1
 4607 237c E26C     		ldr	r2, [r4, #76]
 4608 237e 02D0     		beq	.L1350
 4609 2380 5168     		ldr	r1, [r2, #4]
 4610 2382 C988     		ldrh	r1, [r1, #6]
 4611 2384 11B9     		cbnz	r1, .L1351
 4612              	.L1350:
 4613 2386 C4F8A030 		str	r3, [r4, #160]
 4614 238a 2265     		str	r2, [r4, #80]
 4615              	.L1351:
 4616 238c 0020     		movs	r0, #0
 4617 238e FEF707FB 		bl	menu_up
 4618 2392 BDE87040 		pop	{r4, r5, r6, lr}
 4619 2396 0020     		movs	r0, #0
 4620 2398 E6E4     		b	menu_enter
 4621              	.L1383:
 4622 239a 0128     		cmp	r0, #1
 4623 239c DFD1     		bne	.L1343
 4624 239e 2B7A     		ldrb	r3, [r5, #8]	@ zero_extendqisi2
 4625 23a0 13BB     		cbnz	r3, .L1385
 4626 23a2 2B79     		ldrb	r3, [r5, #4]	@ zero_extendqisi2
 4627 23a4 23BB     		cbnz	r3, .L1386
 4628 23a6 AB79     		ldrb	r3, [r5, #6]	@ zero_extendqisi2
 4629 23a8 002B     		cmp	r3, #0
 4630 23aa D8D0     		beq	.L1343
 4631 23ac D4E92032 		ldrd	r3, r2, [r4, #128]
 4632 23b0 9A42     		cmp	r2, r3
 4633 23b2 2DD0     		beq	.L1387
 4634              	.L1357:
 4635 23b4 BDE87040 		pop	{r4, r5, r6, lr}
 4636 23b8 0120     		movs	r0, #1
 4637 23ba FEF7F1BA 		b	menu_up
 4638              	.L1384:
 4639 23be 0222     		movs	r2, #2
 4640              	.L1348:
 4641 23c0 1046     		mov	r0, r2
 4642 23c2 0021     		movs	r1, #0
 4643 23c4 FFF710FC 		bl	naveg_toggle_tool.part.7
 4644 23c8 0123     		movs	r3, #1
 4645 23ca D4F8A010 		ldr	r1, [r4, #160]
 4646 23ce 226D     		ldr	r2, [r4, #80]
 4647 23d0 0020     		movs	r0, #0
 4648 23d2 AB71     		strb	r3, [r5, #6]
 4649 23d4 EB71     		strb	r3, [r5, #7]
 4650 23d6 C4F88410 		str	r1, [r4, #132]
 4651 23da E264     		str	r2, [r4, #76]
 4652 23dc FEF7E0FA 		bl	menu_up
 4653 23e0 BDE87040 		pop	{r4, r5, r6, lr}
 4654 23e4 0020     		movs	r0, #0
 4655 23e6 BFE4     		b	menu_enter
 4656              	.L1385:
 4657 23e8 BDE87040 		pop	{r4, r5, r6, lr}
 4658 23ec FEF7AABB 		b	naveg_set_master_volume.part.3
 4659              	.L1386:
 4660 23f0 616C     		ldr	r1, [r4, #68]
 4661 23f2 0029     		cmp	r1, #0
 4662 23f4 B3D0     		beq	.L1343
 4663 23f6 94F87C30 		ldrb	r3, [r4, #124]	@ zero_extendqisi2
 4664 23fa 7BB9     		cbnz	r3, .L1354
 4665 23fc 4B7A     		ldrb	r3, [r1, #9]	@ zero_extendqisi2
 4666 23fe D3B1     		cbz	r3, .L1360
 4667 2400 013B     		subs	r3, r3, #1
 4668 2402 104E     		ldr	r6, .L1388+8
 4669 2404 4B72     		strb	r3, [r1, #9]
 4670              	.L1355:
 4671 2406 3046     		mov	r0, r6
 4672 2408 BDE87040 		pop	{r4, r5, r6, lr}
 4673 240c FFF7FEBF 		b	screen_bp_list
 4674              	.L1387:
 4675 2410 E36C     		ldr	r3, [r4, #76]
 4676 2412 5B68     		ldr	r3, [r3, #4]
 4677 2414 DB88     		ldrh	r3, [r3, #6]
 4678 2416 002B     		cmp	r3, #0
 4679 2418 CCD1     		bne	.L1357
 4680 241a A0E7     		b	.L1343
 4681              	.L1354:
 4682 241c 012B     		cmp	r3, #1
 4683 241e F2D1     		bne	.L1355
 4684 2420 226C     		ldr	r2, [r4, #64]
 4685 2422 537A     		ldrb	r3, [r2, #9]	@ zero_extendqisi2
 4686 2424 0BB1     		cbz	r3, .L1356
 4687 2426 013B     		subs	r3, r3, #1
 4688 2428 5372     		strb	r3, [r2, #9]
 4689              	.L1356:
 4690 242a 487A     		ldrb	r0, [r1, #9]	@ zero_extendqisi2
 4691 242c 0B68     		ldr	r3, [r1]
 4692 242e 1146     		mov	r1, r2
 4693 2430 53F82060 		ldr	r6, [r3, r0, lsl #2]
 4694 2434 E7E7     		b	.L1355
 4695              	.L1360:
 4696 2436 034E     		ldr	r6, .L1388+8
 4697 2438 E5E7     		b	.L1355
 4698              	.L1389:
 4699 243a 00BF     		.align	2
 4700              	.L1388:
 4701 243c 00000000 		.word	.LANCHOR0
 4702 2440 00000000 		.word	g_tool
 4703 2444 6C000000 		.word	.LC15
 4705              		.align	1
 4706              		.p2align 2,,3
 4707              		.global	naveg_down
 4708              		.syntax unified
 4709              		.thumb
 4710              		.thumb_func
 4711              		.fpu softvfp
 4713              	naveg_down:
 4714              		@ args = 0, pretend = 0, frame = 0
 4715              		@ frame_needed = 0, uses_anonymous_args = 0
 4716 2448 70B5     		push	{r4, r5, r6, lr}
 4717 244a 414C     		ldr	r4, .L1432
 4718 244c 94F89030 		ldrb	r3, [r4, #144]	@ zero_extendqisi2
 4719 2450 4BB1     		cbz	r3, .L1390
 4720 2452 404D     		ldr	r5, .L1432+4
 4721 2454 2B46     		mov	r3, r5
 4722 2456 05F10A01 		add	r1, r5, #10
 4723              	.L1394:
 4724 245a 5A78     		ldrb	r2, [r3, #1]	@ zero_extendqisi2
 4725 245c 8242     		cmp	r2, r0
 4726 245e 03D0     		beq	.L1426
 4727              	.L1392:
 4728 2460 0233     		adds	r3, r3, #2
 4729 2462 9942     		cmp	r1, r3
 4730 2464 F9D1     		bne	.L1394
 4731              	.L1390:
 4732 2466 70BD     		pop	{r4, r5, r6, pc}
 4733              	.L1426:
 4734 2468 1A78     		ldrb	r2, [r3]	@ zero_extendqisi2
 4735 246a 012A     		cmp	r2, #1
 4736 246c F8D1     		bne	.L1392
 4737 246e C0B9     		cbnz	r0, .L1427
 4738 2470 AB78     		ldrb	r3, [r5, #2]	@ zero_extendqisi2
 4739 2472 4BBB     		cbnz	r3, .L1395
 4740 2474 2B79     		ldrb	r3, [r5, #4]	@ zero_extendqisi2
 4741 2476 33BB     		cbnz	r3, .L1428
 4742 2478 2B78     		ldrb	r3, [r5]	@ zero_extendqisi2
 4743 247a 002B     		cmp	r3, #0
 4744 247c F3D0     		beq	.L1390
 4745 247e D4E92013 		ldrd	r1, r3, [r4, #128]
 4746 2482 8B42     		cmp	r3, r1
 4747 2484 E26C     		ldr	r2, [r4, #76]
 4748 2486 02D0     		beq	.L1397
 4749 2488 5168     		ldr	r1, [r2, #4]
 4750 248a C988     		ldrh	r1, [r1, #6]
 4751 248c 11B9     		cbnz	r1, .L1398
 4752              	.L1397:
 4753 248e C4F8A030 		str	r3, [r4, #160]
 4754 2492 2265     		str	r2, [r4, #80]
 4755              	.L1398:
 4756 2494 0020     		movs	r0, #0
 4757 2496 FEF7B3FA 		bl	menu_down
 4758 249a BDE87040 		pop	{r4, r5, r6, lr}
 4759 249e 0020     		movs	r0, #0
 4760 24a0 62E4     		b	menu_enter
 4761              	.L1427:
 4762 24a2 0128     		cmp	r0, #1
 4763 24a4 DFD1     		bne	.L1390
 4764 24a6 2B7A     		ldrb	r3, [r5, #8]	@ zero_extendqisi2
 4765 24a8 13BB     		cbnz	r3, .L1429
 4766 24aa 2B79     		ldrb	r3, [r5, #4]	@ zero_extendqisi2
 4767 24ac 2BBB     		cbnz	r3, .L1430
 4768 24ae AB79     		ldrb	r3, [r5, #6]	@ zero_extendqisi2
 4769 24b0 002B     		cmp	r3, #0
 4770 24b2 D8D0     		beq	.L1390
 4771 24b4 D4E92032 		ldrd	r3, r2, [r4, #128]
 4772 24b8 9A42     		cmp	r2, r3
 4773 24ba 31D0     		beq	.L1431
 4774              	.L1404:
 4775 24bc BDE87040 		pop	{r4, r5, r6, lr}
 4776 24c0 0120     		movs	r0, #1
 4777 24c2 FEF79DBA 		b	menu_down
 4778              	.L1428:
 4779 24c6 0222     		movs	r2, #2
 4780              	.L1395:
 4781 24c8 1046     		mov	r0, r2
 4782 24ca 0021     		movs	r1, #0
 4783 24cc FFF78CFB 		bl	naveg_toggle_tool.part.7
 4784 24d0 0123     		movs	r3, #1
 4785 24d2 D4F8A010 		ldr	r1, [r4, #160]
 4786 24d6 226D     		ldr	r2, [r4, #80]
 4787 24d8 0020     		movs	r0, #0
 4788 24da AB71     		strb	r3, [r5, #6]
 4789 24dc EB71     		strb	r3, [r5, #7]
 4790 24de C4F88410 		str	r1, [r4, #132]
 4791 24e2 E264     		str	r2, [r4, #76]
 4792 24e4 FEF78CFA 		bl	menu_down
 4793 24e8 BDE87040 		pop	{r4, r5, r6, lr}
 4794 24ec 0020     		movs	r0, #0
 4795 24ee 3BE4     		b	menu_enter
 4796              	.L1429:
 4797 24f0 0020     		movs	r0, #0
 4798 24f2 BDE87040 		pop	{r4, r5, r6, lr}
 4799 24f6 FEF725BB 		b	naveg_set_master_volume.part.3
 4800              	.L1430:
 4801 24fa 616C     		ldr	r1, [r4, #68]
 4802 24fc 0029     		cmp	r1, #0
 4803 24fe B2D0     		beq	.L1390
 4804 2500 94F87C30 		ldrb	r3, [r4, #124]	@ zero_extendqisi2
 4805 2504 93B9     		cbnz	r3, .L1401
 4806 2506 0A7A     		ldrb	r2, [r1, #8]	@ zero_extendqisi2
 4807 2508 4B7A     		ldrb	r3, [r1, #9]	@ zero_extendqisi2
 4808 250a 013A     		subs	r2, r2, #1
 4809 250c 9342     		cmp	r3, r2
 4810 250e 1DDA     		bge	.L1407
 4811 2510 0133     		adds	r3, r3, #1
 4812 2512 114E     		ldr	r6, .L1432+8
 4813 2514 4B72     		strb	r3, [r1, #9]
 4814              	.L1402:
 4815 2516 3046     		mov	r0, r6
 4816 2518 BDE87040 		pop	{r4, r5, r6, lr}
 4817 251c FFF7FEBF 		b	screen_bp_list
 4818              	.L1431:
 4819 2520 E36C     		ldr	r3, [r4, #76]
 4820 2522 5B68     		ldr	r3, [r3, #4]
 4821 2524 DB88     		ldrh	r3, [r3, #6]
 4822 2526 002B     		cmp	r3, #0
 4823 2528 C8D1     		bne	.L1404
 4824 252a 9CE7     		b	.L1390
 4825              	.L1401:
 4826 252c 012B     		cmp	r3, #1
 4827 252e F2D1     		bne	.L1402
 4828 2530 236C     		ldr	r3, [r4, #64]
 4829 2532 187A     		ldrb	r0, [r3, #8]	@ zero_extendqisi2
 4830 2534 5A7A     		ldrb	r2, [r3, #9]	@ zero_extendqisi2
 4831 2536 0138     		subs	r0, r0, #1
 4832 2538 8242     		cmp	r2, r0
 4833 253a BCBF     		itt	lt
 4834 253c 0132     		addlt	r2, r2, #1
 4835 253e 5A72     		strblt	r2, [r3, #9]
 4836 2540 487A     		ldrb	r0, [r1, #9]	@ zero_extendqisi2
 4837 2542 0A68     		ldr	r2, [r1]
 4838 2544 1946     		mov	r1, r3
 4839 2546 52F82060 		ldr	r6, [r2, r0, lsl #2]
 4840 254a E4E7     		b	.L1402
 4841              	.L1407:
 4842 254c 024E     		ldr	r6, .L1432+8
 4843 254e E2E7     		b	.L1402
 4844              	.L1433:
 4845              		.align	2
 4846              	.L1432:
 4847 2550 00000000 		.word	.LANCHOR0
 4848 2554 00000000 		.word	g_tool
 4849 2558 6C000000 		.word	.LC15
 4851              		.align	1
 4852              		.p2align 2,,3
 4853              		.global	naveg_reset_menu
 4854              		.syntax unified
 4855              		.thumb
 4856              		.thumb_func
 4857              		.fpu softvfp
 4859              	naveg_reset_menu:
 4860              		@ args = 0, pretend = 0, frame = 0
 4861              		@ frame_needed = 0, uses_anonymous_args = 0
 4862              		@ link register save eliminated.
 4863 255c 074B     		ldr	r3, .L1437
 4864 255e 93F89020 		ldrb	r2, [r3, #144]	@ zero_extendqisi2
 4865 2562 02B9     		cbnz	r2, .L1436
 4866 2564 7047     		bx	lr
 4867              	.L1436:
 4868 2566 D3F88020 		ldr	r2, [r3, #128]
 4869 256a 9068     		ldr	r0, [r2, #8]
 4870 256c C3F88420 		str	r2, [r3, #132]
 4871 2570 0168     		ldr	r1, [r0]
 4872 2572 C3F8A020 		str	r2, [r3, #160]
 4873 2576 D964     		str	r1, [r3, #76]
 4874 2578 FEF774BA 		b	reset_menu_hover.isra.0
 4875              	.L1438:
 4876              		.align	2
 4877              	.L1437:
 4878 257c 00000000 		.word	.LANCHOR0
 4880              		.align	1
 4881              		.p2align 2,,3
 4882              		.global	naveg_need_update
 4883              		.syntax unified
 4884              		.thumb
 4885              		.thumb_func
 4886              		.fpu softvfp
 4888              	naveg_need_update:
 4889              		@ args = 0, pretend = 0, frame = 0
 4890              		@ frame_needed = 0, uses_anonymous_args = 0
 4891              		@ link register save eliminated.
 4892 2580 034B     		ldr	r3, .L1440
 4893 2582 D3F88800 		ldr	r0, [r3, #136]
 4894 2586 0030     		adds	r0, r0, #0
 4895 2588 18BF     		it	ne
 4896 258a 0120     		movne	r0, #1
 4897 258c 7047     		bx	lr
 4898              	.L1441:
 4899 258e 00BF     		.align	2
 4900              	.L1440:
 4901 2590 00000000 		.word	.LANCHOR0
 4903              		.align	1
 4904              		.p2align 2,,3
 4905              		.global	naveg_update
 4906              		.syntax unified
 4907              		.thumb
 4908              		.thumb_func
 4909              		.fpu softvfp
 4911              	naveg_update:
 4912              		@ args = 0, pretend = 0, frame = 0
 4913              		@ frame_needed = 0, uses_anonymous_args = 0
 4914 2594 10B5     		push	{r4, lr}
 4915 2596 074C     		ldr	r4, .L1445
 4916 2598 D4F88830 		ldr	r3, [r4, #136]
 4917 259c 4BB1     		cbz	r3, .L1442
 4918 259e D4F88C00 		ldr	r0, [r4, #140]
 4919 25a2 0021     		movs	r1, #0
 4920 25a4 9847     		blx	r3
 4921 25a6 D4F88C00 		ldr	r0, [r4, #140]
 4922 25aa BDE81040 		pop	{r4, lr}
 4923 25ae FFF7FEBF 		b	screen_system_menu
 4924              	.L1442:
 4925 25b2 10BD     		pop	{r4, pc}
 4926              	.L1446:
 4927              		.align	2
 4928              	.L1445:
 4929 25b4 00000000 		.word	.LANCHOR0
 4931              		.align	1
 4932              		.p2align 2,,3
 4933              		.global	naveg_dialog
 4934              		.syntax unified
 4935              		.thumb
 4936              		.thumb_func
 4937              		.fpu softvfp
 4939              	naveg_dialog:
 4940              		@ args = 0, pretend = 0, frame = 0
 4941              		@ frame_needed = 0, uses_anonymous_args = 0
 4942 25b8 70B5     		push	{r4, r5, r6, lr}
 4943 25ba 1A4C     		ldr	r4, .L1455
 4944 25bc D4F8A850 		ldr	r5, [r4, #168]
 4945 25c0 EDB1     		cbz	r5, .L1454
 4946              	.L1448:
 4947 25c2 0122     		movs	r2, #1
 4948 25c4 0026     		movs	r6, #0
 4949 25c6 184B     		ldr	r3, .L1455+4
 4950 25c8 C4F88450 		str	r5, [r4, #132]
 4951 25cc 1A70     		strb	r2, [r3]
 4952 25ce 5E70     		strb	r6, [r3, #1]
 4953 25d0 2B68     		ldr	r3, [r5]
 4954 25d2 1846     		mov	r0, r3
 4955 25d4 E364     		str	r3, [r4, #76]
 4956 25d6 FFF7FEFF 		bl	screen_system_menu
 4957 25da 3346     		mov	r3, r6
 4958 25dc 3146     		mov	r1, r6
 4959 25de 4FF0FF32 		mov	r2, #-1
 4960 25e2 D4F89400 		ldr	r0, [r4, #148]
 4961 25e6 FFF7FEFF 		bl	xQueueGenericReceive
 4962 25ea 94F89030 		ldrb	r3, [r4, #144]	@ zero_extendqisi2
 4963 25ee 1BB1     		cbz	r3, .L1449
 4964 25f0 3146     		mov	r1, r6
 4965 25f2 3046     		mov	r0, r6
 4966 25f4 FFF7F8FA 		bl	naveg_toggle_tool.part.7
 4967              	.L1449:
 4968 25f8 E36C     		ldr	r3, [r4, #76]
 4969 25fa 987B     		ldrb	r0, [r3, #14]	@ zero_extendqisi2
 4970 25fc 70BD     		pop	{r4, r5, r6, pc}
 4971              	.L1454:
 4972 25fe 0646     		mov	r6, r0
 4973 2600 2020     		movs	r0, #32
 4974 2602 FFF7FEFF 		bl	pvPortMalloc
 4975 2606 4FF60271 		movw	r1, #65282
 4976 260a 084A     		ldr	r2, .L1455+8
 4977 260c 8560     		str	r5, [r0, #8]
 4978 260e 8573     		strb	r5, [r0, #14]
 4979 2610 0560     		str	r5, [r0]
 4980 2612 4661     		str	r6, [r0, #20]
 4981 2614 8181     		strh	r1, [r0, #12]	@ movhi
 4982 2616 4260     		str	r2, [r0, #4]
 4983 2618 FFF7FEFF 		bl	node_create
 4984 261c 0546     		mov	r5, r0
 4985 261e C4F8A800 		str	r0, [r4, #168]
 4986 2622 CEE7     		b	.L1448
 4987              	.L1456:
 4988              		.align	2
 4989              	.L1455:
 4990 2624 00000000 		.word	.LANCHOR0
 4991 2628 00000000 		.word	g_tool
 4992 262c 18050000 		.word	.LANCHOR1+1304
 4994              		.align	1
 4995              		.p2align 2,,3
 4996              		.global	naveg_ui_status
 4997              		.syntax unified
 4998              		.thumb
 4999              		.thumb_func
 5000              		.fpu softvfp
 5002              	naveg_ui_status:
 5003              		@ args = 0, pretend = 0, frame = 0
 5004              		@ frame_needed = 0, uses_anonymous_args = 0
 5005              		@ link register save eliminated.
 5006 2630 014B     		ldr	r3, .L1458
 5007 2632 93F89B00 		ldrb	r0, [r3, #155]	@ zero_extendqisi2
 5008 2636 7047     		bx	lr
 5009              	.L1459:
 5010              		.align	2
 5011              	.L1458:
 5012 2638 00000000 		.word	.LANCHOR0
 5014              		.align	1
 5015              		.p2align 2,,3
 5016              		.global	naveg_tap_tempo_status
 5017              		.syntax unified
 5018              		.thumb
 5019              		.thumb_func
 5020              		.fpu softvfp
 5022              	naveg_tap_tempo_status:
 5023              		@ args = 0, pretend = 0, frame = 0
 5024              		@ frame_needed = 0, uses_anonymous_args = 0
 5025              		@ link register save eliminated.
 5026 263c 044B     		ldr	r3, .L1461
 5027 263e 00EB4000 		add	r0, r0, r0, lsl #1
 5028 2642 03EB8003 		add	r3, r3, r0, lsl #2
 5029 2646 187A     		ldrb	r0, [r3, #8]	@ zero_extendqisi2
 5030 2648 0030     		adds	r0, r0, #0
 5031 264a 18BF     		it	ne
 5032 264c 0120     		movne	r0, #1
 5033 264e 7047     		bx	lr
 5034              	.L1462:
 5035              		.align	2
 5036              	.L1461:
 5037 2650 00000000 		.word	g_tap_tempo
 5039              		.align	1
 5040              		.p2align 2,,3
 5041              		.global	naveg_settings_refresh
 5042              		.syntax unified
 5043              		.thumb
 5044              		.thumb_func
 5045              		.fpu softvfp
 5047              	naveg_settings_refresh:
 5048              		@ args = 0, pretend = 0, frame = 0
 5049              		@ frame_needed = 0, uses_anonymous_args = 0
 5050              		@ link register save eliminated.
 5051 2654 034B     		ldr	r3, .L1466
 5052 2656 10B9     		cbnz	r0, .L1465
 5053 2658 186D     		ldr	r0, [r3, #80]
 5054 265a FFF7FEBF 		b	screen_system_menu
 5055              	.L1465:
 5056 265e D86C     		ldr	r0, [r3, #76]
 5057 2660 FFF7FEBF 		b	screen_system_menu
 5058              	.L1467:
 5059              		.align	2
 5060              	.L1466:
 5061 2664 00000000 		.word	.LANCHOR0
 5063              		.align	1
 5064              		.p2align 2,,3
 5065              		.global	naveg_menu_refresh
 5066              		.syntax unified
 5067              		.thumb
 5068              		.thumb_func
 5069              		.fpu softvfp
 5071              	naveg_menu_refresh:
 5072              		@ args = 0, pretend = 0, frame = 0
 5073              		@ frame_needed = 0, uses_anonymous_args = 0
 5074 2668 70B5     		push	{r4, r5, r6, lr}
 5075 266a 0646     		mov	r6, r0
 5076 266c 0F4D     		ldr	r5, .L1483
 5077 266e 90B1     		cbz	r0, .L1469
 5078 2670 D5F88430 		ldr	r3, [r5, #132]
 5079 2674 9C68     		ldr	r4, [r3, #8]
 5080 2676 4CB1     		cbz	r4, .L1474
 5081              	.L1473:
 5082 2678 2068     		ldr	r0, [r4]
 5083 267a 4368     		ldr	r3, [r0, #4]
 5084 267c DB68     		ldr	r3, [r3, #12]
 5085 267e 0BB1     		cbz	r3, .L1472
 5086 2680 0321     		movs	r1, #3
 5087 2682 9847     		blx	r3
 5088              	.L1472:
 5089 2684 6469     		ldr	r4, [r4, #20]
 5090 2686 002C     		cmp	r4, #0
 5091 2688 F6D1     		bne	.L1473
 5092 268a 4EB1     		cbz	r6, .L1471
 5093              	.L1474:
 5094 268c E86C     		ldr	r0, [r5, #76]
 5095 268e BDE87040 		pop	{r4, r5, r6, lr}
 5096 2692 FFF7FEBF 		b	screen_system_menu
 5097              	.L1469:
 5098 2696 D5F8A030 		ldr	r3, [r5, #160]
 5099 269a 9C68     		ldr	r4, [r3, #8]
 5100 269c 002C     		cmp	r4, #0
 5101 269e EBD1     		bne	.L1473
 5102              	.L1471:
 5103 26a0 286D     		ldr	r0, [r5, #80]
 5104 26a2 BDE87040 		pop	{r4, r5, r6, lr}
 5105 26a6 FFF7FEBF 		b	screen_system_menu
 5106              	.L1484:
 5107 26aa 00BF     		.align	2
 5108              	.L1483:
 5109 26ac 00000000 		.word	.LANCHOR0
 5111              		.align	1
 5112              		.p2align 2,,3
 5113              		.global	naveg_update_gain
 5114              		.syntax unified
 5115              		.thumb
 5116              		.thumb_func
 5117              		.fpu softvfp
 5119              	naveg_update_gain:
 5120              		@ args = 0, pretend = 0, frame = 8
 5121              		@ frame_needed = 0, uses_anonymous_args = 0
 5122 26b0 2DE9F04F 		push	{r4, r5, r6, r7, r8, r9, r10, fp, lr}
 5123 26b4 2C4B     		ldr	r3, .L1500
 5124 26b6 83B0     		sub	sp, sp, #12
 5125 26b8 0028     		cmp	r0, #0
 5126 26ba 51D0     		beq	.L1486
 5127 26bc D3F88430 		ldr	r3, [r3, #132]
 5128              	.L1487:
 5129 26c0 9C68     		ldr	r4, [r3, #8]
 5130 26c2 4CB1     		cbz	r4, .L1485
 5131 26c4 9146     		mov	r9, r2
 5132 26c6 8EB2     		uxth	r6, r1
 5133              	.L1493:
 5134 26c8 2568     		ldr	r5, [r4]
 5135 26ca 6B68     		ldr	r3, [r5, #4]
 5136 26cc DB88     		ldrh	r3, [r3, #6]
 5137 26ce B342     		cmp	r3, r6
 5138 26d0 05D0     		beq	.L1499
 5139              	.L1489:
 5140 26d2 6469     		ldr	r4, [r4, #20]
 5141 26d4 002C     		cmp	r4, #0
 5142 26d6 F7D1     		bne	.L1493
 5143              	.L1485:
 5144 26d8 03B0     		add	sp, sp, #12
 5145              		@ sp needed
 5146 26da BDE8F08F 		pop	{r4, r5, r6, r7, r8, r9, r10, fp, pc}
 5147              	.L1499:
 5148 26de 4846     		mov	r0, r9
 5149 26e0 FFF7FEFF 		bl	__aeabi_f2iz
 5150 26e4 0822     		movs	r2, #8
 5151 26e6 0123     		movs	r3, #1
 5152 26e8 A883     		strh	r0, [r5, #28]	@ movhi
 5153 26ea 6946     		mov	r1, sp
 5154 26ec 4846     		mov	r0, r9
 5155 26ee FFF7FEFF 		bl	float_to_str
 5156 26f2 D5E90003 		ldrd	r0, r3, [r5]
 5157 26f6 1968     		ldr	r1, [r3]
 5158 26f8 FFF7FEFF 		bl	strcpy
 5159 26fc 6846     		mov	r0, sp
 5160 26fe FFF7FEFF 		bl	strlen
 5161 2702 D5F800B0 		ldr	fp, [r5]
 5162 2706 0746     		mov	r7, r0
 5163 2708 5846     		mov	r0, fp
 5164 270a FFF7FEFF 		bl	strlen
 5165 270e FFB2     		uxtb	r7, r7
 5166 2710 C7F11D07 		rsb	r7, r7, #29
 5167 2714 C3B2     		uxtb	r3, r0
 5168 2716 FF1A     		subs	r7, r7, r3
 5169 2718 002F     		cmp	r7, #0
 5170 271a 12DD     		ble	.L1490
 5171 271c 134B     		ldr	r3, .L1500+4
 5172 271e 4FF0000A 		mov	r10, #0
 5173 2722 B3F80080 		ldrh	r8, [r3]	@ unaligned
 5174 2726 02E0     		b	.L1492
 5175              	.L1491:
 5176 2728 5846     		mov	r0, fp
 5177 272a FFF7FEFF 		bl	strlen
 5178              	.L1492:
 5179 272e 0AF10103 		add	r3, r10, #1
 5180 2732 5FFA83FA 		uxtb	r10, r3
 5181 2736 2BF80080 		strh	r8, [fp, r0]	@ unaligned
 5182 273a BA45     		cmp	r10, r7
 5183 273c D5F800B0 		ldr	fp, [r5]
 5184 2740 F2DB     		blt	.L1491
 5185              	.L1490:
 5186 2742 6946     		mov	r1, sp
 5187 2744 5846     		mov	r0, fp
 5188 2746 FFF7FEFF 		bl	strcat
 5189 274a 2D68     		ldr	r5, [r5]
 5190 274c 2846     		mov	r0, r5
 5191 274e FFF7FEFF 		bl	strlen
 5192 2752 074B     		ldr	r3, .L1500+8
 5193 2754 1A88     		ldrh	r2, [r3]	@ unaligned
 5194 2756 9B78     		ldrb	r3, [r3, #2]	@ zero_extendqisi2
 5195 2758 2A52     		strh	r2, [r5, r0]	@ unaligned
 5196 275a 0544     		add	r5, r5, r0
 5197 275c AB70     		strb	r3, [r5, #2]
 5198 275e B8E7     		b	.L1489
 5199              	.L1486:
 5200 2760 D3F8A030 		ldr	r3, [r3, #160]
 5201 2764 ACE7     		b	.L1487
 5202              	.L1501:
 5203 2766 00BF     		.align	2
 5204              	.L1500:
 5205 2768 00000000 		.word	.LANCHOR0
 5206 276c 14010000 		.word	.LC27
 5207 2770 18010000 		.word	.LC28
 5209              		.align	1
 5210              		.p2align 2,,3
 5211              		.global	naveg_bypass_refresh
 5212              		.syntax unified
 5213              		.thumb
 5214              		.thumb_func
 5215              		.fpu softvfp
 5217              	naveg_bypass_refresh:
 5218              		@ args = 0, pretend = 0, frame = 24
 5219              		@ frame_needed = 0, uses_anonymous_args = 0
 5220 2774 3E4B     		ldr	r3, .L1535
 5221 2776 2DE9F04F 		push	{r4, r5, r6, r7, r8, r9, r10, fp, lr}
 5222 277a D3F88430 		ldr	r3, [r3, #132]
 5223 277e 87B0     		sub	sp, sp, #28
 5224 2780 9F68     		ldr	r7, [r3, #8]
 5225 2782 002F     		cmp	r7, #0
 5226 2784 42D0     		beq	.L1503
 5227 2786 CDE90221 		strd	r2, r1, [sp, #8]
 5228 278a DFF8F880 		ldr	r8, .L1535+20
 5229 278e DFF8F8A0 		ldr	r10, .L1535+24
 5230 2792 0190     		str	r0, [sp, #4]
 5231              	.L1518:
 5232 2794 3C68     		ldr	r4, [r7]
 5233 2796 6268     		ldr	r2, [r4, #4]
 5234 2798 D388     		ldrh	r3, [r2, #6]
 5235 279a AB2B     		cmp	r3, #171
 5236 279c 4AD0     		beq	.L1531
 5237 279e AC2B     		cmp	r3, #172
 5238 27a0 4BD0     		beq	.L1532
 5239 27a2 AD2B     		cmp	r3, #173
 5240 27a4 4CD0     		beq	.L1533
 5241              	.L1505:
 5242 27a6 1168     		ldr	r1, [r2]
 5243 27a8 2068     		ldr	r0, [r4]
 5244 27aa FFF7FEFF 		bl	strcpy
 5245 27ae D4F800B0 		ldr	fp, [r4]
 5246 27b2 5846     		mov	r0, fp
 5247 27b4 FFF7FEFF 		bl	strlen
 5248 27b8 C5B2     		uxtb	r5, r0
 5249 27ba C5F11C05 		rsb	r5, r5, #28
 5250 27be 002D     		cmp	r5, #0
 5251 27c0 11DD     		ble	.L1508
 5252 27c2 4FF00009 		mov	r9, #0
 5253 27c6 B8F80060 		ldrh	r6, [r8]	@ unaligned
 5254 27ca 02E0     		b	.L1510
 5255              	.L1509:
 5256 27cc 5846     		mov	r0, fp
 5257 27ce FFF7FEFF 		bl	strlen
 5258              	.L1510:
 5259 27d2 09F10109 		add	r9, r9, #1
 5260 27d6 5FFA89F9 		uxtb	r9, r9
 5261 27da 2BF80060 		strh	r6, [fp, r0]	@ unaligned
 5262 27de A945     		cmp	r9, r5
 5263 27e0 D4F800B0 		ldr	fp, [r4]
 5264 27e4 F2DB     		blt	.L1509
 5265              	.L1508:
 5266 27e6 6368     		ldr	r3, [r4, #4]
 5267 27e8 DB88     		ldrh	r3, [r3, #6]
 5268 27ea AE2B     		cmp	r3, #174
 5269 27ec 15D0     		beq	.L1534
 5270 27ee B4F91C30 		ldrsh	r3, [r4, #28]
 5271 27f2 204C     		ldr	r4, .L1535+4
 5272 27f4 5846     		mov	r0, fp
 5273 27f6 002B     		cmp	r3, #0
 5274 27f8 08BF     		it	eq
 5275 27fa 5446     		moveq	r4, r10
 5276 27fc FFF7FEFF 		bl	strlen
 5277 2800 2368     		ldr	r3, [r4]
 5278 2802 4BF80030 		str	r3, [fp, r0]	@ unaligned
 5279              	.L1516:
 5280 2806 7F69     		ldr	r7, [r7, #20]
 5281 2808 002F     		cmp	r7, #0
 5282 280a C3D1     		bne	.L1518
 5283              	.L1503:
 5284 280c 184B     		ldr	r3, .L1535
 5285 280e D86C     		ldr	r0, [r3, #76]
 5286 2810 07B0     		add	sp, sp, #28
 5287              		@ sp needed
 5288 2812 BDE8F04F 		pop	{r4, r5, r6, r7, r8, r9, r10, fp, lr}
 5289 2816 FFF7FEBF 		b	screen_system_menu
 5290              	.L1534:
 5291 281a 029B     		ldr	r3, [sp, #8]
 5292 281c 012B     		cmp	r3, #1
 5293 281e 20D0     		beq	.L1513
 5294 2820 18D3     		bcc	.L1514
 5295 2822 022B     		cmp	r3, #2
 5296 2824 01D1     		bne	.L1512
 5297 2826 144B     		ldr	r3, .L1535+8
 5298 2828 0593     		str	r3, [sp, #20]
 5299              	.L1512:
 5300 282a 5846     		mov	r0, fp
 5301 282c 05A9     		add	r1, sp, #20
 5302 282e FFF7FEFF 		bl	strcat
 5303 2832 E8E7     		b	.L1516
 5304              	.L1531:
 5305 2834 019B     		ldr	r3, [sp, #4]
 5306 2836 A383     		strh	r3, [r4, #28]	@ movhi
 5307 2838 B5E7     		b	.L1505
 5308              	.L1532:
 5309 283a 039B     		ldr	r3, [sp, #12]
 5310 283c A383     		strh	r3, [r4, #28]	@ movhi
 5311 283e B2E7     		b	.L1505
 5312              	.L1533:
 5313 2840 019B     		ldr	r3, [sp, #4]
 5314 2842 23B1     		cbz	r3, .L1507
 5315 2844 039B     		ldr	r3, [sp, #12]
 5316 2846 13B1     		cbz	r3, .L1507
 5317 2848 0123     		movs	r3, #1
 5318 284a A383     		strh	r3, [r4, #28]	@ movhi
 5319 284c ABE7     		b	.L1505
 5320              	.L1507:
 5321 284e 0023     		movs	r3, #0
 5322 2850 A383     		strh	r3, [r4, #28]	@ movhi
 5323 2852 A8E7     		b	.L1505
 5324              	.L1514:
 5325 2854 094B     		ldr	r3, .L1535+12
 5326 2856 5846     		mov	r0, fp
 5327 2858 05A9     		add	r1, sp, #20
 5328 285a 0593     		str	r3, [sp, #20]
 5329 285c FFF7FEFF 		bl	strcat
 5330 2860 D1E7     		b	.L1516
 5331              	.L1513:
 5332 2862 074B     		ldr	r3, .L1535+16
 5333 2864 5846     		mov	r0, fp
 5334 2866 05A9     		add	r1, sp, #20
 5335 2868 0593     		str	r3, [sp, #20]
 5336 286a FFF7FEFF 		bl	strcat
 5337 286e CAE7     		b	.L1516
 5338              	.L1536:
 5339              		.align	2
 5340              	.L1535:
 5341 2870 00000000 		.word	.LANCHOR0
 5342 2874 1C010000 		.word	.LC29
 5343 2878 31263200 		.word	3286577
 5344 287c 20203100 		.word	3219488
 5345 2880 20203200 		.word	3285024
 5346 2884 14010000 		.word	.LC27
 5347 2888 20010000 		.word	.LC30
 5349              		.comm	g_tool,10,4
 5350              		.comm	g_tap_tempo,84,4
 5351              		.section	.rodata
 5352              		.align	2
 5353              		.set	.LANCHOR2,. + 0
 5354              	.LC14:
 5355 0000 24010000 		.word	.LC0
 5356 0004 02       		.byte	2
 5357 0005 00       		.space	1
 5358 0006 FFFF     		.short	-1
 5359 0008 FFFF     		.short	-1
 5360 000a 0000     		.space	2
 5361 000c 00000000 		.word	0
 5362 0010 00       		.byte	0
 5363 0011 000000   		.space	3
 5366              	g_menu_popups:
 5367 0014 8200     		.short	130
 5368 0016 0000     		.space	2
 5369 0018 2C010000 		.word	.LC31
 5370 001c B0000000 		.word	.LC21
 5371 0020 9600     		.short	150
 5372 0022 0000     		.space	2
 5373 0024 38010000 		.word	.LC32
 5374 0028 B0000000 		.word	.LC21
 5375 002c 8400     		.short	132
 5376 002e 0000     		.space	2
 5377 0030 40010000 		.word	.LC33
 5378 0034 4C010000 		.word	.LC34
 5379 0038 8500     		.short	133
 5380 003a 0000     		.space	2
 5381 003c B4010000 		.word	.LC35
 5382 0040 C0010000 		.word	.LC36
 5383 0044 8E00     		.short	142
 5384 0046 0000     		.space	2
 5385 0048 28020000 		.word	.LC37
 5386 004c 3C020000 		.word	.LC38
 5387 0050 6400     		.short	100
 5388 0052 0000     		.space	2
 5389 0054 74020000 		.word	.LC39
 5390 0058 8C020000 		.word	.LC40
 5391 005c BF00     		.short	191
 5392 005e 0000     		.space	2
 5393 0060 F8020000 		.word	.LC41
 5394 0064 0C030000 		.word	.LC42
 5395 0068 C000     		.short	192
 5396 006a 0000     		.space	2
 5397 006c E0030000 		.word	.LC43
 5398 0070 0C030000 		.word	.LC42
 5399 0074 C100     		.short	193
 5400 0076 0000     		.space	2
 5401 0078 F4030000 		.word	.LC44
 5402 007c 0C030000 		.word	.LC42
 5403 0080 C200     		.short	194
 5404 0082 0000     		.space	2
 5405 0084 08040000 		.word	.LC45
 5406 0088 0C030000 		.word	.LC42
 5407 008c C300     		.short	195
 5408 008e 0000     		.space	2
 5409 0090 1C040000 		.word	.LC46
 5410 0094 34040000 		.word	.LC47
 5411 0098 C400     		.short	196
 5412 009a 0000     		.space	2
 5413 009c 7C040000 		.word	.LC48
 5414 00a0 94040000 		.word	.LC49
 5415 00a4 C500     		.short	197
 5416 00a6 0000     		.space	2
 5417 00a8 30050000 		.word	.LC50
 5418 00ac 94040000 		.word	.LC49
 5419 00b0 C600     		.short	198
 5420 00b2 0000     		.space	2
 5421 00b4 48050000 		.word	.LC51
 5422 00b8 94040000 		.word	.LC49
 5423 00bc C700     		.short	199
 5424 00be 0000     		.space	2
 5425 00c0 60050000 		.word	.LC52
 5426 00c4 94040000 		.word	.LC49
 5427 00c8 0C00     		.short	12
 5428 00ca 0000     		.space	2
 5429 00cc 78050000 		.word	.LC53
 5430 00d0 8C050000 		.word	.LC54
 5431 00d4 0D00     		.short	13
 5432 00d6 0000     		.space	2
 5433 00d8 7C060000 		.word	.LC55
 5434 00dc 8C060000 		.word	.LC56
 5435 00e0 1600     		.short	22
 5436 00e2 0000     		.space	2
 5437 00e4 F4060000 		.word	.LC57
 5438 00e8 08070000 		.word	.LC58
 5439 00ec 1700     		.short	23
 5440 00ee 0000     		.space	2
 5441 00f0 E4070000 		.word	.LC59
 5442 00f4 F8070000 		.word	.LC60
 5443 00f8 FFFF     		.short	-1
 5444 00fa 0000     		.space	2
 5445 00fc 00000000 		.word	0
 5446 0100 00000000 		.word	0
 5447              		.data
 5448              		.align	2
 5449              		.set	.LANCHOR1,. + 0
 5452              	g_menu_desc:
 5453 0000 C8080000 		.word	.LC61
 5454 0004 02       		.byte	2
 5455 0005 00       		.space	1
 5456 0006 0000     		.short	0
 5457 0008 FFFF     		.short	-1
 5458 000a 0000     		.space	2
 5459 000c 00000000 		.word	0
 5460 0010 00       		.byte	0
 5461 0011 000000   		.space	3
 5462 0014 6C000000 		.word	.LC15
 5463 0018 00       		.byte	0
 5464 0019 00       		.space	1
 5465 001a 9600     		.short	150
 5466 001c 0000     		.short	0
 5467 001e 0000     		.space	2
 5468 0020 00000000 		.word	system_banks_cb
 5469 0024 00       		.byte	0
 5470 0025 000000   		.space	3
 5471 0028 D4080000 		.word	.LC62
 5472 002c 02       		.byte	2
 5473 002d 00       		.space	1
 5474 002e 8200     		.short	130
 5475 0030 0000     		.short	0
 5476 0032 0000     		.space	2
 5477 0034 00000000 		.word	0
 5478 0038 00       		.byte	0
 5479 0039 000000   		.space	3
 5480 003c E8080000 		.word	.LC63
 5481 0040 04       		.byte	4
 5482 0041 00       		.space	1
 5483 0042 8400     		.short	132
 5484 0044 8200     		.short	130
 5485 0046 0000     		.space	2
 5486 0048 00000000 		.word	system_pedalboard_cb
 5487 004c 00       		.byte	0
 5488 004d 000000   		.space	3
 5489 0050 F4080000 		.word	.LC64
 5490 0054 04       		.byte	4
 5491 0055 00       		.space	1
 5492 0056 8500     		.short	133
 5493 0058 8200     		.short	130
 5494 005a 0000     		.space	2
 5495 005c 00000000 		.word	system_pedalboard_cb
 5496 0060 00       		.byte	0
 5497 0061 000000   		.space	3
 5498 0064 00090000 		.word	.LC65
 5499 0068 02       		.byte	2
 5500 0069 00       		.space	1
 5501 006a AA00     		.short	170
 5502 006c 0000     		.short	0
 5503 006e 0000     		.space	2
 5504 0070 00000000 		.word	system_quick_bypass_cb
 5505 0074 00       		.byte	0
 5506 0075 000000   		.space	3
 5507 0078 10090000 		.word	.LC66
 5508 007c 06       		.byte	6
 5509 007d 00       		.space	1
 5510 007e AB00     		.short	171
 5511 0080 AA00     		.short	170
 5512 0082 0000     		.space	2
 5513 0084 00000000 		.word	system_bypass_cb
 5514 0088 00       		.byte	0
 5515 0089 000000   		.space	3
 5516 008c 1C090000 		.word	.LC67
 5517 0090 06       		.byte	6
 5518 0091 00       		.space	1
 5519 0092 AC00     		.short	172
 5520 0094 AA00     		.short	170
 5521 0096 0000     		.space	2
 5522 0098 00000000 		.word	system_bypass_cb
 5523 009c 00       		.byte	0
 5524 009d 000000   		.space	3
 5525 00a0 28090000 		.word	.LC68
 5526 00a4 06       		.byte	6
 5527 00a5 00       		.space	1
 5528 00a6 AD00     		.short	173
 5529 00a8 AA00     		.short	170
 5530 00aa 0000     		.space	2
 5531 00ac 00000000 		.word	system_bypass_cb
 5532 00b0 00       		.byte	0
 5533 00b1 000000   		.space	3
 5534 00b4 38090000 		.word	.LC69
 5535 00b8 06       		.byte	6
 5536 00b9 00       		.space	1
 5537 00ba AE00     		.short	174
 5538 00bc AA00     		.short	170
 5539 00be 0000     		.space	2
 5540 00c0 00000000 		.word	system_bypass_cb
 5541 00c4 00       		.byte	0
 5542 00c5 000000   		.space	3
 5543 00c8 50090000 		.word	.LC70
 5544 00cc 02       		.byte	2
 5545 00cd 00       		.space	1
 5546 00ce B400     		.short	180
 5547 00d0 0000     		.short	0
 5548 00d2 0000     		.space	2
 5549 00d4 00000000 		.word	system_play_cb
 5550 00d8 00       		.byte	0
 5551 00d9 000000   		.space	3
 5552 00dc 64090000 		.word	.LC71
 5553 00e0 0A       		.byte	10
 5554 00e1 00       		.space	1
 5555 00e2 B500     		.short	181
 5556 00e4 B400     		.short	180
 5557 00e6 0000     		.space	2
 5558 00e8 00000000 		.word	system_tempo_cb
 5559 00ec 00       		.byte	0
 5560 00ed 000000   		.space	3
 5561 00f0 6C090000 		.word	.LC72
 5562 00f4 0A       		.byte	10
 5563 00f5 00       		.space	1
 5564 00f6 B600     		.short	182
 5565 00f8 B400     		.short	180
 5566 00fa 0000     		.space	2
 5567 00fc 00000000 		.word	system_bpb_cb
 5568 0100 00       		.byte	0
 5569 0101 000000   		.space	3
 5570 0104 7C090000 		.word	.LC73
 5571 0108 00       		.byte	0
 5572 0109 00       		.space	1
 5573 010a 1E00     		.short	30
 5574 010c 0000     		.short	0
 5575 010e 0000     		.space	2
 5576 0110 00000000 		.word	system_tuner_cb
 5577 0114 00       		.byte	0
 5578 0115 000000   		.space	3
 5579 0118 84090000 		.word	.LC74
 5580 011c 02       		.byte	2
 5581 011d 00       		.space	1
 5582 011e BE00     		.short	190
 5583 0120 0000     		.short	0
 5584 0122 0000     		.space	2
 5585 0124 00000000 		.word	0
 5586 0128 00       		.byte	0
 5587 0129 000000   		.space	3
 5588 012c 94090000 		.word	.LC75
 5589 0130 06       		.byte	6
 5590 0131 00       		.space	1
 5591 0132 BF00     		.short	191
 5592 0134 BE00     		.short	190
 5593 0136 0000     		.space	2
 5594 0138 00000000 		.word	system_load_pro_cb
 5595 013c 00       		.byte	0
 5596 013d 000000   		.space	3
 5597 0140 A4090000 		.word	.LC76
 5598 0144 06       		.byte	6
 5599 0145 00       		.space	1
 5600 0146 C000     		.short	192
 5601 0148 BE00     		.short	190
 5602 014a 0000     		.space	2
 5603 014c 00000000 		.word	system_load_pro_cb
 5604 0150 00       		.byte	0
 5605 0151 000000   		.space	3
 5606 0154 B4090000 		.word	.LC77
 5607 0158 06       		.byte	6
 5608 0159 00       		.space	1
 5609 015a C100     		.short	193
 5610 015c BE00     		.short	190
 5611 015e 0000     		.space	2
 5612 0160 00000000 		.word	system_load_pro_cb
 5613 0164 00       		.byte	0
 5614 0165 000000   		.space	3
 5615 0168 C4090000 		.word	.LC78
 5616 016c 06       		.byte	6
 5617 016d 00       		.space	1
 5618 016e C200     		.short	194
 5619 0170 BE00     		.short	190
 5620 0172 0000     		.space	2
 5621 0174 00000000 		.word	system_load_pro_cb
 5622 0178 00       		.byte	0
 5623 0179 000000   		.space	3
 5624 017c D4090000 		.word	.LC79
 5625 0180 06       		.byte	6
 5626 0181 00       		.space	1
 5627 0182 C300     		.short	195
 5628 0184 BE00     		.short	190
 5629 0186 0000     		.space	2
 5630 0188 00000000 		.word	system_save_pro_cb
 5631 018c 00       		.byte	0
 5632 018d 000000   		.space	3
 5633 0190 F0090000 		.word	.LC80
 5634 0194 02       		.byte	2
 5635 0195 00       		.space	1
 5636 0196 2800     		.short	40
 5637 0198 0000     		.short	0
 5638 019a 0000     		.space	2
 5639 019c 00000000 		.word	0
 5640 01a0 00       		.byte	0
 5641 01a1 000000   		.space	3
 5642 01a4 F8090000 		.word	.LC81
 5643 01a8 02       		.byte	2
 5644 01a9 00       		.space	1
 5645 01aa 0A00     		.short	10
 5646 01ac 2800     		.short	40
 5647 01ae 0000     		.space	2
 5648 01b0 00000000 		.word	0
 5649 01b4 00       		.byte	0
 5650 01b5 000000   		.space	3
 5651 01b8 000A0000 		.word	.LC82
 5652 01bc 01       		.byte	1
 5653 01bd 00       		.space	1
 5654 01be 0B00     		.short	11
 5655 01c0 0A00     		.short	10
 5656 01c2 0000     		.space	2
 5657 01c4 00000000 		.word	0
 5658 01c8 00       		.byte	0
 5659 01c9 000000   		.space	3
 5660 01cc 140A0000 		.word	.LC83
 5661 01d0 06       		.byte	6
 5662 01d1 00       		.space	1
 5663 01d2 0B00     		.short	11
 5664 01d4 0A00     		.short	10
 5665 01d6 0000     		.space	2
 5666 01d8 00000000 		.word	system_sl_in_cb
 5667 01dc 00       		.byte	0
 5668 01dd 000000   		.space	3
 5669 01e0 200A0000 		.word	.LC84
 5670 01e4 09       		.byte	9
 5671 01e5 00       		.space	1
 5672 01e6 6E00     		.short	110
 5673 01e8 0A00     		.short	10
 5674 01ea 0000     		.space	2
 5675 01ec 00000000 		.word	system_volume_cb
 5676 01f0 00       		.byte	0
 5677 01f1 000000   		.space	3
 5678 01f4 300A0000 		.word	.LC85
 5679 01f8 09       		.byte	9
 5680 01f9 00       		.space	1
 5681 01fa 6F00     		.short	111
 5682 01fc 0A00     		.short	10
 5683 01fe 0000     		.space	2
 5684 0200 00000000 		.word	system_volume_cb
 5685 0204 00       		.byte	0
 5686 0205 000000   		.space	3
 5687 0208 400A0000 		.word	.LC86
 5688 020c 02       		.byte	2
 5689 020d 00       		.space	1
 5690 020e 1400     		.short	20
 5691 0210 2800     		.short	40
 5692 0212 0000     		.space	2
 5693 0214 00000000 		.word	0
 5694 0218 00       		.byte	0
 5695 0219 000000   		.space	3
 5696 021c 000A0000 		.word	.LC82
 5697 0220 01       		.byte	1
 5698 0221 00       		.space	1
 5699 0222 1500     		.short	21
 5700 0224 1400     		.short	20
 5701 0226 0000     		.space	2
 5702 0228 00000000 		.word	0
 5703 022c 00       		.byte	0
 5704 022d 000000   		.space	3
 5705 0230 480A0000 		.word	.LC87
 5706 0234 06       		.byte	6
 5707 0235 00       		.space	1
 5708 0236 1500     		.short	21
 5709 0238 1400     		.short	20
 5710 023a 0000     		.space	2
 5711 023c 00000000 		.word	system_sl_out_cb
 5712 0240 00       		.byte	0
 5713 0241 000000   		.space	3
 5714 0244 580A0000 		.word	.LC88
 5715 0248 09       		.byte	9
 5716 0249 00       		.space	1
 5717 024a 7000     		.short	112
 5718 024c 1400     		.short	20
 5719 024e 0000     		.space	2
 5720 0250 00000000 		.word	system_volume_cb
 5721 0254 00       		.byte	0
 5722 0255 000000   		.space	3
 5723 0258 680A0000 		.word	.LC89
 5724 025c 09       		.byte	9
 5725 025d 00       		.space	1
 5726 025e 7100     		.short	113
 5727 0260 1400     		.short	20
 5728 0262 0000     		.space	2
 5729 0264 00000000 		.word	system_volume_cb
 5730 0268 00       		.byte	0
 5731 0269 000000   		.space	3
 5732 026c 780A0000 		.word	.LC90
 5733 0270 06       		.byte	6
 5734 0271 00       		.space	1
 5735 0272 1700     		.short	23
 5736 0274 1400     		.short	20
 5737 0276 0000     		.space	2
 5738 0278 00000000 		.word	system_master_vol_link_cb
 5739 027c 00       		.byte	0
 5740 027d 000000   		.space	3
 5741 0280 8C0A0000 		.word	.LC91
 5742 0284 09       		.byte	9
 5743 0285 00       		.space	1
 5744 0286 7200     		.short	114
 5745 0288 1400     		.short	20
 5746 028a 0000     		.space	2
 5747 028c 00000000 		.word	system_volume_cb
 5748 0290 00       		.byte	0
 5749 0291 000000   		.space	3
 5750 0294 A00A0000 		.word	.LC92
 5751 0298 02       		.byte	2
 5752 0299 00       		.space	1
 5753 029a C800     		.short	200
 5754 029c 2800     		.short	40
 5755 029e 0000     		.space	2
 5756 02a0 00000000 		.word	0
 5757 02a4 00       		.byte	0
 5758 02a5 000000   		.space	3
 5759 02a8 000A0000 		.word	.LC82
 5760 02ac 01       		.byte	1
 5761 02ad 00       		.space	1
 5762 02ae C900     		.short	201
 5763 02b0 C800     		.short	200
 5764 02b2 0000     		.space	2
 5765 02b4 00000000 		.word	0
 5766 02b8 00       		.byte	0
 5767 02b9 000000   		.space	3
 5768 02bc AC0A0000 		.word	.LC93
 5769 02c0 06       		.byte	6
 5770 02c1 00       		.space	1
 5771 02c2 CA00     		.short	202
 5772 02c4 C800     		.short	200
 5773 02c6 0000     		.space	2
 5774 02c8 00000000 		.word	system_midi_src_cb
 5775 02cc 00       		.byte	0
 5776 02cd 000000   		.space	3
 5777 02d0 BC0A0000 		.word	.LC94
 5778 02d4 06       		.byte	6
 5779 02d5 00       		.space	1
 5780 02d6 CB00     		.short	203
 5781 02d8 C800     		.short	200
 5782 02da 0000     		.space	2
 5783 02dc 00000000 		.word	system_midi_send_cb
 5784 02e0 00       		.byte	0
 5785 02e1 000000   		.space	3
 5786 02e4 CC0A0000 		.word	.LC95
 5787 02e8 0A       		.byte	10
 5788 02e9 00       		.space	1
 5789 02ea CC00     		.short	204
 5790 02ec C800     		.short	200
 5791 02ee 0000     		.space	2
 5792 02f0 00000000 		.word	system_ss_prog_change_cb
 5793 02f4 00       		.byte	0
 5794 02f5 000000   		.space	3
 5795 02f8 E40A0000 		.word	.LC96
 5796 02fc 0A       		.byte	10
 5797 02fd 00       		.space	1
 5798 02fe CD00     		.short	205
 5799 0300 C800     		.short	200
 5800 0302 0000     		.space	2
 5801 0304 00000000 		.word	system_pb_prog_change_cb
 5802 0308 00       		.byte	0
 5803 0309 000000   		.space	3
 5804 030c FC0A0000 		.word	.LC97
 5805 0310 02       		.byte	2
 5806 0311 00       		.space	1
 5807 0312 8C00     		.short	140
 5808 0314 2800     		.short	40
 5809 0316 0000     		.space	2
 5810 0318 00000000 		.word	system_bluetooth_cb
 5811 031c 00       		.byte	0
 5812 031d 000000   		.space	3
 5813 0320 000A0000 		.word	.LC82
 5814 0324 01       		.byte	1
 5815 0325 00       		.space	1
 5816 0326 8D00     		.short	141
 5817 0328 8C00     		.short	140
 5818 032a 0000     		.space	2
 5819 032c 00000000 		.word	0
 5820 0330 00       		.byte	0
 5821 0331 000000   		.space	3
 5822 0334 080B0000 		.word	.LC98
 5823 0338 08       		.byte	8
 5824 0339 00       		.space	1
 5825 033a 8E00     		.short	142
 5826 033c 8C00     		.short	140
 5827 033e 0000     		.space	2
 5828 0340 00000000 		.word	system_bluetooth_cb
 5829 0344 00       		.byte	0
 5830 0345 000000   		.space	3
 5831 0348 1C0B0000 		.word	.LC99
 5832 034c 00       		.byte	0
 5833 034d 00       		.space	1
 5834 034e 8F00     		.short	143
 5835 0350 8C00     		.short	140
 5836 0352 0000     		.space	2
 5837 0354 00000000 		.word	0
 5838 0358 00       		.byte	0
 5839 0359 000000   		.space	3
 5840 035c 240B0000 		.word	.LC100
 5841 0360 00       		.byte	0
 5842 0361 00       		.space	1
 5843 0362 9000     		.short	144
 5844 0364 8C00     		.short	140
 5845 0366 0000     		.space	2
 5846 0368 00000000 		.word	0
 5847 036c 00       		.byte	0
 5848 036d 000000   		.space	3
 5849 0370 2C0B0000 		.word	.LC101
 5850 0374 00       		.byte	0
 5851 0375 00       		.space	1
 5852 0376 9100     		.short	145
 5853 0378 8C00     		.short	140
 5854 037a 0000     		.space	2
 5855 037c 00000000 		.word	0
 5856 0380 00       		.byte	0
 5857 0381 000000   		.space	3
 5858 0384 380B0000 		.word	.LC102
 5859 0388 06       		.byte	6
 5860 0389 00       		.space	1
 5861 038a A000     		.short	160
 5862 038c 2800     		.short	40
 5863 038e 0000     		.space	2
 5864 0390 00000000 		.word	system_display_cb
 5865 0394 00       		.byte	0
 5866 0395 000000   		.space	3
 5867 0398 4C0B0000 		.word	.LC103
 5868 039c 02       		.byte	2
 5869 039d 00       		.space	1
 5870 039e 4600     		.short	70
 5871 03a0 2800     		.short	40
 5872 03a2 0000     		.space	2
 5873 03a4 00000000 		.word	0
 5874 03a8 00       		.byte	0
 5875 03a9 000000   		.space	3
 5876 03ac 000A0000 		.word	.LC82
 5877 03b0 01       		.byte	1
 5878 03b1 00       		.space	1
 5879 03b2 4700     		.short	71
 5880 03b4 4600     		.short	70
 5881 03b6 0000     		.space	2
 5882 03b8 00000000 		.word	0
 5883 03bc 00       		.byte	0
 5884 03bd 000000   		.space	3
 5885 03c0 540B0000 		.word	.LC104
 5886 03c4 02       		.byte	2
 5887 03c5 00       		.space	1
 5888 03c6 5000     		.short	80
 5889 03c8 4600     		.short	70
 5890 03ca 0000     		.space	2
 5891 03cc 00000000 		.word	system_services_cb
 5892 03d0 01       		.byte	1
 5893 03d1 000000   		.space	3
 5894 03d4 600B0000 		.word	.LC105
 5895 03d8 01       		.byte	1
 5896 03d9 00       		.space	1
 5897 03da 5100     		.short	81
 5898 03dc 5000     		.short	80
 5899 03de 0000     		.space	2
 5900 03e0 00000000 		.word	0
 5901 03e4 00       		.byte	0
 5902 03e5 000000   		.space	3
 5903 03e8 700B0000 		.word	.LC106
 5904 03ec 00       		.byte	0
 5905 03ed 00       		.space	1
 5906 03ee 5200     		.short	82
 5907 03f0 5000     		.short	80
 5908 03f2 0000     		.space	2
 5909 03f4 00000000 		.word	0
 5910 03f8 00       		.byte	0
 5911 03f9 000000   		.space	3
 5912 03fc 780B0000 		.word	.LC107
 5913 0400 00       		.byte	0
 5914 0401 00       		.space	1
 5915 0402 5300     		.short	83
 5916 0404 5000     		.short	80
 5917 0406 0000     		.space	2
 5918 0408 00000000 		.word	0
 5919 040c 00       		.byte	0
 5920 040d 000000   		.space	3
 5921 0410 800B0000 		.word	.LC108
 5922 0414 00       		.byte	0
 5923 0415 00       		.space	1
 5924 0416 5400     		.short	84
 5925 0418 5000     		.short	80
 5926 041a 0000     		.space	2
 5927 041c 00000000 		.word	0
 5928 0420 00       		.byte	0
 5929 0421 000000   		.space	3
 5930 0424 880B0000 		.word	.LC109
 5931 0428 00       		.byte	0
 5932 0429 00       		.space	1
 5933 042a 5500     		.short	85
 5934 042c 5000     		.short	80
 5935 042e 0000     		.space	2
 5936 0430 00000000 		.word	0
 5937 0434 00       		.byte	0
 5938 0435 000000   		.space	3
 5939 0438 940B0000 		.word	.LC110
 5940 043c 02       		.byte	2
 5941 043d 00       		.space	1
 5942 043e 5A00     		.short	90
 5943 0440 4600     		.short	70
 5944 0442 0000     		.space	2
 5945 0444 00000000 		.word	system_versions_cb
 5946 0448 00       		.byte	0
 5947 0449 000000   		.space	3
 5948 044c 600B0000 		.word	.LC105
 5949 0450 01       		.byte	1
 5950 0451 00       		.space	1
 5951 0452 5B00     		.short	91
 5952 0454 5A00     		.short	90
 5953 0456 0000     		.space	2
 5954 0458 00000000 		.word	0
 5955 045c 00       		.byte	0
 5956 045d 000000   		.space	3
 5957 0460 A00B0000 		.word	.LC111
 5958 0464 08       		.byte	8
 5959 0465 00       		.space	1
 5960 0466 5C00     		.short	92
 5961 0468 5A00     		.short	90
 5962 046a 0000     		.space	2
 5963 046c 00000000 		.word	system_release_cb
 5964 0470 00       		.byte	0
 5965 0471 000000   		.space	3
 5966 0474 AC0B0000 		.word	.LC112
 5967 0478 00       		.byte	0
 5968 0479 00       		.space	1
 5969 047a 5D00     		.short	93
 5970 047c 5A00     		.short	90
 5971 047e 0000     		.space	2
 5972 0480 00000000 		.word	0
 5973 0484 00       		.byte	0
 5974 0485 000000   		.space	3
 5975 0488 B80B0000 		.word	.LC113
 5976 048c 00       		.byte	0
 5977 048d 00       		.space	1
 5978 048e 5E00     		.short	94
 5979 0490 5A00     		.short	90
 5980 0492 0000     		.space	2
 5981 0494 00000000 		.word	0
 5982 0498 00       		.byte	0
 5983 0499 000000   		.space	3
 5984 049c C00B0000 		.word	.LC114
 5985 04a0 00       		.byte	0
 5986 04a1 00       		.space	1
 5987 04a2 5F00     		.short	95
 5988 04a4 5A00     		.short	90
 5989 04a6 0000     		.space	2
 5990 04a8 00000000 		.word	0
 5991 04ac 00       		.byte	0
 5992 04ad 000000   		.space	3
 5993 04b0 CC0B0000 		.word	.LC115
 5994 04b4 02       		.byte	2
 5995 04b5 00       		.space	1
 5996 04b6 7800     		.short	120
 5997 04b8 4600     		.short	70
 5998 04ba 0000     		.space	2
 5999 04bc 00000000 		.word	system_device_cb
 6000 04c0 00       		.byte	0
 6001 04c1 000000   		.space	3
 6002 04c4 600B0000 		.word	.LC105
 6003 04c8 01       		.byte	1
 6004 04c9 00       		.space	1
 6005 04ca 7900     		.short	121
 6006 04cc 7800     		.short	120
 6007 04ce 0000     		.space	2
 6008 04d0 00000000 		.word	0
 6009 04d4 00       		.byte	0
 6010 04d5 000000   		.space	3
 6011 04d8 D40B0000 		.word	.LC116
 6012 04dc 08       		.byte	8
 6013 04dd 00       		.space	1
 6014 04de 7A00     		.short	122
 6015 04e0 7800     		.short	120
 6016 04e2 0000     		.space	2
 6017 04e4 00000000 		.word	system_tag_cb
 6018 04e8 00       		.byte	0
 6019 04e9 000000   		.space	3
 6020 04ec E40B0000 		.word	.LC117
 6021 04f0 04       		.byte	4
 6022 04f1 00       		.space	1
 6023 04f2 6400     		.short	100
 6024 04f4 2800     		.short	40
 6025 04f6 0000     		.space	2
 6026 04f8 00000000 		.word	system_upgrade_cb
 6027 04fc 00       		.byte	0
 6028 04fd 000000   		.space	3
 6029 0500 00000000 		.word	0
 6030 0504 00       		.byte	0
 6031 0505 00       		.space	1
 6032 0506 FFFF     		.short	-1
 6033 0508 FFFF     		.short	-1
 6034 050a 0000     		.space	2
 6035 050c 00000000 		.word	0
 6036 0510 00       		.byte	0
 6037 0511 000000   		.space	3
 6040              	input.10195:
 6041 0514 01       		.byte	1
 6042 0515 000000   		.space	3
 6045              	desc.10414:
 6046 0518 00000000 		.word	0
 6047 051c 07       		.byte	7
 6048 051d 00       		.space	1
 6049 051e FEFF     		.short	-2
 6050 0520 FEFF     		.short	-2
 6051 0522 0000     		.space	2
 6052 0524 00000000 		.word	0
 6053 0528 00       		.byte	0
 6054 0529 000000   		.space	3
 6055              		.bss
 6056              		.align	2
 6057              		.set	.LANCHOR0,. + 0
 6060              	g_selected_pedalboards:
 6061 0000 00000000 		.space	4
 6064              	g_bank_functions:
 6065 0004 00000000 		.space	20
 6065      00000000 
 6065      00000000 
 6065      00000000 
 6065      00000000 
 6068              	g_current_pedalboard:
 6069 0018 00       		.space	1
 6070 0019 000000   		.space	3
 6073              	g_encoders:
 6074 001c 00000000 		.space	8
 6074      00000000 
 6077              	g_foots:
 6078 0024 00000000 		.space	28
 6078      00000000 
 6078      00000000 
 6078      00000000 
 6078      00000000 
 6081              	g_naveg_pedalboards:
 6082 0040 00000000 		.space	4
 6085              	g_banks:
 6086 0044 00000000 		.space	4
 6089              	g_current_bank:
 6090 0048 00       		.space	1
 6091 0049 000000   		.space	3
 6094              	g_current_item:
 6095 004c 00000000 		.space	4
 6098              	g_current_main_item:
 6099 0050 00000000 		.space	4
 6102              	g_max_items_list:
 6103 0054 00       		.space	1
 6104 0055 000000   		.space	3
 6107              	master_vol_value:
 6108 0058 00000000 		.space	4
 6111              	g_pots:
 6112 005c 00000000 		.space	32
 6112      00000000 
 6112      00000000 
 6112      00000000 
 6112      00000000 
 6115              	g_bp_state:
 6116 007c 00       		.space	1
 6117 007d 000000   		.space	3
 6120              	g_menu:
 6121 0080 00000000 		.space	4
 6124              	g_current_menu:
 6125 0084 00000000 		.space	4
 6128              	g_update_cb:
 6129 0088 00000000 		.space	4
 6132              	g_update_data:
 6133 008c 00000000 		.space	4
 6136              	g_initialized:
 6137 0090 00       		.space	1
 6138 0091 000000   		.space	3
 6141              	g_dialog_sem:
 6142 0094 00000000 		.space	4
 6145              	snapshot_loaded.10328:
 6146 0098 00       		.space	1
 6149              	page.10329:
 6150 0099 00       		.space	1
 6153              	g_bp_first:
 6154 009a 00       		.space	1
 6157              	g_ui_connected:
 6158 009b 00       		.space	1
 6161              	banks_loaded.10348:
 6162 009c 00       		.space	1
 6163 009d 000000   		.space	3
 6166              	g_current_main_menu:
 6167 00a0 00000000 		.space	4
 6170              	toggle.10182:
 6171 00a4 00       		.space	1
 6172 00a5 000000   		.space	3
 6175              	dummy_menu.10413:
 6176 00a8 00000000 		.space	4
 6177              		.section	.rodata.str1.4,"aMS",%progbits,1
 6178              		.align	2
 6179              	.LC2:
 6180 0000 4F4E00   		.ascii	"ON\000"
 6181 0003 00       		.space	1
 6182              	.LC3:
 6183 0004 54525545 		.ascii	"TRUE BYPASS\000"
 6183      20425950 
 6183      41535300 
 6184              	.LC4:
 6185 0010 2B00     		.ascii	"+\000"
 6186 0012 0000     		.space	2
 6187              	.LC5:
 6188 0014 2D00     		.ascii	"-\000"
 6189 0016 0000     		.space	2
 6190              	.LC6:
 6191 0018 4F464600 		.ascii	"OFF\000"
 6192              	.LC7:
 6193 001c 6D7300   		.ascii	"ms\000"
 6194 001f 00       		.space	1
 6195              	.LC8:
 6196 0020 7300     		.ascii	"s\000"
 6197 0022 0000     		.space	2
 6198              	.LC9:
 6199 0024 62706D00 		.ascii	"bpm\000"
 6200              	.LC10:
 6201 0028 74756E65 		.ascii	"tuner off\000"
 6201      72206F66 
 6201      6600
 6202 0032 0000     		.space	2
 6203              	.LC11:
 6204 0034 70656461 		.ascii	"pedalboard %i %s\000"
 6204      6C626F61 
 6204      72642025 
 6204      69202573 
 6204      00
 6205 0045 000000   		.space	3
 6206              	.LC12:
 6207 0048 636F6E74 		.ascii	"control_set %i %s %f\000"
 6207      726F6C5F 
 6207      73657420 
 6207      25692025 
 6207      73202566 
 6208 005d 000000   		.space	3
 6209              	.LC13:
 6210 0060 6765745F 		.ascii	"get_pb_name\000"
 6210      70625F6E 
 6210      616D6500 
 6211              	.LC15:
 6212 006c 42414E4B 		.ascii	"BANKS\000"
 6212      5300
 6213 0072 0000     		.space	2
 6214              	.LC16:
 6215 0074 74756E65 		.ascii	"tuner_input %i\000"
 6215      725F696E 
 6215      70757420 
 6215      256900
 6216 0083 00       		.space	1
 6217              	.LC17:
 6218 0084 70656461 		.ascii	"pedalboards %s\000"
 6218      6C626F61 
 6218      72647320 
 6218      257300
 6219 0093 00       		.space	1
 6220              	.LC18:
 6221 0094 3A616C6C 		.ascii	":all\000"
 6221      00
 6222 0099 000000   		.space	3
 6223              	.LC19:
 6224 009c 62616E6B 		.ascii	"banks\000"
 6224      7300
 6225 00a2 0000     		.space	2
 6226              	.LC20:
 6227 00a4 74756E65 		.ascii	"tuner on\000"
 6227      72206F6E 
 6227      00
 6228 00ad 000000   		.space	3
 6229              	.LC21:
 6230 00b0 546F2061 		.ascii	"To access pedalboard options  please disconnect fro"
 6230      63636573 
 6230      73207065 
 6230      64616C62 
 6230      6F617264 
 6231 00e3 6D207468 		.ascii	"m the    graphical interface\000"
 6231      65202020 
 6231      20677261 
 6231      70686963 
 6231      616C2069 
 6232              	.LC22:
 6233 0100 4100     		.ascii	"A\000"
 6234 0102 0000     		.space	2
 6235              	.LC23:
 6236 0104 4200     		.ascii	"B\000"
 6237 0106 0000     		.space	2
 6238              	.LC24:
 6239 0108 4300     		.ascii	"C\000"
 6240 010a 0000     		.space	2
 6241              	.LC25:
 6242 010c 4400     		.ascii	"D\000"
 6243 010e 0000     		.space	2
 6244              	.LC26:
 6245 0110 5800     		.ascii	"X\000"
 6246 0112 0000     		.space	2
 6247              	.LC27:
 6248 0114 2000     		.ascii	" \000"
 6249 0116 0000     		.space	2
 6250              	.LC28:
 6251 0118 444200   		.ascii	"DB\000"
 6252 011b 00       		.space	1
 6253              	.LC29:
 6254 011c 5B585D00 		.ascii	"[X]\000"
 6255              	.LC30:
 6256 0120 5B205D00 		.ascii	"[ ]\000"
 6257              	.LC0:
 6258 0124 726F6F74 		.ascii	"root\000"
 6258      00
 6259 0129 000000   		.space	3
 6260              	.LC31:
 6261 012c 70656461 		.ascii	"pedalboard\000"
 6261      6C626F61 
 6261      726400
 6262 0137 00       		.space	1
 6263              	.LC32:
 6264 0138 42616E6B 		.ascii	"Banks\000"
 6264      7300
 6265 013e 0000     		.space	2
 6266              	.LC33:
 6267 0140 53617665 		.ascii	"Save state\000"
 6267      20737461 
 6267      746500
 6268 014b 00       		.space	1
 6269              	.LC34:
 6270 014c 576F756C 		.ascii	"Would you like to save the    current parameter val"
 6270      6420796F 
 6270      75206C69 
 6270      6B652074 
 6270      6F207361 
 6271 017f 75657320 		.ascii	"ues as   the default for the active    pedalboard?\000"
 6271      61732020 
 6271      20746865 
 6271      20646566 
 6271      61756C74 
 6272 01b2 0000     		.space	2
 6273              	.LC35:
 6274 01b4 52657365 		.ascii	"Reset state\000"
 6274      74207374 
 6274      61746500 
 6275              	.LC36:
 6276 01c0 576F756C 		.ascii	"Would you like to reset all   parameter values to t"
 6276      6420796F 
 6276      75206C69 
 6276      6B652074 
 6276      6F207265 
 6277 01f3 6865206C 		.ascii	"he last  saved state for the active    pedalboard?\000"
 6277      61737420 
 6277      20736176 
 6277      65642073 
 6277      74617465 
 6278 0226 0000     		.space	2
 6279              	.LC37:
 6280 0228 456E6162 		.ascii	"Enable Bluetooth\000"
 6280      6C652042 
 6280      6C756574 
 6280      6F6F7468 
 6280      00
 6281 0239 000000   		.space	3
 6282              	.LC38:
 6283 023c 426C7565 		.ascii	"Bluetooth discovery mode is   now enabled for 2 min"
 6283      746F6F74 
 6283      68206469 
 6283      73636F76 
 6283      65727920 
 6284 026f 75746573 		.ascii	"utes\000"
 6284      00
 6285              	.LC39:
 6286 0274 53746172 		.ascii	"Start System Upgrade\000"
 6286      74205379 
 6286      7374656D 
 6286      20557067 
 6286      72616465 
 6287 0289 000000   		.space	3
 6288              	.LC40:
 6289 028c 546F2073 		.ascii	"To start the system upgrade   process, please press"
 6289      74617274 
 6289      20746865 
 6289      20737973 
 6289      74656D20 
 6290 02bf 20616E64 		.ascii	" and     hold down the left most buttonand press ye"
 6290      20202020 
 6290      20686F6C 
 6290      6420646F 
 6290      776E2074 
 6291 02f2 732E2000 		.ascii	"s. \000"
 6292 02f6 0000     		.space	2
 6293              	.LC41:
 6294 02f8 4C6F6164 		.ascii	"Load user profile A\000"
 6294      20757365 
 6294      72207072 
 6294      6F66696C 
 6294      65204100 
 6295              	.LC42:
 6296 030c 4C6F6164 		.ascii	"Loading a new profile may     change your in-/outpu"
 6296      696E6720 
 6296      61206E65 
 6296      77207072 
 6296      6F66696C 
 6297 033f 74202020 		.ascii	"t        configuration. Are you sure   you want to "
 6297      20202020 
 6297      20636F6E 
 6297      66696775 
 6297      72617469 
 6298 0372 636F6E74 		.ascii	"continue? This    will discard any changes you  hav"
 6298      696E7565 
 6298      3F205468 
 6298      69732020 
 6298      20207769 
 6299 03a5 65206D61 		.ascii	"e made to the current user profile since last savin"
 6299      64652074 
 6299      6F207468 
 6299      65206375 
 6299      7272656E 
 6300 03d8 67206974 		.ascii	"g it.\000"
 6300      2E00
 6301 03de 0000     		.space	2
 6302              	.LC43:
 6303 03e0 4C6F6164 		.ascii	"Load user profile B\000"
 6303      20757365 
 6303      72207072 
 6303      6F66696C 
 6303      65204200 
 6304              	.LC44:
 6305 03f4 4C6F6164 		.ascii	"Load user profile C\000"
 6305      20757365 
 6305      72207072 
 6305      6F66696C 
 6305      65204300 
 6306              	.LC45:
 6307 0408 4C6F6164 		.ascii	"Load user profile D\000"
 6307      20757365 
 6307      72207072 
 6307      6F66696C 
 6307      65204400 
 6308              	.LC46:
 6309 041c 4F766572 		.ascii	"Overwrite user profile\000"
 6309      77726974 
 6309      65207573 
 6309      65722070 
 6309      726F6669 
 6310 0433 00       		.space	1
 6311              	.LC47:
 6312 0434 41726520 		.ascii	"Are you sure you want to      overwrite the active "
 6312      796F7520 
 6312      73757265 
 6312      20796F75 
 6312      2077616E 
 6313 0467 75736572 		.ascii	"user     profile?\000"
 6313      20202020 
 6313      2070726F 
 6313      66696C65 
 6313      3F00
 6314 0479 000000   		.space	3
 6315              	.LC48:
 6316 047c 52656C6F 		.ascii	"Reload user profile A\000"
 6316      61642075 
 6316      73657220 
 6316      70726F66 
 6316      696C6520 
 6317 0492 0000     		.space	2
 6318              	.LC49:
 6319 0494 41726520 		.ascii	"Are you sure you want to      reload the active use"
 6319      796F7520 
 6319      73757265 
 6319      20796F75 
 6319      2077616E 
 6320 04c7 72207072 		.ascii	"r profile? This will discard any       changes you "
 6320      6F66696C 
 6320      653F2054 
 6320      68697320 
 6320      77696C6C 
 6321 04fa 68617665 		.ascii	"have made to this user profile since last saving it"
 6321      206D6164 
 6321      6520746F 
 6321      20746869 
 6321      73207573 
 6322 052d 2E00     		.ascii	".\000"
 6323 052f 00       		.space	1
 6324              	.LC50:
 6325 0530 52656C6F 		.ascii	"Reload user profile B\000"
 6325      61642075 
 6325      73657220 
 6325      70726F66 
 6325      696C6520 
 6326 0546 0000     		.space	2
 6327              	.LC51:
 6328 0548 52656C6F 		.ascii	"Reload user profile C\000"
 6328      61642075 
 6328      73657220 
 6328      70726F66 
 6328      696C6520 
 6329 055e 0000     		.space	2
 6330              	.LC52:
 6331 0560 52656C6F 		.ascii	"Reload user profile D\000"
 6331      61642075 
 6331      73657220 
 6331      70726F66 
 6331      696C6520 
 6332 0576 0000     		.space	2
 6333              	.LC53:
 6334 0578 53657420 		.ascii	"Set input to EXP\000"
 6334      696E7075 
 6334      7420746F 
 6334      20455850 
 6334      00
 6335 0589 000000   		.space	3
 6336              	.LC54:
 6337 058c 596F7520 		.ascii	"You are about to set the      stereo input port to "
 6337      61726520 
 6337      61626F75 
 6337      7420746F 
 6337      20736574 
 6338 05bf 20202020 		.ascii	"         expression pedal mode. To     prevent dama"
 6338      20202020 
 6338      20657870 
 6338      72657373 
 6338      696F6E20 
 6339 05f2 67696E67 		.ascii	"ging your         equipment, please make sure   tha"
 6339      20796F75 
 6339      72202020 
 6339      20202020 
 6339      20206571 
 6340 0625 74207468 		.ascii	"t there are no control     voltage devices connecte"
 6340      65726520 
 6340      61726520 
 6340      6E6F2063 
 6340      6F6E7472 
 6341 0658 642E2020 		.ascii	"d.    Would you like to continue?\000"
 6341      2020576F 
 6341      756C6420 
 6341      796F7520 
 6341      6C696B65 
 6342 067a 0000     		.space	2
 6343              	.LC55:
 6344 067c 53657420 		.ascii	"Set input to CV\000"
 6344      696E7075 
 6344      7420746F 
 6344      20435600 
 6345              	.LC56:
 6346 068c 596F7520 		.ascii	"You are about to set the      stereo input port to "
 6346      61726520 
 6346      61626F75 
 6346      7420746F 
 6346      20736574 
 6347 06bf 636F6E74 		.ascii	"control  voltage mode. Would you like  to continue?"
 6347      726F6C20 
 6347      20766F6C 
 6347      74616765 
 6347      206D6F64 
 6348 06f2 00       		.ascii	"\000"
 6349 06f3 00       		.space	1
 6350              	.LC57:
 6351 06f4 53657420 		.ascii	"Set output to HP\000"
 6351      6F757470 
 6351      75742074 
 6351      6F204850 
 6351      00
 6352 0705 000000   		.space	3
 6353              	.LC58:
 6354 0708 596F7520 		.ascii	"You are about to set the      stereo output port to"
 6354      61726520 
 6354      61626F75 
 6354      7420746F 
 6354      20736574 
 6355 073b 20202020 		.ascii	"         headphone mode. To prevent    damaging you"
 6355      20202020 
 6355      20686561 
 6355      6470686F 
 6355      6E65206D 
 6356 076e 72206571 		.ascii	"r equipment,      please make sure that there   are"
 6356      7569706D 
 6356      656E742C 
 6356      20202020 
 6356      2020706C 
 6357 07a1 206E6F20 		.ascii	" no control voltage devicesconnected. Would you lik"
 6357      636F6E74 
 6357      726F6C20 
 6357      766F6C74 
 6357      61676520 
 6358 07d4 6520746F 		.ascii	"e to  continue?\000"
 6358      2020636F 
 6358      6E74696E 
 6358      75653F00 
 6359              	.LC59:
 6360 07e4 53657420 		.ascii	"Set output to CV\000"
 6360      6F757470 
 6360      75742074 
 6360      6F204356 
 6360      00
 6361 07f5 000000   		.space	3
 6362              	.LC60:
 6363 07f8 596F7520 		.ascii	"You are about to set the      stereo output port to"
 6363      61726520 
 6363      61626F75 
 6363      7420746F 
 6363      20736574 
 6364 082b 20636F6E 		.ascii	" control voltage mode. To prevent      damaging you"
 6364      74726F6C 
 6364      20766F6C 
 6364      74616765 
 6364      206D6F64 
 6365 085e 72206571 		.ascii	"r equipment,      please make sure that there   are"
 6365      7569706D 
 6365      656E742C 
 6365      20202020 
 6365      2020706C 
 6366 0891 206E6F20 		.ascii	" no headphones connected.  Would you like to contin"
 6366      68656164 
 6366      70686F6E 
 6366      65732063 
 6366      6F6E6E65 
 6367 08c4 75653F00 		.ascii	"ue?\000"
 6368              	.LC61:
 6369 08c8 53455454 		.ascii	"SETTINGS\000"
 6369      494E4753 
 6369      00
 6370 08d1 000000   		.space	3
 6371              	.LC62:
 6372 08d4 43555252 		.ascii	"CURRENT PEDALBOARD\000"
 6372      454E5420 
 6372      50454441 
 6372      4C424F41 
 6372      524400
 6373 08e7 00       		.space	1
 6374              	.LC63:
 6375 08e8 53415645 		.ascii	"SAVE STATE\000"
 6375      20535441 
 6375      544500
 6376 08f3 00       		.space	1
 6377              	.LC64:
 6378 08f4 52455345 		.ascii	"RESET STATE\000"
 6378      54205354 
 6378      41544500 
 6379              	.LC65:
 6380 0900 48415244 		.ascii	"HARDWARE BYPASS\000"
 6380      57415245 
 6380      20425950 
 6380      41535300 
 6381              	.LC66:
 6382 0910 4348414E 		.ascii	"CHANNEL 1\000"
 6382      4E454C20 
 6382      3100
 6383 091a 0000     		.space	2
 6384              	.LC67:
 6385 091c 4348414E 		.ascii	"CHANNEL 2\000"
 6385      4E454C20 
 6385      3200
 6386 0926 0000     		.space	2
 6387              	.LC68:
 6388 0928 4348414E 		.ascii	"CHANNEL 1 & 2\000"
 6388      4E454C20 
 6388      31202620 
 6388      3200
 6389 0936 0000     		.space	2
 6390              	.LC69:
 6391 0938 51554943 		.ascii	"QUICK BYPASS CHANNEL(S)\000"
 6391      4B204259 
 6391      50415353 
 6391      20434841 
 6391      4E4E454C 
 6392              	.LC70:
 6393 0950 54454D50 		.ascii	"TEMPO & TRANSPORT\000"
 6393      4F202620 
 6393      5452414E 
 6393      53504F52 
 6393      5400
 6394 0962 0000     		.space	2
 6395              	.LC71:
 6396 0964 54454D50 		.ascii	"TEMPO\000"
 6396      4F00
 6397 096a 0000     		.space	2
 6398              	.LC72:
 6399 096c 42454154 		.ascii	"BEATS PER BAR\000"
 6399      53205045 
 6399      52204241 
 6399      5200
 6400 097a 0000     		.space	2
 6401              	.LC73:
 6402 097c 54554E45 		.ascii	"TUNER\000"
 6402      5200
 6403 0982 0000     		.space	2
 6404              	.LC74:
 6405 0984 55534552 		.ascii	"USER PROFILES\000"
 6405      2050524F 
 6405      46494C45 
 6405      5300
 6406 0992 0000     		.space	2
 6407              	.LC75:
 6408 0994 55534552 		.ascii	"USER PROFILE A\000"
 6408      2050524F 
 6408      46494C45 
 6408      204100
 6409 09a3 00       		.space	1
 6410              	.LC76:
 6411 09a4 55534552 		.ascii	"USER PROFILE B\000"
 6411      2050524F 
 6411      46494C45 
 6411      204200
 6412 09b3 00       		.space	1
 6413              	.LC77:
 6414 09b4 55534552 		.ascii	"USER PROFILE C\000"
 6414      2050524F 
 6414      46494C45 
 6414      204300
 6415 09c3 00       		.space	1
 6416              	.LC78:
 6417 09c4 55534552 		.ascii	"USER PROFILE D\000"
 6417      2050524F 
 6417      46494C45 
 6417      204400
 6418 09d3 00       		.space	1
 6419              	.LC79:
 6420 09d4 4F564552 		.ascii	"OVERWRITE CURRENT PROFILE\000"
 6420      57524954 
 6420      45204355 
 6420      5252454E 
 6420      54205052 
 6421 09ee 0000     		.space	2
 6422              	.LC80:
 6423 09f0 53595354 		.ascii	"SYSTEM\000"
 6423      454D00
 6424 09f7 00       		.space	1
 6425              	.LC81:
 6426 09f8 494E5055 		.ascii	"INPUTS\000"
 6426      545300
 6427 09ff 00       		.space	1
 6428              	.LC82:
 6429 0a00 3C204241 		.ascii	"< BACK TO SYSTEM\000"
 6429      434B2054 
 6429      4F205359 
 6429      5354454D 
 6429      00
 6430 0a11 000000   		.space	3
 6431              	.LC83:
 6432 0a14 53544552 		.ascii	"STEREO LINK\000"
 6432      454F204C 
 6432      494E4B00 
 6433              	.LC84:
 6434 0a20 494E5055 		.ascii	"INPUT 1 GAIN\000"
 6434      54203120 
 6434      4741494E 
 6434      00
 6435 0a2d 000000   		.space	3
 6436              	.LC85:
 6437 0a30 494E5055 		.ascii	"INPUT 2 GAIN\000"
 6437      54203220 
 6437      4741494E 
 6437      00
 6438 0a3d 000000   		.space	3
 6439              	.LC86:
 6440 0a40 4F555450 		.ascii	"OUTPUTS\000"
 6440      55545300 
 6441              	.LC87:
 6442 0a48 53544552 		.ascii	"STEREO LINK \000"
 6442      454F204C 
 6442      494E4B20 
 6442      00
 6443 0a55 000000   		.space	3
 6444              	.LC88:
 6445 0a58 4F555450 		.ascii	"OUTPUT 1 GAIN\000"
 6445      55542031 
 6445      20474149 
 6445      4E00
 6446 0a66 0000     		.space	2
 6447              	.LC89:
 6448 0a68 4F555450 		.ascii	"OUTPUT 2 GAIN\000"
 6448      55542032 
 6448      20474149 
 6448      4E00
 6449 0a76 0000     		.space	2
 6450              	.LC90:
 6451 0a78 4D415354 		.ascii	"MASTER VOLUME LINK \000"
 6451      45522056 
 6451      4F4C554D 
 6451      45204C49 
 6451      4E4B2000 
 6452              	.LC91:
 6453 0a8c 48454144 		.ascii	"HEADPHONE VOLUME\000"
 6453      50484F4E 
 6453      4520564F 
 6453      4C554D45 
 6453      00
 6454 0a9d 000000   		.space	3
 6455              	.LC92:
 6456 0aa0 53594E43 		.ascii	"SYNC & MIDI\000"
 6456      2026204D 
 6456      49444900 
 6457              	.LC93:
 6458 0aac 434C4F43 		.ascii	"CLOCK SOURCE\000"
 6458      4B20534F 
 6458      55524345 
 6458      00
 6459 0ab9 000000   		.space	3
 6460              	.LC94:
 6461 0abc 53454E44 		.ascii	"SEND MIDI CLOCK\000"
 6461      204D4944 
 6461      4920434C 
 6461      4F434B00 
 6462              	.LC95:
 6463 0acc 534E4150 		.ascii	"SNAPSHOT NAV MIDI CHAN\000"
 6463      53484F54 
 6463      204E4156 
 6463      204D4944 
 6463      49204348 
 6464 0ae3 00       		.space	1
 6465              	.LC96:
 6466 0ae4 50454441 		.ascii	"PEDALBOARD NAV MIDI CHN\000"
 6466      4C424F41 
 6466      5244204E 
 6466      4156204D 
 6466      49444920 
 6467              	.LC97:
 6468 0afc 424C5545 		.ascii	"BLUETOOTH\000"
 6468      544F4F54 
 6468      4800
 6469 0b06 0000     		.space	2
 6470              	.LC98:
 6471 0b08 454E4142 		.ascii	"ENABLE DISCOVERY\000"
 6471      4C452044 
 6471      4953434F 
 6471      56455259 
 6471      00
 6472 0b19 000000   		.space	3
 6473              	.LC99:
 6474 0b1c 53544154 		.ascii	"STATUS:\000"
 6474      55533A00 
 6475              	.LC100:
 6476 0b24 4E414D45 		.ascii	"NAME:\000"
 6476      3A00
 6477 0b2a 0000     		.space	2
 6478              	.LC101:
 6479 0b2c 41444452 		.ascii	"ADDRESS:\000"
 6479      4553533A 
 6479      00
 6480 0b35 000000   		.space	3
 6481              	.LC102:
 6482 0b38 44495350 		.ascii	"DISPLAY BRIGHTNESS\000"
 6482      4C415920 
 6482      42524947 
 6482      48544E45 
 6482      535300
 6483 0b4b 00       		.space	1
 6484              	.LC103:
 6485 0b4c 494E464F 		.ascii	"INFO\000"
 6485      00
 6486 0b51 000000   		.space	3
 6487              	.LC104:
 6488 0b54 53455256 		.ascii	"SERVICES\000"
 6488      49434553 
 6488      00
 6489 0b5d 000000   		.space	3
 6490              	.LC105:
 6491 0b60 3C204241 		.ascii	"< BACK TO INFO\000"
 6491      434B2054 
 6491      4F20494E 
 6491      464F00
 6492 0b6f 00       		.space	1
 6493              	.LC106:
 6494 0b70 4A41434B 		.ascii	"JACK:\000"
 6494      3A00
 6495 0b76 0000     		.space	2
 6496              	.LC107:
 6497 0b78 53534844 		.ascii	"SSHD:\000"
 6497      3A00
 6498 0b7e 0000     		.space	2
 6499              	.LC108:
 6500 0b80 4D4F442D 		.ascii	"MOD-UI:\000"
 6500      55493A00 
 6501              	.LC109:
 6502 0b88 444E534D 		.ascii	"DNSMASQ:\000"
 6502      4153513A 
 6502      00
 6503 0b91 000000   		.space	3
 6504              	.LC110:
 6505 0b94 56455253 		.ascii	"VERSIONS\000"
 6505      494F4E53 
 6505      00
 6506 0b9d 000000   		.space	3
 6507              	.LC111:
 6508 0ba0 56455253 		.ascii	"VERSION:\000"
 6508      494F4E3A 
 6508      00
 6509 0ba9 000000   		.space	3
 6510              	.LC112:
 6511 0bac 52455354 		.ascii	"RESTORE:\000"
 6511      4F52453A 
 6511      00
 6512 0bb5 000000   		.space	3
 6513              	.LC113:
 6514 0bb8 53595354 		.ascii	"SYSTEM:\000"
 6514      454D3A00 
 6515              	.LC114:
 6516 0bc0 434F4E54 		.ascii	"CONTROLLER:\000"
 6516      524F4C4C 
 6516      45523A00 
 6517              	.LC115:
 6518 0bcc 44455649 		.ascii	"DEVICE\000"
 6518      434500
 6519 0bd3 00       		.space	1
 6520              	.LC116:
 6521 0bd4 53455249 		.ascii	"SERIAL NUMBER:\000"
 6521      414C204E 
 6521      554D4245 
 6521      523A00
 6522 0be3 00       		.space	1
 6523              	.LC117:
 6524 0be4 53595354 		.ascii	"SYSTEM UPGRADE\000"
 6524      454D2055 
 6524      50475241 
 6524      444500
 6525              		.ident	"GCC: (GNU Tools for Arm Embedded Processors 7-2018-q3-update) 7.3.1 20180622 (release) [AR
DEFINED SYMBOLS
                            *ABS*:0000000000000000 naveg.c
     /tmp/ccUm9mlB.s:13     .text:0000000000000000 $t
     /tmp/ccUm9mlB.s:20     .text:0000000000000000 bank_config_footer
     /tmp/ccUm9mlB.s:148    .text:00000000000000fc $d
                            *COM*:000000000000000a g_tool
     /tmp/ccUm9mlB.s:156    .text:0000000000000118 $t
     /tmp/ccUm9mlB.s:163    .text:0000000000000118 search_encoder
     /tmp/ccUm9mlB.s:206    .text:0000000000000164 $d
     /tmp/ccUm9mlB.s:215    .text:0000000000000168 $t
     /tmp/ccUm9mlB.s:222    .text:0000000000000168 foot_control_add
     /tmp/ccUm9mlB.s:257    .text:00000000000001ae $d
     /tmp/ccUm9mlB.s:289    .text:00000000000001ee $t
     /tmp/ccUm9mlB.s:545    .text:000000000000043c $d
                            *COM*:0000000000000054 g_tap_tempo
     /tmp/ccUm9mlB.s:556    .text:0000000000000464 $t
     /tmp/ccUm9mlB.s:675    .text:0000000000000550 $d
     /tmp/ccUm9mlB.s:678    .text:0000000000000558 $t
     /tmp/ccUm9mlB.s:685    .text:0000000000000558 parse_pedalboards_list
     /tmp/ccUm9mlB.s:710    .text:0000000000000584 $d
     /tmp/ccUm9mlB.s:712    .text:0000000000000588 $t
     /tmp/ccUm9mlB.s:719    .text:0000000000000588 display_disable_all_tools
     /tmp/ccUm9mlB.s:748    .text:00000000000005b8 $d
     /tmp/ccUm9mlB.s:758    .text:00000000000005c0 $t
     /tmp/ccUm9mlB.s:765    .text:00000000000005c0 step_to_value
     /tmp/ccUm9mlB.s:864    .text:000000000000068c send_load_pedalboard
     /tmp/ccUm9mlB.s:917    .text:00000000000006f4 $d
     /tmp/ccUm9mlB.s:921    .text:00000000000006f8 $t
     /tmp/ccUm9mlB.s:928    .text:00000000000006f8 control_set
     /tmp/ccUm9mlB.s:1216   .text:0000000000000960 $d
     /tmp/ccUm9mlB.s:1221   .text:0000000000000970 $t
     /tmp/ccUm9mlB.s:1228   .text:0000000000000970 parse_banks_list
     /tmp/ccUm9mlB.s:1252   .text:000000000000099c $d
     /tmp/ccUm9mlB.s:1254   .text:00000000000009a0 $t
     /tmp/ccUm9mlB.s:1261   .text:00000000000009a0 menu_up
     /tmp/ccUm9mlB.s:1313   .text:00000000000009fc $d
     /tmp/ccUm9mlB.s:1315   .text:0000000000000a00 $t
     /tmp/ccUm9mlB.s:1322   .text:0000000000000a00 menu_down
     /tmp/ccUm9mlB.s:1375   .text:0000000000000a60 $d
     /tmp/ccUm9mlB.s:1377   .text:0000000000000a64 $t
     /tmp/ccUm9mlB.s:1384   .text:0000000000000a64 reset_menu_hover.isra.0
     /tmp/ccUm9mlB.s:1415   .text:0000000000000a8c create_menu_tree.isra.1
     /tmp/ccUm9mlB.s:1475   .text:0000000000000b1c $d
     /tmp/ccUm9mlB.s:1478   .text:0000000000000b24 $t
     /tmp/ccUm9mlB.s:1485   .text:0000000000000b24 print_pb_name.isra.2
     /tmp/ccUm9mlB.s:1499   .text:0000000000000b3c $d
     /tmp/ccUm9mlB.s:1503   .text:0000000000000b44 $t
     /tmp/ccUm9mlB.s:1510   .text:0000000000000b44 naveg_set_master_volume.part.3
     /tmp/ccUm9mlB.s:1575   .text:0000000000000bd0 $d
     /tmp/ccUm9mlB.s:1580   .text:0000000000000be0 $t
     /tmp/ccUm9mlB.s:1588   .text:0000000000000be0 draw_all_pots
     /tmp/ccUm9mlB.s:1613   .text:0000000000000c0c $d
     /tmp/ccUm9mlB.s:1615   .text:0000000000000c10 $t
     /tmp/ccUm9mlB.s:1623   .text:0000000000000c10 draw_all_foots
     /tmp/ccUm9mlB.s:1664   .text:0000000000000c64 $d
     /tmp/ccUm9mlB.s:1666   .text:0000000000000c68 $t
     /tmp/ccUm9mlB.s:1674   .text:0000000000000c68 naveg_init
     /tmp/ccUm9mlB.s:1808   .text:0000000000000da4 $d
     /tmp/ccUm9mlB.s:1814   .text:0000000000000db8 $t
     /tmp/ccUm9mlB.s:1822   .text:0000000000000db8 naveg_initial_state
     /tmp/ccUm9mlB.s:1900   .text:0000000000000e5c $d
     /tmp/ccUm9mlB.s:1902   .text:0000000000000e60 $t
     /tmp/ccUm9mlB.s:1910   .text:0000000000000e60 naveg_inc_control
     /tmp/ccUm9mlB.s:1968   .text:0000000000000ed0 $d
     /tmp/ccUm9mlB.s:1971   .text:0000000000000ed8 $t
     /tmp/ccUm9mlB.s:1979   .text:0000000000000ed8 naveg_dec_control
     /tmp/ccUm9mlB.s:2035   .text:0000000000000f44 $d
     /tmp/ccUm9mlB.s:2038   .text:0000000000000f4c $t
     /tmp/ccUm9mlB.s:2046   .text:0000000000000f4c naveg_set_control
     /tmp/ccUm9mlB.s:2108   .text:0000000000000fd0 $d
     /tmp/ccUm9mlB.s:2110   .text:0000000000000fd4 $t
     /tmp/ccUm9mlB.s:2118   .text:0000000000000fd4 naveg_get_control
     /tmp/ccUm9mlB.s:2144   .text:0000000000001000 $d
     /tmp/ccUm9mlB.s:2146   .text:0000000000001004 $t
     /tmp/ccUm9mlB.s:2154   .text:0000000000001004 naveg_pot_change
     /tmp/ccUm9mlB.s:2215   .text:0000000000001094 $d
     /tmp/ccUm9mlB.s:2218   .text:000000000000109c $t
     /tmp/ccUm9mlB.s:2226   .text:000000000000109c naveg_foot_change
     /tmp/ccUm9mlB.s:2278   .text:000000000000110c $d
     /tmp/ccUm9mlB.s:2282   .text:000000000000111c $t
     /tmp/ccUm9mlB.s:2420   .text:0000000000001250 $d
     /tmp/ccUm9mlB.s:2423   .text:0000000000001258 $t
     /tmp/ccUm9mlB.s:2431   .text:0000000000001258 naveg_is_tool_mode
     /tmp/ccUm9mlB.s:2459   .text:0000000000001280 $d
     /tmp/ccUm9mlB.s:2461   .text:0000000000001284 $t
     /tmp/ccUm9mlB.s:2469   .text:0000000000001284 naveg_set_master_volume
     /tmp/ccUm9mlB.s:2482   .text:0000000000001290 $d
     /tmp/ccUm9mlB.s:2484   .text:0000000000001294 $t
     /tmp/ccUm9mlB.s:2492   .text:0000000000001294 naveg_is_master_vol
     /tmp/ccUm9mlB.s:2505   .text:00000000000012a0 $d
     /tmp/ccUm9mlB.s:2507   .text:00000000000012a4 $t
     /tmp/ccUm9mlB.s:2515   .text:00000000000012a4 naveg_set_banks
     /tmp/ccUm9mlB.s:2528   .text:00000000000012b0 $d
     /tmp/ccUm9mlB.s:2530   .text:00000000000012b4 $t
     /tmp/ccUm9mlB.s:2538   .text:00000000000012b4 naveg_get_banks
     /tmp/ccUm9mlB.s:2551   .text:00000000000012c0 $d
     /tmp/ccUm9mlB.s:2553   .text:00000000000012c4 $t
     /tmp/ccUm9mlB.s:2561   .text:00000000000012c4 naveg_bank_config
     /tmp/ccUm9mlB.s:2708   .text:00000000000013f8 $d
     /tmp/ccUm9mlB.s:2711   .text:0000000000001400 $t
     /tmp/ccUm9mlB.s:2719   .text:0000000000001400 naveg_set_pedalboards
     /tmp/ccUm9mlB.s:2732   .text:000000000000140c $d
     /tmp/ccUm9mlB.s:2734   .text:0000000000001410 $t
     /tmp/ccUm9mlB.s:2742   .text:0000000000001410 naveg_get_pedalboards
     /tmp/ccUm9mlB.s:2755   .text:000000000000141c $d
     /tmp/ccUm9mlB.s:2757   .text:0000000000001420 $t
     /tmp/ccUm9mlB.s:2765   .text:0000000000001420 naveg_enter
     /tmp/ccUm9mlB.s:3889   .text:0000000000001d68 menu_enter
     /tmp/ccUm9mlB.s:2987   .text:00000000000015f4 $d
     /tmp/ccUm9mlB.s:2995   .text:0000000000001610 $t
     /tmp/ccUm9mlB.s:3003   .text:0000000000001610 naveg_master_volume
     /tmp/ccUm9mlB.s:3063   .text:000000000000168c $d
     /tmp/ccUm9mlB.s:3068   .text:000000000000169c $t
     /tmp/ccUm9mlB.s:3075   .text:000000000000169c naveg_remove_control.part.6
     /tmp/ccUm9mlB.s:3415   .text:0000000000001950 $d
     /tmp/ccUm9mlB.s:3424   .text:0000000000001970 $t
     /tmp/ccUm9mlB.s:3432   .text:0000000000001970 naveg_remove_control
     /tmp/ccUm9mlB.s:3445   .text:000000000000197c $d
     /tmp/ccUm9mlB.s:3450   .text:0000000000001980 $t
     /tmp/ccUm9mlB.s:3458   .text:0000000000001980 naveg_add_control
     /tmp/ccUm9mlB.s:3700   .text:0000000000001be0 $d
     /tmp/ccUm9mlB.s:3703   .text:0000000000001be8 $t
     /tmp/ccUm9mlB.s:3710   .text:0000000000001be8 naveg_toggle_tool.part.7
     /tmp/ccUm9mlB.s:3852   .text:0000000000001d40 $d
     /tmp/ccUm9mlB.s:3859   .text:0000000000001d58 $t
     /tmp/ccUm9mlB.s:3867   .text:0000000000001d58 naveg_toggle_tool
     /tmp/ccUm9mlB.s:3880   .text:0000000000001d64 $d
     /tmp/ccUm9mlB.s:3882   .text:0000000000001d68 $t
     /tmp/ccUm9mlB.s:4213   .text:0000000000002040 $d
     /tmp/ccUm9mlB.s:4218   .text:0000000000002050 $t
     /tmp/ccUm9mlB.s:4460   .text:0000000000002288 $d
     /tmp/ccUm9mlB.s:4468   .text:00000000000022a4 $t
     /tmp/ccUm9mlB.s:4476   .text:00000000000022a4 naveg_ui_connection
     /tmp/ccUm9mlB.s:4562   .text:0000000000002338 $d
     /tmp/ccUm9mlB.s:4565   .text:0000000000002340 $t
     /tmp/ccUm9mlB.s:4573   .text:0000000000002340 naveg_up
     /tmp/ccUm9mlB.s:4701   .text:000000000000243c $d
     /tmp/ccUm9mlB.s:4705   .text:0000000000002448 $t
     /tmp/ccUm9mlB.s:4713   .text:0000000000002448 naveg_down
     /tmp/ccUm9mlB.s:4847   .text:0000000000002550 $d
     /tmp/ccUm9mlB.s:4851   .text:000000000000255c $t
     /tmp/ccUm9mlB.s:4859   .text:000000000000255c naveg_reset_menu
     /tmp/ccUm9mlB.s:4878   .text:000000000000257c $d
     /tmp/ccUm9mlB.s:4880   .text:0000000000002580 $t
     /tmp/ccUm9mlB.s:4888   .text:0000000000002580 naveg_need_update
     /tmp/ccUm9mlB.s:4901   .text:0000000000002590 $d
     /tmp/ccUm9mlB.s:4903   .text:0000000000002594 $t
     /tmp/ccUm9mlB.s:4911   .text:0000000000002594 naveg_update
     /tmp/ccUm9mlB.s:4929   .text:00000000000025b4 $d
     /tmp/ccUm9mlB.s:4931   .text:00000000000025b8 $t
     /tmp/ccUm9mlB.s:4939   .text:00000000000025b8 naveg_dialog
     /tmp/ccUm9mlB.s:4990   .text:0000000000002624 $d
     /tmp/ccUm9mlB.s:4994   .text:0000000000002630 $t
     /tmp/ccUm9mlB.s:5002   .text:0000000000002630 naveg_ui_status
     /tmp/ccUm9mlB.s:5012   .text:0000000000002638 $d
     /tmp/ccUm9mlB.s:5014   .text:000000000000263c $t
     /tmp/ccUm9mlB.s:5022   .text:000000000000263c naveg_tap_tempo_status
     /tmp/ccUm9mlB.s:5037   .text:0000000000002650 $d
     /tmp/ccUm9mlB.s:5039   .text:0000000000002654 $t
     /tmp/ccUm9mlB.s:5047   .text:0000000000002654 naveg_settings_refresh
     /tmp/ccUm9mlB.s:5061   .text:0000000000002664 $d
     /tmp/ccUm9mlB.s:5063   .text:0000000000002668 $t
     /tmp/ccUm9mlB.s:5071   .text:0000000000002668 naveg_menu_refresh
     /tmp/ccUm9mlB.s:5109   .text:00000000000026ac $d
     /tmp/ccUm9mlB.s:5111   .text:00000000000026b0 $t
     /tmp/ccUm9mlB.s:5119   .text:00000000000026b0 naveg_update_gain
     /tmp/ccUm9mlB.s:5205   .text:0000000000002768 $d
     /tmp/ccUm9mlB.s:5209   .text:0000000000002774 $t
     /tmp/ccUm9mlB.s:5217   .text:0000000000002774 naveg_bypass_refresh
     /tmp/ccUm9mlB.s:5341   .text:0000000000002870 $d
     /tmp/ccUm9mlB.s:5352   .rodata:0000000000000000 $d
     /tmp/ccUm9mlB.s:5366   .rodata:0000000000000014 g_menu_popups
     /tmp/ccUm9mlB.s:5448   .data:0000000000000000 $d
     /tmp/ccUm9mlB.s:5452   .data:0000000000000000 g_menu_desc
     /tmp/ccUm9mlB.s:6040   .data:0000000000000514 input.10195
     /tmp/ccUm9mlB.s:6045   .data:0000000000000518 desc.10414
     /tmp/ccUm9mlB.s:6056   .bss:0000000000000000 $d
     /tmp/ccUm9mlB.s:6060   .bss:0000000000000000 g_selected_pedalboards
     /tmp/ccUm9mlB.s:6064   .bss:0000000000000004 g_bank_functions
     /tmp/ccUm9mlB.s:6068   .bss:0000000000000018 g_current_pedalboard
     /tmp/ccUm9mlB.s:6073   .bss:000000000000001c g_encoders
     /tmp/ccUm9mlB.s:6077   .bss:0000000000000024 g_foots
     /tmp/ccUm9mlB.s:6081   .bss:0000000000000040 g_naveg_pedalboards
     /tmp/ccUm9mlB.s:6085   .bss:0000000000000044 g_banks
     /tmp/ccUm9mlB.s:6089   .bss:0000000000000048 g_current_bank
     /tmp/ccUm9mlB.s:6094   .bss:000000000000004c g_current_item
     /tmp/ccUm9mlB.s:6098   .bss:0000000000000050 g_current_main_item
     /tmp/ccUm9mlB.s:6102   .bss:0000000000000054 g_max_items_list
     /tmp/ccUm9mlB.s:6107   .bss:0000000000000058 master_vol_value
     /tmp/ccUm9mlB.s:6111   .bss:000000000000005c g_pots
     /tmp/ccUm9mlB.s:6115   .bss:000000000000007c g_bp_state
     /tmp/ccUm9mlB.s:6120   .bss:0000000000000080 g_menu
     /tmp/ccUm9mlB.s:6124   .bss:0000000000000084 g_current_menu
     /tmp/ccUm9mlB.s:6128   .bss:0000000000000088 g_update_cb
     /tmp/ccUm9mlB.s:6132   .bss:000000000000008c g_update_data
     /tmp/ccUm9mlB.s:6136   .bss:0000000000000090 g_initialized
     /tmp/ccUm9mlB.s:6141   .bss:0000000000000094 g_dialog_sem
     /tmp/ccUm9mlB.s:6145   .bss:0000000000000098 snapshot_loaded.10328
     /tmp/ccUm9mlB.s:6149   .bss:0000000000000099 page.10329
     /tmp/ccUm9mlB.s:6153   .bss:000000000000009a g_bp_first
     /tmp/ccUm9mlB.s:6157   .bss:000000000000009b g_ui_connected
     /tmp/ccUm9mlB.s:6161   .bss:000000000000009c banks_loaded.10348
     /tmp/ccUm9mlB.s:6166   .bss:00000000000000a0 g_current_main_menu
     /tmp/ccUm9mlB.s:6170   .bss:00000000000000a4 toggle.10182
     /tmp/ccUm9mlB.s:6175   .bss:00000000000000a8 dummy_menu.10413
     /tmp/ccUm9mlB.s:6178   .rodata.str1.4:0000000000000000 $d

UNDEFINED SYMBOLS
hardware_leds
ledz_on
screen_footer
ledz_off
strcmp
__aeabi_fcmple
__aeabi_f2d
__aeabi_dadd
__aeabi_d2uiz
__aeabi_fcmpeq
__aeabi_f2iz
__aeabi_i2f
convert_to_ms
ledz_blink
strcasecmp
int_to_str
strcpy
data_free_control
float_to_str
strarr_length
data_free_pedalboards_list
data_parse_pedalboards_list
comm_webgui_send
__aeabi_fdiv
__aeabi_fsub
__aeabi_fmul
__aeabi_fadd
__aeabi_dmul
__aeabi_d2f
__aeabi_fcmpgt
pow
copy_command
comm_webgui_set_response_cb
__aeabi_fcmplt
__aeabi_ui2f
hardware_timestamp
convert_from_ms
strlen
screen_pot
screen_encoder
data_free_banks_list
data_parse_banks_list
screen_system_menu
hardware_get_acceleration
pvPortMalloc
node_child
screen_top_info
__aeabi_f2uiz
system_master_volume_cb
screen_master_vol
node_create
xQueueGenericCreate
xQueueGenericSend
xQueueGenericReceive
atoi
hardware_get_pot_value
screen_bp_list
screen_tuner_input
comm_webgui_wait_response
system_save_gains_cb
__aeabi_i2d
__aeabi_ddiv
__aeabi_d2iz
log
screen_clear
screen_tool
xQueueGiveFromISR
malloc
memcpy
deselect_item
select_item
strcat
system_banks_cb
system_pedalboard_cb
system_quick_bypass_cb
system_bypass_cb
system_play_cb
system_tempo_cb
system_bpb_cb
system_tuner_cb
system_load_pro_cb
system_save_pro_cb
system_sl_in_cb
system_volume_cb
system_sl_out_cb
system_master_vol_link_cb
system_midi_src_cb
system_midi_send_cb
system_ss_prog_change_cb
system_pb_prog_change_cb
system_bluetooth_cb
system_display_cb
system_services_cb
system_versions_cb
system_release_cb
system_device_cb
system_tag_cb
system_upgrade_cb
