   1              		.cpu cortex-m3
   2              		.eabi_attribute 20, 1
   3              		.eabi_attribute 21, 1
   4              		.eabi_attribute 23, 3
   5              		.eabi_attribute 24, 1
   6              		.eabi_attribute 25, 1
   7              		.eabi_attribute 26, 1
   8              		.eabi_attribute 30, 2
   9              		.eabi_attribute 34, 1
  10              		.eabi_attribute 18, 4
  11              		.file	"naveg.c"
  12              		.text
  13              		.align	1
  14              		.p2align 2,,3
  15              		.syntax unified
  16              		.thumb
  17              		.thumb_func
  18              		.fpu softvfp
  20              	bank_config_footer:
  21              		@ args = 0, pretend = 0, frame = 0
  22              		@ frame_needed = 0, uses_anonymous_args = 0
  23 0000 2DE9F047 		push	{r4, r5, r6, r7, r8, r9, r10, lr}
  24 0004 3D4E     		ldr	r6, .L45
  25 0006 3568     		ldr	r5, [r6]
  26 0008 1DB1     		cbz	r5, .L2
  27 000a AA7A     		ldrb	r2, [r5, #10]	@ zero_extendqisi2
  28 000c 2B68     		ldr	r3, [r5]
  29 000e 53F82250 		ldr	r5, [r3, r2, lsl #2]
  30              	.L2:
  31 0012 3B4C     		ldr	r4, .L45+4
  32 0014 DFF8F4A0 		ldr	r10, .L45+16
  33 0018 DFF8F490 		ldr	r9, .L45+20
  34 001c DFF8F480 		ldr	r8, .L45+24
  35 0020 04F10F07 		add	r7, r4, #15
  36              	.L21:
  37 0024 637A     		ldrb	r3, [r4, #9]	@ zero_extendqisi2
  38 0026 022B     		cmp	r3, #2
  39 0028 39D0     		beq	.L4
  40 002a 032B     		cmp	r3, #3
  41 002c 1FD0     		beq	.L5
  42 002e 012B     		cmp	r3, #1
  43 0030 04D0     		beq	.L39
  44              	.L3:
  45 0032 0534     		adds	r4, r4, #5
  46 0034 BC42     		cmp	r4, r7
  47 0036 F5D1     		bne	.L21
  48 0038 BDE8F087 		pop	{r4, r5, r6, r7, r8, r9, r10, pc}
  49              	.L39:
  50 003c 207A     		ldrb	r0, [r4, #8]	@ zero_extendqisi2
  51 003e FFF7FEFF 		bl	hardware_leds
  52 0042 0721     		movs	r1, #7
  53 0044 FFF7FEFF 		bl	ledz_on
  54 0048 2E4B     		ldr	r3, .L45+8
  55 004a 207A     		ldrb	r0, [r4, #8]	@ zero_extendqisi2
  56 004c 03F10A01 		add	r1, r3, #10
  57              	.L8:
  58 0050 5A78     		ldrb	r2, [r3, #1]	@ zero_extendqisi2
  59 0052 8242     		cmp	r2, r0
  60 0054 07D0     		beq	.L40
  61              	.L7:
  62 0056 0233     		adds	r3, r3, #2
  63 0058 9942     		cmp	r1, r3
  64 005a F9D1     		bne	.L8
  65 005c 4246     		mov	r2, r8
  66 005e 2A49     		ldr	r1, .L45+12
  67 0060 FFF7FEFF 		bl	screen_footer
  68 0064 E5E7     		b	.L3
  69              	.L40:
  70 0066 1A78     		ldrb	r2, [r3]	@ zero_extendqisi2
  71 0068 012A     		cmp	r2, #1
  72 006a F4D1     		bne	.L7
  73 006c E1E7     		b	.L3
  74              	.L5:
  75 006e 337E     		ldrb	r3, [r6, #24]	@ zero_extendqisi2
  76 0070 207A     		ldrb	r0, [r4, #8]	@ zero_extendqisi2
  77 0072 012B     		cmp	r3, #1
  78 0074 2ED0     		beq	.L41
  79 0076 FFF7FEFF 		bl	hardware_leds
  80 007a 0721     		movs	r1, #7
  81 007c FFF7FEFF 		bl	ledz_on
  82              	.L17:
  83 0080 204B     		ldr	r3, .L45+8
  84 0082 207A     		ldrb	r0, [r4, #8]	@ zero_extendqisi2
  85 0084 03F10A01 		add	r1, r3, #10
  86              	.L19:
  87 0088 5A78     		ldrb	r2, [r3, #1]	@ zero_extendqisi2
  88 008a 8242     		cmp	r2, r0
  89 008c 2ED0     		beq	.L42
  90              	.L18:
  91 008e 0233     		adds	r3, r3, #2
  92 0090 9942     		cmp	r1, r3
  93 0092 F9D1     		bne	.L19
  94 0094 4A46     		mov	r2, r9
  95 0096 2946     		mov	r1, r5
  96 0098 FFF7FEFF 		bl	screen_footer
  97 009c C9E7     		b	.L3
  98              	.L4:
  99 009e 3368     		ldr	r3, [r6]
 100 00a0 327E     		ldrb	r2, [r6, #24]	@ zero_extendqisi2
 101 00a2 1B7A     		ldrb	r3, [r3, #8]	@ zero_extendqisi2
 102 00a4 207A     		ldrb	r0, [r4, #8]	@ zero_extendqisi2
 103 00a6 013B     		subs	r3, r3, #1
 104 00a8 9A42     		cmp	r2, r3
 105 00aa 19D0     		beq	.L43
 106 00ac FFF7FEFF 		bl	hardware_leds
 107 00b0 0721     		movs	r1, #7
 108 00b2 FFF7FEFF 		bl	ledz_on
 109              	.L11:
 110 00b6 134B     		ldr	r3, .L45+8
 111 00b8 207A     		ldrb	r0, [r4, #8]	@ zero_extendqisi2
 112 00ba 03F10A01 		add	r1, r3, #10
 113              	.L14:
 114 00be 5A78     		ldrb	r2, [r3, #1]	@ zero_extendqisi2
 115 00c0 8242     		cmp	r2, r0
 116 00c2 17D0     		beq	.L44
 117              	.L12:
 118 00c4 0233     		adds	r3, r3, #2
 119 00c6 8B42     		cmp	r3, r1
 120 00c8 F9D1     		bne	.L14
 121 00ca 5246     		mov	r2, r10
 122 00cc 2946     		mov	r1, r5
 123 00ce FFF7FEFF 		bl	screen_footer
 124 00d2 AEE7     		b	.L3
 125              	.L41:
 126 00d4 FFF7FEFF 		bl	hardware_leds
 127 00d8 FF21     		movs	r1, #255
 128 00da FFF7FEFF 		bl	ledz_off
 129 00de CFE7     		b	.L17
 130              	.L43:
 131 00e0 FFF7FEFF 		bl	hardware_leds
 132 00e4 FF21     		movs	r1, #255
 133 00e6 FFF7FEFF 		bl	ledz_off
 134 00ea E4E7     		b	.L11
 135              	.L42:
 136 00ec 1A78     		ldrb	r2, [r3]	@ zero_extendqisi2
 137 00ee 012A     		cmp	r2, #1
 138 00f0 CDD1     		bne	.L18
 139 00f2 9EE7     		b	.L3
 140              	.L44:
 141 00f4 1A78     		ldrb	r2, [r3]	@ zero_extendqisi2
 142 00f6 012A     		cmp	r2, #1
 143 00f8 E4D1     		bne	.L12
 144 00fa 9AE7     		b	.L3
 145              	.L46:
 146              		.align	2
 147              	.L45:
 148 00fc 00000000 		.word	.LANCHOR0
 149 0100 04000000 		.word	.LANCHOR0+4
 150 0104 00000000 		.word	g_tool
 151 0108 04000000 		.word	.LC3
 152 010c 10000000 		.word	.LC4
 153 0110 14000000 		.word	.LC5
 154 0114 00000000 		.word	.LC2
 156              		.align	1
 157              		.p2align 2,,3
 158              		.syntax unified
 159              		.thumb
 160              		.thumb_func
 161              		.fpu softvfp
 163              	search_encoder:
 164              		@ args = 0, pretend = 0, frame = 0
 165              		@ frame_needed = 0, uses_anonymous_args = 0
 166 0118 2DE9F041 		push	{r4, r5, r6, r7, r8, lr}
 167 011c 114D     		ldr	r5, .L63
 168 011e 0646     		mov	r6, r0
 169 0120 EC69     		ldr	r4, [r5, #28]
 170 0122 9046     		mov	r8, r2
 171 0124 0F46     		mov	r7, r1
 172 0126 1CB1     		cbz	r4, .L48
 173 0128 94F91030 		ldrsb	r3, [r4, #16]
 174 012c 9842     		cmp	r0, r3
 175 012e 09D0     		beq	.L61
 176              	.L48:
 177 0130 2C6A     		ldr	r4, [r5, #32]
 178 0132 24B1     		cbz	r4, .L47
 179 0134 94F91030 		ldrsb	r3, [r4, #16]
 180 0138 B342     		cmp	r3, r6
 181 013a 0BD0     		beq	.L62
 182              	.L53:
 183 013c 0024     		movs	r4, #0
 184              	.L47:
 185 013e 2046     		mov	r0, r4
 186 0140 BDE8F081 		pop	{r4, r5, r6, r7, r8, pc}
 187              	.L61:
 188 0144 A068     		ldr	r0, [r4, #8]
 189 0146 FFF7FEFF 		bl	strcmp
 190 014a 0028     		cmp	r0, #0
 191 014c F0D1     		bne	.L48
 192              	.L49:
 193 014e 88F80000 		strb	r0, [r8]
 194 0152 F4E7     		b	.L47
 195              	.L62:
 196 0154 3946     		mov	r1, r7
 197 0156 A068     		ldr	r0, [r4, #8]
 198 0158 FFF7FEFF 		bl	strcmp
 199 015c 0028     		cmp	r0, #0
 200 015e EDD1     		bne	.L53
 201 0160 0120     		movs	r0, #1
 202 0162 F4E7     		b	.L49
 203              	.L64:
 204              		.align	2
 205              	.L63:
 206 0164 00000000 		.word	.LANCHOR0
 208              		.global	__aeabi_fcmple
 209              		.global	__aeabi_f2d
 210              		.global	__aeabi_dadd
 211              		.global	__aeabi_d2uiz
 212              		.global	__aeabi_fcmpeq
 213              		.global	__aeabi_f2iz
 214              		.global	__aeabi_i2f
 215              		.align	1
 216              		.p2align 2,,3
 217              		.syntax unified
 218              		.thumb
 219              		.thumb_func
 220              		.fpu softvfp
 222              	foot_control_add:
 223              		@ args = 0, pretend = 0, frame = 32
 224              		@ frame_needed = 0, uses_anonymous_args = 0
 225 0168 2DE9F043 		push	{r4, r5, r6, r7, r8, r9, lr}
 226 016c C578     		ldrb	r5, [r0, #3]	@ zero_extendqisi2
 227 016e 89B0     		sub	sp, sp, #36
 228 0170 062D     		cmp	r5, #6
 229 0172 00F2BC80 		bhi	.L65
 230 0176 0446     		mov	r4, r0
 231 0178 B04B     		ldr	r3, .L182
 232 017a 03F10F01 		add	r1, r3, #15
 233              	.L69:
 234 017e 1A7A     		ldrb	r2, [r3, #8]	@ zero_extendqisi2
 235 0180 AA42     		cmp	r2, r5
 236 0182 00F0B780 		beq	.L171
 237              	.L67:
 238 0186 0533     		adds	r3, r3, #5
 239 0188 8B42     		cmp	r3, r1
 240 018a F8D1     		bne	.L69
 241 018c AC4B     		ldr	r3, .L182+4
 242 018e A900     		lsls	r1, r5, #2
 243 0190 5A18     		adds	r2, r3, r1
 244 0192 526A     		ldr	r2, [r2, #36]
 245 0194 12B1     		cbz	r2, .L71
 246 0196 A242     		cmp	r2, r4
 247 0198 40F0B080 		bne	.L68
 248              	.L71:
 249 019c A27C     		ldrb	r2, [r4, #18]	@ zero_extendqisi2
 250 019e 0B44     		add	r3, r3, r1
 251 01a0 013A     		subs	r2, r2, #1
 252 01a2 5C62     		str	r4, [r3, #36]
 253 01a4 1F2A     		cmp	r2, #31
 254 01a6 00F2A280 		bhi	.L65
 255 01aa DFE812F0 		tbh	[pc, r2, lsl #1]
 256              	.L73:
 257 01ae D700     		.2byte	(.L72-.L73)/2
 258 01b0 2000     		.2byte	(.L74-.L73)/2
 259 01b2 A000     		.2byte	(.L65-.L73)/2
 260 01b4 0101     		.2byte	(.L75-.L73)/2
 261 01b6 A000     		.2byte	(.L65-.L73)/2
 262 01b8 A000     		.2byte	(.L65-.L73)/2
 263 01ba A000     		.2byte	(.L65-.L73)/2
 264 01bc 0101     		.2byte	(.L75-.L73)/2
 265 01be A000     		.2byte	(.L65-.L73)/2
 266 01c0 A000     		.2byte	(.L65-.L73)/2
 267 01c2 A000     		.2byte	(.L65-.L73)/2
 268 01c4 A000     		.2byte	(.L65-.L73)/2
 269 01c6 A000     		.2byte	(.L65-.L73)/2
 270 01c8 A000     		.2byte	(.L65-.L73)/2
 271 01ca A000     		.2byte	(.L65-.L73)/2
 272 01cc 5B01     		.2byte	(.L76-.L73)/2
 273 01ce A000     		.2byte	(.L65-.L73)/2
 274 01d0 A000     		.2byte	(.L65-.L73)/2
 275 01d2 A000     		.2byte	(.L65-.L73)/2
 276 01d4 A000     		.2byte	(.L65-.L73)/2
 277 01d6 A000     		.2byte	(.L65-.L73)/2
 278 01d8 A000     		.2byte	(.L65-.L73)/2
 279 01da A000     		.2byte	(.L65-.L73)/2
 280 01dc A000     		.2byte	(.L65-.L73)/2
 281 01de A000     		.2byte	(.L65-.L73)/2
 282 01e0 A000     		.2byte	(.L65-.L73)/2
 283 01e2 A000     		.2byte	(.L65-.L73)/2
 284 01e4 A000     		.2byte	(.L65-.L73)/2
 285 01e6 A000     		.2byte	(.L65-.L73)/2
 286 01e8 A000     		.2byte	(.L65-.L73)/2
 287 01ea A000     		.2byte	(.L65-.L73)/2
 288 01ec AD00     		.2byte	(.L77-.L73)/2
 289              		.p2align 1
 290              	.L74:
 291 01ee 2846     		mov	r0, r5
 292 01f0 FFF7FEFF 		bl	hardware_leds
 293 01f4 0221     		movs	r1, #2
 294 01f6 FFF7FEFF 		bl	ledz_on
 295 01fa 6169     		ldr	r1, [r4, #20]	@ float
 296 01fc E068     		ldr	r0, [r4, #12]
 297 01fe FFF7FEFF 		bl	convert_to_ms
 298 0202 FFF7FEFF 		bl	__aeabi_f2d
 299 0206 0022     		movs	r2, #0
 300 0208 8E4B     		ldr	r3, .L182+8
 301 020a FFF7FEFF 		bl	__aeabi_dadd
 302 020e FFF7FEFF 		bl	__aeabi_d2uiz
 303 0212 85B2     		uxth	r5, r0
 304 0214 642D     		cmp	r5, #100
 305 0216 E078     		ldrb	r0, [r4, #3]	@ zero_extendqisi2
 306 0218 40F25481 		bls	.L89
 307 021c FFF7FEFF 		bl	hardware_leds
 308 0220 A5F16403 		sub	r3, r5, #100
 309 0224 9BB2     		uxth	r3, r3
 310 0226 6422     		movs	r2, #100
 311 0228 0221     		movs	r1, #2
 312 022a FFF7FEFF 		bl	ledz_blink
 313              	.L90:
 314 022e E578     		ldrb	r5, [r4, #3]	@ zero_extendqisi2
 315 0230 854E     		ldr	r6, .L182+12
 316 0232 6F00     		lsls	r7, r5, #1
 317 0234 7B19     		adds	r3, r7, r5
 318 0236 06EB8303 		add	r3, r6, r3, lsl #2
 319 023a 1B7A     		ldrb	r3, [r3, #8]	@ zero_extendqisi2
 320 023c 03BB     		cbnz	r3, .L91
 321 023e D4F80C80 		ldr	r8, [r4, #12]
 322 0242 8249     		ldr	r1, .L182+16
 323 0244 4046     		mov	r0, r8
 324 0246 FFF7FEFF 		bl	strcmp
 325 024a 0028     		cmp	r0, #0
 326 024c 00F05981 		beq	.L92
 327 0250 7F49     		ldr	r1, .L182+20
 328 0252 4046     		mov	r0, r8
 329 0254 FFF7FEFF 		bl	strcmp
 330 0258 0028     		cmp	r0, #0
 331 025a 00F05281 		beq	.L92
 332 025e D4F81890 		ldr	r9, [r4, #24]	@ float
 333 0262 0021     		movs	r1, #0
 334 0264 4846     		mov	r0, r9
 335 0266 FFF7FEFF 		bl	__aeabi_fcmpeq
 336 026a 0028     		cmp	r0, #0
 337 026c 00F06D81 		beq	.L172
 338 0270 40F6B830 		movw	r0, #3000
 339              	.L94:
 340 0274 0123     		movs	r3, #1
 341 0276 2F44     		add	r7, r7, r5
 342 0278 06EB8706 		add	r6, r6, r7, lsl #2
 343 027c 7060     		str	r0, [r6, #4]
 344 027e 3372     		strb	r3, [r6, #8]
 345              	.L91:
 346 0280 012D     		cmp	r5, #1
 347 0282 94BF     		ite	ls
 348 0284 0022     		movls	r2, #0
 349 0286 0122     		movhi	r2, #1
 350 0288 724B     		ldr	r3, .L182+24
 351 028a 03F10A00 		add	r0, r3, #10
 352              	.L96:
 353 028e 5978     		ldrb	r1, [r3, #1]	@ zero_extendqisi2
 354 0290 9142     		cmp	r1, r2
 355 0292 00F00481 		beq	.L173
 356              	.L95:
 357 0296 0233     		adds	r3, r3, #2
 358 0298 9842     		cmp	r0, r3
 359 029a F8D1     		bne	.L96
 360 029c E568     		ldr	r5, [r4, #12]
 361 029e 6B49     		ldr	r1, .L182+16
 362 02a0 2846     		mov	r0, r5
 363 02a2 FFF7FEFF 		bl	strcasecmp
 364 02a6 6669     		ldr	r6, [r4, #20]	@ float
 365 02a8 30B1     		cbz	r0, .L118
 366 02aa 2846     		mov	r0, r5
 367 02ac 6A49     		ldr	r1, .L182+28
 368 02ae FFF7FEFF 		bl	strcasecmp
 369 02b2 0028     		cmp	r0, #0
 370 02b4 40F03981 		bne	.L98
 371              	.L118:
 372 02b8 6D46     		mov	r5, sp
 373 02ba 3046     		mov	r0, r6
 374 02bc FFF7FEFF 		bl	__aeabi_f2iz
 375 02c0 0023     		movs	r3, #0
 376 02c2 2946     		mov	r1, r5
 377 02c4 2022     		movs	r2, #32
 378 02c6 FFF7FEFF 		bl	int_to_str
 379 02ca C3B2     		uxtb	r3, r0
 380              	.L99:
 381 02cc 2022     		movs	r2, #32
 382 02ce 581C     		adds	r0, r3, #1
 383 02d0 0DEB0201 		add	r1, sp, r2
 384 02d4 C0B2     		uxtb	r0, r0
 385 02d6 0B44     		add	r3, r3, r1
 386 02d8 2844     		add	r0, r0, r5
 387 02da E168     		ldr	r1, [r4, #12]
 388 02dc 03F8202C 		strb	r2, [r3, #-32]
 389 02e0 FFF7FEFF 		bl	strcpy
 390 02e4 2A46     		mov	r2, r5
 391 02e6 6168     		ldr	r1, [r4, #4]
 392 02e8 E078     		ldrb	r0, [r4, #3]	@ zero_extendqisi2
 393 02ea FFF7FEFF 		bl	screen_footer
 394              	.L65:
 395 02ee 09B0     		add	sp, sp, #36
 396              		@ sp needed
 397 02f0 BDE8F083 		pop	{r4, r5, r6, r7, r8, r9, pc}
 398              	.L171:
 399 02f4 5A7A     		ldrb	r2, [r3, #9]	@ zero_extendqisi2
 400 02f6 002A     		cmp	r2, #0
 401 02f8 3FF445AF 		beq	.L67
 402              	.L68:
 403 02fc 2046     		mov	r0, r4
 404 02fe FFF7FEFF 		bl	data_free_control
 405 0302 09B0     		add	sp, sp, #36
 406              		@ sp needed
 407 0304 BDE8F083 		pop	{r4, r5, r6, r7, r8, r9, pc}
 408              	.L77:
 409 0308 0021     		movs	r1, #0
 410 030a 6069     		ldr	r0, [r4, #20]	@ float
 411 030c FFF7FEFF 		bl	__aeabi_fcmple
 412 0310 0028     		cmp	r0, #0
 413 0312 40F0E880 		bne	.L174
 414 0316 2846     		mov	r0, r5
 415 0318 FFF7FEFF 		bl	hardware_leds
 416 031c 0221     		movs	r1, #2
 417 031e FFF7FEFF 		bl	ledz_on
 418              	.L80:
 419 0322 E578     		ldrb	r5, [r4, #3]	@ zero_extendqisi2
 420 0324 4B4B     		ldr	r3, .L182+24
 421 0326 012D     		cmp	r5, #1
 422 0328 94BF     		ite	ls
 423 032a 0021     		movls	r1, #0
 424 032c 0121     		movhi	r1, #1
 425 032e 03F10A00 		add	r0, r3, #10
 426              	.L83:
 427 0332 5A78     		ldrb	r2, [r3, #1]	@ zero_extendqisi2
 428 0334 8A42     		cmp	r2, r1
 429 0336 00F0C080 		beq	.L175
 430              	.L81:
 431 033a 0233     		adds	r3, r3, #2
 432 033c 9842     		cmp	r0, r3
 433 033e F8D1     		bne	.L83
 434 0340 0021     		movs	r1, #0
 435 0342 6069     		ldr	r0, [r4, #20]	@ float
 436 0344 FFF7FEFF 		bl	__aeabi_fcmple
 437 0348 444B     		ldr	r3, .L182+32
 438 034a 454A     		ldr	r2, .L182+36
 439 034c 6168     		ldr	r1, [r4, #4]
 440 034e 0028     		cmp	r0, #0
 441 0350 08BF     		it	eq
 442 0352 1A46     		moveq	r2, r3
 443 0354 2846     		mov	r0, r5
 444 0356 FFF7FEFF 		bl	screen_footer
 445 035a C8E7     		b	.L65
 446              	.L72:
 447 035c 0021     		movs	r1, #0
 448 035e 6069     		ldr	r0, [r4, #20]	@ float
 449 0360 FFF7FEFF 		bl	__aeabi_fcmple
 450 0364 0028     		cmp	r0, #0
 451 0366 40F0C580 		bne	.L176
 452 036a 2846     		mov	r0, r5
 453 036c FFF7FEFF 		bl	hardware_leds
 454 0370 0121     		movs	r1, #1
 455 0372 FFF7FEFF 		bl	ledz_off
 456              	.L102:
 457 0376 E578     		ldrb	r5, [r4, #3]	@ zero_extendqisi2
 458 0378 364B     		ldr	r3, .L182+24
 459 037a 012D     		cmp	r5, #1
 460 037c 94BF     		ite	ls
 461 037e 0021     		movls	r1, #0
 462 0380 0121     		movhi	r1, #1
 463 0382 03F10A00 		add	r0, r3, #10
 464              	.L104:
 465 0386 5A78     		ldrb	r2, [r3, #1]	@ zero_extendqisi2
 466 0388 8A42     		cmp	r2, r1
 467 038a 00F08D80 		beq	.L177
 468              	.L103:
 469 038e 0233     		adds	r3, r3, #2
 470 0390 9842     		cmp	r0, r3
 471 0392 F8D1     		bne	.L104
 472 0394 0021     		movs	r1, #0
 473 0396 6069     		ldr	r0, [r4, #20]	@ float
 474 0398 FFF7FEFF 		bl	__aeabi_fcmpeq
 475 039c 2F4B     		ldr	r3, .L182+32
 476 039e 304A     		ldr	r2, .L182+36
 477 03a0 6168     		ldr	r1, [r4, #4]
 478 03a2 0028     		cmp	r0, #0
 479 03a4 18BF     		it	ne
 480 03a6 1A46     		movne	r2, r3
 481 03a8 2846     		mov	r0, r5
 482 03aa FFF7FEFF 		bl	screen_footer
 483 03ae 9EE7     		b	.L65
 484              	.L75:
 485 03b0 4FF00009 		mov	r9, #0
 486 03b4 2846     		mov	r0, r5
 487 03b6 FFF7FEFF 		bl	hardware_leds
 488 03ba 0221     		movs	r1, #2
 489 03bc FFF7FEFF 		bl	ledz_on
 490 03c0 94F82470 		ldrb	r7, [r4, #36]	@ zero_extendqisi2
 491 03c4 84F82090 		strb	r9, [r4, #32]
 492 03c8 002F     		cmp	r7, #0
 493 03ca 00F0B780 		beq	.L123
 494 03ce A66A     		ldr	r6, [r4, #40]
 495 03d0 D4F81480 		ldr	r8, [r4, #20]	@ float
 496 03d4 3368     		ldr	r3, [r6]
 497 03d6 93F90400 		ldrsb	r0, [r3, #4]
 498 03da FFF7FEFF 		bl	__aeabi_i2f
 499 03de 0146     		mov	r1, r0
 500 03e0 4046     		mov	r0, r8
 501 03e2 FFF7FEFF 		bl	__aeabi_fcmpeq
 502 03e6 0546     		mov	r5, r0
 503 03e8 58B1     		cbz	r0, .L109
 504 03ea AAE0     		b	.L178
 505              	.L111:
 506 03ec 56F8043F 		ldr	r3, [r6, #4]!
 507 03f0 93F90400 		ldrsb	r0, [r3, #4]
 508 03f4 FFF7FEFF 		bl	__aeabi_i2f
 509 03f8 4146     		mov	r1, r8
 510 03fa FFF7FEFF 		bl	__aeabi_fcmpeq
 511 03fe 0028     		cmp	r0, #0
 512 0400 68D1     		bne	.L179
 513              	.L109:
 514 0402 0135     		adds	r5, r5, #1
 515 0404 EDB2     		uxtb	r5, r5
 516 0406 BD42     		cmp	r5, r7
 517 0408 F0D1     		bne	.L111
 518 040a 012D     		cmp	r5, #1
 519 040c 94BF     		ite	ls
 520 040e 0021     		movls	r1, #0
 521 0410 0121     		movhi	r1, #1
 522 0412 6FB2     		sxtb	r7, r5
 523              	.L106:
 524 0414 0F4B     		ldr	r3, .L182+24
 525 0416 84F82170 		strb	r7, [r4, #33]
 526 041a 03F10A00 		add	r0, r3, #10
 527              	.L113:
 528 041e 5A78     		ldrb	r2, [r3, #1]	@ zero_extendqisi2
 529 0420 8A42     		cmp	r2, r1
 530 0422 38D0     		beq	.L180
 531              	.L112:
 532 0424 0233     		adds	r3, r3, #2
 533 0426 9842     		cmp	r0, r3
 534 0428 F9D1     		bne	.L113
 535 042a A36A     		ldr	r3, [r4, #40]
 536 042c 6168     		ldr	r1, [r4, #4]
 537 042e 53F82530 		ldr	r3, [r3, r5, lsl #2]
 538 0432 E078     		ldrb	r0, [r4, #3]	@ zero_extendqisi2
 539 0434 1A68     		ldr	r2, [r3]
 540 0436 FFF7FEFF 		bl	screen_footer
 541 043a 58E7     		b	.L65
 542              	.L183:
 543              		.align	2
 544              	.L182:
 545 043c 04000000 		.word	.LANCHOR0+4
 546 0440 00000000 		.word	.LANCHOR0
 547 0444 0000E03F 		.word	1071644672
 548 0448 00000000 		.word	g_tap_tempo
 549 044c 1C000000 		.word	.LC7
 550 0450 20000000 		.word	.LC8
 551 0454 00000000 		.word	g_tool
 552 0458 24000000 		.word	.LC9
 553 045c 00000000 		.word	.LC2
 554 0460 18000000 		.word	.LC6
 555              	.L76:
 556 0464 2846     		mov	r0, r5
 557 0466 FFF7FEFF 		bl	hardware_leds
 558 046a 0221     		movs	r1, #2
 559 046c FFF7FEFF 		bl	ledz_on
 560 0470 E078     		ldrb	r0, [r4, #3]	@ zero_extendqisi2
 561 0472 374B     		ldr	r3, .L184
 562 0474 0128     		cmp	r0, #1
 563 0476 94BF     		ite	ls
 564 0478 0021     		movls	r1, #0
 565 047a 0121     		movhi	r1, #1
 566 047c 03F10A05 		add	r5, r3, #10
 567              	.L87:
 568 0480 5A78     		ldrb	r2, [r3, #1]	@ zero_extendqisi2
 569 0482 8A42     		cmp	r2, r1
 570 0484 15D0     		beq	.L181
 571              	.L86:
 572 0486 0233     		adds	r3, r3, #2
 573 0488 AB42     		cmp	r3, r5
 574 048a F9D1     		bne	.L87
 575 048c 6168     		ldr	r1, [r4, #4]
 576 048e 0022     		movs	r2, #0
 577 0490 FFF7FEFF 		bl	screen_footer
 578 0494 2BE7     		b	.L65
 579              	.L180:
 580 0496 1A78     		ldrb	r2, [r3]	@ zero_extendqisi2
 581 0498 012A     		cmp	r2, #1
 582 049a C3D1     		bne	.L112
 583 049c 27E7     		b	.L65
 584              	.L173:
 585 049e 1978     		ldrb	r1, [r3]	@ zero_extendqisi2
 586 04a0 0129     		cmp	r1, #1
 587 04a2 7FF4F8AE 		bne	.L95
 588 04a6 22E7     		b	.L65
 589              	.L177:
 590 04a8 1A78     		ldrb	r2, [r3]	@ zero_extendqisi2
 591 04aa 012A     		cmp	r2, #1
 592 04ac 7FF46FAF 		bne	.L103
 593 04b0 1DE7     		b	.L65
 594              	.L181:
 595 04b2 1A78     		ldrb	r2, [r3]	@ zero_extendqisi2
 596 04b4 012A     		cmp	r2, #1
 597 04b6 E6D1     		bne	.L86
 598 04b8 19E7     		b	.L65
 599              	.L175:
 600 04ba 1A78     		ldrb	r2, [r3]	@ zero_extendqisi2
 601 04bc 012A     		cmp	r2, #1
 602 04be 7FF43CAF 		bne	.L81
 603 04c2 14E7     		b	.L65
 604              	.L89:
 605 04c4 FFF7FEFF 		bl	hardware_leds
 606 04c8 6B08     		lsrs	r3, r5, #1
 607 04ca 1A46     		mov	r2, r3
 608 04cc 0221     		movs	r1, #2
 609 04ce FFF7FEFF 		bl	ledz_blink
 610 04d2 ACE6     		b	.L90
 611              	.L179:
 612 04d4 012D     		cmp	r5, #1
 613 04d6 94BF     		ite	ls
 614 04d8 0021     		movls	r1, #0
 615 04da 0121     		movhi	r1, #1
 616 04dc 6BB2     		sxtb	r3, r5
 617              	.L107:
 618 04de 84F82030 		strb	r3, [r4, #32]
 619 04e2 7FB2     		sxtb	r7, r7
 620 04e4 96E7     		b	.L106
 621              	.L174:
 622 04e6 2846     		mov	r0, r5
 623 04e8 FFF7FEFF 		bl	hardware_leds
 624 04ec 0221     		movs	r1, #2
 625 04ee FFF7FEFF 		bl	ledz_off
 626 04f2 16E7     		b	.L80
 627              	.L176:
 628 04f4 2846     		mov	r0, r5
 629 04f6 FFF7FEFF 		bl	hardware_leds
 630 04fa 0121     		movs	r1, #1
 631 04fc FFF7FEFF 		bl	ledz_on
 632 0500 39E7     		b	.L102
 633              	.L92:
 634 0502 4046     		mov	r0, r8
 635 0504 E169     		ldr	r1, [r4, #28]	@ float
 636              	.L170:
 637 0506 FFF7FEFF 		bl	convert_to_ms
 638 050a FFF7FEFF 		bl	__aeabi_f2d
 639 050e 114B     		ldr	r3, .L184+4
 640 0510 0022     		movs	r2, #0
 641 0512 FFF7FEFF 		bl	__aeabi_dadd
 642 0516 FFF7FEFF 		bl	__aeabi_d2uiz
 643 051a 40F6B833 		movw	r3, #3000
 644 051e E578     		ldrb	r5, [r4, #3]	@ zero_extendqisi2
 645 0520 9842     		cmp	r0, r3
 646 0522 28BF     		it	cs
 647 0524 1846     		movcs	r0, r3
 648 0526 6F00     		lsls	r7, r5, #1
 649 0528 A4E6     		b	.L94
 650              	.L98:
 651 052a 6D46     		mov	r5, sp
 652 052c 0223     		movs	r3, #2
 653 052e 3046     		mov	r0, r6
 654 0530 2946     		mov	r1, r5
 655 0532 2022     		movs	r2, #32
 656 0534 FFF7FEFF 		bl	float_to_str
 657 0538 C3B2     		uxtb	r3, r0
 658 053a C7E6     		b	.L99
 659              	.L123:
 660 053c 3946     		mov	r1, r7
 661 053e 3D46     		mov	r5, r7
 662 0540 68E7     		b	.L106
 663              	.L178:
 664 0542 4946     		mov	r1, r9
 665 0544 4B46     		mov	r3, r9
 666 0546 4D46     		mov	r5, r9
 667 0548 C9E7     		b	.L107
 668              	.L172:
 669 054a 4946     		mov	r1, r9
 670 054c 4046     		mov	r0, r8
 671 054e DAE7     		b	.L170
 672              	.L185:
 673              		.align	2
 674              	.L184:
 675 0550 00000000 		.word	g_tool
 676 0554 0000E03F 		.word	1071644672
 678              		.align	1
 679              		.p2align 2,,3
 680              		.syntax unified
 681              		.thumb
 682              		.thumb_func
 683              		.fpu softvfp
 685              	parse_pedalboards_list:
 686              		@ args = 0, pretend = 0, frame = 0
 687              		@ frame_needed = 0, uses_anonymous_args = 0
 688 0558 70B5     		push	{r4, r5, r6, lr}
 689 055a 0546     		mov	r5, r0
 690 055c FFF7FEFF 		bl	strarr_length
 691 0560 084C     		ldr	r4, .L196
 692 0562 861E     		subs	r6, r0, #2
 693 0564 206C     		ldr	r0, [r4, #64]
 694 0566 28B1     		cbz	r0, .L187
 695 0568 2368     		ldr	r3, [r4]
 696 056a 0BB1     		cbz	r3, .L188
 697 056c 9842     		cmp	r0, r3
 698 056e 01D0     		beq	.L187
 699              	.L188:
 700 0570 FFF7FEFF 		bl	data_free_pedalboards_list
 701              	.L187:
 702 0574 3146     		mov	r1, r6
 703 0576 05F10800 		add	r0, r5, #8
 704 057a FFF7FEFF 		bl	data_parse_pedalboards_list
 705 057e 2064     		str	r0, [r4, #64]
 706 0580 70BD     		pop	{r4, r5, r6, pc}
 707              	.L197:
 708 0582 00BF     		.align	2
 709              	.L196:
 710 0584 00000000 		.word	.LANCHOR0
 712              		.global	__aeabi_fdiv
 713              		.global	__aeabi_fsub
 714              		.global	__aeabi_fmul
 715              		.global	__aeabi_fadd
 716              		.global	__aeabi_dmul
 717              		.global	__aeabi_d2f
 718              		.global	__aeabi_fcmpgt
 719              		.align	1
 720              		.p2align 2,,3
 721              		.syntax unified
 722              		.thumb
 723              		.thumb_func
 724              		.fpu softvfp
 726              	step_to_value:
 727              		@ args = 0, pretend = 0, frame = 0
 728              		@ frame_needed = 0, uses_anonymous_args = 0
 729 0588 2DE9F843 		push	{r3, r4, r5, r6, r7, r8, r9, lr}
 730 058c 90F92050 		ldrsb	r5, [r0, #32]
 731 0590 0446     		mov	r4, r0
 732 0592 2846     		mov	r0, r5
 733 0594 FFF7FEFF 		bl	__aeabi_i2f
 734 0598 0646     		mov	r6, r0
 735 059a 94F92100 		ldrsb	r0, [r4, #33]
 736 059e 0138     		subs	r0, r0, #1
 737 05a0 FFF7FEFF 		bl	__aeabi_i2f
 738 05a4 0146     		mov	r1, r0
 739 05a6 3046     		mov	r0, r6
 740 05a8 FFF7FEFF 		bl	__aeabi_fdiv
 741 05ac A37C     		ldrb	r3, [r4, #18]	@ zero_extendqisi2
 742 05ae A669     		ldr	r6, [r4, #24]	@ float
 743 05b0 082B     		cmp	r3, #8
 744 05b2 E769     		ldr	r7, [r4, #28]	@ float
 745 05b4 44D0     		beq	.L200
 746 05b6 8046     		mov	r8, r0
 747 05b8 3CD9     		bls	.L224
 748 05ba 402B     		cmp	r3, #64
 749 05bc 2BD1     		bne	.L225
 750 05be FFF7FEFF 		bl	__aeabi_f2d
 751 05c2 8046     		mov	r8, r0
 752 05c4 8946     		mov	r9, r1
 753 05c6 3846     		mov	r0, r7
 754 05c8 3146     		mov	r1, r6
 755 05ca FFF7FEFF 		bl	__aeabi_fdiv
 756 05ce FFF7FEFF 		bl	__aeabi_f2d
 757 05d2 4246     		mov	r2, r8
 758 05d4 4B46     		mov	r3, r9
 759 05d6 FFF7FEFF 		bl	pow
 760 05da 8046     		mov	r8, r0
 761 05dc 8946     		mov	r9, r1
 762 05de 3046     		mov	r0, r6
 763 05e0 FFF7FEFF 		bl	__aeabi_f2d
 764 05e4 4246     		mov	r2, r8
 765 05e6 4B46     		mov	r3, r9
 766 05e8 FFF7FEFF 		bl	__aeabi_dmul
 767 05ec FFF7FEFF 		bl	__aeabi_d2f
 768 05f0 0546     		mov	r5, r0
 769 05f2 E769     		ldr	r7, [r4, #28]	@ float
 770 05f4 A669     		ldr	r6, [r4, #24]	@ float
 771 05f6 6061     		str	r0, [r4, #20]	@ float
 772              	.L204:
 773 05f8 3946     		mov	r1, r7
 774 05fa 2846     		mov	r0, r5
 775 05fc FFF7FEFF 		bl	__aeabi_fcmpgt
 776 0600 08B1     		cbz	r0, .L205
 777 0602 3D46     		mov	r5, r7
 778 0604 6761     		str	r7, [r4, #20]	@ float
 779              	.L205:
 780 0606 2946     		mov	r1, r5
 781 0608 3046     		mov	r0, r6
 782 060a FFF7FEFF 		bl	__aeabi_fcmpgt
 783 060e 00B1     		cbz	r0, .L198
 784 0610 6661     		str	r6, [r4, #20]	@ float
 785              	.L198:
 786 0612 BDE8F883 		pop	{r3, r4, r5, r6, r7, r8, r9, pc}
 787              	.L225:
 788 0616 802B     		cmp	r3, #128
 789 0618 10D1     		bne	.L199
 790              	.L202:
 791 061a 3146     		mov	r1, r6
 792 061c 3846     		mov	r0, r7
 793 061e FFF7FEFF 		bl	__aeabi_fsub
 794 0622 4146     		mov	r1, r8
 795 0624 FFF7FEFF 		bl	__aeabi_fmul
 796 0628 3146     		mov	r1, r6
 797 062a FFF7FEFF 		bl	__aeabi_fadd
 798 062e 0546     		mov	r5, r0
 799 0630 6061     		str	r0, [r4, #20]	@ float
 800 0632 E1E7     		b	.L204
 801              	.L224:
 802 0634 002B     		cmp	r3, #0
 803 0636 F0D0     		beq	.L202
 804 0638 042B     		cmp	r3, #4
 805 063a 01D0     		beq	.L200
 806              	.L199:
 807 063c 6569     		ldr	r5, [r4, #20]	@ float
 808 063e DBE7     		b	.L204
 809              	.L200:
 810 0640 A36A     		ldr	r3, [r4, #40]
 811 0642 53F82530 		ldr	r3, [r3, r5, lsl #2]
 812 0646 93F90400 		ldrsb	r0, [r3, #4]
 813 064a FFF7FEFF 		bl	__aeabi_i2f
 814 064e 0546     		mov	r5, r0
 815 0650 6061     		str	r0, [r4, #20]	@ float
 816 0652 D1E7     		b	.L204
 818              		.global	__aeabi_fcmplt
 819              		.global	__aeabi_ui2f
 820              		.align	1
 821              		.p2align 2,,3
 822              		.syntax unified
 823              		.thumb
 824              		.thumb_func
 825              		.fpu softvfp
 827              	control_set:
 828              		@ args = 0, pretend = 0, frame = 128
 829              		@ frame_needed = 0, uses_anonymous_args = 0
 830 0654 F0B5     		push	{r4, r5, r6, r7, lr}
 831 0656 8B7C     		ldrb	r3, [r1, #18]	@ zero_extendqisi2
 832 0658 A1B0     		sub	sp, sp, #132
 833 065a 082B     		cmp	r3, #8
 834 065c 0F46     		mov	r7, r1
 835 065e 0446     		mov	r4, r0
 836 0660 00F09C80 		beq	.L228
 837 0664 50D8     		bhi	.L229
 838 0666 012B     		cmp	r3, #1
 839 0668 00F0E380 		beq	.L230
 840 066c C0F0CA80 		bcc	.L231
 841 0670 022B     		cmp	r3, #2
 842 0672 40F09180 		bne	.L302
 843 0676 FFF7FEFF 		bl	hardware_timestamp
 844 067a FB78     		ldrb	r3, [r7, #3]	@ zero_extendqisi2
 845 067c 8F4A     		ldr	r2, .L311
 846 067e 03EB4303 		add	r3, r3, r3, lsl #1
 847 0682 9B00     		lsls	r3, r3, #2
 848 0684 D118     		adds	r1, r2, r3
 849 0686 0D7A     		ldrb	r5, [r1, #8]	@ zero_extendqisi2
 850 0688 D458     		ldr	r4, [r2, r3]
 851 068a 012D     		cmp	r5, #1
 852 068c D050     		str	r0, [r2, r3]
 853 068e 47D1     		bne	.L227
 854 0690 4B68     		ldr	r3, [r1, #4]
 855 0692 041B     		subs	r4, r0, r4
 856 0694 A342     		cmp	r3, r4
 857 0696 C0F0FB80 		bcc	.L303
 858              	.L254:
 859 069a 7969     		ldr	r1, [r7, #20]	@ float
 860 069c F868     		ldr	r0, [r7, #12]
 861 069e FFF7FEFF 		bl	convert_to_ms
 862 06a2 0546     		mov	r5, r0
 863 06a4 2046     		mov	r0, r4
 864 06a6 FFF7FEFF 		bl	__aeabi_ui2f
 865 06aa 0146     		mov	r1, r0
 866 06ac 0446     		mov	r4, r0
 867 06ae 2846     		mov	r0, r5
 868 06b0 FFF7FEFF 		bl	__aeabi_fsub
 869 06b4 FFF7FEFF 		bl	__aeabi_f2iz
 870 06b8 6330     		adds	r0, r0, #99
 871 06ba C628     		cmp	r0, #198
 872 06bc 00F2F780 		bhi	.L304
 873 06c0 7969     		ldr	r1, [r7, #20]	@ float
 874 06c2 0846     		mov	r0, r1
 875 06c4 FFF7FEFF 		bl	__aeabi_fadd
 876 06c8 2146     		mov	r1, r4
 877 06ca 0546     		mov	r5, r0
 878 06cc F868     		ldr	r0, [r7, #12]
 879 06ce FFF7FEFF 		bl	convert_from_ms
 880 06d2 0146     		mov	r1, r0
 881 06d4 2846     		mov	r0, r5
 882 06d6 FFF7FEFF 		bl	__aeabi_fadd
 883 06da 7949     		ldr	r1, .L311+4
 884 06dc FFF7FEFF 		bl	__aeabi_fdiv
 885 06e0 0446     		mov	r4, r0
 886 06e2 7861     		str	r0, [r7, #20]	@ float
 887              	.L255:
 888 06e4 FD69     		ldr	r5, [r7, #28]	@ float
 889 06e6 2146     		mov	r1, r4
 890 06e8 2846     		mov	r0, r5
 891 06ea FFF7FEFF 		bl	__aeabi_fcmplt
 892 06ee 08B1     		cbz	r0, .L256
 893 06f0 2C46     		mov	r4, r5
 894 06f2 7D61     		str	r5, [r7, #20]	@ float
 895              	.L256:
 896 06f4 BD69     		ldr	r5, [r7, #24]	@ float
 897 06f6 2146     		mov	r1, r4
 898 06f8 2846     		mov	r0, r5
 899 06fa FFF7FEFF 		bl	__aeabi_fcmpgt
 900 06fe 0028     		cmp	r0, #0
 901 0700 00F09E80 		beq	.L253
 902 0704 7D61     		str	r5, [r7, #20]	@ float
 903 0706 9BE0     		b	.L253
 904              	.L229:
 905 0708 202B     		cmp	r3, #32
 906 070a 00F09280 		beq	.L230
 907 070e 75D8     		bhi	.L233
 908 0710 102B     		cmp	r3, #16
 909 0712 05D1     		bne	.L227
 910 0714 4FF07E53 		mov	r3, #1065353216
 911 0718 0846     		mov	r0, r1
 912 071a 4B61     		str	r3, [r1, #20]	@ float
 913 071c FFF724FD 		bl	foot_control_add
 914              	.L227:
 915 0720 6846     		mov	r0, sp
 916 0722 6849     		ldr	r1, .L311+8
 917 0724 FFF7FEFF 		bl	copy_command
 918 0728 0023     		movs	r3, #0
 919 072a C0F18002 		rsb	r2, r0, #128
 920 072e 0DEB0001 		add	r1, sp, r0
 921 0732 0446     		mov	r4, r0
 922 0734 97F91000 		ldrsb	r0, [r7, #16]
 923 0738 FFF7FEFF 		bl	int_to_str
 924 073c 2026     		movs	r6, #32
 925 073e 2044     		add	r0, r0, r4
 926 0740 C0B2     		uxtb	r0, r0
 927 0742 BD68     		ldr	r5, [r7, #8]
 928 0744 441C     		adds	r4, r0, #1
 929 0746 E4B2     		uxtb	r4, r4
 930 0748 20AB     		add	r3, sp, #128
 931 074a 0344     		add	r3, r3, r0
 932 074c 2946     		mov	r1, r5
 933 074e 0DEB0400 		add	r0, sp, r4
 934 0752 03F8806C 		strb	r6, [r3, #-128]
 935 0756 FFF7FEFF 		bl	strcpy
 936 075a 2846     		mov	r0, r5
 937 075c FFF7FEFF 		bl	strlen
 938 0760 0444     		add	r4, r4, r0
 939 0762 E4B2     		uxtb	r4, r4
 940 0764 651C     		adds	r5, r4, #1
 941 0766 EDB2     		uxtb	r5, r5
 942 0768 20AB     		add	r3, sp, #128
 943 076a 1C44     		add	r4, r4, r3
 944 076c C5F18002 		rsb	r2, r5, #128
 945 0770 0DEB0501 		add	r1, sp, r5
 946 0774 7869     		ldr	r0, [r7, #20]	@ float
 947 0776 0323     		movs	r3, #3
 948 0778 04F8806C 		strb	r6, [r4, #-128]
 949 077c FFF7FEFF 		bl	float_to_str
 950 0780 0022     		movs	r2, #0
 951 0782 2844     		add	r0, r0, r5
 952 0784 C1B2     		uxtb	r1, r0
 953 0786 20AB     		add	r3, sp, #128
 954 0788 0B44     		add	r3, r3, r1
 955 078a 6846     		mov	r0, sp
 956 078c 03F8802C 		strb	r2, [r3, #-128]
 957 0790 FFF7FEFF 		bl	comm_webgui_send
 958 0794 21B0     		add	sp, sp, #132
 959              		@ sp needed
 960 0796 F0BD     		pop	{r4, r5, r6, r7, pc}
 961              	.L302:
 962 0798 042B     		cmp	r3, #4
 963 079a C1D1     		bne	.L227
 964              	.L228:
 965 079c BB78     		ldrb	r3, [r7, #2]	@ zero_extendqisi2
 966 079e 022B     		cmp	r3, #2
 967 07a0 68D0     		beq	.L305
 968 07a2 012B     		cmp	r3, #1
 969 07a4 BCD1     		bne	.L227
 970 07a6 97F82030 		ldrb	r3, [r7, #32]	@ zero_extendqisi2
 971 07aa 97F82420 		ldrb	r2, [r7, #36]	@ zero_extendqisi2
 972 07ae 0133     		adds	r3, r3, #1
 973 07b0 5BB2     		sxtb	r3, r3
 974 07b2 9342     		cmp	r3, r2
 975 07b4 A8BF     		it	ge
 976 07b6 0022     		movge	r2, #0
 977 07b8 87F82030 		strb	r3, [r7, #32]
 978 07bc A4BF     		itt	ge
 979 07be 1346     		movge	r3, r2
 980 07c0 87F82020 		strbge	r2, [r7, #32]
 981 07c4 BA6A     		ldr	r2, [r7, #40]
 982 07c6 B8BF     		it	lt
 983 07c8 9B00     		lsllt	r3, r3, #2
 984 07ca D558     		ldr	r5, [r2, r3]
 985 07cc 95F90400 		ldrsb	r0, [r5, #4]
 986 07d0 FFF7FEFF 		bl	__aeabi_i2f
 987 07d4 012C     		cmp	r4, #1
 988 07d6 94BF     		ite	ls
 989 07d8 0024     		movls	r4, #0
 990 07da 0124     		movhi	r4, #1
 991 07dc 3A4B     		ldr	r3, .L311+12
 992 07de 7861     		str	r0, [r7, #20]	@ float
 993 07e0 03F10A01 		add	r1, r3, #10
 994              	.L249:
 995 07e4 5A78     		ldrb	r2, [r3, #1]	@ zero_extendqisi2
 996 07e6 A242     		cmp	r2, r4
 997 07e8 59D0     		beq	.L306
 998              	.L248:
 999 07ea 0233     		adds	r3, r3, #2
 1000 07ec 9942     		cmp	r1, r3
 1001 07ee F9D1     		bne	.L249
 1002 07f0 2A68     		ldr	r2, [r5]
 1003 07f2 7968     		ldr	r1, [r7, #4]
 1004 07f4 F878     		ldrb	r0, [r7, #3]	@ zero_extendqisi2
 1005 07f6 FFF7FEFF 		bl	screen_footer
 1006 07fa 91E7     		b	.L227
 1007              	.L233:
 1008 07fc 402B     		cmp	r3, #64
 1009 07fe 01D0     		beq	.L231
 1010 0800 802B     		cmp	r3, #128
 1011 0802 8DD1     		bne	.L227
 1012              	.L231:
 1013 0804 BB78     		ldrb	r3, [r7, #2]	@ zero_extendqisi2
 1014 0806 022B     		cmp	r3, #2
 1015 0808 22D0     		beq	.L307
 1016 080a 032B     		cmp	r3, #3
 1017 080c 88D1     		bne	.L227
 1018 080e 032C     		cmp	r4, #3
 1019 0810 94BF     		ite	ls
 1020 0812 0021     		movls	r1, #0
 1021 0814 0121     		movhi	r1, #1
 1022 0816 2C4B     		ldr	r3, .L311+12
 1023 0818 03F10A00 		add	r0, r3, #10
 1024              	.L241:
 1025 081c 5A78     		ldrb	r2, [r3, #1]	@ zero_extendqisi2
 1026 081e 8A42     		cmp	r2, r1
 1027 0820 41D0     		beq	.L308
 1028              	.L240:
 1029 0822 0233     		adds	r3, r3, #2
 1030 0824 8342     		cmp	r3, r0
 1031 0826 F9D1     		bne	.L241
 1032 0828 2046     		mov	r0, r4
 1033 082a 3946     		mov	r1, r7
 1034 082c FFF7FEFF 		bl	screen_pot
 1035 0830 76E7     		b	.L227
 1036              	.L230:
 1037 0832 0024     		movs	r4, #0
 1038 0834 7869     		ldr	r0, [r7, #20]	@ float
 1039 0836 2146     		mov	r1, r4
 1040 0838 FFF7FEFF 		bl	__aeabi_fcmpgt
 1041 083c 20B1     		cbz	r0, .L298
 1042 083e 7C61     		str	r4, [r7, #20]	@ float
 1043              	.L253:
 1044 0840 3846     		mov	r0, r7
 1045 0842 FFF791FC 		bl	foot_control_add
 1046 0846 6BE7     		b	.L227
 1047              	.L298:
 1048 0848 4FF07E53 		mov	r3, #1065353216
 1049 084c 7B61     		str	r3, [r7, #20]	@ float
 1050 084e F7E7     		b	.L253
 1051              	.L307:
 1052 0850 1D4B     		ldr	r3, .L311+12
 1053 0852 03F10A01 		add	r1, r3, #10
 1054              	.L237:
 1055 0856 5A78     		ldrb	r2, [r3, #1]	@ zero_extendqisi2
 1056 0858 A242     		cmp	r2, r4
 1057 085a 07D0     		beq	.L309
 1058              	.L236:
 1059 085c 0233     		adds	r3, r3, #2
 1060 085e 8B42     		cmp	r3, r1
 1061 0860 F9D1     		bne	.L237
 1062              	.L238:
 1063 0862 2046     		mov	r0, r4
 1064 0864 3946     		mov	r1, r7
 1065 0866 FFF7FEFF 		bl	screen_encoder
 1066 086a 59E7     		b	.L227
 1067              	.L309:
 1068 086c 1A78     		ldrb	r2, [r3]	@ zero_extendqisi2
 1069 086e 012A     		cmp	r2, #1
 1070 0870 F4D1     		bne	.L236
 1071 0872 55E7     		b	.L227
 1072              	.L305:
 1073 0874 144B     		ldr	r3, .L311+12
 1074 0876 03F10A01 		add	r1, r3, #10
 1075              	.L245:
 1076 087a 5A78     		ldrb	r2, [r3, #1]	@ zero_extendqisi2
 1077 087c A242     		cmp	r2, r4
 1078 087e 03D0     		beq	.L310
 1079              	.L244:
 1080 0880 0233     		adds	r3, r3, #2
 1081 0882 9942     		cmp	r1, r3
 1082 0884 F9D1     		bne	.L245
 1083 0886 ECE7     		b	.L238
 1084              	.L310:
 1085 0888 1A78     		ldrb	r2, [r3]	@ zero_extendqisi2
 1086 088a 012A     		cmp	r2, #1
 1087 088c F8D1     		bne	.L244
 1088 088e 47E7     		b	.L227
 1089              	.L303:
 1090 0890 A4F13200 		sub	r0, r4, #50
 1091 0894 8342     		cmp	r3, r0
 1092 0896 7FF643AF 		bls	.L227
 1093 089a 1C46     		mov	r4, r3
 1094 089c FDE6     		b	.L254
 1095              	.L306:
 1096 089e 1A78     		ldrb	r2, [r3]	@ zero_extendqisi2
 1097 08a0 012A     		cmp	r2, #1
 1098 08a2 A2D1     		bne	.L248
 1099 08a4 3CE7     		b	.L227
 1100              	.L308:
 1101 08a6 1A78     		ldrb	r2, [r3]	@ zero_extendqisi2
 1102 08a8 012A     		cmp	r2, #1
 1103 08aa BAD1     		bne	.L240
 1104 08ac 38E7     		b	.L227
 1105              	.L304:
 1106 08ae 2146     		mov	r1, r4
 1107 08b0 F868     		ldr	r0, [r7, #12]
 1108 08b2 FFF7FEFF 		bl	convert_from_ms
 1109 08b6 0446     		mov	r4, r0
 1110 08b8 7861     		str	r0, [r7, #20]	@ float
 1111 08ba 13E7     		b	.L255
 1112              	.L312:
 1113              		.align	2
 1114              	.L311:
 1115 08bc 00000000 		.word	g_tap_tempo
 1116 08c0 00004040 		.word	1077936128
 1117 08c4 28000000 		.word	.LC10
 1118 08c8 00000000 		.word	g_tool
 1120              		.align	1
 1121              		.p2align 2,,3
 1122              		.syntax unified
 1123              		.thumb
 1124              		.thumb_func
 1125              		.fpu softvfp
 1127              	display_disable_all_tools:
 1128              		@ args = 0, pretend = 0, frame = 0
 1129              		@ frame_needed = 0, uses_anonymous_args = 0
 1130 08cc 10B5     		push	{r4, lr}
 1131 08ce 0B4B     		ldr	r3, .L323
 1132 08d0 0446     		mov	r4, r0
 1133 08d2 9B78     		ldrb	r3, [r3, #2]	@ zero_extendqisi2
 1134 08d4 63B9     		cbnz	r3, .L322
 1135              	.L314:
 1136 08d6 0020     		movs	r0, #0
 1137 08d8 084B     		ldr	r3, .L323
 1138 08da 03F10A01 		add	r1, r3, #10
 1139              	.L316:
 1140 08de 5A78     		ldrb	r2, [r3, #1]	@ zero_extendqisi2
 1141 08e0 0233     		adds	r3, r3, #2
 1142 08e2 A242     		cmp	r2, r4
 1143 08e4 08BF     		it	eq
 1144 08e6 03F8020C 		strbeq	r0, [r3, #-2]
 1145 08ea 8B42     		cmp	r3, r1
 1146 08ec F7D1     		bne	.L316
 1147 08ee 10BD     		pop	{r4, pc}
 1148              	.L322:
 1149 08f0 0921     		movs	r1, #9
 1150 08f2 0348     		ldr	r0, .L323+4
 1151 08f4 FFF7FEFF 		bl	comm_webgui_send
 1152 08f8 EDE7     		b	.L314
 1153              	.L324:
 1154 08fa 00BF     		.align	2
 1155              	.L323:
 1156 08fc 00000000 		.word	g_tool
 1157 0900 40000000 		.word	.LC11
 1159              		.align	1
 1160              		.p2align 2,,3
 1161              		.syntax unified
 1162              		.thumb
 1163              		.thumb_func
 1164              		.fpu softvfp
 1166              	send_load_pedalboard:
 1167              		@ args = 0, pretend = 0, frame = 128
 1168              		@ frame_needed = 0, uses_anonymous_args = 0
 1169 0904 70B5     		push	{r4, r5, r6, lr}
 1170 0906 A0B0     		sub	sp, sp, #128
 1171 0908 0646     		mov	r6, r0
 1172 090a 0D46     		mov	r5, r1
 1173 090c 6846     		mov	r0, sp
 1174 090e 1A49     		ldr	r1, .L331
 1175 0910 FFF7FEFF 		bl	copy_command
 1176 0914 0446     		mov	r4, r0
 1177 0916 0023     		movs	r3, #0
 1178 0918 0DEB0401 		add	r1, sp, r4
 1179 091c 0822     		movs	r2, #8
 1180 091e 3046     		mov	r0, r6
 1181 0920 FFF7FEFF 		bl	int_to_str
 1182 0924 2022     		movs	r2, #32
 1183 0926 2044     		add	r0, r0, r4
 1184 0928 C0B2     		uxtb	r0, r0
 1185 092a 20AC     		add	r4, sp, #128
 1186 092c 2B78     		ldrb	r3, [r5]	@ zero_extendqisi2
 1187 092e 411C     		adds	r1, r0, #1
 1188 0930 2044     		add	r0, r0, r4
 1189 0932 C9B2     		uxtb	r1, r1
 1190 0934 00F8802C 		strb	r2, [r0, #-128]
 1191 0938 DBB1     		cbz	r3, .L328
 1192              	.L327:
 1193 093a 20AA     		add	r2, sp, #128
 1194 093c 0A44     		add	r2, r2, r1
 1195 093e 02F8803C 		strb	r3, [r2, #-128]
 1196 0942 0131     		adds	r1, r1, #1
 1197 0944 15F8013F 		ldrb	r3, [r5, #1]!	@ zero_extendqisi2
 1198 0948 CCB2     		uxtb	r4, r1
 1199 094a 2146     		mov	r1, r4
 1200 094c 002B     		cmp	r3, #0
 1201 094e F4D1     		bne	.L327
 1202              	.L326:
 1203 0950 0023     		movs	r3, #0
 1204 0952 20AA     		add	r2, sp, #128
 1205 0954 2244     		add	r2, r2, r4
 1206 0956 1946     		mov	r1, r3
 1207 0958 1846     		mov	r0, r3
 1208 095a 02F8803C 		strb	r3, [r2, #-128]
 1209 095e FFF7FEFF 		bl	comm_webgui_set_response_cb
 1210 0962 2146     		mov	r1, r4
 1211 0964 6846     		mov	r0, sp
 1212 0966 FFF7FEFF 		bl	comm_webgui_send
 1213 096a FFF7FEFF 		bl	comm_webgui_wait_response
 1214 096e 20B0     		add	sp, sp, #128
 1215              		@ sp needed
 1216 0970 70BD     		pop	{r4, r5, r6, pc}
 1217              	.L328:
 1218 0972 0C46     		mov	r4, r1
 1219 0974 ECE7     		b	.L326
 1220              	.L332:
 1221 0976 00BF     		.align	2
 1222              	.L331:
 1223 0978 4C000000 		.word	.LC12
 1225              		.align	1
 1226              		.p2align 2,,3
 1227              		.syntax unified
 1228              		.thumb
 1229              		.thumb_func
 1230              		.fpu softvfp
 1232              	parse_banks_list:
 1233              		@ args = 0, pretend = 0, frame = 0
 1234              		@ frame_needed = 0, uses_anonymous_args = 0
 1235 097c 70B5     		push	{r4, r5, r6, lr}
 1236 097e 0546     		mov	r5, r0
 1237 0980 FFF7FEFF 		bl	strarr_length
 1238 0984 084C     		ldr	r4, .L343
 1239 0986 861E     		subs	r6, r0, #2
 1240 0988 606C     		ldr	r0, [r4, #68]
 1241 098a 08B1     		cbz	r0, .L334
 1242 098c FFF7FEFF 		bl	data_free_banks_list
 1243              	.L334:
 1244 0990 3146     		mov	r1, r6
 1245 0992 05F10800 		add	r0, r5, #8
 1246 0996 FFF7FEFF 		bl	data_parse_banks_list
 1247 099a 6064     		str	r0, [r4, #68]
 1248 099c 10B1     		cbz	r0, .L333
 1249 099e 94F84830 		ldrb	r3, [r4, #72]	@ zero_extendqisi2
 1250 09a2 8372     		strb	r3, [r0, #10]
 1251              	.L333:
 1252 09a4 70BD     		pop	{r4, r5, r6, pc}
 1253              	.L344:
 1254 09a6 00BF     		.align	2
 1255              	.L343:
 1256 09a8 00000000 		.word	.LANCHOR0
 1258              		.align	1
 1259              		.p2align 2,,3
 1260              		.syntax unified
 1261              		.thumb
 1262              		.thumb_func
 1263              		.fpu softvfp
 1265              	menu_up:
 1266              		@ args = 0, pretend = 0, frame = 0
 1267              		@ frame_needed = 0, uses_anonymous_args = 0
 1268 09ac 38B5     		push	{r3, r4, r5, lr}
 1269 09ae 164B     		ldr	r3, .L362
 1270 09b0 88B1     		cbz	r0, .L346
 1271 09b2 DC6C     		ldr	r4, [r3, #76]
 1272 09b4 6268     		ldr	r2, [r4, #4]
 1273 09b6 1379     		ldrb	r3, [r2, #4]	@ zero_extendqisi2
 1274 09b8 093B     		subs	r3, r3, #9
 1275 09ba 012B     		cmp	r3, #1
 1276 09bc 11D9     		bls	.L360
 1277              	.L348:
 1278 09be A37B     		ldrb	r3, [r4, #14]	@ zero_extendqisi2
 1279 09c0 FBB9     		cbnz	r3, .L361
 1280              	.L350:
 1281 09c2 D368     		ldr	r3, [r2, #12]
 1282 09c4 13B1     		cbz	r3, .L351
 1283 09c6 0121     		movs	r1, #1
 1284 09c8 2046     		mov	r0, r4
 1285 09ca 9847     		blx	r3
 1286              	.L351:
 1287 09cc 2046     		mov	r0, r4
 1288 09ce BDE83840 		pop	{r3, r4, r5, lr}
 1289 09d2 FFF7FEBF 		b	screen_system_menu
 1290              	.L346:
 1291 09d6 1C6D     		ldr	r4, [r3, #80]
 1292 09d8 6268     		ldr	r2, [r4, #4]
 1293 09da 1379     		ldrb	r3, [r2, #4]	@ zero_extendqisi2
 1294 09dc 093B     		subs	r3, r3, #9
 1295 09de 012B     		cmp	r3, #1
 1296 09e0 EDD8     		bhi	.L348
 1297              	.L360:
 1298 09e2 B4F91E50 		ldrsh	r5, [r4, #30]
 1299 09e6 FFF7FEFF 		bl	hardware_get_acceleration
 1300 09ea A28B     		ldrh	r2, [r4, #28]
 1301 09ec B4F91830 		ldrsh	r3, [r4, #24]
 1302 09f0 05FB1020 		mls	r0, r5, r0, r2
 1303 09f4 00B2     		sxth	r0, r0
 1304 09f6 9842     		cmp	r0, r3
 1305 09f8 A083     		strh	r0, [r4, #28]	@ movhi
 1306 09fa 6268     		ldr	r2, [r4, #4]
 1307 09fc B8BF     		it	lt
 1308 09fe A383     		strhlt	r3, [r4, #28]	@ movhi
 1309 0a00 DFE7     		b	.L350
 1310              	.L361:
 1311 0a02 013B     		subs	r3, r3, #1
 1312 0a04 A373     		strb	r3, [r4, #14]
 1313 0a06 DCE7     		b	.L350
 1314              	.L363:
 1315              		.align	2
 1316              	.L362:
 1317 0a08 00000000 		.word	.LANCHOR0
 1319              		.align	1
 1320              		.p2align 2,,3
 1321              		.syntax unified
 1322              		.thumb
 1323              		.thumb_func
 1324              		.fpu softvfp
 1326              	menu_down:
 1327              		@ args = 0, pretend = 0, frame = 0
 1328              		@ frame_needed = 0, uses_anonymous_args = 0
 1329 0a0c 38B5     		push	{r3, r4, r5, lr}
 1330 0a0e 174B     		ldr	r3, .L377
 1331 0a10 B0B1     		cbz	r0, .L365
 1332 0a12 DC6C     		ldr	r4, [r3, #76]
 1333 0a14 6268     		ldr	r2, [r4, #4]
 1334 0a16 1379     		ldrb	r3, [r2, #4]	@ zero_extendqisi2
 1335 0a18 093B     		subs	r3, r3, #9
 1336 0a1a 012B     		cmp	r3, #1
 1337 0a1c 16D9     		bls	.L376
 1338              	.L367:
 1339 0a1e 237B     		ldrb	r3, [r4, #12]	@ zero_extendqisi2
 1340 0a20 A17B     		ldrb	r1, [r4, #14]	@ zero_extendqisi2
 1341 0a22 013B     		subs	r3, r3, #1
 1342 0a24 9942     		cmp	r1, r3
 1343 0a26 BCBF     		itt	lt
 1344 0a28 0131     		addlt	r1, r1, #1
 1345 0a2a A173     		strblt	r1, [r4, #14]
 1346              	.L369:
 1347 0a2c D368     		ldr	r3, [r2, #12]
 1348 0a2e 13B1     		cbz	r3, .L370
 1349 0a30 0221     		movs	r1, #2
 1350 0a32 2046     		mov	r0, r4
 1351 0a34 9847     		blx	r3
 1352              	.L370:
 1353 0a36 2046     		mov	r0, r4
 1354 0a38 BDE83840 		pop	{r3, r4, r5, lr}
 1355 0a3c FFF7FEBF 		b	screen_system_menu
 1356              	.L365:
 1357 0a40 1C6D     		ldr	r4, [r3, #80]
 1358 0a42 6268     		ldr	r2, [r4, #4]
 1359 0a44 1379     		ldrb	r3, [r2, #4]	@ zero_extendqisi2
 1360 0a46 093B     		subs	r3, r3, #9
 1361 0a48 012B     		cmp	r3, #1
 1362 0a4a E8D8     		bhi	.L367
 1363              	.L376:
 1364 0a4c B4F91E50 		ldrsh	r5, [r4, #30]
 1365 0a50 FFF7FEFF 		bl	hardware_get_acceleration
 1366 0a54 A28B     		ldrh	r2, [r4, #28]
 1367 0a56 B4F91A30 		ldrsh	r3, [r4, #26]
 1368 0a5a 05FB0020 		mla	r0, r5, r0, r2
 1369 0a5e 00B2     		sxth	r0, r0
 1370 0a60 9842     		cmp	r0, r3
 1371 0a62 A083     		strh	r0, [r4, #28]	@ movhi
 1372 0a64 6268     		ldr	r2, [r4, #4]
 1373 0a66 C8BF     		it	gt
 1374 0a68 A383     		strhgt	r3, [r4, #28]	@ movhi
 1375 0a6a DFE7     		b	.L369
 1376              	.L378:
 1377              		.align	2
 1378              	.L377:
 1379 0a6c 00000000 		.word	.LANCHOR0
 1381              		.align	1
 1382              		.p2align 2,,3
 1383              		.syntax unified
 1384              		.thumb
 1385              		.thumb_func
 1386              		.fpu softvfp
 1388              	reset_menu_hover.isra.0:
 1389              		@ args = 0, pretend = 0, frame = 0
 1390              		@ frame_needed = 0, uses_anonymous_args = 0
 1391 0a70 80B1     		cbz	r0, .L388
 1392 0a72 38B5     		push	{r3, r4, r5, lr}
 1393 0a74 0446     		mov	r4, r0
 1394 0a76 0025     		movs	r5, #0
 1395              	.L382:
 1396 0a78 2268     		ldr	r2, [r4]
 1397 0a7a 5368     		ldr	r3, [r2, #4]
 1398 0a7c 1B79     		ldrb	r3, [r3, #4]	@ zero_extendqisi2
 1399 0a7e 023B     		subs	r3, r3, #2
 1400 0a80 012B     		cmp	r3, #1
 1401 0a82 98BF     		it	ls
 1402 0a84 9573     		strbls	r5, [r2, #14]
 1403 0a86 A068     		ldr	r0, [r4, #8]
 1404 0a88 FFF7F2FF 		bl	reset_menu_hover.isra.0
 1405 0a8c 6469     		ldr	r4, [r4, #20]
 1406 0a8e 002C     		cmp	r4, #0
 1407 0a90 F2D1     		bne	.L382
 1408 0a92 38BD     		pop	{r3, r4, r5, pc}
 1409              	.L388:
 1410 0a94 7047     		bx	lr
 1412              		.align	1
 1413 0a96 00BF     		.p2align 2,,3
 1414              		.syntax unified
 1415              		.thumb
 1416              		.thumb_func
 1417              		.fpu softvfp
 1419              	create_menu_tree.isra.1:
 1420              		@ args = 0, pretend = 0, frame = 0
 1421              		@ frame_needed = 0, uses_anonymous_args = 0
 1422 0a98 2DE9F84F 		push	{r3, r4, r5, r6, r7, r8, r9, r10, fp, lr}
 1423 0a9c 224E     		ldr	r6, .L403
 1424 0a9e 3368     		ldr	r3, [r6]
 1425 0aa0 BBB1     		cbz	r3, .L391
 1426 0aa2 0024     		movs	r4, #0
 1427 0aa4 8B46     		mov	fp, r1
 1428 0aa6 8046     		mov	r8, r0
 1429 0aa8 4FF47F4A 		mov	r10, #65280
 1430 0aac 2346     		mov	r3, r4
 1431              	.L396:
 1432 0aae 03EB8305 		add	r5, r3, r3, lsl #2
 1433 0ab2 06EB8507 		add	r7, r6, r5, lsl #2
 1434 0ab6 3B89     		ldrh	r3, [r7, #8]
 1435 0ab8 BBF80020 		ldrh	r2, [fp]
 1436 0abc 9A42     		cmp	r2, r3
 1437 0abe 0AD0     		beq	.L402
 1438              	.L394:
 1439 0ac0 0134     		adds	r4, r4, #1
 1440 0ac2 E4B2     		uxtb	r4, r4
 1441 0ac4 04EB8403 		add	r3, r4, r4, lsl #2
 1442 0ac8 56F82320 		ldr	r2, [r6, r3, lsl #2]
 1443 0acc 2346     		mov	r3, r4
 1444 0ace 002A     		cmp	r2, #0
 1445 0ad0 EDD1     		bne	.L396
 1446              	.L391:
 1447 0ad2 BDE8F88F 		pop	{r3, r4, r5, r6, r7, r8, r9, r10, fp, pc}
 1448              	.L402:
 1449 0ad6 2020     		movs	r0, #32
 1450 0ad8 FFF7FEFF 		bl	pvPortMalloc
 1451 0adc 0022     		movs	r2, #0
 1452 0ade 8146     		mov	r9, r0
 1453 0ae0 124B     		ldr	r3, .L403+4
 1454 0ae2 89F80E20 		strb	r2, [r9, #14]
 1455 0ae6 93F85400 		ldrb	r0, [r3, #84]	@ zero_extendqisi2
 1456 0aea A9F80CA0 		strh	r10, [r9, #12]	@ movhi
 1457 0aee 8000     		lsls	r0, r0, #2
 1458 0af0 FFF7FEFF 		bl	pvPortMalloc
 1459 0af4 C9E90170 		strd	r7, r0, [r9, #4]
 1460 0af8 2020     		movs	r0, #32
 1461 0afa FFF7FEFF 		bl	pvPortMalloc
 1462 0afe 56F82510 		ldr	r1, [r6, r5, lsl #2]
 1463 0b02 C9F80000 		str	r0, [r9]
 1464 0b06 FFF7FEFF 		bl	strcpy
 1465 0b0a 4946     		mov	r1, r9
 1466 0b0c 4046     		mov	r0, r8
 1467 0b0e FFF7FEFF 		bl	node_child
 1468 0b12 D9F80430 		ldr	r3, [r9, #4]
 1469 0b16 1B79     		ldrb	r3, [r3, #4]	@ zero_extendqisi2
 1470 0b18 023B     		subs	r3, r3, #2
 1471 0b1a 012B     		cmp	r3, #1
 1472 0b1c D0D8     		bhi	.L394
 1473 0b1e B91D     		adds	r1, r7, #6
 1474 0b20 FFF7BAFF 		bl	create_menu_tree.isra.1
 1475 0b24 CCE7     		b	.L394
 1476              	.L404:
 1477 0b26 00BF     		.align	2
 1478              	.L403:
 1479 0b28 00000000 		.word	.LANCHOR1
 1480 0b2c 00000000 		.word	.LANCHOR0
 1482              		.global	__aeabi_f2uiz
 1483              		.align	1
 1484              		.p2align 2,,3
 1485              		.syntax unified
 1486              		.thumb
 1487              		.thumb_func
 1488              		.fpu softvfp
 1490              	naveg_set_master_volume.part.2:
 1491              		@ args = 0, pretend = 0, frame = 0
 1492              		@ frame_needed = 0, uses_anonymous_args = 0
 1493 0b30 70B5     		push	{r4, r5, r6, lr}
 1494 0b32 A8B1     		cbz	r0, .L406
 1495 0b34 FFF7FEFF 		bl	hardware_get_acceleration
 1496 0b38 4000     		lsls	r0, r0, #1
 1497 0b3a FFF7FEFF 		bl	__aeabi_i2f
 1498 0b3e 1F4C     		ldr	r4, .L414
 1499 0b40 0146     		mov	r1, r0
 1500 0b42 A06D     		ldr	r0, [r4, #88]	@ float
 1501 0b44 FFF7FEFF 		bl	__aeabi_fsub
 1502 0b48 1D4E     		ldr	r6, .L414+4
 1503 0b4a 0546     		mov	r5, r0
 1504 0b4c 3146     		mov	r1, r6
 1505 0b4e FFF7FEFF 		bl	__aeabi_fcmplt
 1506 0b52 70BB     		cbnz	r0, .L407
 1507 0b54 A565     		str	r5, [r4, #88]	@ float
 1508              	.L408:
 1509 0b56 2846     		mov	r0, r5
 1510 0b58 0221     		movs	r1, #2
 1511 0b5a FFF7FEFF 		bl	system_master_volume_cb
 1512 0b5e 14E0     		b	.L409
 1513              	.L406:
 1514 0b60 FFF7FEFF 		bl	hardware_get_acceleration
 1515 0b64 154C     		ldr	r4, .L414
 1516 0b66 4000     		lsls	r0, r0, #1
 1517 0b68 FFF7FEFF 		bl	__aeabi_i2f
 1518 0b6c 0025     		movs	r5, #0
 1519 0b6e A16D     		ldr	r1, [r4, #88]	@ float
 1520 0b70 FFF7FEFF 		bl	__aeabi_fadd
 1521 0b74 2946     		mov	r1, r5
 1522 0b76 0646     		mov	r6, r0
 1523 0b78 FFF7FEFF 		bl	__aeabi_fcmpgt
 1524 0b7c E0B1     		cbz	r0, .L413
 1525 0b7e 2E46     		mov	r6, r5
 1526 0b80 A565     		str	r5, [r4, #88]	@ float
 1527              	.L411:
 1528 0b82 3046     		mov	r0, r6
 1529 0b84 0121     		movs	r1, #1
 1530 0b86 FFF7FEFF 		bl	system_master_volume_cb
 1531              	.L409:
 1532 0b8a A06D     		ldr	r0, [r4, #88]	@ float
 1533 0b8c 0D49     		ldr	r1, .L414+8
 1534 0b8e FFF7FEFF 		bl	__aeabi_fadd
 1535 0b92 0C49     		ldr	r1, .L414+8
 1536 0b94 FFF7FEFF 		bl	__aeabi_fdiv
 1537 0b98 0B49     		ldr	r1, .L414+12
 1538 0b9a FFF7FEFF 		bl	__aeabi_fmul
 1539 0b9e 0021     		movs	r1, #0
 1540 0ba0 FFF7FEFF 		bl	__aeabi_fadd
 1541 0ba4 FFF7FEFF 		bl	__aeabi_f2uiz
 1542 0ba8 BDE87040 		pop	{r4, r5, r6, lr}
 1543 0bac 40B2     		sxtb	r0, r0
 1544 0bae FFF7FEBF 		b	screen_master_vol
 1545              	.L407:
 1546 0bb2 3546     		mov	r5, r6
 1547 0bb4 A665     		str	r6, [r4, #88]	@ float
 1548 0bb6 CEE7     		b	.L408
 1549              	.L413:
 1550 0bb8 A665     		str	r6, [r4, #88]	@ float
 1551 0bba E2E7     		b	.L411
 1552              	.L415:
 1553              		.align	2
 1554              	.L414:
 1555 0bbc 00000000 		.word	.LANCHOR0
 1556 0bc0 000070C2 		.word	-1032847360
 1557 0bc4 00007042 		.word	1114636288
 1558 0bc8 0000C842 		.word	1120403456
 1560              		.align	1
 1561              		.p2align 2,,3
 1562              		.global	draw_all_pots
 1563              		.syntax unified
 1564              		.thumb
 1565              		.thumb_func
 1566              		.fpu softvfp
 1568              	draw_all_pots:
 1569              		@ args = 0, pretend = 0, frame = 0
 1570              		@ frame_needed = 0, uses_anonymous_args = 0
 1571 0bcc 0128     		cmp	r0, #1
 1572 0bce 14BF     		ite	ne
 1573 0bd0 0023     		movne	r3, #0
 1574 0bd2 0423     		moveq	r3, #4
 1575 0bd4 70B5     		push	{r4, r5, r6, lr}
 1576 0bd6 1C46     		mov	r4, r3
 1577 0bd8 074D     		ldr	r5, .L422
 1578 0bda 1E1D     		adds	r6, r3, #4
 1579 0bdc 05EB8305 		add	r5, r5, r3, lsl #2
 1580 0be0 F6B2     		uxtb	r6, r6
 1581              	.L418:
 1582 0be2 2046     		mov	r0, r4
 1583 0be4 0134     		adds	r4, r4, #1
 1584 0be6 55F8041B 		ldr	r1, [r5], #4
 1585 0bea E4B2     		uxtb	r4, r4
 1586 0bec FFF7FEFF 		bl	screen_pot
 1587 0bf0 B442     		cmp	r4, r6
 1588 0bf2 F6D1     		bne	.L418
 1589 0bf4 70BD     		pop	{r4, r5, r6, pc}
 1590              	.L423:
 1591 0bf6 00BF     		.align	2
 1592              	.L422:
 1593 0bf8 5C000000 		.word	.LANCHOR0+92
 1595              		.align	1
 1596              		.p2align 2,,3
 1597              		.global	draw_all_foots
 1598              		.syntax unified
 1599              		.thumb
 1600              		.thumb_func
 1601              		.fpu softvfp
 1603              	draw_all_foots:
 1604              		@ args = 0, pretend = 0, frame = 0
 1605              		@ frame_needed = 0, uses_anonymous_args = 0
 1606 0bfc 0128     		cmp	r0, #1
 1607 0bfe 14BF     		ite	ne
 1608 0c00 0023     		movne	r3, #0
 1609 0c02 0223     		moveq	r3, #2
 1610 0c04 70B5     		push	{r4, r5, r6, lr}
 1611 0c06 124C     		ldr	r4, .L433
 1612 0c08 1E46     		mov	r6, r3
 1613 0c0a 04EB8303 		add	r3, r4, r3, lsl #2
 1614 0c0e 586A     		ldr	r0, [r3, #36]
 1615 0c10 14BF     		ite	ne
 1616 0c12 0125     		movne	r5, #1
 1617 0c14 0325     		moveq	r5, #3
 1618 0c16 50B1     		cbz	r0, .L431
 1619 0c18 04EB8504 		add	r4, r4, r5, lsl #2
 1620 0c1c FFF7A4FA 		bl	foot_control_add
 1621 0c20 626A     		ldr	r2, [r4, #36]
 1622 0c22 72B1     		cbz	r2, .L432
 1623              	.L428:
 1624 0c24 BDE87040 		pop	{r4, r5, r6, lr}
 1625 0c28 1046     		mov	r0, r2
 1626 0c2a FFF79DBA 		b	foot_control_add
 1627              	.L431:
 1628 0c2e 0246     		mov	r2, r0
 1629 0c30 0146     		mov	r1, r0
 1630 0c32 04EB8504 		add	r4, r4, r5, lsl #2
 1631 0c36 3046     		mov	r0, r6
 1632 0c38 FFF7FEFF 		bl	screen_footer
 1633 0c3c 626A     		ldr	r2, [r4, #36]
 1634 0c3e 002A     		cmp	r2, #0
 1635 0c40 F0D1     		bne	.L428
 1636              	.L432:
 1637 0c42 701C     		adds	r0, r6, #1
 1638 0c44 1146     		mov	r1, r2
 1639 0c46 BDE87040 		pop	{r4, r5, r6, lr}
 1640 0c4a FFF7FEBF 		b	screen_footer
 1641              	.L434:
 1642 0c4e 00BF     		.align	2
 1643              	.L433:
 1644 0c50 00000000 		.word	.LANCHOR0
 1646              		.align	1
 1647              		.p2align 2,,3
 1648              		.global	naveg_init
 1649              		.syntax unified
 1650              		.thumb
 1651              		.thumb_func
 1652              		.fpu softvfp
 1654              	naveg_init:
 1655              		@ args = 0, pretend = 0, frame = 24
 1656              		@ frame_needed = 0, uses_anonymous_args = 0
 1657 0c54 2DE9F043 		push	{r4, r5, r6, r7, r8, r9, lr}
 1658 0c58 4D4D     		ldr	r5, .L458
 1659 0c5a 0020     		movs	r0, #0
 1660 0c5c 2B46     		mov	r3, r5
 1661 0c5e 4D49     		ldr	r1, .L458+4
 1662 0c60 0246     		mov	r2, r0
 1663 0c62 43F8200F 		str	r0, [r3, #32]!
 1664 0c66 E861     		str	r0, [r5, #28]
 1665 0c68 87B0     		sub	sp, sp, #28
 1666 0c6a 05F13C00 		add	r0, r5, #60
 1667              	.L436:
 1668 0c6e 43F8042F 		str	r2, [r3, #4]!
 1669 0c72 8342     		cmp	r3, r0
 1670 0c74 0A72     		strb	r2, [r1, #8]
 1671 0c76 01F10C01 		add	r1, r1, #12
 1672 0c7a F8D1     		bne	.L436
 1673 0c7c 0124     		movs	r4, #1
 1674 0c7e 0020     		movs	r0, #0
 1675 0c80 FF21     		movs	r1, #255
 1676 0c82 454B     		ldr	r3, .L458+8
 1677 0c84 C5E91722 		strd	r2, r2, [r5, #92]
 1678 0c88 C5E91922 		strd	r2, r2, [r5, #100]
 1679 0c8c C5E91B22 		strd	r2, r2, [r5, #108]
 1680 0c90 C5E91D22 		strd	r2, r2, [r5, #116]
 1681 0c94 C5E91022 		strd	r2, r2, [r5, #64]
 1682 0c98 2A60     		str	r2, [r5]
 1683 0c9a 85F87C20 		strb	r2, [r5, #124]
 1684 0c9e 2C76     		strb	r4, [r5, #24]
 1685 0ca0 03F11402 		add	r2, r3, #20
 1686              	.L437:
 1687 0ca4 1871     		strb	r0, [r3, #4]
 1688 0ca6 1970     		strb	r1, [r3]
 1689 0ca8 5970     		strb	r1, [r3, #1]
 1690 0caa 9970     		strb	r1, [r3, #2]
 1691 0cac D970     		strb	r1, [r3, #3]
 1692 0cae 0533     		adds	r3, r3, #5
 1693 0cb0 9A42     		cmp	r2, r3
 1694 0cb2 F7D1     		bne	.L437
 1695 0cb4 3949     		ldr	r1, .L458+12
 1696 0cb6 95F85470 		ldrb	r7, [r5, #84]	@ zero_extendqisi2
 1697 0cba 0B68     		ldr	r3, [r1]
 1698 0cbc 83B3     		cbz	r3, .L438
 1699 0cbe 8C46     		mov	ip, r1
 1700 0cc0 0126     		movs	r6, #1
 1701 0cc2 DCF81400 		ldr	r0, [ip, #20]
 1702 0cc6 BE46     		mov	lr, r7
 1703 0cc8 4FF00008 		mov	r8, #0
 1704 0ccc F3B2     		uxtb	r3, r6
 1705 0cce 3246     		mov	r2, r6
 1706 0cd0 10B3     		cbz	r0, .L439
 1707              	.L457:
 1708 0cd2 0024     		movs	r4, #0
 1709 0cd4 BCF80690 		ldrh	r9, [ip, #6]
 1710              	.L441:
 1711 0cd8 02EB8202 		add	r2, r2, r2, lsl #2
 1712 0cdc 01EB8202 		add	r2, r1, r2, lsl #2
 1713 0ce0 0133     		adds	r3, r3, #1
 1714 0ce2 1089     		ldrh	r0, [r2, #8]
 1715 0ce4 DBB2     		uxtb	r3, r3
 1716 0ce6 03EB8302 		add	r2, r3, r3, lsl #2
 1717 0cea 4845     		cmp	r0, r9
 1718 0cec 51F82200 		ldr	r0, [r1, r2, lsl #2]
 1719 0cf0 04BF     		itt	eq
 1720 0cf2 0134     		addeq	r4, r4, #1
 1721 0cf4 E4B2     		uxtbeq	r4, r4
 1722 0cf6 1A46     		mov	r2, r3
 1723 0cf8 0028     		cmp	r0, #0
 1724 0cfa EDD1     		bne	.L441
 1725 0cfc A645     		cmp	lr, r4
 1726 0cfe 02D2     		bcs	.L442
 1727 0d00 A646     		mov	lr, r4
 1728 0d02 4FF00108 		mov	r8, #1
 1729              	.L442:
 1730 0d06 0CF1140C 		add	ip, ip, #20
 1731 0d0a DCF81400 		ldr	r0, [ip, #20]
 1732 0d0e 0136     		adds	r6, r6, #1
 1733 0d10 F3B2     		uxtb	r3, r6
 1734 0d12 3246     		mov	r2, r6
 1735 0d14 0028     		cmp	r0, #0
 1736 0d16 DCD1     		bne	.L457
 1737              	.L439:
 1738 0d18 B8F1000F 		cmp	r8, #0
 1739 0d1c 18BF     		it	ne
 1740 0d1e 7746     		movne	r7, lr
 1741              	.L438:
 1742 0d20 1F4E     		ldr	r6, .L458+16
 1743 0d22 01AC     		add	r4, sp, #4
 1744 0d24 0FCE     		ldmia	r6!, {r0, r1, r2, r3}
 1745 0d26 0FC4     		stmia	r4!, {r0, r1, r2, r3}
 1746 0d28 3368     		ldr	r3, [r6]
 1747 0d2a 0137     		adds	r7, r7, #1
 1748 0d2c 0020     		movs	r0, #0
 1749 0d2e 2360     		str	r3, [r4]
 1750 0d30 85F85470 		strb	r7, [r5, #84]
 1751 0d34 FFF7FEFF 		bl	node_create
 1752 0d38 0DF10A01 		add	r1, sp, #10
 1753 0d3c C5F88000 		str	r0, [r5, #128]
 1754 0d40 0024     		movs	r4, #0
 1755 0d42 FFF7A9FE 		bl	create_menu_tree.isra.1
 1756 0d46 0123     		movs	r3, #1
 1757 0d48 D5F88060 		ldr	r6, [r5, #128]
 1758 0d4c 2146     		mov	r1, r4
 1759 0d4e B268     		ldr	r2, [r6, #8]
 1760 0d50 1846     		mov	r0, r3
 1761 0d52 1768     		ldr	r7, [r2]
 1762 0d54 0322     		movs	r2, #3
 1763 0d56 C5F88460 		str	r6, [r5, #132]
 1764 0d5a EF64     		str	r7, [r5, #76]
 1765 0d5c C5E92244 		strd	r4, r4, [r5, #136]
 1766 0d60 85F89030 		strb	r3, [r5, #144]
 1767 0d64 FFF7FEFF 		bl	xQueueGenericCreate
 1768 0d68 0246     		mov	r2, r0
 1769 0d6a C5F89400 		str	r0, [r5, #148]
 1770 0d6e 30B1     		cbz	r0, .L443
 1771 0d70 2246     		mov	r2, r4
 1772 0d72 2346     		mov	r3, r4
 1773 0d74 2146     		mov	r1, r4
 1774 0d76 FFF7FEFF 		bl	xQueueGenericSend
 1775 0d7a D5F89420 		ldr	r2, [r5, #148]
 1776              	.L443:
 1777 0d7e 0023     		movs	r3, #0
 1778 0d80 1046     		mov	r0, r2
 1779 0d82 1946     		mov	r1, r3
 1780 0d84 1A46     		mov	r2, r3
 1781 0d86 FFF7FEFF 		bl	xQueueGenericReceive
 1782 0d8a 07B0     		add	sp, sp, #28
 1783              		@ sp needed
 1784 0d8c BDE8F083 		pop	{r4, r5, r6, r7, r8, r9, pc}
 1785              	.L459:
 1786              		.align	2
 1787              	.L458:
 1788 0d90 00000000 		.word	.LANCHOR0
 1789 0d94 00000000 		.word	g_tap_tempo
 1790 0d98 04000000 		.word	.LANCHOR0+4
 1791 0d9c 00000000 		.word	.LANCHOR1
 1792 0da0 00000000 		.word	.LANCHOR2
 1794              		.align	1
 1795              		.p2align 2,,3
 1796              		.global	naveg_initial_state
 1797              		.syntax unified
 1798              		.thumb
 1799              		.thumb_func
 1800              		.fpu softvfp
 1802              	naveg_initial_state:
 1803              		@ args = 0, pretend = 0, frame = 0
 1804              		@ frame_needed = 0, uses_anonymous_args = 0
 1805 0da4 2DE9F047 		push	{r4, r5, r6, r7, r8, r9, r10, lr}
 1806 0da8 002A     		cmp	r2, #0
 1807 0daa 3DD0     		beq	.L493
 1808 0dac 1546     		mov	r5, r2
 1809 0dae 0F46     		mov	r7, r1
 1810 0db0 FFF7FEFF 		bl	atoi
 1811 0db4 244E     		ldr	r6, .L494
 1812 0db6 0130     		adds	r0, r0, #1
 1813 0db8 736C     		ldr	r3, [r6, #68]
 1814 0dba C0B2     		uxtb	r0, r0
 1815 0dbc 86F84800 		strb	r0, [r6, #72]
 1816 0dc0 0BB1     		cbz	r3, .L465
 1817 0dc2 9872     		strb	r0, [r3, #10]
 1818 0dc4 5872     		strb	r0, [r3, #9]
 1819              	.L465:
 1820 0dc6 306C     		ldr	r0, [r6, #64]
 1821 0dc8 08B1     		cbz	r0, .L466
 1822 0dca FFF7FEFF 		bl	data_free_pedalboards_list
 1823              	.L466:
 1824 0dce 3068     		ldr	r0, [r6]
 1825 0dd0 08B1     		cbz	r0, .L467
 1826 0dd2 FFF7FEFF 		bl	data_free_pedalboards_list
 1827              	.L467:
 1828 0dd6 0024     		movs	r4, #0
 1829 0dd8 2846     		mov	r0, r5
 1830 0dda 3460     		str	r4, [r6]
 1831 0ddc FFF7FEFF 		bl	strarr_length
 1832 0de0 0146     		mov	r1, r0
 1833 0de2 2846     		mov	r0, r5
 1834 0de4 FFF7FEFF 		bl	data_parse_pedalboards_list
 1835 0de8 8146     		mov	r9, r0
 1836 0dea 3064     		str	r0, [r6, #64]
 1837 0dec D0B1     		cbz	r0, .L460
 1838 0dee 90F80880 		ldrb	r8, [r0, #8]	@ zero_extendqisi2
 1839 0df2 B8F1000F 		cmp	r8, #0
 1840 0df6 15D0     		beq	.L460
 1841 0df8 4568     		ldr	r5, [r0, #4]
 1842 0dfa A246     		mov	r10, r4
 1843 0dfc 043D     		subs	r5, r5, #4
 1844 0dfe 03E0     		b	.L469
 1845              	.L468:
 1846 0e00 5FFA84FA 		uxtb	r10, r4
 1847 0e04 D045     		cmp	r8, r10
 1848 0e06 0DD9     		bls	.L460
 1849              	.L469:
 1850 0e08 3946     		mov	r1, r7
 1851 0e0a 55F8040F 		ldr	r0, [r5, #4]!
 1852 0e0e FFF7FEFF 		bl	strcmp
 1853 0e12 0134     		adds	r4, r4, #1
 1854 0e14 0028     		cmp	r0, #0
 1855 0e16 F3D1     		bne	.L468
 1856 0e18 89F80AA0 		strb	r10, [r9, #10]
 1857 0e1c 89F809A0 		strb	r10, [r9, #9]
 1858 0e20 86F818A0 		strb	r10, [r6, #24]
 1859              	.L460:
 1860 0e24 BDE8F087 		pop	{r4, r5, r6, r7, r8, r9, r10, pc}
 1861              	.L493:
 1862 0e28 074E     		ldr	r6, .L494
 1863 0e2a 736C     		ldr	r3, [r6, #68]
 1864 0e2c 1BB1     		cbz	r3, .L462
 1865 0e2e 9A72     		strb	r2, [r3, #10]
 1866 0e30 5A72     		strb	r2, [r3, #9]
 1867 0e32 86F84820 		strb	r2, [r6, #72]
 1868              	.L462:
 1869 0e36 336C     		ldr	r3, [r6, #64]
 1870 0e38 002B     		cmp	r3, #0
 1871 0e3a F3D0     		beq	.L460
 1872 0e3c 0022     		movs	r2, #0
 1873 0e3e 9A72     		strb	r2, [r3, #10]
 1874 0e40 5A72     		strb	r2, [r3, #9]
 1875 0e42 3276     		strb	r2, [r6, #24]
 1876 0e44 BDE8F087 		pop	{r4, r5, r6, r7, r8, r9, r10, pc}
 1877              	.L495:
 1878              		.align	2
 1879              	.L494:
 1880 0e48 00000000 		.word	.LANCHOR0
 1882              		.align	1
 1883              		.p2align 2,,3
 1884              		.global	naveg_inc_control
 1885              		.syntax unified
 1886              		.thumb
 1887              		.thumb_func
 1888              		.fpu softvfp
 1890              	naveg_inc_control:
 1891              		@ args = 0, pretend = 0, frame = 0
 1892              		@ frame_needed = 0, uses_anonymous_args = 0
 1893 0e4c 38B5     		push	{r3, r4, r5, lr}
 1894 0e4e 1C49     		ldr	r1, .L525
 1895 0e50 91F89030 		ldrb	r3, [r1, #144]	@ zero_extendqisi2
 1896 0e54 43B3     		cbz	r3, .L496
 1897 0e56 1B4B     		ldr	r3, .L525+4
 1898 0e58 03F10A04 		add	r4, r3, #10
 1899              	.L499:
 1900 0e5c 5A78     		ldrb	r2, [r3, #1]	@ zero_extendqisi2
 1901 0e5e 8242     		cmp	r2, r0
 1902 0e60 1FD0     		beq	.L524
 1903              	.L498:
 1904 0e62 0233     		adds	r3, r3, #2
 1905 0e64 9C42     		cmp	r4, r3
 1906 0e66 F9D1     		bne	.L499
 1907 0e68 01EB8001 		add	r1, r1, r0, lsl #2
 1908 0e6c CC69     		ldr	r4, [r1, #28]
 1909 0e6e DCB1     		cbz	r4, .L496
 1910 0e70 A37C     		ldrb	r3, [r4, #18]	@ zero_extendqisi2
 1911 0e72 042B     		cmp	r3, #4
 1912 0e74 19D0     		beq	.L501
 1913 0e76 082B     		cmp	r3, #8
 1914 0e78 17D0     		beq	.L501
 1915              	.L502:
 1916 0e7a 94F92130 		ldrsb	r3, [r4, #33]
 1917 0e7e 94F92020 		ldrsb	r2, [r4, #32]
 1918 0e82 013B     		subs	r3, r3, #1
 1919 0e84 9A42     		cmp	r2, r3
 1920 0e86 0FDA     		bge	.L496
 1921 0e88 0546     		mov	r5, r0
 1922 0e8a 0132     		adds	r2, r2, #1
 1923 0e8c 2046     		mov	r0, r4
 1924 0e8e 84F82020 		strb	r2, [r4, #32]
 1925 0e92 FFF779FB 		bl	step_to_value
 1926 0e96 2146     		mov	r1, r4
 1927 0e98 2846     		mov	r0, r5
 1928 0e9a BDE83840 		pop	{r3, r4, r5, lr}
 1929 0e9e FFF7D9BB 		b	control_set
 1930              	.L524:
 1931 0ea2 1A78     		ldrb	r2, [r3]	@ zero_extendqisi2
 1932 0ea4 012A     		cmp	r2, #1
 1933 0ea6 DCD1     		bne	.L498
 1934              	.L496:
 1935 0ea8 38BD     		pop	{r3, r4, r5, pc}
 1936              	.L501:
 1937 0eaa E37C     		ldrb	r3, [r4, #19]	@ zero_extendqisi2
 1938 0eac 002B     		cmp	r3, #0
 1939 0eae E4D1     		bne	.L502
 1940 0eb0 0123     		movs	r3, #1
 1941 0eb2 E374     		strb	r3, [r4, #19]
 1942 0eb4 2146     		mov	r1, r4
 1943 0eb6 BDE83840 		pop	{r3, r4, r5, lr}
 1944 0eba FFF7CBBB 		b	control_set
 1945              	.L526:
 1946 0ebe 00BF     		.align	2
 1947              	.L525:
 1948 0ec0 00000000 		.word	.LANCHOR0
 1949 0ec4 00000000 		.word	g_tool
 1951              		.align	1
 1952              		.p2align 2,,3
 1953              		.global	naveg_dec_control
 1954              		.syntax unified
 1955              		.thumb
 1956              		.thumb_func
 1957              		.fpu softvfp
 1959              	naveg_dec_control:
 1960              		@ args = 0, pretend = 0, frame = 0
 1961              		@ frame_needed = 0, uses_anonymous_args = 0
 1962 0ec8 38B5     		push	{r3, r4, r5, lr}
 1963 0eca 1A49     		ldr	r1, .L556
 1964 0ecc 91F89030 		ldrb	r3, [r1, #144]	@ zero_extendqisi2
 1965 0ed0 2BB3     		cbz	r3, .L527
 1966 0ed2 194B     		ldr	r3, .L556+4
 1967 0ed4 03F10A04 		add	r4, r3, #10
 1968              	.L530:
 1969 0ed8 5A78     		ldrb	r2, [r3, #1]	@ zero_extendqisi2
 1970 0eda 8242     		cmp	r2, r0
 1971 0edc 1CD0     		beq	.L555
 1972              	.L529:
 1973 0ede 0233     		adds	r3, r3, #2
 1974 0ee0 9C42     		cmp	r4, r3
 1975 0ee2 F9D1     		bne	.L530
 1976 0ee4 01EB8001 		add	r1, r1, r0, lsl #2
 1977 0ee8 CC69     		ldr	r4, [r1, #28]
 1978 0eea C4B1     		cbz	r4, .L527
 1979 0eec A37C     		ldrb	r3, [r4, #18]	@ zero_extendqisi2
 1980 0eee 042B     		cmp	r3, #4
 1981 0ef0 16D0     		beq	.L532
 1982 0ef2 082B     		cmp	r3, #8
 1983 0ef4 14D0     		beq	.L532
 1984              	.L533:
 1985 0ef6 94F92030 		ldrsb	r3, [r4, #32]
 1986 0efa 002B     		cmp	r3, #0
 1987 0efc 0FDD     		ble	.L527
 1988 0efe 0546     		mov	r5, r0
 1989 0f00 013B     		subs	r3, r3, #1
 1990 0f02 2046     		mov	r0, r4
 1991 0f04 84F82030 		strb	r3, [r4, #32]
 1992 0f08 FFF73EFB 		bl	step_to_value
 1993 0f0c 2146     		mov	r1, r4
 1994 0f0e 2846     		mov	r0, r5
 1995 0f10 BDE83840 		pop	{r3, r4, r5, lr}
 1996 0f14 FFF79EBB 		b	control_set
 1997              	.L555:
 1998 0f18 1A78     		ldrb	r2, [r3]	@ zero_extendqisi2
 1999 0f1a 012A     		cmp	r2, #1
 2000 0f1c DFD1     		bne	.L529
 2001              	.L527:
 2002 0f1e 38BD     		pop	{r3, r4, r5, pc}
 2003              	.L532:
 2004 0f20 E37C     		ldrb	r3, [r4, #19]	@ zero_extendqisi2
 2005 0f22 002B     		cmp	r3, #0
 2006 0f24 E7D0     		beq	.L533
 2007 0f26 0023     		movs	r3, #0
 2008 0f28 E374     		strb	r3, [r4, #19]
 2009 0f2a 2146     		mov	r1, r4
 2010 0f2c BDE83840 		pop	{r3, r4, r5, lr}
 2011 0f30 FFF790BB 		b	control_set
 2012              	.L557:
 2013              		.align	2
 2014              	.L556:
 2015 0f34 00000000 		.word	.LANCHOR0
 2016 0f38 00000000 		.word	g_tool
 2018              		.align	1
 2019              		.p2align 2,,3
 2020              		.global	naveg_set_control
 2021              		.syntax unified
 2022              		.thumb
 2023              		.thumb_func
 2024              		.fpu softvfp
 2026              	naveg_set_control:
 2027              		@ args = 0, pretend = 0, frame = 8
 2028              		@ frame_needed = 0, uses_anonymous_args = 0
 2029 0f3c 204B     		ldr	r3, .L578
 2030 0f3e 93F89030 		ldrb	r3, [r3, #144]	@ zero_extendqisi2
 2031 0f42 03B9     		cbnz	r3, .L576
 2032 0f44 7047     		bx	lr
 2033              	.L576:
 2034 0f46 70B5     		push	{r4, r5, r6, lr}
 2035 0f48 82B0     		sub	sp, sp, #8
 2036 0f4a 1546     		mov	r5, r2
 2037 0f4c 0DF10702 		add	r2, sp, #7
 2038 0f50 FFF7E2F8 		bl	search_encoder
 2039 0f54 0446     		mov	r4, r0
 2040 0f56 0028     		cmp	r0, #0
 2041 0f58 2DD0     		beq	.L558
 2042 0f5a 8669     		ldr	r6, [r0, #24]	@ float
 2043 0f5c 4561     		str	r5, [r0, #20]	@ float
 2044 0f5e 2946     		mov	r1, r5
 2045 0f60 3046     		mov	r0, r6
 2046 0f62 FFF7FEFF 		bl	__aeabi_fcmpgt
 2047 0f66 00B1     		cbz	r0, .L560
 2048 0f68 6661     		str	r6, [r4, #20]	@ float
 2049              	.L560:
 2050 0f6a E669     		ldr	r6, [r4, #28]	@ float
 2051 0f6c 2946     		mov	r1, r5
 2052 0f6e 3046     		mov	r0, r6
 2053 0f70 FFF7FEFF 		bl	__aeabi_fcmplt
 2054 0f74 08BB     		cbnz	r0, .L577
 2055              	.L562:
 2056 0f76 2146     		mov	r1, r4
 2057 0f78 9DF80700 		ldrb	r0, [sp, #7]	@ zero_extendqisi2
 2058 0f7c FFF76AFB 		bl	control_set
 2059 0f80 A569     		ldr	r5, [r4, #24]	@ float
 2060 0f82 6069     		ldr	r0, [r4, #20]	@ float
 2061 0f84 2946     		mov	r1, r5
 2062 0f86 FFF7FEFF 		bl	__aeabi_fsub
 2063 0f8a 2946     		mov	r1, r5
 2064 0f8c 0646     		mov	r6, r0
 2065 0f8e E069     		ldr	r0, [r4, #28]	@ float
 2066 0f90 FFF7FEFF 		bl	__aeabi_fsub
 2067 0f94 0546     		mov	r5, r0
 2068 0f96 94F92100 		ldrsb	r0, [r4, #33]
 2069 0f9a FFF7FEFF 		bl	__aeabi_i2f
 2070 0f9e 0146     		mov	r1, r0
 2071 0fa0 2846     		mov	r0, r5
 2072 0fa2 FFF7FEFF 		bl	__aeabi_fdiv
 2073 0fa6 0146     		mov	r1, r0
 2074 0fa8 3046     		mov	r0, r6
 2075 0faa FFF7FEFF 		bl	__aeabi_fdiv
 2076 0fae FFF7FEFF 		bl	__aeabi_f2iz
 2077 0fb2 84F82000 		strb	r0, [r4, #32]
 2078              	.L558:
 2079 0fb6 02B0     		add	sp, sp, #8
 2080              		@ sp needed
 2081 0fb8 70BD     		pop	{r4, r5, r6, pc}
 2082              	.L577:
 2083 0fba 6661     		str	r6, [r4, #20]	@ float
 2084 0fbc DBE7     		b	.L562
 2085              	.L579:
 2086 0fbe 00BF     		.align	2
 2087              	.L578:
 2088 0fc0 00000000 		.word	.LANCHOR0
 2090              		.align	1
 2091              		.p2align 2,,3
 2092              		.global	naveg_get_control
 2093              		.syntax unified
 2094              		.thumb
 2095              		.thumb_func
 2096              		.fpu softvfp
 2098              	naveg_get_control:
 2099              		@ args = 0, pretend = 0, frame = 8
 2100              		@ frame_needed = 0, uses_anonymous_args = 0
 2101 0fc4 0A4B     		ldr	r3, .L590
 2102 0fc6 93F89030 		ldrb	r3, [r3, #144]	@ zero_extendqisi2
 2103 0fca 0BB9     		cbnz	r3, .L581
 2104 0fcc 0020     		movs	r0, #0
 2105 0fce 7047     		bx	lr
 2106              	.L581:
 2107 0fd0 00B5     		push	{lr}
 2108 0fd2 83B0     		sub	sp, sp, #12
 2109 0fd4 0DF10702 		add	r2, sp, #7
 2110 0fd8 FFF79EF8 		bl	search_encoder
 2111 0fdc 18B1     		cbz	r0, .L583
 2112 0fde 4069     		ldr	r0, [r0, #20]	@ float
 2113 0fe0 03B0     		add	sp, sp, #12
 2114              		@ sp needed
 2115 0fe2 5DF804FB 		ldr	pc, [sp], #4
 2116              	.L583:
 2117 0fe6 0020     		movs	r0, #0
 2118 0fe8 03B0     		add	sp, sp, #12
 2119              		@ sp needed
 2120 0fea 5DF804FB 		ldr	pc, [sp], #4
 2121              	.L591:
 2122 0fee 00BF     		.align	2
 2123              	.L590:
 2124 0ff0 00000000 		.word	.LANCHOR0
 2126              		.align	1
 2127              		.p2align 2,,3
 2128              		.global	naveg_pot_change
 2129              		.syntax unified
 2130              		.thumb
 2131              		.thumb_func
 2132              		.fpu softvfp
 2134              	naveg_pot_change:
 2135              		@ args = 0, pretend = 0, frame = 0
 2136              		@ frame_needed = 0, uses_anonymous_args = 0
 2137 0ff4 2DE9F041 		push	{r4, r5, r6, r7, r8, lr}
 2138 0ff8 224C     		ldr	r4, .L605
 2139 0ffa 94F89030 		ldrb	r3, [r4, #144]	@ zero_extendqisi2
 2140 0ffe 8BB1     		cbz	r3, .L592
 2141 1000 0728     		cmp	r0, #7
 2142 1002 0546     		mov	r5, r0
 2143 1004 0ED8     		bhi	.L592
 2144 1006 8600     		lsls	r6, r0, #2
 2145 1008 A319     		adds	r3, r4, r6
 2146 100a DB6D     		ldr	r3, [r3, #92]
 2147 100c 53B1     		cbz	r3, .L592
 2148 100e FFF7FEFF 		bl	hardware_get_pot_value
 2149 1012 3128     		cmp	r0, #49
 2150 1014 08D9     		bls	.L595
 2151 1016 40F66E72 		movw	r2, #3950
 2152 101a 9042     		cmp	r0, r2
 2153 101c 2DD9     		bls	.L604
 2154 101e DFF86880 		ldr	r8, .L605+4
 2155 1022 03E0     		b	.L594
 2156              	.L592:
 2157 1024 BDE8F081 		pop	{r4, r5, r6, r7, r8, pc}
 2158              	.L595:
 2159 1028 4FF00008 		mov	r8, #0
 2160              	.L594:
 2161 102c 3444     		add	r4, r4, r6
 2162 102e E46D     		ldr	r4, [r4, #92]
 2163 1030 A669     		ldr	r6, [r4, #24]	@ float
 2164 1032 E069     		ldr	r0, [r4, #28]	@ float
 2165 1034 3146     		mov	r1, r6
 2166 1036 FFF7FEFF 		bl	__aeabi_fsub
 2167 103a 4146     		mov	r1, r8
 2168 103c 0746     		mov	r7, r0
 2169 103e FFF7FEFF 		bl	__aeabi_fmul
 2170 1042 1149     		ldr	r1, .L605+4
 2171 1044 FFF7FEFF 		bl	__aeabi_fdiv
 2172 1048 3146     		mov	r1, r6
 2173 104a FFF7FEFF 		bl	__aeabi_fadd
 2174 104e 0646     		mov	r6, r0
 2175 1050 94F92100 		ldrsb	r0, [r4, #33]
 2176 1054 6661     		str	r6, [r4, #20]	@ float
 2177 1056 FFF7FEFF 		bl	__aeabi_i2f
 2178 105a 3146     		mov	r1, r6
 2179 105c FFF7FEFF 		bl	__aeabi_fmul
 2180 1060 3946     		mov	r1, r7
 2181 1062 FFF7FEFF 		bl	__aeabi_fdiv
 2182 1066 FFF7FEFF 		bl	__aeabi_f2iz
 2183 106a 84F82000 		strb	r0, [r4, #32]
 2184 106e 2146     		mov	r1, r4
 2185 1070 2846     		mov	r0, r5
 2186 1072 BDE8F041 		pop	{r4, r5, r6, r7, r8, lr}
 2187 1076 FFF7EDBA 		b	control_set
 2188              	.L604:
 2189 107a FFF7FEFF 		bl	__aeabi_i2f
 2190 107e 8046     		mov	r8, r0
 2191 1080 D4E7     		b	.L594
 2192              	.L606:
 2193 1082 00BF     		.align	2
 2194              	.L605:
 2195 1084 00000000 		.word	.LANCHOR0
 2196 1088 00F07F45 		.word	1166012416
 2198              		.align	1
 2199              		.p2align 2,,3
 2200              		.global	naveg_foot_change
 2201              		.syntax unified
 2202              		.thumb
 2203              		.thumb_func
 2204              		.fpu softvfp
 2206              	naveg_foot_change:
 2207              		@ args = 0, pretend = 0, frame = 0
 2208              		@ frame_needed = 0, uses_anonymous_args = 0
 2209 108c 10B5     		push	{r4, lr}
 2210 108e 6C4C     		ldr	r4, .L660
 2211 1090 94F89030 		ldrb	r3, [r4, #144]	@ zero_extendqisi2
 2212 1094 4BB3     		cbz	r3, .L607
 2213 1096 0628     		cmp	r0, #6
 2214 1098 27D8     		bhi	.L607
 2215 109a 0528     		cmp	r0, #5
 2216 109c 26D0     		beq	.L612
 2217 109e 0628     		cmp	r0, #6
 2218 10a0 34D0     		beq	.L613
 2219 10a2 0428     		cmp	r0, #4
 2220 10a4 32D0     		beq	.L613
 2221 10a6 231D     		adds	r3, r4, #4
 2222 10a8 04F11301 		add	r1, r4, #19
 2223              	.L616:
 2224 10ac 1A7A     		ldrb	r2, [r3, #8]	@ zero_extendqisi2
 2225 10ae 8242     		cmp	r2, r0
 2226 10b0 3DD0     		beq	.L658
 2227              	.L614:
 2228 10b2 0533     		adds	r3, r3, #5
 2229 10b4 9942     		cmp	r1, r3
 2230 10b6 F9D1     		bne	.L616
 2231 10b8 04EB8004 		add	r4, r4, r0, lsl #2
 2232 10bc 616A     		ldr	r1, [r4, #36]
 2233 10be A1B1     		cbz	r1, .L607
 2234 10c0 BDE81040 		pop	{r4, lr}
 2235 10c4 FFF7C6BA 		b	control_set
 2236              	.L631:
 2237 10c8 0520     		movs	r0, #5
 2238 10ca FFF7FEFF 		bl	hardware_leds
 2239 10ce 0521     		movs	r1, #5
 2240 10d0 FFF7FEFF 		bl	ledz_off
 2241 10d4 0520     		movs	r0, #5
 2242 10d6 FFF7FEFF 		bl	hardware_leds
 2243 10da 0621     		movs	r1, #6
 2244 10dc FFF7FEFF 		bl	ledz_on
 2245 10e0 94F89930 		ldrb	r3, [r4, #153]	@ zero_extendqisi2
 2246 10e4 0133     		adds	r3, r3, #1
 2247 10e6 84F89930 		strb	r3, [r4, #153]
 2248              	.L607:
 2249 10ea 10BD     		pop	{r4, pc}
 2250              	.L612:
 2251 10ec 94F89930 		ldrb	r3, [r4, #153]	@ zero_extendqisi2
 2252 10f0 032B     		cmp	r3, #3
 2253 10f2 FAD8     		bhi	.L607
 2254 10f4 01A2     		adr	r2, .L629
 2255 10f6 52F823F0 		ldr	pc, [r2, r3, lsl #2]
 2256 10fa 00BF     		.p2align 2
 2257              	.L629:
 2258 10fc FF110000 		.word	.L628+1
 2259 1100 DB110000 		.word	.L630+1
 2260 1104 C9100000 		.word	.L631+1
 2261 1108 C7110000 		.word	.L632+1
 2262              		.p2align 1
 2263              	.L613:
 2264 110c 0628     		cmp	r0, #6
 2265 110e 08BF     		it	eq
 2266 1110 0134     		addeq	r4, r4, #1
 2267 1112 94F89830 		ldrb	r3, [r4, #152]	@ zero_extendqisi2
 2268 1116 012B     		cmp	r3, #1
 2269 1118 4BD0     		beq	.L659
 2270 111a 0123     		movs	r3, #1
 2271 111c 84F89830 		strb	r3, [r4, #152]
 2272 1120 FFF7FEFF 		bl	hardware_leds
 2273 1124 BDE81040 		pop	{r4, lr}
 2274 1128 0721     		movs	r1, #7
 2275 112a FFF7FEBF 		b	ledz_on
 2276              	.L658:
 2277 112e 5A7A     		ldrb	r2, [r3, #9]	@ zero_extendqisi2
 2278 1130 002A     		cmp	r2, #0
 2279 1132 BED0     		beq	.L614
 2280 1134 022A     		cmp	r2, #2
 2281 1136 217E     		ldrb	r1, [r4, #24]	@ zero_extendqisi2
 2282 1138 6DD0     		beq	.L618
 2283 113a 032A     		cmp	r2, #3
 2284 113c 18D1     		bne	.L620
 2285 113e 2268     		ldr	r2, [r4]
 2286 1140 B2B1     		cbz	r2, .L620
 2287 1142 4B1E     		subs	r3, r1, #1
 2288 1144 DBB2     		uxtb	r3, r3
 2289 1146 2376     		strb	r3, [r4, #24]
 2290 1148 33B9     		cbnz	r3, .L625
 2291 114a A37C     		ldrb	r3, [r4, #18]	@ zero_extendqisi2
 2292 114c 002B     		cmp	r3, #0
 2293 114e 70D1     		bne	.L626
 2294 1150 137A     		ldrb	r3, [r2, #8]	@ zero_extendqisi2
 2295 1152 013B     		subs	r3, r3, #1
 2296 1154 DBB2     		uxtb	r3, r3
 2297 1156 2376     		strb	r3, [r4, #24]
 2298              	.L625:
 2299 1158 9942     		cmp	r1, r3
 2300 115a 9372     		strb	r3, [r2, #10]
 2301 115c 08D0     		beq	.L620
 2302 115e 94F84800 		ldrb	r0, [r4, #72]	@ zero_extendqisi2
 2303 1162 5268     		ldr	r2, [r2, #4]
 2304 1164 0138     		subs	r0, r0, #1
 2305 1166 52F82310 		ldr	r1, [r2, r3, lsl #2]
 2306 116a C0B2     		uxtb	r0, r0
 2307 116c FFF7CAFB 		bl	send_load_pedalboard
 2308              	.L620:
 2309 1170 FEF746FF 		bl	bank_config_footer
 2310 1174 2368     		ldr	r3, [r4]
 2311 1176 002B     		cmp	r3, #0
 2312 1178 B7D0     		beq	.L607
 2313 117a 626C     		ldr	r2, [r4, #68]
 2314 117c 94F84810 		ldrb	r1, [r4, #72]	@ zero_extendqisi2
 2315 1180 507A     		ldrb	r0, [r2, #9]	@ zero_extendqisi2
 2316 1182 8842     		cmp	r0, r1
 2317 1184 B1D1     		bne	.L607
 2318 1186 2F49     		ldr	r1, .L660+4
 2319 1188 0979     		ldrb	r1, [r1, #4]	@ zero_extendqisi2
 2320 118a 0029     		cmp	r1, #0
 2321 118c ADD0     		beq	.L607
 2322 118e 94F87C10 		ldrb	r1, [r4, #124]	@ zero_extendqisi2
 2323 1192 0129     		cmp	r1, #1
 2324 1194 A9D1     		bne	.L607
 2325 1196 206C     		ldr	r0, [r4, #64]
 2326 1198 9C7A     		ldrb	r4, [r3, #10]	@ zero_extendqisi2
 2327 119a 0146     		mov	r1, r0
 2328 119c 8472     		strb	r4, [r0, #10]
 2329 119e 9B7A     		ldrb	r3, [r3, #10]	@ zero_extendqisi2
 2330 11a0 4372     		strb	r3, [r0, #9]
 2331 11a2 507A     		ldrb	r0, [r2, #9]	@ zero_extendqisi2
 2332 11a4 1368     		ldr	r3, [r2]
 2333 11a6 BDE81040 		pop	{r4, lr}
 2334 11aa 53F82000 		ldr	r0, [r3, r0, lsl #2]
 2335 11ae FFF7FEBF 		b	screen_bp_list
 2336              	.L659:
 2337 11b2 0023     		movs	r3, #0
 2338 11b4 84F89830 		strb	r3, [r4, #152]
 2339 11b8 FFF7FEFF 		bl	hardware_leds
 2340 11bc BDE81040 		pop	{r4, lr}
 2341 11c0 0721     		movs	r1, #7
 2342 11c2 FFF7FEBF 		b	ledz_off
 2343              	.L632:
 2344 11c6 0520     		movs	r0, #5
 2345 11c8 FFF7FEFF 		bl	hardware_leds
 2346 11cc 0621     		movs	r1, #6
 2347 11ce FFF7FEFF 		bl	ledz_off
 2348 11d2 0023     		movs	r3, #0
 2349 11d4 84F89930 		strb	r3, [r4, #153]
 2350 11d8 10BD     		pop	{r4, pc}
 2351              	.L630:
 2352 11da 0520     		movs	r0, #5
 2353 11dc FFF7FEFF 		bl	hardware_leds
 2354 11e0 0321     		movs	r1, #3
 2355 11e2 FFF7FEFF 		bl	ledz_off
 2356 11e6 0520     		movs	r0, #5
 2357 11e8 FFF7FEFF 		bl	hardware_leds
 2358 11ec 0521     		movs	r1, #5
 2359 11ee FFF7FEFF 		bl	ledz_on
 2360 11f2 94F89930 		ldrb	r3, [r4, #153]	@ zero_extendqisi2
 2361 11f6 0133     		adds	r3, r3, #1
 2362 11f8 84F89930 		strb	r3, [r4, #153]
 2363 11fc 10BD     		pop	{r4, pc}
 2364              	.L628:
 2365 11fe 0520     		movs	r0, #5
 2366 1200 FFF7FEFF 		bl	hardware_leds
 2367 1204 0321     		movs	r1, #3
 2368 1206 FFF7FEFF 		bl	ledz_on
 2369 120a 94F89930 		ldrb	r3, [r4, #153]	@ zero_extendqisi2
 2370 120e 0133     		adds	r3, r3, #1
 2371 1210 84F89930 		strb	r3, [r4, #153]
 2372 1214 10BD     		pop	{r4, pc}
 2373              	.L618:
 2374 1216 2268     		ldr	r2, [r4]
 2375 1218 002A     		cmp	r2, #0
 2376 121a A9D0     		beq	.L620
 2377 121c 4B1C     		adds	r3, r1, #1
 2378 121e 107A     		ldrb	r0, [r2, #8]	@ zero_extendqisi2
 2379 1220 DBB2     		uxtb	r3, r3
 2380 1222 9842     		cmp	r0, r3
 2381 1224 2376     		strb	r3, [r4, #24]
 2382 1226 97D1     		bne	.L625
 2383 1228 E37D     		ldrb	r3, [r4, #23]	@ zero_extendqisi2
 2384 122a 33B9     		cbnz	r3, .L622
 2385 122c 0123     		movs	r3, #1
 2386 122e 2376     		strb	r3, [r4, #24]
 2387 1230 92E7     		b	.L625
 2388              	.L626:
 2389 1232 0123     		movs	r3, #1
 2390 1234 2376     		strb	r3, [r4, #24]
 2391 1236 9372     		strb	r3, [r2, #10]
 2392 1238 9AE7     		b	.L620
 2393              	.L622:
 2394 123a 2176     		strb	r1, [r4, #24]
 2395 123c 9172     		strb	r1, [r2, #10]
 2396 123e 97E7     		b	.L620
 2397              	.L661:
 2398              		.align	2
 2399              	.L660:
 2400 1240 00000000 		.word	.LANCHOR0
 2401 1244 00000000 		.word	g_tool
 2403              		.align	1
 2404              		.p2align 2,,3
 2405              		.global	naveg_is_tool_mode
 2406              		.syntax unified
 2407              		.thumb
 2408              		.thumb_func
 2409              		.fpu softvfp
 2411              	naveg_is_tool_mode:
 2412              		@ args = 0, pretend = 0, frame = 0
 2413              		@ frame_needed = 0, uses_anonymous_args = 0
 2414              		@ link register save eliminated.
 2415 1248 0146     		mov	r1, r0
 2416 124a 094B     		ldr	r3, .L673
 2417 124c 10B4     		push	{r4}
 2418 124e 03F10A04 		add	r4, r3, #10
 2419              	.L665:
 2420 1252 5A78     		ldrb	r2, [r3, #1]	@ zero_extendqisi2
 2421 1254 8A42     		cmp	r2, r1
 2422 1256 05D0     		beq	.L672
 2423              	.L663:
 2424 1258 0233     		adds	r3, r3, #2
 2425 125a A342     		cmp	r3, r4
 2426 125c F9D1     		bne	.L665
 2427 125e 0020     		movs	r0, #0
 2428 1260 10BC     		pop	{r4}
 2429 1262 7047     		bx	lr
 2430              	.L672:
 2431 1264 1878     		ldrb	r0, [r3]	@ zero_extendqisi2
 2432 1266 0128     		cmp	r0, #1
 2433 1268 F6D1     		bne	.L663
 2434 126a 10BC     		pop	{r4}
 2435 126c 7047     		bx	lr
 2436              	.L674:
 2437 126e 00BF     		.align	2
 2438              	.L673:
 2439 1270 00000000 		.word	g_tool
 2441              		.align	1
 2442              		.p2align 2,,3
 2443              		.global	naveg_print_pb_name
 2444              		.syntax unified
 2445              		.thumb
 2446              		.thumb_func
 2447              		.fpu softvfp
 2449              	naveg_print_pb_name:
 2450              		@ args = 0, pretend = 0, frame = 0
 2451              		@ frame_needed = 0, uses_anonymous_args = 0
 2452 1274 08B5     		push	{r3, lr}
 2453 1276 0021     		movs	r1, #0
 2454 1278 0448     		ldr	r0, .L677
 2455 127a FFF7FEFF 		bl	comm_webgui_set_response_cb
 2456 127e BDE80840 		pop	{r3, lr}
 2457 1282 0B21     		movs	r1, #11
 2458 1284 0248     		ldr	r0, .L677+4
 2459 1286 FFF7FEBF 		b	comm_webgui_send
 2460              	.L678:
 2461 128a 00BF     		.align	2
 2462              	.L677:
 2463 128c 00000000 		.word	screen_top_info
 2464 1290 60000000 		.word	.LC14
 2466              		.align	1
 2467              		.p2align 2,,3
 2468              		.global	naveg_set_master_volume
 2469              		.syntax unified
 2470              		.thumb
 2471              		.thumb_func
 2472              		.fpu softvfp
 2474              	naveg_set_master_volume:
 2475              		@ args = 0, pretend = 0, frame = 0
 2476              		@ frame_needed = 0, uses_anonymous_args = 0
 2477              		@ link register save eliminated.
 2478 1294 024B     		ldr	r3, .L681
 2479 1296 1B7A     		ldrb	r3, [r3, #8]	@ zero_extendqisi2
 2480 1298 03B1     		cbz	r3, .L679
 2481 129a 49E4     		b	naveg_set_master_volume.part.2
 2482              	.L679:
 2483 129c 7047     		bx	lr
 2484              	.L682:
 2485 129e 00BF     		.align	2
 2486              	.L681:
 2487 12a0 00000000 		.word	g_tool
 2489              		.align	1
 2490              		.p2align 2,,3
 2491              		.global	naveg_is_master_vol
 2492              		.syntax unified
 2493              		.thumb
 2494              		.thumb_func
 2495              		.fpu softvfp
 2497              	naveg_is_master_vol:
 2498              		@ args = 0, pretend = 0, frame = 0
 2499              		@ frame_needed = 0, uses_anonymous_args = 0
 2500              		@ link register save eliminated.
 2501 12a4 024B     		ldr	r3, .L684
 2502 12a6 187A     		ldrb	r0, [r3, #8]	@ zero_extendqisi2
 2503 12a8 0030     		adds	r0, r0, #0
 2504 12aa 18BF     		it	ne
 2505 12ac 0120     		movne	r0, #1
 2506 12ae 7047     		bx	lr
 2507              	.L685:
 2508              		.align	2
 2509              	.L684:
 2510 12b0 00000000 		.word	g_tool
 2512              		.align	1
 2513              		.p2align 2,,3
 2514              		.global	naveg_set_banks
 2515              		.syntax unified
 2516              		.thumb
 2517              		.thumb_func
 2518              		.fpu softvfp
 2520              	naveg_set_banks:
 2521              		@ args = 0, pretend = 0, frame = 0
 2522              		@ frame_needed = 0, uses_anonymous_args = 0
 2523              		@ link register save eliminated.
 2524 12b4 024B     		ldr	r3, .L691
 2525 12b6 93F89020 		ldrb	r2, [r3, #144]	@ zero_extendqisi2
 2526 12ba 02B1     		cbz	r2, .L686
 2527 12bc 5864     		str	r0, [r3, #68]
 2528              	.L686:
 2529 12be 7047     		bx	lr
 2530              	.L692:
 2531              		.align	2
 2532              	.L691:
 2533 12c0 00000000 		.word	.LANCHOR0
 2535              		.align	1
 2536              		.p2align 2,,3
 2537              		.global	naveg_get_banks
 2538              		.syntax unified
 2539              		.thumb
 2540              		.thumb_func
 2541              		.fpu softvfp
 2543              	naveg_get_banks:
 2544              		@ args = 0, pretend = 0, frame = 0
 2545              		@ frame_needed = 0, uses_anonymous_args = 0
 2546              		@ link register save eliminated.
 2547 12c4 024B     		ldr	r3, .L696
 2548 12c6 93F89000 		ldrb	r0, [r3, #144]	@ zero_extendqisi2
 2549 12ca 00B1     		cbz	r0, .L693
 2550 12cc 586C     		ldr	r0, [r3, #68]
 2551              	.L693:
 2552 12ce 7047     		bx	lr
 2553              	.L697:
 2554              		.align	2
 2555              	.L696:
 2556 12d0 00000000 		.word	.LANCHOR0
 2558              		.align	1
 2559              		.p2align 2,,3
 2560              		.global	naveg_bank_config
 2561              		.syntax unified
 2562              		.thumb
 2563              		.thumb_func
 2564              		.fpu softvfp
 2566              	naveg_bank_config:
 2567              		@ args = 0, pretend = 0, frame = 0
 2568              		@ frame_needed = 0, uses_anonymous_args = 0
 2569 12d4 2DE9F047 		push	{r4, r5, r6, r7, r8, r9, r10, lr}
 2570 12d8 4B4D     		ldr	r5, .L744
 2571 12da 95F89030 		ldrb	r3, [r5, #144]	@ zero_extendqisi2
 2572 12de 2BB1     		cbz	r3, .L698
 2573 12e0 0379     		ldrb	r3, [r0, #4]	@ zero_extendqisi2
 2574 12e2 032B     		cmp	r3, #3
 2575 12e4 02D8     		bhi	.L698
 2576 12e6 8278     		ldrb	r2, [r0, #2]	@ zero_extendqisi2
 2577 12e8 012A     		cmp	r2, #1
 2578 12ea 01D0     		beq	.L738
 2579              	.L698:
 2580 12ec BDE8F087 		pop	{r4, r5, r6, r7, r8, r9, r10, pc}
 2581              	.L738:
 2582 12f0 C278     		ldrb	r2, [r0, #3]	@ zero_extendqisi2
 2583 12f2 062A     		cmp	r2, #6
 2584 12f4 FAD8     		bhi	.L698
 2585 12f6 05F10408 		add	r8, r5, #4
 2586 12fa 0446     		mov	r4, r0
 2587 12fc 4646     		mov	r6, r8
 2588 12fe 4FF0000A 		mov	r10, #0
 2589 1302 4FF0FF09 		mov	r9, #255
 2590 1306 05F11307 		add	r7, r5, #19
 2591              	.L713:
 2592 130a 727A     		ldrb	r2, [r6, #9]	@ zero_extendqisi2
 2593 130c 83B3     		cbz	r3, .L700
 2594 130e 9342     		cmp	r3, r2
 2595 1310 0BD0     		beq	.L739
 2596              	.L701:
 2597 1312 F179     		ldrb	r1, [r6, #7]	@ zero_extendqisi2
 2598 1314 A278     		ldrb	r2, [r4, #2]	@ zero_extendqisi2
 2599 1316 9142     		cmp	r1, r2
 2600 1318 40D0     		beq	.L740
 2601              	.L702:
 2602 131a 0536     		adds	r6, r6, #5
 2603 131c BE42     		cmp	r6, r7
 2604 131e F4D1     		bne	.L713
 2605 1320 4BBB     		cbnz	r3, .L741
 2606              	.L715:
 2607 1322 BDE8F047 		pop	{r4, r5, r6, r7, r8, r9, r10, lr}
 2608 1326 FEF76BBE 		b	bank_config_footer
 2609              	.L739:
 2610 132a 307A     		ldrb	r0, [r6, #8]	@ zero_extendqisi2
 2611 132c E278     		ldrb	r2, [r4, #3]	@ zero_extendqisi2
 2612 132e 8242     		cmp	r2, r0
 2613 1330 F3D0     		beq	.L702
 2614 1332 FFF7FEFF 		bl	hardware_leds
 2615 1336 FF21     		movs	r1, #255
 2616 1338 FFF7FEFF 		bl	ledz_off
 2617 133c 334B     		ldr	r3, .L744+4
 2618 133e 307A     		ldrb	r0, [r6, #8]	@ zero_extendqisi2
 2619 1340 03F10A01 		add	r1, r3, #10
 2620              	.L705:
 2621 1344 5A78     		ldrb	r2, [r3, #1]	@ zero_extendqisi2
 2622 1346 8242     		cmp	r2, r0
 2623 1348 56D0     		beq	.L742
 2624              	.L703:
 2625 134a 0233     		adds	r3, r3, #2
 2626 134c 8B42     		cmp	r3, r1
 2627 134e F9D1     		bne	.L705
 2628 1350 0022     		movs	r2, #0
 2629 1352 1146     		mov	r1, r2
 2630 1354 FFF7FEFF 		bl	screen_footer
 2631              	.L704:
 2632 1358 0022     		movs	r2, #0
 2633 135a 86F809A0 		strb	r10, [r6, #9]
 2634 135e 86F80590 		strb	r9, [r6, #5]
 2635 1362 86F80690 		strb	r9, [r6, #6]
 2636 1366 86F80790 		strb	r9, [r6, #7]
 2637 136a 86F80890 		strb	r9, [r6, #8]
 2638 136e 2379     		ldrb	r3, [r4, #4]	@ zero_extendqisi2
 2639              	.L700:
 2640 1370 9342     		cmp	r3, r2
 2641 1372 CED1     		bne	.L701
 2642 1374 D1E7     		b	.L702
 2643              	.L741:
 2644 1376 2268     		ldr	r2, [r4]	@ unaligned
 2645 1378 03EB8303 		add	r3, r3, r3, lsl #2
 2646 137c 48F80320 		str	r2, [r8, r3]	@ unaligned
 2647 1380 2279     		ldrb	r2, [r4, #4]	@ zero_extendqisi2
 2648 1382 4344     		add	r3, r3, r8
 2649 1384 1A71     		strb	r2, [r3, #4]
 2650 1386 2379     		ldrb	r3, [r4, #4]	@ zero_extendqisi2
 2651 1388 023B     		subs	r3, r3, #2
 2652 138a 012B     		cmp	r3, #1
 2653 138c C9D8     		bhi	.L715
 2654 138e 95F89A30 		ldrb	r3, [r5, #154]	@ zero_extendqisi2
 2655 1392 002B     		cmp	r3, #0
 2656 1394 C5D1     		bne	.L715
 2657 1396 2B6C     		ldr	r3, [r5, #64]
 2658 1398 2B60     		str	r3, [r5]
 2659 139a C2E7     		b	.L715
 2660              	.L740:
 2661 139c 317A     		ldrb	r1, [r6, #8]	@ zero_extendqisi2
 2662 139e E278     		ldrb	r2, [r4, #3]	@ zero_extendqisi2
 2663 13a0 9142     		cmp	r1, r2
 2664 13a2 BAD1     		bne	.L702
 2665 13a4 86F809A0 		strb	r10, [r6, #9]
 2666 13a8 86F80590 		strb	r9, [r6, #5]
 2667 13ac 86F80690 		strb	r9, [r6, #6]
 2668 13b0 86F80790 		strb	r9, [r6, #7]
 2669 13b4 86F80890 		strb	r9, [r6, #8]
 2670 13b8 2379     		ldrb	r3, [r4, #4]	@ zero_extendqisi2
 2671 13ba 002B     		cmp	r3, #0
 2672 13bc ADD1     		bne	.L702
 2673 13be E078     		ldrb	r0, [r4, #3]	@ zero_extendqisi2
 2674 13c0 FFF7FEFF 		bl	hardware_leds
 2675 13c4 FF21     		movs	r1, #255
 2676 13c6 FFF7FEFF 		bl	ledz_off
 2677 13ca 104B     		ldr	r3, .L744+4
 2678 13cc E078     		ldrb	r0, [r4, #3]	@ zero_extendqisi2
 2679 13ce 03F10A01 		add	r1, r3, #10
 2680              	.L710:
 2681 13d2 5A78     		ldrb	r2, [r3, #1]	@ zero_extendqisi2
 2682 13d4 8242     		cmp	r2, r0
 2683 13d6 13D0     		beq	.L743
 2684              	.L708:
 2685 13d8 0233     		adds	r3, r3, #2
 2686 13da 8B42     		cmp	r3, r1
 2687 13dc F9D1     		bne	.L710
 2688 13de 0022     		movs	r2, #0
 2689 13e0 1146     		mov	r1, r2
 2690 13e2 FFF7FEFF 		bl	screen_footer
 2691 13e6 E078     		ldrb	r0, [r4, #3]	@ zero_extendqisi2
 2692              	.L709:
 2693 13e8 05EB8000 		add	r0, r5, r0, lsl #2
 2694 13ec 406A     		ldr	r0, [r0, #36]
 2695 13ee 08B1     		cbz	r0, .L737
 2696 13f0 FEF7BAFE 		bl	foot_control_add
 2697              	.L737:
 2698 13f4 2379     		ldrb	r3, [r4, #4]	@ zero_extendqisi2
 2699 13f6 90E7     		b	.L702
 2700              	.L742:
 2701 13f8 1A78     		ldrb	r2, [r3]	@ zero_extendqisi2
 2702 13fa 012A     		cmp	r2, #1
 2703 13fc A5D1     		bne	.L703
 2704 13fe ABE7     		b	.L704
 2705              	.L743:
 2706 1400 1A78     		ldrb	r2, [r3]	@ zero_extendqisi2
 2707 1402 012A     		cmp	r2, #1
 2708 1404 E8D1     		bne	.L708
 2709 1406 EFE7     		b	.L709
 2710              	.L745:
 2711              		.align	2
 2712              	.L744:
 2713 1408 00000000 		.word	.LANCHOR0
 2714 140c 00000000 		.word	g_tool
 2716              		.align	1
 2717              		.p2align 2,,3
 2718              		.global	naveg_set_pedalboards
 2719              		.syntax unified
 2720              		.thumb
 2721              		.thumb_func
 2722              		.fpu softvfp
 2724              	naveg_set_pedalboards:
 2725              		@ args = 0, pretend = 0, frame = 0
 2726              		@ frame_needed = 0, uses_anonymous_args = 0
 2727              		@ link register save eliminated.
 2728 1410 024B     		ldr	r3, .L751
 2729 1412 93F89020 		ldrb	r2, [r3, #144]	@ zero_extendqisi2
 2730 1416 02B1     		cbz	r2, .L746
 2731 1418 1864     		str	r0, [r3, #64]
 2732              	.L746:
 2733 141a 7047     		bx	lr
 2734              	.L752:
 2735              		.align	2
 2736              	.L751:
 2737 141c 00000000 		.word	.LANCHOR0
 2739              		.align	1
 2740              		.p2align 2,,3
 2741              		.global	naveg_get_pedalboards
 2742              		.syntax unified
 2743              		.thumb
 2744              		.thumb_func
 2745              		.fpu softvfp
 2747              	naveg_get_pedalboards:
 2748              		@ args = 0, pretend = 0, frame = 0
 2749              		@ frame_needed = 0, uses_anonymous_args = 0
 2750              		@ link register save eliminated.
 2751 1420 024B     		ldr	r3, .L756
 2752 1422 93F89000 		ldrb	r0, [r3, #144]	@ zero_extendqisi2
 2753 1426 00B1     		cbz	r0, .L753
 2754 1428 186C     		ldr	r0, [r3, #64]
 2755              	.L753:
 2756 142a 7047     		bx	lr
 2757              	.L757:
 2758              		.align	2
 2759              	.L756:
 2760 142c 00000000 		.word	.LANCHOR0
 2762              		.align	1
 2763              		.p2align 2,,3
 2764              		.global	naveg_enter
 2765              		.syntax unified
 2766              		.thumb
 2767              		.thumb_func
 2768              		.fpu softvfp
 2770              	naveg_enter:
 2771              		@ args = 0, pretend = 0, frame = 128
 2772              		@ frame_needed = 0, uses_anonymous_args = 0
 2773 1430 F0B5     		push	{r4, r5, r6, r7, lr}
 2774 1432 744D     		ldr	r5, .L821
 2775 1434 A1B0     		sub	sp, sp, #132
 2776 1436 95F89030 		ldrb	r3, [r5, #144]	@ zero_extendqisi2
 2777 143a 53B1     		cbz	r3, .L758
 2778 143c 724E     		ldr	r6, .L821+4
 2779 143e 0446     		mov	r4, r0
 2780 1440 3346     		mov	r3, r6
 2781 1442 06F10A01 		add	r1, r6, #10
 2782              	.L763:
 2783 1446 5A78     		ldrb	r2, [r3, #1]	@ zero_extendqisi2
 2784 1448 A242     		cmp	r2, r4
 2785 144a 04D0     		beq	.L814
 2786              	.L761:
 2787 144c 0233     		adds	r3, r3, #2
 2788 144e 9942     		cmp	r1, r3
 2789 1450 F9D1     		bne	.L763
 2790              	.L758:
 2791 1452 21B0     		add	sp, sp, #132
 2792              		@ sp needed
 2793 1454 F0BD     		pop	{r4, r5, r6, r7, pc}
 2794              	.L814:
 2795 1456 1A78     		ldrb	r2, [r3]	@ zero_extendqisi2
 2796 1458 012A     		cmp	r2, #1
 2797 145a F7D1     		bne	.L761
 2798 145c 74B9     		cbnz	r4, .L815
 2799 145e B378     		ldrb	r3, [r6, #2]	@ zero_extendqisi2
 2800 1460 F3B9     		cbnz	r3, .L813
 2801 1462 E86C     		ldr	r0, [r5, #76]
 2802 1464 4268     		ldr	r2, [r0, #4]
 2803 1466 D388     		ldrh	r3, [r2, #6]
 2804 1468 B42B     		cmp	r3, #180
 2805 146a 01D0     		beq	.L766
 2806 146c AA2B     		cmp	r3, #170
 2807 146e F0D1     		bne	.L758
 2808              	.L766:
 2809 1470 D368     		ldr	r3, [r2, #12]
 2810 1472 002B     		cmp	r3, #0
 2811 1474 EDD0     		beq	.L758
 2812 1476 0021     		movs	r1, #0
 2813 1478 9847     		blx	r3
 2814 147a EAE7     		b	.L758
 2815              	.L815:
 2816 147c 012C     		cmp	r4, #1
 2817 147e E8D1     		bne	.L758
 2818 1480 B378     		ldrb	r3, [r6, #2]	@ zero_extendqisi2
 2819 1482 8BB9     		cbnz	r3, .L816
 2820 1484 3279     		ldrb	r2, [r6, #4]	@ zero_extendqisi2
 2821 1486 92BB     		cbnz	r2, .L817
 2822 1488 B379     		ldrb	r3, [r6, #6]	@ zero_extendqisi2
 2823 148a 002B     		cmp	r3, #0
 2824 148c E1D0     		beq	.L758
 2825 148e D5E92032 		ldrd	r3, r2, [r5, #128]
 2826 1492 9A42     		cmp	r2, r3
 2827 1494 DDD0     		beq	.L758
 2828 1496 EB6C     		ldr	r3, [r5, #76]
 2829 1498 5B68     		ldr	r3, [r3, #4]
 2830 149a DB88     		ldrh	r3, [r3, #6]
 2831 149c 002B     		cmp	r3, #0
 2832 149e D8D0     		beq	.L758
 2833              	.L813:
 2834 14a0 2046     		mov	r0, r4
 2835 14a2 00F085FC 		bl	menu_enter
 2836 14a6 D4E7     		b	.L758
 2837              	.L816:
 2838 14a8 6E46     		mov	r6, sp
 2839 14aa 5849     		ldr	r1, .L821+8
 2840 14ac 3046     		mov	r0, r6
 2841 14ae FFF7FEFF 		bl	copy_command
 2842 14b2 574F     		ldr	r7, .L821+12
 2843 14b4 0546     		mov	r5, r0
 2844 14b6 97F81435 		ldrb	r3, [r7, #1300]	@ zero_extendqisi2
 2845 14ba C5F18002 		rsb	r2, r5, #128
 2846 14be 012B     		cmp	r3, #1
 2847 14c0 08BF     		it	eq
 2848 14c2 0224     		moveq	r4, #2
 2849 14c4 7119     		adds	r1, r6, r5
 2850 14c6 2046     		mov	r0, r4
 2851 14c8 0023     		movs	r3, #0
 2852 14ca 87F81445 		strb	r4, [r7, #1300]
 2853 14ce FFF7FEFF 		bl	int_to_str
 2854 14d2 0022     		movs	r2, #0
 2855 14d4 2918     		adds	r1, r5, r0
 2856 14d6 20AB     		add	r3, sp, #128
 2857 14d8 0B44     		add	r3, r3, r1
 2858 14da 3046     		mov	r0, r6
 2859 14dc 03F8802C 		strb	r2, [r3, #-128]
 2860 14e0 FFF7FEFF 		bl	comm_webgui_send
 2861 14e4 97F81405 		ldrb	r0, [r7, #1300]	@ zero_extendqisi2
 2862 14e8 FFF7FEFF 		bl	screen_tuner_input
 2863 14ec B1E7     		b	.L758
 2864              	.L817:
 2865 14ee 95F89B20 		ldrb	r2, [r5, #155]	@ zero_extendqisi2
 2866 14f2 62B9     		cbnz	r2, .L818
 2867              	.L770:
 2868 14f4 6C6C     		ldr	r4, [r5, #68]
 2869 14f6 002C     		cmp	r4, #0
 2870 14f8 ABD0     		beq	.L758
 2871 14fa 95F87C30 		ldrb	r3, [r5, #124]	@ zero_extendqisi2
 2872 14fe 7BB1     		cbz	r3, .L819
 2873 1500 012B     		cmp	r3, #1
 2874 1502 4BD0     		beq	.L820
 2875              	.L774:
 2876 1504 2146     		mov	r1, r4
 2877 1506 3846     		mov	r0, r7
 2878 1508 FFF7FEFF 		bl	screen_bp_list
 2879 150c A1E7     		b	.L758
 2880              	.L818:
 2881 150e E86C     		ldr	r0, [r5, #76]
 2882 1510 3371     		strb	r3, [r6, #4]
 2883 1512 3470     		strb	r4, [r6]
 2884 1514 7370     		strb	r3, [r6, #1]
 2885 1516 B471     		strb	r4, [r6, #6]
 2886 1518 F471     		strb	r4, [r6, #7]
 2887 151a FFF7FEFF 		bl	screen_system_menu
 2888 151e E9E7     		b	.L770
 2889              	.L819:
 2890 1520 6E46     		mov	r6, sp
 2891 1522 627A     		ldrb	r2, [r4, #9]	@ zero_extendqisi2
 2892 1524 6368     		ldr	r3, [r4, #4]
 2893 1526 3046     		mov	r0, r6
 2894 1528 3A49     		ldr	r1, .L821+16
 2895 152a 53F82270 		ldr	r7, [r3, r2, lsl #2]
 2896 152e FFF7FEFF 		bl	copy_command
 2897 1532 3A78     		ldrb	r2, [r7]	@ zero_extendqisi2
 2898 1534 0346     		mov	r3, r0
 2899 1536 002A     		cmp	r2, #0
 2900 1538 37D0     		beq	.L781
 2901              	.L773:
 2902 153a 20A9     		add	r1, sp, #128
 2903 153c 1944     		add	r1, r1, r3
 2904 153e 01F8802C 		strb	r2, [r1, #-128]
 2905 1542 0133     		adds	r3, r3, #1
 2906 1544 17F8012F 		ldrb	r2, [r7, #1]!	@ zero_extendqisi2
 2907 1548 DCB2     		uxtb	r4, r3
 2908 154a 2346     		mov	r3, r4
 2909 154c 002A     		cmp	r2, #0
 2910 154e F4D1     		bne	.L773
 2911              	.L772:
 2912 1550 0027     		movs	r7, #0
 2913 1552 20AB     		add	r3, sp, #128
 2914 1554 2344     		add	r3, r3, r4
 2915 1556 3946     		mov	r1, r7
 2916 1558 2F48     		ldr	r0, .L821+20
 2917 155a 03F8807C 		strb	r7, [r3, #-128]
 2918 155e FFF7FEFF 		bl	comm_webgui_set_response_cb
 2919 1562 2146     		mov	r1, r4
 2920 1564 3046     		mov	r0, r6
 2921 1566 FFF7FEFF 		bl	comm_webgui_send
 2922 156a FFF7FEFF 		bl	comm_webgui_wait_response
 2923 156e 2C6C     		ldr	r4, [r5, #64]
 2924 1570 002C     		cmp	r4, #0
 2925 1572 3FF46EAF 		beq	.L758
 2926 1576 0121     		movs	r1, #1
 2927 1578 6B6C     		ldr	r3, [r5, #68]
 2928 157a 6772     		strb	r7, [r4, #9]
 2929 157c 5A7A     		ldrb	r2, [r3, #9]	@ zero_extendqisi2
 2930 157e 1E68     		ldr	r6, [r3]
 2931 1580 207A     		ldrb	r0, [r4, #8]	@ zero_extendqisi2
 2932 1582 56F82270 		ldr	r7, [r6, r2, lsl #2]
 2933 1586 A072     		strb	r0, [r4, #10]
 2934 1588 9B7A     		ldrb	r3, [r3, #10]	@ zero_extendqisi2
 2935 158a 85F87C10 		strb	r1, [r5, #124]
 2936 158e 9342     		cmp	r3, r2
 2937 1590 85F89A10 		strb	r1, [r5, #154]
 2938 1594 B6D1     		bne	.L774
 2939 1596 2B7E     		ldrb	r3, [r5, #24]	@ zero_extendqisi2
 2940 1598 A372     		strb	r3, [r4, #10]
 2941 159a B3E7     		b	.L774
 2942              	.L820:
 2943 159c 2A6C     		ldr	r2, [r5, #64]
 2944 159e 537A     		ldrb	r3, [r2, #9]	@ zero_extendqisi2
 2945 15a0 2BB9     		cbnz	r3, .L775
 2946 15a2 85F87C30 		strb	r3, [r5, #124]
 2947 15a6 1D4F     		ldr	r7, .L821+24
 2948 15a8 ACE7     		b	.L774
 2949              	.L781:
 2950 15aa 0446     		mov	r4, r0
 2951 15ac D0E7     		b	.L772
 2952              	.L775:
 2953 15ae 0020     		movs	r0, #0
 2954 15b0 617A     		ldrb	r1, [r4, #9]	@ zero_extendqisi2
 2955 15b2 85F89A00 		strb	r0, [r5, #154]
 2956 15b6 A172     		strb	r1, [r4, #10]
 2957 15b8 9372     		strb	r3, [r2, #10]
 2958 15ba A07A     		ldrb	r0, [r4, #10]	@ zero_extendqisi2
 2959 15bc 5268     		ldr	r2, [r2, #4]
 2960 15be 0138     		subs	r0, r0, #1
 2961 15c0 52F82310 		ldr	r1, [r2, r3, lsl #2]
 2962 15c4 C0B2     		uxtb	r0, r0
 2963 15c6 FFF79DF9 		bl	send_load_pedalboard
 2964 15ca 6A6C     		ldr	r2, [r5, #68]
 2965 15cc 95F84830 		ldrb	r3, [r5, #72]	@ zero_extendqisi2
 2966 15d0 927A     		ldrb	r2, [r2, #10]	@ zero_extendqisi2
 2967 15d2 9A42     		cmp	r2, r3
 2968 15d4 05D0     		beq	.L776
 2969 15d6 2868     		ldr	r0, [r5]
 2970 15d8 08B1     		cbz	r0, .L777
 2971 15da FFF7FEFF 		bl	data_free_pedalboards_list
 2972              	.L777:
 2973 15de 0023     		movs	r3, #0
 2974 15e0 2B60     		str	r3, [r5]
 2975              	.L776:
 2976 15e2 D5E91043 		ldrd	r4, r3, [r5, #64]
 2977 15e6 9E7A     		ldrb	r6, [r3, #10]	@ zero_extendqisi2
 2978 15e8 587A     		ldrb	r0, [r3, #9]	@ zero_extendqisi2
 2979 15ea 1968     		ldr	r1, [r3]
 2980 15ec A27A     		ldrb	r2, [r4, #10]	@ zero_extendqisi2
 2981 15ee 2B68     		ldr	r3, [r5]
 2982 15f0 85F84860 		strb	r6, [r5, #72]
 2983 15f4 51F82070 		ldr	r7, [r1, r0, lsl #2]
 2984 15f8 2A76     		strb	r2, [r5, #24]
 2985 15fa 002B     		cmp	r3, #0
 2986 15fc 82D0     		beq	.L774
 2987 15fe FEF7FFFC 		bl	bank_config_footer
 2988 1602 7FE7     		b	.L774
 2989              	.L822:
 2990              		.align	2
 2991              	.L821:
 2992 1604 00000000 		.word	.LANCHOR0
 2993 1608 00000000 		.word	g_tool
 2994 160c 74000000 		.word	.LC16
 2995 1610 00000000 		.word	.LANCHOR1
 2996 1614 84000000 		.word	.LC17
 2997 1618 00000000 		.word	parse_pedalboards_list
 2998 161c 6C000000 		.word	.LC15
 3000              		.align	1
 3001              		.p2align 2,,3
 3002              		.global	naveg_master_volume
 3003              		.syntax unified
 3004              		.thumb
 3005              		.thumb_func
 3006              		.fpu softvfp
 3008              	naveg_master_volume:
 3009              		@ args = 0, pretend = 0, frame = 0
 3010              		@ frame_needed = 0, uses_anonymous_args = 0
 3011 1620 F8B5     		push	{r3, r4, r5, r6, r7, lr}
 3012 1622 1E4D     		ldr	r5, .L836
 3013 1624 2E78     		ldrb	r6, [r5]	@ zero_extendqisi2
 3014 1626 5EBB     		cbnz	r6, .L832
 3015 1628 1D4F     		ldr	r7, .L836+4
 3016 162a 0446     		mov	r4, r0
 3017 162c 0021     		movs	r1, #0
 3018 162e B86D     		ldr	r0, [r7, #88]	@ float
 3019 1630 FFF7FEFF 		bl	__aeabi_fcmpeq
 3020 1634 E8B9     		cbnz	r0, .L833
 3021 1636 012C     		cmp	r4, #1
 3022 1638 03D1     		bne	.L827
 3023              	.L835:
 3024 163a 2B7A     		ldrb	r3, [r5, #8]	@ zero_extendqisi2
 3025 163c 23BB     		cbnz	r3, .L834
 3026 163e 2C72     		strb	r4, [r5, #8]
 3027 1640 6C72     		strb	r4, [r5, #9]
 3028              	.L827:
 3029 1642 0321     		movs	r1, #3
 3030 1644 0020     		movs	r0, #0
 3031 1646 FFF7FEFF 		bl	system_master_volume_cb
 3032 164a 1649     		ldr	r1, .L836+8
 3033 164c B865     		str	r0, [r7, #88]	@ float
 3034              	.L831:
 3035 164e FFF7FEFF 		bl	__aeabi_fadd
 3036 1652 1549     		ldr	r1, .L836+12
 3037 1654 FFF7FEFF 		bl	__aeabi_fmul
 3038 1658 1249     		ldr	r1, .L836+8
 3039 165a FFF7FEFF 		bl	__aeabi_fdiv
 3040 165e 0021     		movs	r1, #0
 3041 1660 FFF7FEFF 		bl	__aeabi_fadd
 3042 1664 FFF7FEFF 		bl	__aeabi_f2iz
 3043 1668 BDE8F840 		pop	{r3, r4, r5, r6, r7, lr}
 3044 166c 40B2     		sxtb	r0, r0
 3045 166e FFF7FEBF 		b	screen_master_vol
 3046              	.L833:
 3047 1672 3146     		mov	r1, r6
 3048 1674 3046     		mov	r0, r6
 3049 1676 FFF7FEFF 		bl	system_save_gains_cb
 3050 167a 012C     		cmp	r4, #1
 3051 167c DDD0     		beq	.L835
 3052 167e E0E7     		b	.L827
 3053              	.L832:
 3054 1680 BDE8F840 		pop	{r3, r4, r5, r6, r7, lr}
 3055 1684 FFF7FEBF 		b	naveg_enter
 3056              	.L834:
 3057 1688 0023     		movs	r3, #0
 3058 168a 1946     		mov	r1, r3
 3059 168c 1846     		mov	r0, r3
 3060 168e 2B72     		strb	r3, [r5, #8]
 3061 1690 FFF7FEFF 		bl	system_save_gains_cb
 3062 1694 B86D     		ldr	r0, [r7, #88]	@ float
 3063 1696 0349     		ldr	r1, .L836+8
 3064 1698 D9E7     		b	.L831
 3065              	.L837:
 3066 169a 00BF     		.align	2
 3067              	.L836:
 3068 169c 00000000 		.word	g_tool
 3069 16a0 00000000 		.word	.LANCHOR0
 3070 16a4 00007042 		.word	1114636288
 3071 16a8 0000C842 		.word	1120403456
 3073              		.align	1
 3074              		.p2align 2,,3
 3075              		.syntax unified
 3076              		.thumb
 3077              		.thumb_func
 3078              		.fpu softvfp
 3080              	naveg_remove_control.part.5:
 3081              		@ args = 0, pretend = 0, frame = 16
 3082              		@ frame_needed = 0, uses_anonymous_args = 0
 3083 16ac 2DE9F04F 		push	{r4, r5, r6, r7, r8, r9, r10, fp, lr}
 3084 16b0 85B0     		sub	sp, sp, #20
 3085 16b2 0DF10F02 		add	r2, sp, #15
 3086 16b6 0646     		mov	r6, r0
 3087 16b8 0F46     		mov	r7, r1
 3088 16ba FEF72DFD 		bl	search_encoder
 3089 16be 0028     		cmp	r0, #0
 3090 16c0 00F01181 		beq	.L839
 3091 16c4 FFF7FEFF 		bl	data_free_control
 3092 16c8 0021     		movs	r1, #0
 3093 16ca 9DF80F00 		ldrb	r0, [sp, #15]	@ zero_extendqisi2
 3094 16ce A84A     		ldr	r2, .L975
 3095 16d0 A84B     		ldr	r3, .L975+4
 3096 16d2 02EB8002 		add	r2, r2, r0, lsl #2
 3097 16d6 D161     		str	r1, [r2, #28]
 3098 16d8 03F10A05 		add	r5, r3, #10
 3099              	.L842:
 3100 16dc 5A78     		ldrb	r2, [r3, #1]	@ zero_extendqisi2
 3101 16de 8242     		cmp	r2, r0
 3102 16e0 00F0B480 		beq	.L959
 3103              	.L840:
 3104 16e4 0233     		adds	r3, r3, #2
 3105 16e6 AB42     		cmp	r3, r5
 3106 16e8 F8D1     		bne	.L842
 3107 16ea 0021     		movs	r1, #0
 3108 16ec FFF7FEFF 		bl	screen_encoder
 3109              	.L841:
 3110 16f0 A149     		ldr	r1, .L975+8
 3111 16f2 3846     		mov	r0, r7
 3112 16f4 0024     		movs	r4, #0
 3113 16f6 FFF7FEFF 		bl	strcmp
 3114 16fa A246     		mov	r10, r4
 3115 16fc 8146     		mov	r9, r0
 3116 16fe DFF890B2 		ldr	fp, .L975+32
 3117 1702 06E0     		b	.L868
 3118              	.L962:
 3119 1704 92F91010 		ldrsb	r1, [r2, #16]
 3120 1708 8E42     		cmp	r6, r1
 3121 170a 0BD0     		beq	.L859
 3122              	.L888:
 3123 170c 0134     		adds	r4, r4, #1
 3124 170e 072C     		cmp	r4, #7
 3125 1710 43D0     		beq	.L960
 3126              	.L868:
 3127 1712 5BF8042F 		ldr	r2, [fp, #4]!
 3128 1716 5FFA84F8 		uxtb	r8, r4
 3129 171a 002A     		cmp	r2, #0
 3130 171c 00F09F80 		beq	.L961
 3131              	.L852:
 3132 1720 711C     		adds	r1, r6, #1
 3133 1722 EFD1     		bne	.L962
 3134              	.L859:
 3135 1724 B9F1000F 		cmp	r9, #0
 3136 1728 07D0     		beq	.L861
 3137 172a 9168     		ldr	r1, [r2, #8]
 3138 172c 3846     		mov	r0, r7
 3139 172e 0192     		str	r2, [sp, #4]
 3140 1730 FFF7FEFF 		bl	strcmp
 3141 1734 019A     		ldr	r2, [sp, #4]
 3142 1736 0028     		cmp	r0, #0
 3143 1738 E8D1     		bne	.L888
 3144              	.L861:
 3145 173a 1046     		mov	r0, r2
 3146 173c FFF7FEFF 		bl	data_free_control
 3147 1740 8E4B     		ldr	r3, .L975+12
 3148 1742 04EB4401 		add	r1, r4, r4, lsl #1
 3149 1746 8E4A     		ldr	r2, .L975+16
 3150 1748 03EB8101 		add	r1, r3, r1, lsl #2
 3151 174c CBF800A0 		str	r10, [fp]
 3152 1750 81F808A0 		strb	r10, [r1, #8]
 3153 1754 02F10F00 		add	r0, r2, #15
 3154              	.L863:
 3155 1758 117A     		ldrb	r1, [r2, #8]	@ zero_extendqisi2
 3156 175a 4145     		cmp	r1, r8
 3157 175c 7BD0     		beq	.L963
 3158              	.L862:
 3159 175e 0532     		adds	r2, r2, #5
 3160 1760 8242     		cmp	r2, r0
 3161 1762 F9D1     		bne	.L863
 3162 1764 4046     		mov	r0, r8
 3163 1766 FFF7FEFF 		bl	hardware_leds
 3164 176a FF21     		movs	r1, #255
 3165 176c FFF7FEFF 		bl	ledz_off
 3166 1770 B8F1010F 		cmp	r8, #1
 3167 1774 94BF     		ite	ls
 3168 1776 0021     		movls	r1, #0
 3169 1778 0121     		movhi	r1, #1
 3170 177a 7E4A     		ldr	r2, .L975+4
 3171              	.L866:
 3172 177c 5078     		ldrb	r0, [r2, #1]	@ zero_extendqisi2
 3173 177e 8842     		cmp	r0, r1
 3174 1780 00F0AC80 		beq	.L964
 3175              	.L865:
 3176 1784 0232     		adds	r2, r2, #2
 3177 1786 9542     		cmp	r5, r2
 3178 1788 F8D1     		bne	.L866
 3179              	.L950:
 3180 178a 0022     		movs	r2, #0
 3181 178c 4046     		mov	r0, r8
 3182 178e 1146     		mov	r1, r2
 3183 1790 0134     		adds	r4, r4, #1
 3184 1792 FFF7FEFF 		bl	screen_footer
 3185 1796 072C     		cmp	r4, #7
 3186 1798 BBD1     		bne	.L868
 3187              	.L960:
 3188 179a 7749     		ldr	r1, .L975+8
 3189 179c 3846     		mov	r0, r7
 3190 179e 0024     		movs	r4, #0
 3191 17a0 FFF7FEFF 		bl	strcmp
 3192 17a4 A146     		mov	r9, r4
 3193 17a6 8046     		mov	r8, r0
 3194 17a8 DFF8E8B1 		ldr	fp, .L975+36
 3195 17ac 07E0     		b	.L879
 3196              	.L967:
 3197 17ae 9AF91030 		ldrsb	r3, [r10, #16]
 3198 17b2 9E42     		cmp	r6, r3
 3199 17b4 0AD0     		beq	.L873
 3200              	.L889:
 3201 17b6 0134     		adds	r4, r4, #1
 3202 17b8 E4B2     		uxtb	r4, r4
 3203 17ba 082C     		cmp	r4, #8
 3204 17bc 28D0     		beq	.L965
 3205              	.L879:
 3206 17be 5BF804AF 		ldr	r10, [fp, #4]!
 3207 17c2 BAF1000F 		cmp	r10, #0
 3208 17c6 71D0     		beq	.L966
 3209              	.L869:
 3210 17c8 731C     		adds	r3, r6, #1
 3211 17ca F0D1     		bne	.L967
 3212              	.L873:
 3213 17cc B8F1000F 		cmp	r8, #0
 3214 17d0 06D0     		beq	.L875
 3215 17d2 DAF80810 		ldr	r1, [r10, #8]
 3216 17d6 3846     		mov	r0, r7
 3217 17d8 FFF7FEFF 		bl	strcmp
 3218 17dc 0028     		cmp	r0, #0
 3219 17de EAD1     		bne	.L889
 3220              	.L875:
 3221 17e0 5046     		mov	r0, r10
 3222 17e2 FFF7FEFF 		bl	data_free_control
 3223 17e6 032C     		cmp	r4, #3
 3224 17e8 94BF     		ite	ls
 3225 17ea 0021     		movls	r1, #0
 3226 17ec 0121     		movhi	r1, #1
 3227 17ee 614B     		ldr	r3, .L975+4
 3228 17f0 CBF80090 		str	r9, [fp]
 3229              	.L877:
 3230 17f4 5A78     		ldrb	r2, [r3, #1]	@ zero_extendqisi2
 3231 17f6 8A42     		cmp	r2, r1
 3232 17f8 54D0     		beq	.L968
 3233              	.L876:
 3234 17fa 0233     		adds	r3, r3, #2
 3235 17fc 9D42     		cmp	r5, r3
 3236 17fe F9D1     		bne	.L877
 3237              	.L952:
 3238 1800 2046     		mov	r0, r4
 3239 1802 0134     		adds	r4, r4, #1
 3240 1804 0021     		movs	r1, #0
 3241 1806 E4B2     		uxtb	r4, r4
 3242 1808 FFF7FEFF 		bl	screen_pot
 3243 180c 082C     		cmp	r4, #8
 3244 180e D6D1     		bne	.L879
 3245              	.L965:
 3246 1810 584C     		ldr	r4, .L975+4
 3247 1812 2346     		mov	r3, r4
 3248              	.L882:
 3249 1814 5A78     		ldrb	r2, [r3, #1]	@ zero_extendqisi2
 3250 1816 12B9     		cbnz	r2, .L880
 3251 1818 1A78     		ldrb	r2, [r3]	@ zero_extendqisi2
 3252 181a 012A     		cmp	r2, #1
 3253 181c 0AD0     		beq	.L886
 3254              	.L880:
 3255 181e 0233     		adds	r3, r3, #2
 3256 1820 9D42     		cmp	r5, r3
 3257 1822 F7D1     		bne	.L882
 3258 1824 0021     		movs	r1, #0
 3259 1826 5748     		ldr	r0, .L975+20
 3260 1828 FFF7FEFF 		bl	comm_webgui_set_response_cb
 3261 182c 0B21     		movs	r1, #11
 3262 182e 5648     		ldr	r0, .L975+24
 3263 1830 FFF7FEFF 		bl	comm_webgui_send
 3264              	.L886:
 3265 1834 6378     		ldrb	r3, [r4, #1]	@ zero_extendqisi2
 3266 1836 012B     		cmp	r3, #1
 3267 1838 4AD0     		beq	.L969
 3268              	.L884:
 3269 183a 0234     		adds	r4, r4, #2
 3270 183c A542     		cmp	r5, r4
 3271 183e F9D1     		bne	.L886
 3272 1840 0020     		movs	r0, #0
 3273 1842 FFF7FEFF 		bl	naveg_master_volume
 3274 1846 05B0     		add	sp, sp, #20
 3275              		@ sp needed
 3276 1848 BDE8F08F 		pop	{r4, r5, r6, r7, r8, r9, r10, fp, pc}
 3277              	.L959:
 3278 184c 1A78     		ldrb	r2, [r3]	@ zero_extendqisi2
 3279 184e 012A     		cmp	r2, #1
 3280 1850 7FF448AF 		bne	.L840
 3281 1854 4CE7     		b	.L841
 3282              	.L963:
 3283 1856 517A     		ldrb	r1, [r2, #9]	@ zero_extendqisi2
 3284 1858 0029     		cmp	r1, #0
 3285 185a 80D0     		beq	.L862
 3286 185c 56E7     		b	.L888
 3287              	.L961:
 3288 185e 4849     		ldr	r1, .L975+16
 3289 1860 01F10F0C 		add	ip, r1, #15
 3290              	.L854:
 3291 1864 087A     		ldrb	r0, [r1, #8]	@ zero_extendqisi2
 3292 1866 4045     		cmp	r0, r8
 3293 1868 18D0     		beq	.L970
 3294              	.L853:
 3295 186a 0531     		adds	r1, r1, #5
 3296 186c 8C45     		cmp	ip, r1
 3297 186e F9D1     		bne	.L854
 3298 1870 B8F1010F 		cmp	r8, #1
 3299 1874 94BF     		ite	ls
 3300 1876 4FF0000C 		movls	ip, #0
 3301 187a 4FF0010C 		movhi	ip, #1
 3302 187e 3D49     		ldr	r1, .L975+4
 3303 1880 4878     		ldrb	r0, [r1, #1]	@ zero_extendqisi2
 3304 1882 6045     		cmp	r0, ip
 3305 1884 06D0     		beq	.L971
 3306              	.L856:
 3307 1886 0231     		adds	r1, r1, #2
 3308 1888 8D42     		cmp	r5, r1
 3309 188a 3FF47EAF 		beq	.L950
 3310 188e 4878     		ldrb	r0, [r1, #1]	@ zero_extendqisi2
 3311 1890 6045     		cmp	r0, ip
 3312 1892 F8D1     		bne	.L856
 3313              	.L971:
 3314 1894 0878     		ldrb	r0, [r1]	@ zero_extendqisi2
 3315 1896 0128     		cmp	r0, #1
 3316 1898 F5D1     		bne	.L856
 3317 189a 41E7     		b	.L852
 3318              	.L970:
 3319 189c 487A     		ldrb	r0, [r1, #9]	@ zero_extendqisi2
 3320 189e 0028     		cmp	r0, #0
 3321 18a0 E3D0     		beq	.L853
 3322 18a2 3DE7     		b	.L852
 3323              	.L968:
 3324 18a4 1A78     		ldrb	r2, [r3]	@ zero_extendqisi2
 3325 18a6 012A     		cmp	r2, #1
 3326 18a8 A7D1     		bne	.L876
 3327 18aa 84E7     		b	.L889
 3328              	.L966:
 3329 18ac 032C     		cmp	r4, #3
 3330 18ae 94BF     		ite	ls
 3331 18b0 0021     		movls	r1, #0
 3332 18b2 0121     		movhi	r1, #1
 3333 18b4 2F4B     		ldr	r3, .L975+4
 3334 18b6 5A78     		ldrb	r2, [r3, #1]	@ zero_extendqisi2
 3335 18b8 8A42     		cmp	r2, r1
 3336 18ba 05D0     		beq	.L972
 3337              	.L870:
 3338 18bc 0233     		adds	r3, r3, #2
 3339 18be 9D42     		cmp	r5, r3
 3340 18c0 9ED0     		beq	.L952
 3341 18c2 5A78     		ldrb	r2, [r3, #1]	@ zero_extendqisi2
 3342 18c4 8A42     		cmp	r2, r1
 3343 18c6 F9D1     		bne	.L870
 3344              	.L972:
 3345 18c8 1A78     		ldrb	r2, [r3]	@ zero_extendqisi2
 3346 18ca 012A     		cmp	r2, #1
 3347 18cc F6D1     		bne	.L870
 3348 18ce 7BE7     		b	.L869
 3349              	.L969:
 3350 18d0 2378     		ldrb	r3, [r4]	@ zero_extendqisi2
 3351 18d2 012B     		cmp	r3, #1
 3352 18d4 B1D1     		bne	.L884
 3353 18d6 05B0     		add	sp, sp, #20
 3354              		@ sp needed
 3355 18d8 BDE8F08F 		pop	{r4, r5, r6, r7, r8, r9, r10, fp, pc}
 3356              	.L964:
 3357 18dc 1078     		ldrb	r0, [r2]	@ zero_extendqisi2
 3358 18de 0128     		cmp	r0, #1
 3359 18e0 7FF450AF 		bne	.L865
 3360 18e4 12E7     		b	.L888
 3361              	.L839:
 3362 18e6 8246     		mov	r10, r0
 3363 18e8 2349     		ldr	r1, .L975+8
 3364 18ea 3846     		mov	r0, r7
 3365 18ec FFF7FEFF 		bl	strcmp
 3366 18f0 D146     		mov	r9, r10
 3367 18f2 8046     		mov	r8, r0
 3368 18f4 1E4C     		ldr	r4, .L975
 3369 18f6 5046     		mov	r0, r10
 3370 18f8 244D     		ldr	r5, .L975+28
 3371 18fa 8DF80FA0 		strb	r10, [sp, #15]
 3372 18fe 0CE0     		b	.L851
 3373              	.L973:
 3374 1900 9AF91030 		ldrsb	r3, [r10, #16]
 3375 1904 9E42     		cmp	r6, r3
 3376 1906 0ED0     		beq	.L844
 3377              	.L845:
 3378 1908 9DF80F00 		ldrb	r0, [sp, #15]	@ zero_extendqisi2
 3379              	.L848:
 3380 190c 0130     		adds	r0, r0, #1
 3381 190e C0B2     		uxtb	r0, r0
 3382 1910 0128     		cmp	r0, #1
 3383 1912 8DF80F00 		strb	r0, [sp, #15]
 3384 1916 3FF6EBAE 		bhi	.L841
 3385              	.L851:
 3386 191a 04EB8000 		add	r0, r4, r0, lsl #2
 3387 191e D0F81CA0 		ldr	r10, [r0, #28]
 3388 1922 701C     		adds	r0, r6, #1
 3389 1924 ECD1     		bne	.L973
 3390              	.L844:
 3391 1926 B8F1000F 		cmp	r8, #0
 3392 192a 06D0     		beq	.L846
 3393 192c 3946     		mov	r1, r7
 3394 192e DAF80800 		ldr	r0, [r10, #8]
 3395 1932 FFF7FEFF 		bl	strcmp
 3396 1936 0028     		cmp	r0, #0
 3397 1938 E6D1     		bne	.L845
 3398              	.L846:
 3399 193a 5046     		mov	r0, r10
 3400 193c FFF7FEFF 		bl	data_free_control
 3401 1940 9DF80F00 		ldrb	r0, [sp, #15]	@ zero_extendqisi2
 3402 1944 0B4B     		ldr	r3, .L975+4
 3403 1946 04EB8002 		add	r2, r4, r0, lsl #2
 3404 194a C2F81C90 		str	r9, [r2, #28]
 3405              	.L849:
 3406 194e 5A78     		ldrb	r2, [r3, #1]	@ zero_extendqisi2
 3407 1950 8242     		cmp	r2, r0
 3408 1952 08D0     		beq	.L974
 3409              	.L847:
 3410 1954 0233     		adds	r3, r3, #2
 3411 1956 AB42     		cmp	r3, r5
 3412 1958 F9D1     		bne	.L849
 3413 195a 0021     		movs	r1, #0
 3414 195c FFF7FEFF 		bl	screen_encoder
 3415 1960 9DF80F00 		ldrb	r0, [sp, #15]	@ zero_extendqisi2
 3416 1964 D2E7     		b	.L848
 3417              	.L974:
 3418 1966 1A78     		ldrb	r2, [r3]	@ zero_extendqisi2
 3419 1968 012A     		cmp	r2, #1
 3420 196a F3D1     		bne	.L847
 3421 196c CEE7     		b	.L848
 3422              	.L976:
 3423 196e 00BF     		.align	2
 3424              	.L975:
 3425 1970 00000000 		.word	.LANCHOR0
 3426 1974 00000000 		.word	g_tool
 3427 1978 94000000 		.word	.LC18
 3428 197c 00000000 		.word	g_tap_tempo
 3429 1980 04000000 		.word	.LANCHOR0+4
 3430 1984 00000000 		.word	screen_top_info
 3431 1988 60000000 		.word	.LC14
 3432 198c 0A000000 		.word	g_tool+10
 3433 1990 20000000 		.word	.LANCHOR0+32
 3434 1994 58000000 		.word	.LANCHOR0+88
 3436              		.align	1
 3437              		.p2align 2,,3
 3438              		.global	naveg_remove_control
 3439              		.syntax unified
 3440              		.thumb
 3441              		.thumb_func
 3442              		.fpu softvfp
 3444              	naveg_remove_control:
 3445              		@ args = 0, pretend = 0, frame = 0
 3446              		@ frame_needed = 0, uses_anonymous_args = 0
 3447              		@ link register save eliminated.
 3448 1998 024B     		ldr	r3, .L980
 3449 199a 93F89030 		ldrb	r3, [r3, #144]	@ zero_extendqisi2
 3450 199e 03B9     		cbnz	r3, .L979
 3451 19a0 7047     		bx	lr
 3452              	.L979:
 3453 19a2 83E6     		b	naveg_remove_control.part.5
 3454              	.L981:
 3455              		.align	2
 3456              	.L980:
 3457 19a4 00000000 		.word	.LANCHOR0
 3459              		.global	__aeabi_i2d
 3460              		.global	__aeabi_ddiv
 3461              		.global	__aeabi_d2iz
 3462              		.align	1
 3463              		.p2align 2,,3
 3464              		.global	naveg_add_control
 3465              		.syntax unified
 3466              		.thumb
 3467              		.thumb_func
 3468              		.fpu softvfp
 3470              	naveg_add_control:
 3471              		@ args = 0, pretend = 0, frame = 0
 3472              		@ frame_needed = 0, uses_anonymous_args = 0
 3473 19a8 2DE9F84F 		push	{r3, r4, r5, r6, r7, r8, r9, r10, fp, lr}
 3474 19ac 964C     		ldr	r4, .L1053
 3475 19ae 94F89030 		ldrb	r3, [r4, #144]	@ zero_extendqisi2
 3476 19b2 BBB1     		cbz	r3, .L982
 3477 19b4 B0B1     		cbz	r0, .L982
 3478 19b6 8246     		mov	r10, r0
 3479 19b8 8168     		ldr	r1, [r0, #8]
 3480 19ba 90F91000 		ldrsb	r0, [r0, #16]
 3481 19be FFF775FE 		bl	naveg_remove_control.part.5
 3482 19c2 9AF80230 		ldrb	r3, [r10, #2]	@ zero_extendqisi2
 3483 19c6 022B     		cmp	r3, #2
 3484 19c8 00F08280 		beq	.L985
 3485 19cc 032B     		cmp	r3, #3
 3486 19ce 0BD0     		beq	.L986
 3487 19d0 012B     		cmp	r3, #1
 3488 19d2 07D1     		bne	.L982
 3489 19d4 5046     		mov	r0, r10
 3490 19d6 BDE8F84F 		pop	{r3, r4, r5, r6, r7, r8, r9, r10, fp, lr}
 3491 19da FEF7C5BB 		b	foot_control_add
 3492              	.L1050:
 3493 19de 1A78     		ldrb	r2, [r3]	@ zero_extendqisi2
 3494 19e0 012A     		cmp	r2, #1
 3495 19e2 6CD1     		bne	.L1011
 3496              	.L982:
 3497 19e4 BDE8F88F 		pop	{r3, r4, r5, r6, r7, r8, r9, r10, fp, pc}
 3498              	.L986:
 3499 19e8 9AF803B0 		ldrb	fp, [r10, #3]	@ zero_extendqisi2
 3500 19ec 4FEA8B05 		lsl	r5, fp, #2
 3501 19f0 6319     		adds	r3, r4, r5
 3502 19f2 D86D     		ldr	r0, [r3, #92]
 3503 19f4 08B1     		cbz	r0, .L1001
 3504 19f6 FFF7FEFF 		bl	data_free_control
 3505              	.L1001:
 3506 19fa 2C44     		add	r4, r4, r5
 3507 19fc C4F85CA0 		str	r10, [r4, #92]
 3508 1a00 9AF81230 		ldrb	r3, [r10, #18]	@ zero_extendqisi2
 3509 1a04 002B     		cmp	r3, #0
 3510 1a06 00F0DA80 		beq	.L1003
 3511 1a0a 402B     		cmp	r3, #64
 3512 1a0c 4CD1     		bne	.L1002
 3513 1a0e DAF81850 		ldr	r5, [r10, #24]	@ float
 3514 1a12 0021     		movs	r1, #0
 3515 1a14 2846     		mov	r0, r5
 3516 1a16 FFF7FEFF 		bl	__aeabi_fcmpeq
 3517 1a1a 20B1     		cbz	r0, .L1005
 3518 1a1c 4FF40003 		mov	r3, #8388608
 3519 1a20 1D46     		mov	r5, r3
 3520 1a22 CAF81830 		str	r3, [r10, #24]	@ float
 3521              	.L1005:
 3522 1a26 0021     		movs	r1, #0
 3523 1a28 DAF81C00 		ldr	r0, [r10, #28]	@ float
 3524 1a2c FFF7FEFF 		bl	__aeabi_fcmpeq
 3525 1a30 18B1     		cbz	r0, .L1007
 3526 1a32 4FF40003 		mov	r3, #8388608
 3527 1a36 CAF81C30 		str	r3, [r10, #28]	@ float
 3528              	.L1007:
 3529 1a3a DAF81440 		ldr	r4, [r10, #20]	@ float
 3530 1a3e 0021     		movs	r1, #0
 3531 1a40 2046     		mov	r0, r4
 3532 1a42 FFF7FEFF 		bl	__aeabi_fcmpeq
 3533 1a46 20B1     		cbz	r0, .L1009
 3534 1a48 4FF40003 		mov	r3, #8388608
 3535 1a4c 1C46     		mov	r4, r3
 3536 1a4e CAF81430 		str	r3, [r10, #20]	@ float
 3537              	.L1009:
 3538 1a52 9AF92100 		ldrsb	r0, [r10, #33]
 3539 1a56 0138     		subs	r0, r0, #1
 3540 1a58 FFF7FEFF 		bl	__aeabi_i2d
 3541 1a5c 0646     		mov	r6, r0
 3542 1a5e 0F46     		mov	r7, r1
 3543 1a60 2046     		mov	r0, r4
 3544 1a62 2946     		mov	r1, r5
 3545 1a64 FFF7FEFF 		bl	__aeabi_fdiv
 3546 1a68 FFF7FEFF 		bl	__aeabi_f2d
 3547 1a6c FFF7FEFF 		bl	log
 3548 1a70 8046     		mov	r8, r0
 3549 1a72 8946     		mov	r9, r1
 3550 1a74 DAF81C00 		ldr	r0, [r10, #28]	@ float
 3551 1a78 DAF81810 		ldr	r1, [r10, #24]	@ float
 3552 1a7c FFF7FEFF 		bl	__aeabi_fdiv
 3553 1a80 FFF7FEFF 		bl	__aeabi_f2d
 3554 1a84 FFF7FEFF 		bl	log
 3555 1a88 0446     		mov	r4, r0
 3556 1a8a 0D46     		mov	r5, r1
 3557 1a8c 4246     		mov	r2, r8
 3558 1a8e 4B46     		mov	r3, r9
 3559 1a90 3046     		mov	r0, r6
 3560 1a92 3946     		mov	r1, r7
 3561 1a94 FFF7FEFF 		bl	__aeabi_dmul
 3562 1a98 2246     		mov	r2, r4
 3563 1a9a 2B46     		mov	r3, r5
 3564 1a9c FFF7FEFF 		bl	__aeabi_ddiv
 3565 1aa0 FFF7FEFF 		bl	__aeabi_d2iz
 3566 1aa4 8AF82000 		strb	r0, [r10, #32]
 3567              	.L1002:
 3568 1aa8 BBF1030F 		cmp	fp, #3
 3569 1aac 94BF     		ite	ls
 3570 1aae 0021     		movls	r1, #0
 3571 1ab0 0121     		movhi	r1, #1
 3572 1ab2 564B     		ldr	r3, .L1053+4
 3573 1ab4 03F10A00 		add	r0, r3, #10
 3574              	.L1012:
 3575 1ab8 5A78     		ldrb	r2, [r3, #1]	@ zero_extendqisi2
 3576 1aba 8A42     		cmp	r2, r1
 3577 1abc 8FD0     		beq	.L1050
 3578              	.L1011:
 3579 1abe 0233     		adds	r3, r3, #2
 3580 1ac0 8342     		cmp	r3, r0
 3581 1ac2 F9D1     		bne	.L1012
 3582 1ac4 5146     		mov	r1, r10
 3583 1ac6 5846     		mov	r0, fp
 3584 1ac8 BDE8F84F 		pop	{r3, r4, r5, r6, r7, r8, r9, r10, fp, lr}
 3585 1acc FFF7FEBF 		b	screen_pot
 3586              	.L985:
 3587 1ad0 9AF80350 		ldrb	r5, [r10, #3]	@ zero_extendqisi2
 3588 1ad4 AE00     		lsls	r6, r5, #2
 3589 1ad6 A319     		adds	r3, r4, r6
 3590 1ad8 D869     		ldr	r0, [r3, #28]
 3591 1ada 08B1     		cbz	r0, .L988
 3592 1adc FFF7FEFF 		bl	data_free_control
 3593              	.L988:
 3594 1ae0 9AF81230 		ldrb	r3, [r10, #18]	@ zero_extendqisi2
 3595 1ae4 3444     		add	r4, r4, r6
 3596 1ae6 082B     		cmp	r3, #8
 3597 1ae8 C4F81CA0 		str	r10, [r4, #28]
 3598 1aec 3DD0     		beq	.L990
 3599 1aee 802B     		cmp	r3, #128
 3600 1af0 10D0     		beq	.L991
 3601 1af2 042B     		cmp	r3, #4
 3602 1af4 39D0     		beq	.L990
 3603              	.L989:
 3604 1af6 454B     		ldr	r3, .L1053+4
 3605 1af8 03F10A01 		add	r1, r3, #10
 3606              	.L999:
 3607 1afc 5A78     		ldrb	r2, [r3, #1]	@ zero_extendqisi2
 3608 1afe AA42     		cmp	r2, r5
 3609 1b00 2FD0     		beq	.L1051
 3610              	.L998:
 3611 1b02 0233     		adds	r3, r3, #2
 3612 1b04 8B42     		cmp	r3, r1
 3613 1b06 F9D1     		bne	.L999
 3614 1b08 5146     		mov	r1, r10
 3615 1b0a 2846     		mov	r0, r5
 3616 1b0c BDE8F84F 		pop	{r3, r4, r5, r6, r7, r8, r9, r10, fp, lr}
 3617 1b10 FFF7FEBF 		b	screen_encoder
 3618              	.L991:
 3619 1b14 DAF81860 		ldr	r6, [r10, #24]	@ float
 3620 1b18 DAF81C00 		ldr	r0, [r10, #28]	@ float
 3621 1b1c 3146     		mov	r1, r6
 3622 1b1e FFF7FEFF 		bl	__aeabi_fsub
 3623 1b22 4FF07E51 		mov	r1, #1065353216
 3624 1b26 0746     		mov	r7, r0
 3625 1b28 FFF7FEFF 		bl	__aeabi_fadd
 3626 1b2c FFF7FEFF 		bl	__aeabi_f2iz
 3627 1b30 44B2     		sxtb	r4, r0
 3628 1b32 3146     		mov	r1, r6
 3629 1b34 8AF82140 		strb	r4, [r10, #33]
 3630 1b38 DAF81400 		ldr	r0, [r10, #20]	@ float
 3631 1b3c FFF7FEFF 		bl	__aeabi_fsub
 3632 1b40 0646     		mov	r6, r0
 3633 1b42 2046     		mov	r0, r4
 3634 1b44 FFF7FEFF 		bl	__aeabi_i2f
 3635 1b48 0146     		mov	r1, r0
 3636 1b4a 3846     		mov	r0, r7
 3637 1b4c FFF7FEFF 		bl	__aeabi_fdiv
 3638 1b50 0146     		mov	r1, r0
 3639 1b52 3046     		mov	r0, r6
 3640 1b54 FFF7FEFF 		bl	__aeabi_fdiv
 3641 1b58 FFF7FEFF 		bl	__aeabi_f2iz
 3642 1b5c 8AF82000 		strb	r0, [r10, #32]
 3643 1b60 C9E7     		b	.L989
 3644              	.L1051:
 3645 1b62 1A78     		ldrb	r2, [r3]	@ zero_extendqisi2
 3646 1b64 012A     		cmp	r2, #1
 3647 1b66 CCD1     		bne	.L998
 3648 1b68 3CE7     		b	.L982
 3649              	.L990:
 3650 1b6a 0024     		movs	r4, #0
 3651 1b6c 0123     		movs	r3, #1
 3652 1b6e 9AF82470 		ldrb	r7, [r10, #36]	@ zero_extendqisi2
 3653 1b72 8AF82040 		strb	r4, [r10, #32]
 3654 1b76 8AF81330 		strb	r3, [r10, #19]
 3655 1b7a EFB1     		cbz	r7, .L992
 3656 1b7c DAF82860 		ldr	r6, [r10, #40]
 3657 1b80 DAF81480 		ldr	r8, [r10, #20]	@ float
 3658 1b84 3368     		ldr	r3, [r6]
 3659 1b86 93F90400 		ldrsb	r0, [r3, #4]
 3660 1b8a FFF7FEFF 		bl	__aeabi_i2f
 3661 1b8e 4146     		mov	r1, r8
 3662 1b90 FFF7FEFF 		bl	__aeabi_fcmpeq
 3663 1b94 98BB     		cbnz	r0, .L993
 3664 1b96 0446     		mov	r4, r0
 3665 1b98 09E0     		b	.L995
 3666              	.L997:
 3667 1b9a 56F8043F 		ldr	r3, [r6, #4]!
 3668 1b9e 93F90400 		ldrsb	r0, [r3, #4]
 3669 1ba2 FFF7FEFF 		bl	__aeabi_i2f
 3670 1ba6 4146     		mov	r1, r8
 3671 1ba8 FFF7FEFF 		bl	__aeabi_fcmpeq
 3672 1bac 30BB     		cbnz	r0, .L1052
 3673              	.L995:
 3674 1bae 0134     		adds	r4, r4, #1
 3675 1bb0 E4B2     		uxtb	r4, r4
 3676 1bb2 BC42     		cmp	r4, r7
 3677 1bb4 F1D1     		bne	.L997
 3678 1bb6 67B2     		sxtb	r7, r4
 3679              	.L992:
 3680 1bb8 8AF82170 		strb	r7, [r10, #33]
 3681 1bbc 9BE7     		b	.L989
 3682              	.L1003:
 3683 1bbe DAF81840 		ldr	r4, [r10, #24]	@ float
 3684 1bc2 DAF81400 		ldr	r0, [r10, #20]	@ float
 3685 1bc6 2146     		mov	r1, r4
 3686 1bc8 FFF7FEFF 		bl	__aeabi_fsub
 3687 1bcc 2146     		mov	r1, r4
 3688 1bce 0546     		mov	r5, r0
 3689 1bd0 DAF81C00 		ldr	r0, [r10, #28]	@ float
 3690 1bd4 FFF7FEFF 		bl	__aeabi_fsub
 3691 1bd8 0446     		mov	r4, r0
 3692 1bda 9AF92100 		ldrsb	r0, [r10, #33]
 3693 1bde FFF7FEFF 		bl	__aeabi_i2f
 3694 1be2 0146     		mov	r1, r0
 3695 1be4 2046     		mov	r0, r4
 3696 1be6 FFF7FEFF 		bl	__aeabi_fdiv
 3697 1bea 0146     		mov	r1, r0
 3698 1bec 2846     		mov	r0, r5
 3699 1bee FFF7FEFF 		bl	__aeabi_fdiv
 3700 1bf2 FFF7FEFF 		bl	__aeabi_f2iz
 3701 1bf6 8AF82000 		strb	r0, [r10, #32]
 3702 1bfa 55E7     		b	.L1002
 3703              	.L1052:
 3704 1bfc 64B2     		sxtb	r4, r4
 3705              	.L993:
 3706 1bfe 8AF82040 		strb	r4, [r10, #32]
 3707 1c02 7FB2     		sxtb	r7, r7
 3708 1c04 D8E7     		b	.L992
 3709              	.L1054:
 3710 1c06 00BF     		.align	2
 3711              	.L1053:
 3712 1c08 00000000 		.word	.LANCHOR0
 3713 1c0c 00000000 		.word	g_tool
 3715              		.align	1
 3716              		.p2align 2,,3
 3717              		.syntax unified
 3718              		.thumb
 3719              		.thumb_func
 3720              		.fpu softvfp
 3722              	naveg_toggle_tool.part.6:
 3723              		@ args = 0, pretend = 0, frame = 0
 3724              		@ frame_needed = 0, uses_anonymous_args = 0
 3725 1c10 F8B5     		push	{r3, r4, r5, r6, r7, lr}
 3726 1c12 0446     		mov	r4, r0
 3727 1c14 5A4E     		ldr	r6, .L1071
 3728 1c16 0846     		mov	r0, r1
 3729 1c18 0D46     		mov	r5, r1
 3730 1c1a FFF7FEFF 		bl	screen_clear
 3731 1c1e 16F81470 		ldrb	r7, [r6, r4, lsl #1]	@ zero_extendqisi2
 3732 1c22 DFB9     		cbnz	r7, .L1056
 3733 1c24 012C     		cmp	r4, #1
 3734 1c26 3BD0     		beq	.L1058
 3735 1c28 4BD3     		bcc	.L1059
 3736 1c2a 022C     		cmp	r4, #2
 3737 1c2c 0AD1     		bne	.L1057
 3738 1c2e 554F     		ldr	r7, .L1071+4
 3739 1c30 97F89C30 		ldrb	r3, [r7, #156]	@ zero_extendqisi2
 3740 1c34 002B     		cmp	r3, #0
 3741 1c36 00F09580 		beq	.L1069
 3742              	.L1061:
 3743 1c3a 0125     		movs	r5, #1
 3744 1c3c 0023     		movs	r3, #0
 3745 1c3e 87F89C50 		strb	r5, [r7, #156]
 3746 1c42 B371     		strb	r3, [r6, #6]
 3747              	.L1057:
 3748 1c44 0122     		movs	r2, #1
 3749 1c46 06EB4403 		add	r3, r6, r4, lsl #1
 3750 1c4a 06F81420 		strb	r2, [r6, r4, lsl #1]
 3751 1c4e 5D70     		strb	r5, [r3, #1]
 3752 1c50 2946     		mov	r1, r5
 3753 1c52 2046     		mov	r0, r4
 3754 1c54 BDE8F840 		pop	{r3, r4, r5, r6, r7, lr}
 3755 1c58 FFF7FEBF 		b	screen_tool
 3756              	.L1056:
 3757 1c5c 012C     		cmp	r4, #1
 3758 1c5e 27D0     		beq	.L1063
 3759 1c60 49D3     		bcc	.L1064
 3760 1c62 022C     		cmp	r4, #2
 3761 1c64 05D1     		bne	.L1070
 3762 1c66 0123     		movs	r3, #1
 3763 1c68 0022     		movs	r2, #0
 3764 1c6a B371     		strb	r3, [r6, #6]
 3765 1c6c 3271     		strb	r2, [r6, #4]
 3766 1c6e F371     		strb	r3, [r6, #7]
 3767 1c70 F8BD     		pop	{r3, r4, r5, r6, r7, pc}
 3768              	.L1070:
 3769 1c72 444B     		ldr	r3, .L1071+4
 3770 1c74 2846     		mov	r0, r5
 3771 1c76 03EB8503 		add	r3, r3, r5, lsl #2
 3772 1c7a D969     		ldr	r1, [r3, #28]
 3773 1c7c FFF7FEFF 		bl	screen_encoder
 3774 1c80 0021     		movs	r1, #0
 3775 1c82 4148     		ldr	r0, .L1071+8
 3776 1c84 FFF7FEFF 		bl	comm_webgui_set_response_cb
 3777 1c88 0B21     		movs	r1, #11
 3778 1c8a 4048     		ldr	r0, .L1071+12
 3779 1c8c FFF7FEFF 		bl	comm_webgui_send
 3780 1c90 2846     		mov	r0, r5
 3781 1c92 FFF7FEFF 		bl	draw_all_pots
 3782 1c96 2846     		mov	r0, r5
 3783 1c98 BDE8F840 		pop	{r3, r4, r5, r6, r7, lr}
 3784 1c9c FFF7FEBF 		b	draw_all_foots
 3785              	.L1058:
 3786 1ca0 2846     		mov	r0, r5
 3787 1ca2 FEF713FE 		bl	display_disable_all_tools
 3788 1ca6 0821     		movs	r1, #8
 3789 1ca8 3948     		ldr	r0, .L1071+16
 3790 1caa FFF7FEFF 		bl	comm_webgui_send
 3791 1cae C9E7     		b	.L1057
 3792              	.L1063:
 3793 1cb0 0921     		movs	r1, #9
 3794 1cb2 3848     		ldr	r0, .L1071+20
 3795 1cb4 FFF7FEFF 		bl	comm_webgui_send
 3796 1cb8 0023     		movs	r3, #0
 3797 1cba B471     		strb	r4, [r6, #6]
 3798 1cbc F471     		strb	r4, [r6, #7]
 3799 1cbe B370     		strb	r3, [r6, #2]
 3800 1cc0 F8BD     		pop	{r3, r4, r5, r6, r7, pc}
 3801              	.L1059:
 3802 1cc2 0124     		movs	r4, #1
 3803 1cc4 2046     		mov	r0, r4
 3804 1cc6 FFF7FEFF 		bl	screen_clear
 3805 1cca 2946     		mov	r1, r5
 3806 1ccc 3846     		mov	r0, r7
 3807 1cce 7570     		strb	r5, [r6, #1]
 3808 1cd0 B471     		strb	r4, [r6, #6]
 3809 1cd2 F471     		strb	r4, [r6, #7]
 3810 1cd4 3470     		strb	r4, [r6]
 3811 1cd6 FFF7FEFF 		bl	screen_tool
 3812 1cda 2046     		mov	r0, r4
 3813 1cdc 00F068F8 		bl	menu_enter
 3814 1ce0 284B     		ldr	r3, .L1071+4
 3815 1ce2 3846     		mov	r0, r7
 3816 1ce4 D3F88410 		ldr	r1, [r3, #132]
 3817 1ce8 DA6C     		ldr	r2, [r3, #76]
 3818 1cea C3F8A010 		str	r1, [r3, #160]
 3819 1cee 1A65     		str	r2, [r3, #80]
 3820 1cf0 BDE8F840 		pop	{r3, r4, r5, r6, r7, lr}
 3821 1cf4 5CE0     		b	menu_enter
 3822              	.L1064:
 3823 1cf6 0024     		movs	r4, #0
 3824 1cf8 2846     		mov	r0, r5
 3825 1cfa FEF7E7FD 		bl	display_disable_all_tools
 3826 1cfe 214E     		ldr	r6, .L1071+4
 3827 1d00 0120     		movs	r0, #1
 3828 1d02 FEF7E3FD 		bl	display_disable_all_tools
 3829 1d06 2146     		mov	r1, r4
 3830 1d08 2046     		mov	r0, r4
 3831 1d0a C6E92244 		strd	r4, r4, [r6, #136]
 3832 1d0e 86F89C40 		strb	r4, [r6, #156]
 3833 1d12 FFF7FEFF 		bl	system_save_gains_cb
 3834 1d16 06EB8503 		add	r3, r6, r5, lsl #2
 3835 1d1a D969     		ldr	r1, [r3, #28]
 3836 1d1c 2846     		mov	r0, r5
 3837 1d1e FFF7FEFF 		bl	screen_encoder
 3838 1d22 2146     		mov	r1, r4
 3839 1d24 1848     		ldr	r0, .L1071+8
 3840 1d26 FFF7FEFF 		bl	comm_webgui_set_response_cb
 3841 1d2a 0B21     		movs	r1, #11
 3842 1d2c 1748     		ldr	r0, .L1071+12
 3843 1d2e FFF7FEFF 		bl	comm_webgui_send
 3844 1d32 2846     		mov	r0, r5
 3845 1d34 FFF7FEFF 		bl	draw_all_pots
 3846 1d38 2846     		mov	r0, r5
 3847 1d3a FFF7FEFF 		bl	draw_all_foots
 3848 1d3e 0120     		movs	r0, #1
 3849 1d40 FFF7FEFF 		bl	screen_clear
 3850 1d44 2046     		mov	r0, r4
 3851 1d46 346A     		ldr	r4, [r6, #32]
 3852 1d48 FFF7FEFF 		bl	naveg_master_volume
 3853 1d4c 0120     		movs	r0, #1
 3854 1d4e FFF7FEFF 		bl	draw_all_pots
 3855 1d52 2146     		mov	r1, r4
 3856 1d54 0120     		movs	r0, #1
 3857 1d56 FFF7FEFF 		bl	screen_encoder
 3858 1d5a BDE8F840 		pop	{r3, r4, r5, r6, r7, lr}
 3859 1d5e 0120     		movs	r0, #1
 3860 1d60 FFF7FEBF 		b	draw_all_foots
 3861              	.L1069:
 3862 1d64 1946     		mov	r1, r3
 3863 1d66 0C48     		ldr	r0, .L1071+24
 3864 1d68 87F87C30 		strb	r3, [r7, #124]
 3865 1d6c FFF7FEFF 		bl	comm_webgui_set_response_cb
 3866 1d70 0521     		movs	r1, #5
 3867 1d72 0A48     		ldr	r0, .L1071+28
 3868 1d74 FFF7FEFF 		bl	comm_webgui_send
 3869 1d78 FFF7FEFF 		bl	comm_webgui_wait_response
 3870 1d7c 5DE7     		b	.L1061
 3871              	.L1072:
 3872 1d7e 00BF     		.align	2
 3873              	.L1071:
 3874 1d80 00000000 		.word	g_tool
 3875 1d84 00000000 		.word	.LANCHOR0
 3876 1d88 00000000 		.word	screen_top_info
 3877 1d8c 60000000 		.word	.LC14
 3878 1d90 A4000000 		.word	.LC20
 3879 1d94 40000000 		.word	.LC11
 3880 1d98 00000000 		.word	parse_banks_list
 3881 1d9c 9C000000 		.word	.LC19
 3883              		.align	1
 3884              		.p2align 2,,3
 3885              		.global	naveg_toggle_tool
 3886              		.syntax unified
 3887              		.thumb
 3888              		.thumb_func
 3889              		.fpu softvfp
 3891              	naveg_toggle_tool:
 3892              		@ args = 0, pretend = 0, frame = 0
 3893              		@ frame_needed = 0, uses_anonymous_args = 0
 3894              		@ link register save eliminated.
 3895 1da0 024B     		ldr	r3, .L1076
 3896 1da2 93F89030 		ldrb	r3, [r3, #144]	@ zero_extendqisi2
 3897 1da6 03B9     		cbnz	r3, .L1075
 3898 1da8 7047     		bx	lr
 3899              	.L1075:
 3900 1daa 31E7     		b	naveg_toggle_tool.part.6
 3901              	.L1077:
 3902              		.align	2
 3903              	.L1076:
 3904 1dac 00000000 		.word	.LANCHOR0
 3906              		.align	1
 3907              		.p2align 2,,3
 3908              		.syntax unified
 3909              		.thumb
 3910              		.thumb_func
 3911              		.fpu softvfp
 3913              	menu_enter:
 3914              		@ args = 0, pretend = 0, frame = 8
 3915              		@ frame_needed = 0, uses_anonymous_args = 0
 3916 1db0 2DE9F047 		push	{r4, r5, r6, r7, r8, r9, r10, lr}
 3917 1db4 0746     		mov	r7, r0
 3918 1db6 82B0     		sub	sp, sp, #8
 3919 1db8 B34E     		ldr	r6, .L1301
 3920 1dba E8B1     		cbz	r0, .L1079
 3921 1dbc F46C     		ldr	r4, [r6, #76]
 3922 1dbe D6F88480 		ldr	r8, [r6, #132]
 3923 1dc2 6268     		ldr	r2, [r4, #4]
 3924 1dc4 1379     		ldrb	r3, [r2, #4]	@ zero_extendqisi2
 3925 1dc6 991E     		subs	r1, r3, #2
 3926 1dc8 0129     		cmp	r1, #1
 3927 1dca 1DD9     		bls	.L1284
 3928              	.L1081:
 3929 1dcc 191F     		subs	r1, r3, #4
 3930 1dce 0129     		cmp	r1, #1
 3931 1dd0 40F28A80 		bls	.L1091
 3932 1dd4 082B     		cmp	r3, #8
 3933 1dd6 00F08E80 		beq	.L1092
 3934 1dda 1389     		ldrh	r3, [r2, #8]
 3935 1ddc BE2B     		cmp	r3, #190
 3936 1dde 00F08580 		beq	.L1093
 3937 1de2 D388     		ldrh	r3, [r2, #6]
 3938 1de4 0C2B     		cmp	r3, #12
 3939 1de6 00F08180 		beq	.L1093
 3940 1dea 162B     		cmp	r3, #22
 3941 1dec 7ED0     		beq	.L1093
 3942 1dee D4F80490 		ldr	r9, [r4, #4]
 3943 1df2 B9F806C0 		ldrh	ip, [r9, #6]
 3944 1df6 2FE0     		b	.L1090
 3945              	.L1079:
 3946 1df8 346D     		ldr	r4, [r6, #80]
 3947 1dfa D6F8A080 		ldr	r8, [r6, #160]
 3948 1dfe 6268     		ldr	r2, [r4, #4]
 3949 1e00 1379     		ldrb	r3, [r2, #4]	@ zero_extendqisi2
 3950 1e02 991E     		subs	r1, r3, #2
 3951 1e04 0129     		cmp	r1, #1
 3952 1e06 E1D8     		bhi	.L1081
 3953              	.L1284:
 3954 1e08 A17B     		ldrb	r1, [r4, #14]	@ zero_extendqisi2
 3955 1e0a D8F80880 		ldr	r8, [r8, #8]
 3956 1e0e 31B1     		cbz	r1, .L1084
 3957 1e10 0023     		movs	r3, #0
 3958              	.L1085:
 3959 1e12 0133     		adds	r3, r3, #1
 3960 1e14 DAB2     		uxtb	r2, r3
 3961 1e16 9142     		cmp	r1, r2
 3962 1e18 D8F81480 		ldr	r8, [r8, #20]
 3963 1e1c F9D8     		bhi	.L1085
 3964              	.L1084:
 3965 1e1e D8F80040 		ldr	r4, [r8]
 3966 1e22 D4F80490 		ldr	r9, [r4, #4]
 3967 1e26 99F80430 		ldrb	r3, [r9, #4]	@ zero_extendqisi2
 3968 1e2a 012B     		cmp	r3, #1
 3969 1e2c 00F09981 		beq	.L1285
 3970              	.L1086:
 3971 1e30 062B     		cmp	r3, #6
 3972 1e32 02D0     		beq	.L1088
 3973 1e34 002B     		cmp	r3, #0
 3974 1e36 40F02381 		bne	.L1286
 3975              	.L1088:
 3976 1e3a B9F80830 		ldrh	r3, [r9, #8]
 3977 1e3e B9F806C0 		ldrh	ip, [r9, #6]
 3978 1e42 BE2B     		cmp	r3, #190
 3979 1e44 05D0     		beq	.L1089
 3980 1e46 BCF10C0F 		cmp	ip, #12
 3981 1e4a 02D0     		beq	.L1089
 3982 1e4c BCF1160F 		cmp	ip, #22
 3983 1e50 02D1     		bne	.L1090
 3984              	.L1089:
 3985 1e52 D8F80030 		ldr	r3, [r8]
 3986 1e56 F364     		str	r3, [r6, #76]
 3987              	.L1090:
 3988 1e58 BCF11E0F 		cmp	ip, #30
 3989 1e5c 8B4D     		ldr	r5, .L1301+4
 3990 1e5e 65D0     		beq	.L1277
 3991              	.L1099:
 3992 1e60 BCF1820F 		cmp	ip, #130
 3993 1e64 74D0     		beq	.L1103
 3994              	.L1295:
 3995 1e66 BCF1960F 		cmp	ip, #150
 3996 1e6a 71D0     		beq	.L1103
 3997              	.L1102:
 3998 1e6c 99F80430 		ldrb	r3, [r9, #4]	@ zero_extendqisi2
 3999 1e70 9A1E     		subs	r2, r3, #2
 4000 1e72 012A     		cmp	r2, #1
 4001 1e74 40F29980 		bls	.L1287
 4002 1e78 042B     		cmp	r3, #4
 4003 1e7a 70D0     		beq	.L1104
 4004 1e7c 082B     		cmp	r3, #8
 4005 1e7e 6ED0     		beq	.L1104
 4006 1e80 B9F80820 		ldrh	r2, [r9, #8]
 4007 1e84 BE2A     		cmp	r2, #190
 4008 1e86 6AD0     		beq	.L1104
 4009 1e88 BCF10C0F 		cmp	ip, #12
 4010 1e8c 00F08181 		beq	.L1112
 4011 1e90 BCF1160F 		cmp	ip, #22
 4012 1e94 00F07D81 		beq	.L1112
 4013 1e98 062B     		cmp	r3, #6
 4014 1e9a 00F09681 		beq	.L1288
 4015 1e9e 052B     		cmp	r3, #5
 4016 1ea0 00F0AA81 		beq	.L1289
 4017 1ea4 002B     		cmp	r3, #0
 4018 1ea6 40F0CC81 		bne	.L1134
 4019 1eaa F36C     		ldr	r3, [r6, #76]
 4020 1eac 5A68     		ldr	r2, [r3, #4]
 4021 1eae 1279     		ldrb	r2, [r2, #4]	@ zero_extendqisi2
 4022 1eb0 032A     		cmp	r2, #3
 4023 1eb2 00F0E981 		beq	.L1290
 4024              	.L1135:
 4025 1eb6 6368     		ldr	r3, [r4, #4]
 4026 1eb8 DB68     		ldr	r3, [r3, #12]
 4027 1eba 13B1     		cbz	r3, .L1138
 4028 1ebc 0021     		movs	r1, #0
 4029 1ebe 2046     		mov	r0, r4
 4030 1ec0 9847     		blx	r3
 4031              	.L1138:
 4032 1ec2 1FB1     		cbz	r7, .L1111
 4033              	.L1141:
 4034 1ec4 D6F88430 		ldr	r3, [r6, #132]
 4035 1ec8 1C68     		ldr	r4, [r3]
 4036 1eca F464     		str	r4, [r6, #76]
 4037              	.L1111:
 4038 1ecc 2B78     		ldrb	r3, [r5]	@ zero_extendqisi2
 4039 1ece 1BB1     		cbz	r3, .L1281
 4040              	.L1142:
 4041 1ed0 2D79     		ldrb	r5, [r5, #4]	@ zero_extendqisi2
 4042 1ed2 002D     		cmp	r5, #0
 4043 1ed4 00F02D81 		beq	.L1144
 4044              	.L1281:
 4045 1ed8 6368     		ldr	r3, [r4, #4]
 4046              	.L1143:
 4047 1eda 1B79     		ldrb	r3, [r3, #4]	@ zero_extendqisi2
 4048 1edc 072B     		cmp	r3, #7
 4049 1ede 00F0C080 		beq	.L1291
 4050              	.L1078:
 4051 1ee2 02B0     		add	sp, sp, #8
 4052              		@ sp needed
 4053 1ee4 BDE8F087 		pop	{r4, r5, r6, r7, r8, r9, r10, pc}
 4054              	.L1091:
 4055 1ee8 052B     		cmp	r3, #5
 4056 1eea 04D0     		beq	.L1092
 4057              	.L1093:
 4058 1eec D368     		ldr	r3, [r2, #12]
 4059 1eee 13B1     		cbz	r3, .L1092
 4060 1ef0 0021     		movs	r1, #0
 4061 1ef2 2046     		mov	r0, r4
 4062 1ef4 9847     		blx	r3
 4063              	.L1092:
 4064 1ef6 D4F80490 		ldr	r9, [r4, #4]
 4065 1efa B9F806C0 		ldrh	ip, [r9, #6]
 4066 1efe BCF1820F 		cmp	ip, #130
 4067 1f02 00F00D81 		beq	.L1094
 4068 1f06 BCF1960F 		cmp	ip, #150
 4069 1f0a 00F02281 		beq	.L1292
 4070 1f0e 002F     		cmp	r7, #0
 4071 1f10 40F0B280 		bne	.L1293
 4072 1f14 D6F8A030 		ldr	r3, [r6, #160]
 4073 1f18 1C68     		ldr	r4, [r3]
 4074              	.L1098:
 4075 1f1a D4F80490 		ldr	r9, [r4, #4]
 4076 1f1e F464     		str	r4, [r6, #76]
 4077 1f20 B9F806C0 		ldrh	ip, [r9, #6]
 4078 1f24 594D     		ldr	r5, .L1301+4
 4079 1f26 BCF11E0F 		cmp	ip, #30
 4080 1f2a 99D1     		bne	.L1099
 4081              	.L1277:
 4082 1f2c AB78     		ldrb	r3, [r5, #2]	@ zero_extendqisi2
 4083 1f2e 002B     		cmp	r3, #0
 4084 1f30 00F02881 		beq	.L1294
 4085 1f34 306D     		ldr	r0, [r6, #80]
 4086 1f36 4368     		ldr	r3, [r0, #4]
 4087 1f38 DB68     		ldr	r3, [r3, #12]
 4088 1f3a 002B     		cmp	r3, #0
 4089 1f3c 96D0     		beq	.L1102
 4090 1f3e 0021     		movs	r1, #0
 4091 1f40 9847     		blx	r3
 4092 1f42 D4F80490 		ldr	r9, [r4, #4]
 4093 1f46 B9F806C0 		ldrh	ip, [r9, #6]
 4094 1f4a BCF1820F 		cmp	ip, #130
 4095 1f4e 8AD1     		bne	.L1295
 4096              	.L1103:
 4097 1f50 96F89B30 		ldrb	r3, [r6, #155]	@ zero_extendqisi2
 4098 1f54 002B     		cmp	r3, #0
 4099 1f56 89D0     		beq	.L1102
 4100 1f58 0823     		movs	r3, #8
 4101 1f5a 89F80430 		strb	r3, [r9, #4]
 4102              	.L1104:
 4103 1f5e 0122     		movs	r2, #1
 4104 1f60 0223     		movs	r3, #2
 4105 1f62 0020     		movs	r0, #0
 4106 1f64 BCF1820F 		cmp	ip, #130
 4107 1f68 A273     		strb	r2, [r4, #14]
 4108 1f6a 2373     		strb	r3, [r4, #12]
 4109 1f6c 6061     		str	r0, [r4, #20]
 4110 1f6e 00F03981 		beq	.L1296
 4111              	.L1115:
 4112 1f72 0123     		movs	r3, #1
 4113 1f74 DFF81C81 		ldr	r8, .L1301+12
 4114 1f78 454F     		ldr	r7, .L1301+8
 4115 1f7a 06E0     		b	.L1117
 4116              	.L1126:
 4117 1f7c B2F91420 		ldrsh	r2, [r2, #20]
 4118 1f80 BA46     		mov	r10, r7
 4119 1f82 6245     		cmp	r2, ip
 4120 1f84 58D0     		beq	.L1116
 4121 1f86 D1F81C80 		ldr	r8, [r1, #28]
 4122              	.L1117:
 4123 1f8a 4FEA430E 		lsl	lr, r3, #1
 4124 1f8e 591C     		adds	r1, r3, #1
 4125 1f90 1846     		mov	r0, r3
 4126 1f92 7344     		add	r3, lr, r3
 4127 1f94 07EB8302 		add	r2, r7, r3, lsl #2
 4128 1f98 CBB2     		uxtb	r3, r1
 4129 1f9a 03EB4301 		add	r1, r3, r3, lsl #1
 4130 1f9e 07EB8101 		add	r1, r7, r1, lsl #2
 4131 1fa2 B8F1000F 		cmp	r8, #0
 4132 1fa6 E9D1     		bne	.L1126
 4133 1fa8 90E7     		b	.L1111
 4134              	.L1287:
 4135 1faa 0023     		movs	r3, #0
 4136 1fac 2373     		strb	r3, [r4, #12]
 4137 1fae D8F80870 		ldr	r7, [r8, #8]
 4138 1fb2 C6F88480 		str	r8, [r6, #132]
 4139 1fb6 0FB3     		cbz	r7, .L1106
 4140              	.L1110:
 4141 1fb8 336D     		ldr	r3, [r6, #80]
 4142 1fba 5B68     		ldr	r3, [r3, #4]
 4143 1fbc DB88     		ldrh	r3, [r3, #6]
 4144 1fbe 502B     		cmp	r3, #80
 4145 1fc0 33D0     		beq	.L1297
 4146              	.L1107:
 4147 1fc2 D7F80080 		ldr	r8, [r7]
 4148 1fc6 D8F80430 		ldr	r3, [r8, #4]
 4149 1fca 1A79     		ldrb	r2, [r3, #4]	@ zero_extendqisi2
 4150 1fcc 062A     		cmp	r2, #6
 4151 1fce A2F10901 		sub	r1, r2, #9
 4152 1fd2 23D0     		beq	.L1108
 4153 1fd4 0129     		cmp	r1, #1
 4154 1fd6 21D9     		bls	.L1108
 4155 1fd8 DA88     		ldrh	r2, [r3, #6]
 4156 1fda B42A     		cmp	r2, #180
 4157 1fdc 1ED0     		beq	.L1108
 4158 1fde 1E2A     		cmp	r2, #30
 4159 1fe0 1CD0     		beq	.L1108
 4160 1fe2 AA2A     		cmp	r2, #170
 4161 1fe4 1AD0     		beq	.L1108
 4162              	.L1109:
 4163 1fe6 237B     		ldrb	r3, [r4, #12]	@ zero_extendqisi2
 4164 1fe8 A268     		ldr	r2, [r4, #8]
 4165 1fea 591C     		adds	r1, r3, #1
 4166 1fec 2173     		strb	r1, [r4, #12]
 4167 1fee D8F80010 		ldr	r1, [r8]
 4168 1ff2 7F69     		ldr	r7, [r7, #20]
 4169 1ff4 42F82310 		str	r1, [r2, r3, lsl #2]
 4170 1ff8 002F     		cmp	r7, #0
 4171 1ffa DDD1     		bne	.L1110
 4172              	.L1106:
 4173 1ffc 6268     		ldr	r2, [r4, #4]
 4174 1ffe D388     		ldrh	r3, [r2, #6]
 4175 2000 B42B     		cmp	r3, #180
 4176 2002 3FF463AF 		beq	.L1111
 4177 2006 AA2B     		cmp	r3, #170
 4178 2008 3FF460AF 		beq	.L1111
 4179 200c D368     		ldr	r3, [r2, #12]
 4180 200e 002B     		cmp	r3, #0
 4181 2010 3FF45CAF 		beq	.L1111
 4182              	.L1280:
 4183 2014 0021     		movs	r1, #0
 4184 2016 2046     		mov	r0, r4
 4185 2018 9847     		blx	r3
 4186 201a 57E7     		b	.L1111
 4187              	.L1108:
 4188 201c DB68     		ldr	r3, [r3, #12]
 4189 201e 002B     		cmp	r3, #0
 4190 2020 E1D0     		beq	.L1109
 4191 2022 0321     		movs	r1, #3
 4192 2024 4046     		mov	r0, r8
 4193 2026 9847     		blx	r3
 4194 2028 DDE7     		b	.L1109
 4195              	.L1297:
 4196 202a 0520     		movs	r0, #5
 4197 202c FFF7FEFF 		bl	hardware_leds
 4198 2030 0121     		movs	r1, #1
 4199 2032 FFF7FEFF 		bl	ledz_on
 4200 2036 C4E7     		b	.L1107
 4201              	.L1116:
 4202 2038 B9F80830 		ldrh	r3, [r9, #8]
 4203 203c BE2B     		cmp	r3, #190
 4204 203e 2BD0     		beq	.L1298
 4205 2040 BCF1C30F 		cmp	ip, #195
 4206 2044 45D0     		beq	.L1119
 4207 2046 BCF10C0F 		cmp	ip, #12
 4208 204a 37D0     		beq	.L1123
 4209 204c BCF1160F 		cmp	ip, #22
 4210 2050 34D0     		beq	.L1123
 4211              	.L1124:
 4212 2052 7044     		add	r0, r0, lr
 4213 2054 0AEB800A 		add	r10, r10, r0, lsl #2
 4214 2058 DAF81830 		ldr	r3, [r10, #24]
 4215 205c C4E90438 		strd	r3, r8, [r4, #16]
 4216 2060 34E7     		b	.L1111
 4217              	.L1291:
 4218 2062 0023     		movs	r3, #0
 4219 2064 02A9     		add	r1, sp, #8
 4220 2066 41F8043D 		str	r3, [r1, #-4]!
 4221 206a D6F89400 		ldr	r0, [r6, #148]
 4222 206e FFF7FEFF 		bl	xQueueGiveFromISR
 4223 2072 02B0     		add	sp, sp, #8
 4224              		@ sp needed
 4225 2074 BDE8F087 		pop	{r4, r5, r6, r7, r8, r9, r10, pc}
 4226              	.L1293:
 4227 2078 D6F88430 		ldr	r3, [r6, #132]
 4228 207c 1C68     		ldr	r4, [r3]
 4229 207e 4CE7     		b	.L1098
 4230              	.L1286:
 4231 2080 D8F80030 		ldr	r3, [r8]
 4232 2084 F364     		str	r3, [r6, #76]
 4233 2086 D8E6     		b	.L1088
 4234              	.L1302:
 4235              		.align	2
 4236              	.L1301:
 4237 2088 00000000 		.word	.LANCHOR0
 4238 208c 00000000 		.word	g_tool
 4239 2090 00000000 		.word	.LANCHOR2
 4240 2094 B0000000 		.word	.LC21
 4241              	.L1298:
 4242 2098 BCF1C30F 		cmp	ip, #195
 4243 209c 19D0     		beq	.L1119
 4244              	.L1147:
 4245 209e B4F91C30 		ldrsh	r3, [r4, #28]
 4246 20a2 002B     		cmp	r3, #0
 4247 20a4 00F08880 		beq	.L1120
 4248 20a8 0530     		adds	r0, r0, #5
 4249 20aa 00EB4000 		add	r0, r0, r0, lsl #1
 4250 20ae 0AEB800A 		add	r10, r10, r0, lsl #2
 4251 20b2 DAE90632 		ldrd	r3, r2, [r10, #24]
 4252 20b6 C4E90432 		strd	r3, r2, [r4, #16]
 4253 20ba 07E7     		b	.L1111
 4254              	.L1123:
 4255 20bc B4F91C30 		ldrsh	r3, [r4, #28]
 4256 20c0 002B     		cmp	r3, #0
 4257 20c2 6FD1     		bne	.L1125
 4258 20c4 7044     		add	r0, r0, lr
 4259 20c6 07EB8007 		add	r7, r7, r0, lsl #2
 4260 20ca BB69     		ldr	r3, [r7, #24]
 4261 20cc C4E90438 		strd	r3, r8, [r4, #16]
 4262 20d0 FCE6     		b	.L1111
 4263              	.L1119:
 4264 20d2 B4F91C30 		ldrsh	r3, [r4, #28]
 4265 20d6 C4F81480 		str	r8, [r4, #20]
 4266 20da 012B     		cmp	r3, #1
 4267 20dc 7FD0     		beq	.L1150
 4268 20de 022B     		cmp	r3, #2
 4269 20e0 00F0C780 		beq	.L1151
 4270 20e4 032B     		cmp	r3, #3
 4271 20e6 00F0CA80 		beq	.L1152
 4272 20ea 7949     		ldr	r1, .L1303
 4273 20ec 794A     		ldr	r2, .L1303+4
 4274 20ee 042B     		cmp	r3, #4
 4275 20f0 14BF     		ite	ne
 4276 20f2 8846     		movne	r8, r1
 4277 20f4 9046     		moveq	r8, r2
 4278              	.L1122:
 4279 20f6 7044     		add	r0, r0, lr
 4280 20f8 07EB8007 		add	r7, r7, r0, lsl #2
 4281 20fc D7F81890 		ldr	r9, [r7, #24]
 4282 2100 4846     		mov	r0, r9
 4283 2102 FFF7FEFF 		bl	strlen
 4284 2106 0746     		mov	r7, r0
 4285 2108 0230     		adds	r0, r0, #2
 4286 210a FFF7FEFF 		bl	malloc
 4287 210e 7A1C     		adds	r2, r7, #1
 4288 2110 4946     		mov	r1, r9
 4289 2112 FFF7FEFF 		bl	memcpy
 4290 2116 B8F80020 		ldrh	r2, [r8]
 4291 211a C253     		strh	r2, [r0, r7]	@ unaligned
 4292 211c 2061     		str	r0, [r4, #16]
 4293 211e D5E6     		b	.L1111
 4294              	.L1094:
 4295 2120 96F89B30 		ldrb	r3, [r6, #155]	@ zero_extendqisi2
 4296 2124 002B     		cmp	r3, #0
 4297 2126 3BD0     		beq	.L1299
 4298              	.L1146:
 4299 2128 0823     		movs	r3, #8
 4300 212a F464     		str	r4, [r6, #76]
 4301 212c 89F80430 		strb	r3, [r9, #4]
 4302 2130 92E6     		b	.L1090
 4303              	.L1144:
 4304 2132 2046     		mov	r0, r4
 4305 2134 FFF7FEFF 		bl	screen_system_menu
 4306 2138 6368     		ldr	r3, [r4, #4]
 4307 213a C6F88850 		str	r5, [r6, #136]
 4308 213e 1A7C     		ldrb	r2, [r3, #16]	@ zero_extendqisi2
 4309 2140 C6F88C50 		str	r5, [r6, #140]
 4310 2144 002A     		cmp	r2, #0
 4311 2146 3FF4C8AE 		beq	.L1143
 4312 214a DA68     		ldr	r2, [r3, #12]
 4313 214c C6E92224 		strd	r2, r4, [r6, #136]
 4314 2150 C3E6     		b	.L1143
 4315              	.L1292:
 4316 2152 96F89B30 		ldrb	r3, [r6, #155]	@ zero_extendqisi2
 4317 2156 002B     		cmp	r3, #0
 4318 2158 E6D1     		bne	.L1146
 4319              	.L1096:
 4320 215a 89F80430 		strb	r3, [r9, #4]
 4321 215e F464     		str	r4, [r6, #76]
 4322 2160 7AE6     		b	.L1090
 4323              	.L1285:
 4324 2162 D9F80C30 		ldr	r3, [r9, #12]
 4325 2166 13B1     		cbz	r3, .L1087
 4326 2168 2046     		mov	r0, r4
 4327 216a 0021     		movs	r1, #0
 4328 216c 9847     		blx	r3
 4329              	.L1087:
 4330 216e D8F80430 		ldr	r3, [r8, #4]
 4331 2172 D3F80480 		ldr	r8, [r3, #4]
 4332 2176 D8F80040 		ldr	r4, [r8]
 4333 217a D4F80490 		ldr	r9, [r4, #4]
 4334 217e 99F80430 		ldrb	r3, [r9, #4]	@ zero_extendqisi2
 4335 2182 55E6     		b	.L1086
 4336              	.L1294:
 4337 2184 0121     		movs	r1, #1
 4338 2186 0846     		mov	r0, r1
 4339 2188 FFF7FEFF 		bl	naveg_toggle_tool
 4340 218c 02B0     		add	sp, sp, #8
 4341              		@ sp needed
 4342 218e BDE8F087 		pop	{r4, r5, r6, r7, r8, r9, r10, pc}
 4343              	.L1112:
 4344 2192 0121     		movs	r1, #1
 4345 2194 0222     		movs	r2, #2
 4346 2196 0023     		movs	r3, #0
 4347 2198 A173     		strb	r1, [r4, #14]
 4348 219a 2273     		strb	r2, [r4, #12]
 4349 219c 6361     		str	r3, [r4, #20]
 4350 219e E8E6     		b	.L1115
 4351              	.L1299:
 4352 21a0 0223     		movs	r3, #2
 4353 21a2 DAE7     		b	.L1096
 4354              	.L1125:
 4355 21a4 0130     		adds	r0, r0, #1
 4356 21a6 00EB4000 		add	r0, r0, r0, lsl #1
 4357 21aa 07EB8007 		add	r7, r7, r0, lsl #2
 4358 21ae D7E90632 		ldrd	r3, r2, [r7, #24]
 4359 21b2 C4E90432 		strd	r3, r2, [r4, #16]
 4360 21b6 89E6     		b	.L1111
 4361              	.L1120:
 4362 21b8 00EB4000 		add	r0, r0, r0, lsl #1
 4363 21bc 0AEB800A 		add	r10, r10, r0, lsl #2
 4364 21c0 DAF81830 		ldr	r3, [r10, #24]
 4365 21c4 C4E90438 		strd	r3, r8, [r4, #16]
 4366 21c8 80E6     		b	.L1111
 4367              	.L1288:
 4368 21ca D9F80C30 		ldr	r3, [r9, #12]
 4369 21ce 002B     		cmp	r3, #0
 4370 21d0 7FF420AF 		bne	.L1280
 4371              	.L1128:
 4372 21d4 2B78     		ldrb	r3, [r5]	@ zero_extendqisi2
 4373 21d6 002B     		cmp	r3, #0
 4374 21d8 3FF483AE 		beq	.L1078
 4375 21dc 78E6     		b	.L1142
 4376              	.L1150:
 4377 21de DFF80081 		ldr	r8, .L1303+16
 4378 21e2 88E7     		b	.L1122
 4379              	.L1296:
 4380 21e4 B9F80830 		ldrh	r3, [r9, #8]
 4381 21e8 DFF8EC80 		ldr	r8, .L1303+8
 4382 21ec BE2B     		cmp	r3, #190
 4383 21ee 43D0     		beq	.L1155
 4384 21f0 8646     		mov	lr, r0
 4385 21f2 DFF8E8A0 		ldr	r10, .L1303+12
 4386 21f6 2CE7     		b	.L1124
 4387              	.L1289:
 4388 21f8 0022     		movs	r2, #0
 4389 21fa 0123     		movs	r3, #1
 4390 21fc BCF1820F 		cmp	ip, #130
 4391 2200 A273     		strb	r2, [r4, #14]
 4392 2202 6261     		str	r2, [r4, #20]
 4393 2204 2373     		strb	r3, [r4, #12]
 4394 2206 3448     		ldr	r0, .L1303+8
 4395 2208 3CD0     		beq	.L1130
 4396 220a 3449     		ldr	r1, .L1303+12
 4397 220c 04E0     		b	.L1131
 4398              	.L1133:
 4399 220e B7F91470 		ldrsh	r7, [r7, #20]
 4400 2212 BC45     		cmp	ip, r7
 4401 2214 36D0     		beq	.L1130
 4402 2216 D069     		ldr	r0, [r2, #28]
 4403              	.L1131:
 4404 2218 5A1C     		adds	r2, r3, #1
 4405 221a 03EB4303 		add	r3, r3, r3, lsl #1
 4406 221e 01EB8307 		add	r7, r1, r3, lsl #2
 4407 2222 D3B2     		uxtb	r3, r2
 4408 2224 03EB4302 		add	r2, r3, r3, lsl #1
 4409 2228 01EB8202 		add	r2, r1, r2, lsl #2
 4410 222c 0028     		cmp	r0, #0
 4411 222e EED1     		bne	.L1133
 4412              	.L1132:
 4413 2230 D9F80C30 		ldr	r3, [r9, #12]
 4414 2234 002B     		cmp	r3, #0
 4415 2236 CDD0     		beq	.L1128
 4416 2238 BCF1960F 		cmp	ip, #150
 4417 223c 7FF4EAAE 		bne	.L1280
 4418 2240 C8E7     		b	.L1128
 4419              	.L1134:
 4420 2242 A3F10902 		sub	r2, r3, #9
 4421 2246 012A     		cmp	r2, #1
 4422 2248 3FF640AE 		bhi	.L1111
 4423 224c 002F     		cmp	r7, #0
 4424 224e 3FF43DAE 		beq	.L1111
 4425 2252 96F8A410 		ldrb	r1, [r6, #164]	@ zero_extendqisi2
 4426 2256 69BB     		cbnz	r1, .L1139
 4427 2258 0120     		movs	r0, #1
 4428 225a D9F80C20 		ldr	r2, [r9, #12]
 4429 225e 86F8A400 		strb	r0, [r6, #164]
 4430 2262 002A     		cmp	r2, #0
 4431 2264 3FF432AE 		beq	.L1111
 4432 2268 0A2B     		cmp	r3, #10
 4433 226a B3D0     		beq	.L1128
 4434 226c 2046     		mov	r0, r4
 4435 226e 9047     		blx	r2
 4436 2270 2CE6     		b	.L1111
 4437              	.L1151:
 4438 2272 DFF87080 		ldr	r8, .L1303+20
 4439 2276 3EE7     		b	.L1122
 4440              	.L1155:
 4441 2278 DFF860A0 		ldr	r10, .L1303+12
 4442 227c 0FE7     		b	.L1147
 4443              	.L1152:
 4444 227e DFF86880 		ldr	r8, .L1303+24
 4445 2282 38E7     		b	.L1122
 4446              	.L1130:
 4447 2284 6061     		str	r0, [r4, #20]
 4448 2286 D3E7     		b	.L1132
 4449              	.L1290:
 4450 2288 1A7B     		ldrb	r2, [r3, #12]	@ zero_extendqisi2
 4451 228a 012A     		cmp	r2, #1
 4452 228c 0ED9     		bls	.L1136
 4453 228e 4FF00108 		mov	r8, #1
 4454              	.L1137:
 4455 2292 9B68     		ldr	r3, [r3, #8]
 4456 2294 53F82800 		ldr	r0, [r3, r8, lsl #2]
 4457 2298 FFF7FEFF 		bl	deselect_item
 4458 229c F36C     		ldr	r3, [r6, #76]
 4459 229e 08F10108 		add	r8, r8, #1
 4460 22a2 1A7B     		ldrb	r2, [r3, #12]	@ zero_extendqisi2
 4461 22a4 5FFA88F8 		uxtb	r8, r8
 4462 22a8 4245     		cmp	r2, r8
 4463 22aa F2D8     		bhi	.L1137
 4464              	.L1136:
 4465 22ac 2068     		ldr	r0, [r4]
 4466 22ae FFF7FEFF 		bl	select_item
 4467 22b2 00E6     		b	.L1135
 4468              	.L1139:
 4469 22b4 0021     		movs	r1, #0
 4470 22b6 092B     		cmp	r3, #9
 4471 22b8 86F8A410 		strb	r1, [r6, #164]
 4472 22bc 04D0     		beq	.L1300
 4473 22be D9F80C30 		ldr	r3, [r9, #12]
 4474 22c2 2046     		mov	r0, r4
 4475 22c4 9847     		blx	r3
 4476 22c6 FDE5     		b	.L1141
 4477              	.L1300:
 4478 22c8 2046     		mov	r0, r4
 4479 22ca FFF7FEFF 		bl	system_save_gains_cb
 4480 22ce F9E5     		b	.L1141
 4481              	.L1304:
 4482              		.align	2
 4483              	.L1303:
 4484 22d0 10010000 		.word	.LC26
 4485 22d4 0C010000 		.word	.LC25
 4486 22d8 B0000000 		.word	.LC21
 4487 22dc 00000000 		.word	.LANCHOR2
 4488 22e0 00010000 		.word	.LC22
 4489 22e4 04010000 		.word	.LC23
 4490 22e8 08010000 		.word	.LC24
 4492              		.align	1
 4493              		.p2align 2,,3
 4494              		.global	naveg_ui_connection
 4495              		.syntax unified
 4496              		.thumb
 4497              		.thumb_func
 4498              		.fpu softvfp
 4500              	naveg_ui_connection:
 4501              		@ args = 0, pretend = 0, frame = 0
 4502              		@ frame_needed = 0, uses_anonymous_args = 0
 4503 22ec 70B5     		push	{r4, r5, r6, lr}
 4504 22ee 244C     		ldr	r4, .L1341
 4505 22f0 94F89030 		ldrb	r3, [r4, #144]	@ zero_extendqisi2
 4506 22f4 73B3     		cbz	r3, .L1305
 4507 22f6 0128     		cmp	r0, #1
 4508 22f8 2FD0     		beq	.L1336
 4509 22fa 0023     		movs	r3, #0
 4510 22fc 606C     		ldr	r0, [r4, #68]
 4511 22fe 84F89B30 		strb	r3, [r4, #155]
 4512 2302 08B1     		cbz	r0, .L1314
 4513 2304 FFF7FEFF 		bl	data_free_banks_list
 4514              	.L1314:
 4515 2308 206C     		ldr	r0, [r4, #64]
 4516 230a 08B1     		cbz	r0, .L1315
 4517 230c FFF7FEFF 		bl	data_free_pedalboards_list
 4518              	.L1315:
 4519 2310 0023     		movs	r3, #0
 4520 2312 1C4A     		ldr	r2, .L1341+4
 4521 2314 6364     		str	r3, [r4, #68]
 4522 2316 1179     		ldrb	r1, [r2, #4]	@ zero_extendqisi2
 4523 2318 2364     		str	r3, [r4, #64]
 4524 231a 2360     		str	r3, [r4]
 4525 231c 51B3     		cbz	r1, .L1316
 4526              	.L1311:
 4527 231e 94F89030 		ldrb	r3, [r4, #144]	@ zero_extendqisi2
 4528 2322 13BB     		cbnz	r3, .L1309
 4529              	.L1313:
 4530 2324 D4F8A030 		ldr	r3, [r4, #160]
 4531 2328 9B68     		ldr	r3, [r3, #8]
 4532 232a 9BB1     		cbz	r3, .L1305
 4533 232c 0025     		movs	r5, #0
 4534 232e E66C     		ldr	r6, [r4, #76]
 4535 2330 03E0     		b	.L1319
 4536              	.L1339:
 4537 2332 962A     		cmp	r2, #150
 4538 2334 0FD0     		beq	.L1337
 4539 2336 5B69     		ldr	r3, [r3, #20]
 4540 2338 5BB1     		cbz	r3, .L1338
 4541              	.L1319:
 4542 233a 1868     		ldr	r0, [r3]
 4543 233c 4168     		ldr	r1, [r0, #4]
 4544 233e CA88     		ldrh	r2, [r1, #6]
 4545 2340 822A     		cmp	r2, #130
 4546 2342 F6D1     		bne	.L1339
 4547 2344 0222     		movs	r2, #2
 4548              	.L1317:
 4549 2346 5B69     		ldr	r3, [r3, #20]
 4550 2348 0646     		mov	r6, r0
 4551 234a 0125     		movs	r5, #1
 4552 234c 0A71     		strb	r2, [r1, #4]
 4553 234e 002B     		cmp	r3, #0
 4554 2350 F3D1     		bne	.L1319
 4555              	.L1338:
 4556 2352 9DB9     		cbnz	r5, .L1340
 4557              	.L1305:
 4558 2354 70BD     		pop	{r4, r5, r6, pc}
 4559              	.L1337:
 4560 2356 0022     		movs	r2, #0
 4561 2358 F5E7     		b	.L1317
 4562              	.L1336:
 4563 235a 0A4B     		ldr	r3, .L1341+4
 4564 235c 84F89B00 		strb	r0, [r4, #155]
 4565 2360 1A79     		ldrb	r2, [r3, #4]	@ zero_extendqisi2
 4566 2362 12B9     		cbnz	r2, .L1309
 4567 2364 1B78     		ldrb	r3, [r3]	@ zero_extendqisi2
 4568 2366 002B     		cmp	r3, #0
 4569 2368 F4D0     		beq	.L1305
 4570              	.L1309:
 4571 236a 0021     		movs	r1, #0
 4572 236c 0846     		mov	r0, r1
 4573 236e FFF74FFC 		bl	naveg_toggle_tool.part.6
 4574 2372 D7E7     		b	.L1313
 4575              	.L1316:
 4576 2374 1378     		ldrb	r3, [r2]	@ zero_extendqisi2
 4577 2376 002B     		cmp	r3, #0
 4578 2378 D1D1     		bne	.L1311
 4579 237a 70BD     		pop	{r4, r5, r6, pc}
 4580              	.L1340:
 4581 237c E664     		str	r6, [r4, #76]
 4582 237e 70BD     		pop	{r4, r5, r6, pc}
 4583              	.L1342:
 4584              		.align	2
 4585              	.L1341:
 4586 2380 00000000 		.word	.LANCHOR0
 4587 2384 00000000 		.word	g_tool
 4589              		.align	1
 4590              		.p2align 2,,3
 4591              		.global	naveg_up
 4592              		.syntax unified
 4593              		.thumb
 4594              		.thumb_func
 4595              		.fpu softvfp
 4597              	naveg_up:
 4598              		@ args = 0, pretend = 0, frame = 0
 4599              		@ frame_needed = 0, uses_anonymous_args = 0
 4600 2388 70B5     		push	{r4, r5, r6, lr}
 4601 238a 3E4C     		ldr	r4, .L1388
 4602 238c 94F89030 		ldrb	r3, [r4, #144]	@ zero_extendqisi2
 4603 2390 4BB1     		cbz	r3, .L1343
 4604 2392 3D4D     		ldr	r5, .L1388+4
 4605 2394 2B46     		mov	r3, r5
 4606 2396 05F10A01 		add	r1, r5, #10
 4607              	.L1347:
 4608 239a 5A78     		ldrb	r2, [r3, #1]	@ zero_extendqisi2
 4609 239c 8242     		cmp	r2, r0
 4610 239e 03D0     		beq	.L1382
 4611              	.L1345:
 4612 23a0 0233     		adds	r3, r3, #2
 4613 23a2 9942     		cmp	r1, r3
 4614 23a4 F9D1     		bne	.L1347
 4615              	.L1343:
 4616 23a6 70BD     		pop	{r4, r5, r6, pc}
 4617              	.L1382:
 4618 23a8 1A78     		ldrb	r2, [r3]	@ zero_extendqisi2
 4619 23aa 012A     		cmp	r2, #1
 4620 23ac F8D1     		bne	.L1345
 4621 23ae C0B9     		cbnz	r0, .L1383
 4622 23b0 AB78     		ldrb	r3, [r5, #2]	@ zero_extendqisi2
 4623 23b2 4BBB     		cbnz	r3, .L1348
 4624 23b4 2B79     		ldrb	r3, [r5, #4]	@ zero_extendqisi2
 4625 23b6 33BB     		cbnz	r3, .L1384
 4626 23b8 2B78     		ldrb	r3, [r5]	@ zero_extendqisi2
 4627 23ba 002B     		cmp	r3, #0
 4628 23bc F3D0     		beq	.L1343
 4629 23be D4E92013 		ldrd	r1, r3, [r4, #128]
 4630 23c2 8B42     		cmp	r3, r1
 4631 23c4 E26C     		ldr	r2, [r4, #76]
 4632 23c6 02D0     		beq	.L1350
 4633 23c8 5168     		ldr	r1, [r2, #4]
 4634 23ca C988     		ldrh	r1, [r1, #6]
 4635 23cc 11B9     		cbnz	r1, .L1351
 4636              	.L1350:
 4637 23ce C4F8A030 		str	r3, [r4, #160]
 4638 23d2 2265     		str	r2, [r4, #80]
 4639              	.L1351:
 4640 23d4 0020     		movs	r0, #0
 4641 23d6 FEF7E9FA 		bl	menu_up
 4642 23da BDE87040 		pop	{r4, r5, r6, lr}
 4643 23de 0020     		movs	r0, #0
 4644 23e0 E6E4     		b	menu_enter
 4645              	.L1383:
 4646 23e2 0128     		cmp	r0, #1
 4647 23e4 DFD1     		bne	.L1343
 4648 23e6 2B7A     		ldrb	r3, [r5, #8]	@ zero_extendqisi2
 4649 23e8 13BB     		cbnz	r3, .L1385
 4650 23ea 2B79     		ldrb	r3, [r5, #4]	@ zero_extendqisi2
 4651 23ec 23BB     		cbnz	r3, .L1386
 4652 23ee AB79     		ldrb	r3, [r5, #6]	@ zero_extendqisi2
 4653 23f0 002B     		cmp	r3, #0
 4654 23f2 D8D0     		beq	.L1343
 4655 23f4 D4E92032 		ldrd	r3, r2, [r4, #128]
 4656 23f8 9A42     		cmp	r2, r3
 4657 23fa 2DD0     		beq	.L1387
 4658              	.L1357:
 4659 23fc BDE87040 		pop	{r4, r5, r6, lr}
 4660 2400 0120     		movs	r0, #1
 4661 2402 FEF7D3BA 		b	menu_up
 4662              	.L1384:
 4663 2406 0222     		movs	r2, #2
 4664              	.L1348:
 4665 2408 1046     		mov	r0, r2
 4666 240a 0021     		movs	r1, #0
 4667 240c FFF700FC 		bl	naveg_toggle_tool.part.6
 4668 2410 0123     		movs	r3, #1
 4669 2412 D4F8A010 		ldr	r1, [r4, #160]
 4670 2416 226D     		ldr	r2, [r4, #80]
 4671 2418 0020     		movs	r0, #0
 4672 241a AB71     		strb	r3, [r5, #6]
 4673 241c EB71     		strb	r3, [r5, #7]
 4674 241e C4F88410 		str	r1, [r4, #132]
 4675 2422 E264     		str	r2, [r4, #76]
 4676 2424 FEF7C2FA 		bl	menu_up
 4677 2428 BDE87040 		pop	{r4, r5, r6, lr}
 4678 242c 0020     		movs	r0, #0
 4679 242e BFE4     		b	menu_enter
 4680              	.L1385:
 4681 2430 BDE87040 		pop	{r4, r5, r6, lr}
 4682 2434 FEF77CBB 		b	naveg_set_master_volume.part.2
 4683              	.L1386:
 4684 2438 616C     		ldr	r1, [r4, #68]
 4685 243a 0029     		cmp	r1, #0
 4686 243c B3D0     		beq	.L1343
 4687 243e 94F87C30 		ldrb	r3, [r4, #124]	@ zero_extendqisi2
 4688 2442 7BB9     		cbnz	r3, .L1354
 4689 2444 4B7A     		ldrb	r3, [r1, #9]	@ zero_extendqisi2
 4690 2446 D3B1     		cbz	r3, .L1360
 4691 2448 013B     		subs	r3, r3, #1
 4692 244a 104E     		ldr	r6, .L1388+8
 4693 244c 4B72     		strb	r3, [r1, #9]
 4694              	.L1355:
 4695 244e 3046     		mov	r0, r6
 4696 2450 BDE87040 		pop	{r4, r5, r6, lr}
 4697 2454 FFF7FEBF 		b	screen_bp_list
 4698              	.L1387:
 4699 2458 E36C     		ldr	r3, [r4, #76]
 4700 245a 5B68     		ldr	r3, [r3, #4]
 4701 245c DB88     		ldrh	r3, [r3, #6]
 4702 245e 002B     		cmp	r3, #0
 4703 2460 CCD1     		bne	.L1357
 4704 2462 A0E7     		b	.L1343
 4705              	.L1354:
 4706 2464 012B     		cmp	r3, #1
 4707 2466 F2D1     		bne	.L1355
 4708 2468 226C     		ldr	r2, [r4, #64]
 4709 246a 537A     		ldrb	r3, [r2, #9]	@ zero_extendqisi2
 4710 246c 0BB1     		cbz	r3, .L1356
 4711 246e 013B     		subs	r3, r3, #1
 4712 2470 5372     		strb	r3, [r2, #9]
 4713              	.L1356:
 4714 2472 487A     		ldrb	r0, [r1, #9]	@ zero_extendqisi2
 4715 2474 0B68     		ldr	r3, [r1]
 4716 2476 1146     		mov	r1, r2
 4717 2478 53F82060 		ldr	r6, [r3, r0, lsl #2]
 4718 247c E7E7     		b	.L1355
 4719              	.L1360:
 4720 247e 034E     		ldr	r6, .L1388+8
 4721 2480 E5E7     		b	.L1355
 4722              	.L1389:
 4723 2482 00BF     		.align	2
 4724              	.L1388:
 4725 2484 00000000 		.word	.LANCHOR0
 4726 2488 00000000 		.word	g_tool
 4727 248c 6C000000 		.word	.LC15
 4729              		.align	1
 4730              		.p2align 2,,3
 4731              		.global	naveg_down
 4732              		.syntax unified
 4733              		.thumb
 4734              		.thumb_func
 4735              		.fpu softvfp
 4737              	naveg_down:
 4738              		@ args = 0, pretend = 0, frame = 0
 4739              		@ frame_needed = 0, uses_anonymous_args = 0
 4740 2490 70B5     		push	{r4, r5, r6, lr}
 4741 2492 414C     		ldr	r4, .L1432
 4742 2494 94F89030 		ldrb	r3, [r4, #144]	@ zero_extendqisi2
 4743 2498 4BB1     		cbz	r3, .L1390
 4744 249a 404D     		ldr	r5, .L1432+4
 4745 249c 2B46     		mov	r3, r5
 4746 249e 05F10A01 		add	r1, r5, #10
 4747              	.L1394:
 4748 24a2 5A78     		ldrb	r2, [r3, #1]	@ zero_extendqisi2
 4749 24a4 8242     		cmp	r2, r0
 4750 24a6 03D0     		beq	.L1426
 4751              	.L1392:
 4752 24a8 0233     		adds	r3, r3, #2
 4753 24aa 9942     		cmp	r1, r3
 4754 24ac F9D1     		bne	.L1394
 4755              	.L1390:
 4756 24ae 70BD     		pop	{r4, r5, r6, pc}
 4757              	.L1426:
 4758 24b0 1A78     		ldrb	r2, [r3]	@ zero_extendqisi2
 4759 24b2 012A     		cmp	r2, #1
 4760 24b4 F8D1     		bne	.L1392
 4761 24b6 C0B9     		cbnz	r0, .L1427
 4762 24b8 AB78     		ldrb	r3, [r5, #2]	@ zero_extendqisi2
 4763 24ba 4BBB     		cbnz	r3, .L1395
 4764 24bc 2B79     		ldrb	r3, [r5, #4]	@ zero_extendqisi2
 4765 24be 33BB     		cbnz	r3, .L1428
 4766 24c0 2B78     		ldrb	r3, [r5]	@ zero_extendqisi2
 4767 24c2 002B     		cmp	r3, #0
 4768 24c4 F3D0     		beq	.L1390
 4769 24c6 D4E92013 		ldrd	r1, r3, [r4, #128]
 4770 24ca 8B42     		cmp	r3, r1
 4771 24cc E26C     		ldr	r2, [r4, #76]
 4772 24ce 02D0     		beq	.L1397
 4773 24d0 5168     		ldr	r1, [r2, #4]
 4774 24d2 C988     		ldrh	r1, [r1, #6]
 4775 24d4 11B9     		cbnz	r1, .L1398
 4776              	.L1397:
 4777 24d6 C4F8A030 		str	r3, [r4, #160]
 4778 24da 2265     		str	r2, [r4, #80]
 4779              	.L1398:
 4780 24dc 0020     		movs	r0, #0
 4781 24de FEF795FA 		bl	menu_down
 4782 24e2 BDE87040 		pop	{r4, r5, r6, lr}
 4783 24e6 0020     		movs	r0, #0
 4784 24e8 62E4     		b	menu_enter
 4785              	.L1427:
 4786 24ea 0128     		cmp	r0, #1
 4787 24ec DFD1     		bne	.L1390
 4788 24ee 2B7A     		ldrb	r3, [r5, #8]	@ zero_extendqisi2
 4789 24f0 13BB     		cbnz	r3, .L1429
 4790 24f2 2B79     		ldrb	r3, [r5, #4]	@ zero_extendqisi2
 4791 24f4 2BBB     		cbnz	r3, .L1430
 4792 24f6 AB79     		ldrb	r3, [r5, #6]	@ zero_extendqisi2
 4793 24f8 002B     		cmp	r3, #0
 4794 24fa D8D0     		beq	.L1390
 4795 24fc D4E92032 		ldrd	r3, r2, [r4, #128]
 4796 2500 9A42     		cmp	r2, r3
 4797 2502 31D0     		beq	.L1431
 4798              	.L1404:
 4799 2504 BDE87040 		pop	{r4, r5, r6, lr}
 4800 2508 0120     		movs	r0, #1
 4801 250a FEF77FBA 		b	menu_down
 4802              	.L1428:
 4803 250e 0222     		movs	r2, #2
 4804              	.L1395:
 4805 2510 1046     		mov	r0, r2
 4806 2512 0021     		movs	r1, #0
 4807 2514 FFF77CFB 		bl	naveg_toggle_tool.part.6
 4808 2518 0123     		movs	r3, #1
 4809 251a D4F8A010 		ldr	r1, [r4, #160]
 4810 251e 226D     		ldr	r2, [r4, #80]
 4811 2520 0020     		movs	r0, #0
 4812 2522 AB71     		strb	r3, [r5, #6]
 4813 2524 EB71     		strb	r3, [r5, #7]
 4814 2526 C4F88410 		str	r1, [r4, #132]
 4815 252a E264     		str	r2, [r4, #76]
 4816 252c FEF76EFA 		bl	menu_down
 4817 2530 BDE87040 		pop	{r4, r5, r6, lr}
 4818 2534 0020     		movs	r0, #0
 4819 2536 3BE4     		b	menu_enter
 4820              	.L1429:
 4821 2538 0020     		movs	r0, #0
 4822 253a BDE87040 		pop	{r4, r5, r6, lr}
 4823 253e FEF7F7BA 		b	naveg_set_master_volume.part.2
 4824              	.L1430:
 4825 2542 616C     		ldr	r1, [r4, #68]
 4826 2544 0029     		cmp	r1, #0
 4827 2546 B2D0     		beq	.L1390
 4828 2548 94F87C30 		ldrb	r3, [r4, #124]	@ zero_extendqisi2
 4829 254c 93B9     		cbnz	r3, .L1401
 4830 254e 0A7A     		ldrb	r2, [r1, #8]	@ zero_extendqisi2
 4831 2550 4B7A     		ldrb	r3, [r1, #9]	@ zero_extendqisi2
 4832 2552 013A     		subs	r2, r2, #1
 4833 2554 9342     		cmp	r3, r2
 4834 2556 1DDA     		bge	.L1407
 4835 2558 0133     		adds	r3, r3, #1
 4836 255a 114E     		ldr	r6, .L1432+8
 4837 255c 4B72     		strb	r3, [r1, #9]
 4838              	.L1402:
 4839 255e 3046     		mov	r0, r6
 4840 2560 BDE87040 		pop	{r4, r5, r6, lr}
 4841 2564 FFF7FEBF 		b	screen_bp_list
 4842              	.L1431:
 4843 2568 E36C     		ldr	r3, [r4, #76]
 4844 256a 5B68     		ldr	r3, [r3, #4]
 4845 256c DB88     		ldrh	r3, [r3, #6]
 4846 256e 002B     		cmp	r3, #0
 4847 2570 C8D1     		bne	.L1404
 4848 2572 9CE7     		b	.L1390
 4849              	.L1401:
 4850 2574 012B     		cmp	r3, #1
 4851 2576 F2D1     		bne	.L1402
 4852 2578 236C     		ldr	r3, [r4, #64]
 4853 257a 187A     		ldrb	r0, [r3, #8]	@ zero_extendqisi2
 4854 257c 5A7A     		ldrb	r2, [r3, #9]	@ zero_extendqisi2
 4855 257e 0138     		subs	r0, r0, #1
 4856 2580 8242     		cmp	r2, r0
 4857 2582 BCBF     		itt	lt
 4858 2584 0132     		addlt	r2, r2, #1
 4859 2586 5A72     		strblt	r2, [r3, #9]
 4860 2588 487A     		ldrb	r0, [r1, #9]	@ zero_extendqisi2
 4861 258a 0A68     		ldr	r2, [r1]
 4862 258c 1946     		mov	r1, r3
 4863 258e 52F82060 		ldr	r6, [r2, r0, lsl #2]
 4864 2592 E4E7     		b	.L1402
 4865              	.L1407:
 4866 2594 024E     		ldr	r6, .L1432+8
 4867 2596 E2E7     		b	.L1402
 4868              	.L1433:
 4869              		.align	2
 4870              	.L1432:
 4871 2598 00000000 		.word	.LANCHOR0
 4872 259c 00000000 		.word	g_tool
 4873 25a0 6C000000 		.word	.LC15
 4875              		.align	1
 4876              		.p2align 2,,3
 4877              		.global	naveg_reset_menu
 4878              		.syntax unified
 4879              		.thumb
 4880              		.thumb_func
 4881              		.fpu softvfp
 4883              	naveg_reset_menu:
 4884              		@ args = 0, pretend = 0, frame = 0
 4885              		@ frame_needed = 0, uses_anonymous_args = 0
 4886              		@ link register save eliminated.
 4887 25a4 074B     		ldr	r3, .L1437
 4888 25a6 93F89020 		ldrb	r2, [r3, #144]	@ zero_extendqisi2
 4889 25aa 02B9     		cbnz	r2, .L1436
 4890 25ac 7047     		bx	lr
 4891              	.L1436:
 4892 25ae D3F88020 		ldr	r2, [r3, #128]
 4893 25b2 9068     		ldr	r0, [r2, #8]
 4894 25b4 C3F88420 		str	r2, [r3, #132]
 4895 25b8 0168     		ldr	r1, [r0]
 4896 25ba C3F8A020 		str	r2, [r3, #160]
 4897 25be D964     		str	r1, [r3, #76]
 4898 25c0 FEF756BA 		b	reset_menu_hover.isra.0
 4899              	.L1438:
 4900              		.align	2
 4901              	.L1437:
 4902 25c4 00000000 		.word	.LANCHOR0
 4904              		.align	1
 4905              		.p2align 2,,3
 4906              		.global	naveg_need_update
 4907              		.syntax unified
 4908              		.thumb
 4909              		.thumb_func
 4910              		.fpu softvfp
 4912              	naveg_need_update:
 4913              		@ args = 0, pretend = 0, frame = 0
 4914              		@ frame_needed = 0, uses_anonymous_args = 0
 4915              		@ link register save eliminated.
 4916 25c8 034B     		ldr	r3, .L1440
 4917 25ca D3F88800 		ldr	r0, [r3, #136]
 4918 25ce 0030     		adds	r0, r0, #0
 4919 25d0 18BF     		it	ne
 4920 25d2 0120     		movne	r0, #1
 4921 25d4 7047     		bx	lr
 4922              	.L1441:
 4923 25d6 00BF     		.align	2
 4924              	.L1440:
 4925 25d8 00000000 		.word	.LANCHOR0
 4927              		.align	1
 4928              		.p2align 2,,3
 4929              		.global	naveg_update
 4930              		.syntax unified
 4931              		.thumb
 4932              		.thumb_func
 4933              		.fpu softvfp
 4935              	naveg_update:
 4936              		@ args = 0, pretend = 0, frame = 0
 4937              		@ frame_needed = 0, uses_anonymous_args = 0
 4938 25dc 10B5     		push	{r4, lr}
 4939 25de 074C     		ldr	r4, .L1445
 4940 25e0 D4F88830 		ldr	r3, [r4, #136]
 4941 25e4 4BB1     		cbz	r3, .L1442
 4942 25e6 D4F88C00 		ldr	r0, [r4, #140]
 4943 25ea 0021     		movs	r1, #0
 4944 25ec 9847     		blx	r3
 4945 25ee D4F88C00 		ldr	r0, [r4, #140]
 4946 25f2 BDE81040 		pop	{r4, lr}
 4947 25f6 FFF7FEBF 		b	screen_system_menu
 4948              	.L1442:
 4949 25fa 10BD     		pop	{r4, pc}
 4950              	.L1446:
 4951              		.align	2
 4952              	.L1445:
 4953 25fc 00000000 		.word	.LANCHOR0
 4955              		.align	1
 4956              		.p2align 2,,3
 4957              		.global	naveg_dialog
 4958              		.syntax unified
 4959              		.thumb
 4960              		.thumb_func
 4961              		.fpu softvfp
 4963              	naveg_dialog:
 4964              		@ args = 0, pretend = 0, frame = 0
 4965              		@ frame_needed = 0, uses_anonymous_args = 0
 4966 2600 70B5     		push	{r4, r5, r6, lr}
 4967 2602 1A4C     		ldr	r4, .L1455
 4968 2604 D4F8A850 		ldr	r5, [r4, #168]
 4969 2608 EDB1     		cbz	r5, .L1454
 4970              	.L1448:
 4971 260a 0122     		movs	r2, #1
 4972 260c 0026     		movs	r6, #0
 4973 260e 184B     		ldr	r3, .L1455+4
 4974 2610 C4F88450 		str	r5, [r4, #132]
 4975 2614 1A70     		strb	r2, [r3]
 4976 2616 5E70     		strb	r6, [r3, #1]
 4977 2618 2B68     		ldr	r3, [r5]
 4978 261a 1846     		mov	r0, r3
 4979 261c E364     		str	r3, [r4, #76]
 4980 261e FFF7FEFF 		bl	screen_system_menu
 4981 2622 3346     		mov	r3, r6
 4982 2624 3146     		mov	r1, r6
 4983 2626 4FF0FF32 		mov	r2, #-1
 4984 262a D4F89400 		ldr	r0, [r4, #148]
 4985 262e FFF7FEFF 		bl	xQueueGenericReceive
 4986 2632 94F89030 		ldrb	r3, [r4, #144]	@ zero_extendqisi2
 4987 2636 1BB1     		cbz	r3, .L1449
 4988 2638 3146     		mov	r1, r6
 4989 263a 3046     		mov	r0, r6
 4990 263c FFF7E8FA 		bl	naveg_toggle_tool.part.6
 4991              	.L1449:
 4992 2640 E36C     		ldr	r3, [r4, #76]
 4993 2642 987B     		ldrb	r0, [r3, #14]	@ zero_extendqisi2
 4994 2644 70BD     		pop	{r4, r5, r6, pc}
 4995              	.L1454:
 4996 2646 0646     		mov	r6, r0
 4997 2648 2020     		movs	r0, #32
 4998 264a FFF7FEFF 		bl	pvPortMalloc
 4999 264e 4FF60271 		movw	r1, #65282
 5000 2652 084A     		ldr	r2, .L1455+8
 5001 2654 8560     		str	r5, [r0, #8]
 5002 2656 8573     		strb	r5, [r0, #14]
 5003 2658 0560     		str	r5, [r0]
 5004 265a 4661     		str	r6, [r0, #20]
 5005 265c 8181     		strh	r1, [r0, #12]	@ movhi
 5006 265e 4260     		str	r2, [r0, #4]
 5007 2660 FFF7FEFF 		bl	node_create
 5008 2664 0546     		mov	r5, r0
 5009 2666 C4F8A800 		str	r0, [r4, #168]
 5010 266a CEE7     		b	.L1448
 5011              	.L1456:
 5012              		.align	2
 5013              	.L1455:
 5014 266c 00000000 		.word	.LANCHOR0
 5015 2670 00000000 		.word	g_tool
 5016 2674 18050000 		.word	.LANCHOR1+1304
 5018              		.align	1
 5019              		.p2align 2,,3
 5020              		.global	naveg_ui_status
 5021              		.syntax unified
 5022              		.thumb
 5023              		.thumb_func
 5024              		.fpu softvfp
 5026              	naveg_ui_status:
 5027              		@ args = 0, pretend = 0, frame = 0
 5028              		@ frame_needed = 0, uses_anonymous_args = 0
 5029              		@ link register save eliminated.
 5030 2678 014B     		ldr	r3, .L1458
 5031 267a 93F89B00 		ldrb	r0, [r3, #155]	@ zero_extendqisi2
 5032 267e 7047     		bx	lr
 5033              	.L1459:
 5034              		.align	2
 5035              	.L1458:
 5036 2680 00000000 		.word	.LANCHOR0
 5038              		.align	1
 5039              		.p2align 2,,3
 5040              		.global	naveg_tap_tempo_status
 5041              		.syntax unified
 5042              		.thumb
 5043              		.thumb_func
 5044              		.fpu softvfp
 5046              	naveg_tap_tempo_status:
 5047              		@ args = 0, pretend = 0, frame = 0
 5048              		@ frame_needed = 0, uses_anonymous_args = 0
 5049              		@ link register save eliminated.
 5050 2684 044B     		ldr	r3, .L1461
 5051 2686 00EB4000 		add	r0, r0, r0, lsl #1
 5052 268a 03EB8003 		add	r3, r3, r0, lsl #2
 5053 268e 187A     		ldrb	r0, [r3, #8]	@ zero_extendqisi2
 5054 2690 0030     		adds	r0, r0, #0
 5055 2692 18BF     		it	ne
 5056 2694 0120     		movne	r0, #1
 5057 2696 7047     		bx	lr
 5058              	.L1462:
 5059              		.align	2
 5060              	.L1461:
 5061 2698 00000000 		.word	g_tap_tempo
 5063              		.align	1
 5064              		.p2align 2,,3
 5065              		.global	naveg_settings_refresh
 5066              		.syntax unified
 5067              		.thumb
 5068              		.thumb_func
 5069              		.fpu softvfp
 5071              	naveg_settings_refresh:
 5072              		@ args = 0, pretend = 0, frame = 0
 5073              		@ frame_needed = 0, uses_anonymous_args = 0
 5074              		@ link register save eliminated.
 5075 269c 034B     		ldr	r3, .L1466
 5076 269e 10B9     		cbnz	r0, .L1465
 5077 26a0 186D     		ldr	r0, [r3, #80]
 5078 26a2 FFF7FEBF 		b	screen_system_menu
 5079              	.L1465:
 5080 26a6 D86C     		ldr	r0, [r3, #76]
 5081 26a8 FFF7FEBF 		b	screen_system_menu
 5082              	.L1467:
 5083              		.align	2
 5084              	.L1466:
 5085 26ac 00000000 		.word	.LANCHOR0
 5087              		.align	1
 5088              		.p2align 2,,3
 5089              		.global	naveg_menu_refresh
 5090              		.syntax unified
 5091              		.thumb
 5092              		.thumb_func
 5093              		.fpu softvfp
 5095              	naveg_menu_refresh:
 5096              		@ args = 0, pretend = 0, frame = 0
 5097              		@ frame_needed = 0, uses_anonymous_args = 0
 5098 26b0 70B5     		push	{r4, r5, r6, lr}
 5099 26b2 0646     		mov	r6, r0
 5100 26b4 0F4D     		ldr	r5, .L1483
 5101 26b6 90B1     		cbz	r0, .L1469
 5102 26b8 D5F88430 		ldr	r3, [r5, #132]
 5103 26bc 9C68     		ldr	r4, [r3, #8]
 5104 26be 4CB1     		cbz	r4, .L1474
 5105              	.L1473:
 5106 26c0 2068     		ldr	r0, [r4]
 5107 26c2 4368     		ldr	r3, [r0, #4]
 5108 26c4 DB68     		ldr	r3, [r3, #12]
 5109 26c6 0BB1     		cbz	r3, .L1472
 5110 26c8 0321     		movs	r1, #3
 5111 26ca 9847     		blx	r3
 5112              	.L1472:
 5113 26cc 6469     		ldr	r4, [r4, #20]
 5114 26ce 002C     		cmp	r4, #0
 5115 26d0 F6D1     		bne	.L1473
 5116 26d2 4EB1     		cbz	r6, .L1471
 5117              	.L1474:
 5118 26d4 E86C     		ldr	r0, [r5, #76]
 5119 26d6 BDE87040 		pop	{r4, r5, r6, lr}
 5120 26da FFF7FEBF 		b	screen_system_menu
 5121              	.L1469:
 5122 26de D5F8A030 		ldr	r3, [r5, #160]
 5123 26e2 9C68     		ldr	r4, [r3, #8]
 5124 26e4 002C     		cmp	r4, #0
 5125 26e6 EBD1     		bne	.L1473
 5126              	.L1471:
 5127 26e8 286D     		ldr	r0, [r5, #80]
 5128 26ea BDE87040 		pop	{r4, r5, r6, lr}
 5129 26ee FFF7FEBF 		b	screen_system_menu
 5130              	.L1484:
 5131 26f2 00BF     		.align	2
 5132              	.L1483:
 5133 26f4 00000000 		.word	.LANCHOR0
 5135              		.align	1
 5136              		.p2align 2,,3
 5137              		.global	naveg_update_gain
 5138              		.syntax unified
 5139              		.thumb
 5140              		.thumb_func
 5141              		.fpu softvfp
 5143              	naveg_update_gain:
 5144              		@ args = 0, pretend = 0, frame = 8
 5145              		@ frame_needed = 0, uses_anonymous_args = 0
 5146 26f8 2DE9F04F 		push	{r4, r5, r6, r7, r8, r9, r10, fp, lr}
 5147 26fc 2C4B     		ldr	r3, .L1500
 5148 26fe 83B0     		sub	sp, sp, #12
 5149 2700 0028     		cmp	r0, #0
 5150 2702 51D0     		beq	.L1486
 5151 2704 D3F88430 		ldr	r3, [r3, #132]
 5152              	.L1487:
 5153 2708 9C68     		ldr	r4, [r3, #8]
 5154 270a 4CB1     		cbz	r4, .L1485
 5155 270c 9146     		mov	r9, r2
 5156 270e 8EB2     		uxth	r6, r1
 5157              	.L1493:
 5158 2710 2568     		ldr	r5, [r4]
 5159 2712 6B68     		ldr	r3, [r5, #4]
 5160 2714 DB88     		ldrh	r3, [r3, #6]
 5161 2716 B342     		cmp	r3, r6
 5162 2718 05D0     		beq	.L1499
 5163              	.L1489:
 5164 271a 6469     		ldr	r4, [r4, #20]
 5165 271c 002C     		cmp	r4, #0
 5166 271e F7D1     		bne	.L1493
 5167              	.L1485:
 5168 2720 03B0     		add	sp, sp, #12
 5169              		@ sp needed
 5170 2722 BDE8F08F 		pop	{r4, r5, r6, r7, r8, r9, r10, fp, pc}
 5171              	.L1499:
 5172 2726 4846     		mov	r0, r9
 5173 2728 FFF7FEFF 		bl	__aeabi_f2iz
 5174 272c 0822     		movs	r2, #8
 5175 272e 0123     		movs	r3, #1
 5176 2730 A883     		strh	r0, [r5, #28]	@ movhi
 5177 2732 6946     		mov	r1, sp
 5178 2734 4846     		mov	r0, r9
 5179 2736 FFF7FEFF 		bl	float_to_str
 5180 273a D5E90003 		ldrd	r0, r3, [r5]
 5181 273e 1968     		ldr	r1, [r3]
 5182 2740 FFF7FEFF 		bl	strcpy
 5183 2744 6846     		mov	r0, sp
 5184 2746 FFF7FEFF 		bl	strlen
 5185 274a D5F800B0 		ldr	fp, [r5]
 5186 274e 0746     		mov	r7, r0
 5187 2750 5846     		mov	r0, fp
 5188 2752 FFF7FEFF 		bl	strlen
 5189 2756 FFB2     		uxtb	r7, r7
 5190 2758 C7F11D07 		rsb	r7, r7, #29
 5191 275c C3B2     		uxtb	r3, r0
 5192 275e FF1A     		subs	r7, r7, r3
 5193 2760 002F     		cmp	r7, #0
 5194 2762 12DD     		ble	.L1490
 5195 2764 134B     		ldr	r3, .L1500+4
 5196 2766 4FF0000A 		mov	r10, #0
 5197 276a B3F80080 		ldrh	r8, [r3]	@ unaligned
 5198 276e 02E0     		b	.L1492
 5199              	.L1491:
 5200 2770 5846     		mov	r0, fp
 5201 2772 FFF7FEFF 		bl	strlen
 5202              	.L1492:
 5203 2776 0AF10103 		add	r3, r10, #1
 5204 277a 5FFA83FA 		uxtb	r10, r3
 5205 277e 2BF80080 		strh	r8, [fp, r0]	@ unaligned
 5206 2782 BA45     		cmp	r10, r7
 5207 2784 D5F800B0 		ldr	fp, [r5]
 5208 2788 F2DB     		blt	.L1491
 5209              	.L1490:
 5210 278a 6946     		mov	r1, sp
 5211 278c 5846     		mov	r0, fp
 5212 278e FFF7FEFF 		bl	strcat
 5213 2792 2D68     		ldr	r5, [r5]
 5214 2794 2846     		mov	r0, r5
 5215 2796 FFF7FEFF 		bl	strlen
 5216 279a 074B     		ldr	r3, .L1500+8
 5217 279c 1A88     		ldrh	r2, [r3]	@ unaligned
 5218 279e 9B78     		ldrb	r3, [r3, #2]	@ zero_extendqisi2
 5219 27a0 2A52     		strh	r2, [r5, r0]	@ unaligned
 5220 27a2 0544     		add	r5, r5, r0
 5221 27a4 AB70     		strb	r3, [r5, #2]
 5222 27a6 B8E7     		b	.L1489
 5223              	.L1486:
 5224 27a8 D3F8A030 		ldr	r3, [r3, #160]
 5225 27ac ACE7     		b	.L1487
 5226              	.L1501:
 5227 27ae 00BF     		.align	2
 5228              	.L1500:
 5229 27b0 00000000 		.word	.LANCHOR0
 5230 27b4 14010000 		.word	.LC27
 5231 27b8 18010000 		.word	.LC28
 5233              		.align	1
 5234              		.p2align 2,,3
 5235              		.global	naveg_bypass_refresh
 5236              		.syntax unified
 5237              		.thumb
 5238              		.thumb_func
 5239              		.fpu softvfp
 5241              	naveg_bypass_refresh:
 5242              		@ args = 0, pretend = 0, frame = 24
 5243              		@ frame_needed = 0, uses_anonymous_args = 0
 5244 27bc 3E4B     		ldr	r3, .L1535
 5245 27be 2DE9F04F 		push	{r4, r5, r6, r7, r8, r9, r10, fp, lr}
 5246 27c2 D3F88430 		ldr	r3, [r3, #132]
 5247 27c6 87B0     		sub	sp, sp, #28
 5248 27c8 9F68     		ldr	r7, [r3, #8]
 5249 27ca 002F     		cmp	r7, #0
 5250 27cc 42D0     		beq	.L1503
 5251 27ce CDE90221 		strd	r2, r1, [sp, #8]
 5252 27d2 DFF8F880 		ldr	r8, .L1535+20
 5253 27d6 DFF8F8A0 		ldr	r10, .L1535+24
 5254 27da 0190     		str	r0, [sp, #4]
 5255              	.L1518:
 5256 27dc 3C68     		ldr	r4, [r7]
 5257 27de 6268     		ldr	r2, [r4, #4]
 5258 27e0 D388     		ldrh	r3, [r2, #6]
 5259 27e2 AB2B     		cmp	r3, #171
 5260 27e4 4AD0     		beq	.L1531
 5261 27e6 AC2B     		cmp	r3, #172
 5262 27e8 4BD0     		beq	.L1532
 5263 27ea AD2B     		cmp	r3, #173
 5264 27ec 4CD0     		beq	.L1533
 5265              	.L1505:
 5266 27ee 1168     		ldr	r1, [r2]
 5267 27f0 2068     		ldr	r0, [r4]
 5268 27f2 FFF7FEFF 		bl	strcpy
 5269 27f6 D4F800B0 		ldr	fp, [r4]
 5270 27fa 5846     		mov	r0, fp
 5271 27fc FFF7FEFF 		bl	strlen
 5272 2800 C5B2     		uxtb	r5, r0
 5273 2802 C5F11C05 		rsb	r5, r5, #28
 5274 2806 002D     		cmp	r5, #0
 5275 2808 11DD     		ble	.L1508
 5276 280a 4FF00009 		mov	r9, #0
 5277 280e B8F80060 		ldrh	r6, [r8]	@ unaligned
 5278 2812 02E0     		b	.L1510
 5279              	.L1509:
 5280 2814 5846     		mov	r0, fp
 5281 2816 FFF7FEFF 		bl	strlen
 5282              	.L1510:
 5283 281a 09F10109 		add	r9, r9, #1
 5284 281e 5FFA89F9 		uxtb	r9, r9
 5285 2822 2BF80060 		strh	r6, [fp, r0]	@ unaligned
 5286 2826 A945     		cmp	r9, r5
 5287 2828 D4F800B0 		ldr	fp, [r4]
 5288 282c F2DB     		blt	.L1509
 5289              	.L1508:
 5290 282e 6368     		ldr	r3, [r4, #4]
 5291 2830 DB88     		ldrh	r3, [r3, #6]
 5292 2832 AE2B     		cmp	r3, #174
 5293 2834 15D0     		beq	.L1534
 5294 2836 B4F91C30 		ldrsh	r3, [r4, #28]
 5295 283a 204C     		ldr	r4, .L1535+4
 5296 283c 5846     		mov	r0, fp
 5297 283e 002B     		cmp	r3, #0
 5298 2840 08BF     		it	eq
 5299 2842 5446     		moveq	r4, r10
 5300 2844 FFF7FEFF 		bl	strlen
 5301 2848 2368     		ldr	r3, [r4]
 5302 284a 4BF80030 		str	r3, [fp, r0]	@ unaligned
 5303              	.L1516:
 5304 284e 7F69     		ldr	r7, [r7, #20]
 5305 2850 002F     		cmp	r7, #0
 5306 2852 C3D1     		bne	.L1518
 5307              	.L1503:
 5308 2854 184B     		ldr	r3, .L1535
 5309 2856 D86C     		ldr	r0, [r3, #76]
 5310 2858 07B0     		add	sp, sp, #28
 5311              		@ sp needed
 5312 285a BDE8F04F 		pop	{r4, r5, r6, r7, r8, r9, r10, fp, lr}
 5313 285e FFF7FEBF 		b	screen_system_menu
 5314              	.L1534:
 5315 2862 029B     		ldr	r3, [sp, #8]
 5316 2864 012B     		cmp	r3, #1
 5317 2866 20D0     		beq	.L1513
 5318 2868 18D3     		bcc	.L1514
 5319 286a 022B     		cmp	r3, #2
 5320 286c 01D1     		bne	.L1512
 5321 286e 144B     		ldr	r3, .L1535+8
 5322 2870 0593     		str	r3, [sp, #20]
 5323              	.L1512:
 5324 2872 5846     		mov	r0, fp
 5325 2874 05A9     		add	r1, sp, #20
 5326 2876 FFF7FEFF 		bl	strcat
 5327 287a E8E7     		b	.L1516
 5328              	.L1531:
 5329 287c 019B     		ldr	r3, [sp, #4]
 5330 287e A383     		strh	r3, [r4, #28]	@ movhi
 5331 2880 B5E7     		b	.L1505
 5332              	.L1532:
 5333 2882 039B     		ldr	r3, [sp, #12]
 5334 2884 A383     		strh	r3, [r4, #28]	@ movhi
 5335 2886 B2E7     		b	.L1505
 5336              	.L1533:
 5337 2888 019B     		ldr	r3, [sp, #4]
 5338 288a 23B1     		cbz	r3, .L1507
 5339 288c 039B     		ldr	r3, [sp, #12]
 5340 288e 13B1     		cbz	r3, .L1507
 5341 2890 0123     		movs	r3, #1
 5342 2892 A383     		strh	r3, [r4, #28]	@ movhi
 5343 2894 ABE7     		b	.L1505
 5344              	.L1507:
 5345 2896 0023     		movs	r3, #0
 5346 2898 A383     		strh	r3, [r4, #28]	@ movhi
 5347 289a A8E7     		b	.L1505
 5348              	.L1514:
 5349 289c 094B     		ldr	r3, .L1535+12
 5350 289e 5846     		mov	r0, fp
 5351 28a0 05A9     		add	r1, sp, #20
 5352 28a2 0593     		str	r3, [sp, #20]
 5353 28a4 FFF7FEFF 		bl	strcat
 5354 28a8 D1E7     		b	.L1516
 5355              	.L1513:
 5356 28aa 074B     		ldr	r3, .L1535+16
 5357 28ac 5846     		mov	r0, fp
 5358 28ae 05A9     		add	r1, sp, #20
 5359 28b0 0593     		str	r3, [sp, #20]
 5360 28b2 FFF7FEFF 		bl	strcat
 5361 28b6 CAE7     		b	.L1516
 5362              	.L1536:
 5363              		.align	2
 5364              	.L1535:
 5365 28b8 00000000 		.word	.LANCHOR0
 5366 28bc 1C010000 		.word	.LC29
 5367 28c0 31263200 		.word	3286577
 5368 28c4 20203100 		.word	3219488
 5369 28c8 20203200 		.word	3285024
 5370 28cc 14010000 		.word	.LC27
 5371 28d0 20010000 		.word	.LC30
 5373              		.comm	g_tool,10,4
 5374              		.comm	g_tap_tempo,84,4
 5375              		.section	.rodata
 5376              		.align	2
 5377              		.set	.LANCHOR2,. + 0
 5378              	.LC13:
 5379 0000 24010000 		.word	.LC0
 5380 0004 02       		.byte	2
 5381 0005 00       		.space	1
 5382 0006 FFFF     		.short	-1
 5383 0008 FFFF     		.short	-1
 5384 000a 0000     		.space	2
 5385 000c 00000000 		.word	0
 5386 0010 00       		.byte	0
 5387 0011 000000   		.space	3
 5390              	g_menu_popups:
 5391 0014 8200     		.short	130
 5392 0016 0000     		.space	2
 5393 0018 2C010000 		.word	.LC31
 5394 001c B0000000 		.word	.LC21
 5395 0020 9600     		.short	150
 5396 0022 0000     		.space	2
 5397 0024 38010000 		.word	.LC32
 5398 0028 B0000000 		.word	.LC21
 5399 002c 8400     		.short	132
 5400 002e 0000     		.space	2
 5401 0030 40010000 		.word	.LC33
 5402 0034 4C010000 		.word	.LC34
 5403 0038 8500     		.short	133
 5404 003a 0000     		.space	2
 5405 003c B4010000 		.word	.LC35
 5406 0040 C0010000 		.word	.LC36
 5407 0044 8E00     		.short	142
 5408 0046 0000     		.space	2
 5409 0048 28020000 		.word	.LC37
 5410 004c 3C020000 		.word	.LC38
 5411 0050 6400     		.short	100
 5412 0052 0000     		.space	2
 5413 0054 74020000 		.word	.LC39
 5414 0058 8C020000 		.word	.LC40
 5415 005c BF00     		.short	191
 5416 005e 0000     		.space	2
 5417 0060 F8020000 		.word	.LC41
 5418 0064 0C030000 		.word	.LC42
 5419 0068 C000     		.short	192
 5420 006a 0000     		.space	2
 5421 006c E0030000 		.word	.LC43
 5422 0070 0C030000 		.word	.LC42
 5423 0074 C100     		.short	193
 5424 0076 0000     		.space	2
 5425 0078 F4030000 		.word	.LC44
 5426 007c 0C030000 		.word	.LC42
 5427 0080 C200     		.short	194
 5428 0082 0000     		.space	2
 5429 0084 08040000 		.word	.LC45
 5430 0088 0C030000 		.word	.LC42
 5431 008c C300     		.short	195
 5432 008e 0000     		.space	2
 5433 0090 1C040000 		.word	.LC46
 5434 0094 34040000 		.word	.LC47
 5435 0098 C400     		.short	196
 5436 009a 0000     		.space	2
 5437 009c 7C040000 		.word	.LC48
 5438 00a0 94040000 		.word	.LC49
 5439 00a4 C500     		.short	197
 5440 00a6 0000     		.space	2
 5441 00a8 30050000 		.word	.LC50
 5442 00ac 94040000 		.word	.LC49
 5443 00b0 C600     		.short	198
 5444 00b2 0000     		.space	2
 5445 00b4 48050000 		.word	.LC51
 5446 00b8 94040000 		.word	.LC49
 5447 00bc C700     		.short	199
 5448 00be 0000     		.space	2
 5449 00c0 60050000 		.word	.LC52
 5450 00c4 94040000 		.word	.LC49
 5451 00c8 0C00     		.short	12
 5452 00ca 0000     		.space	2
 5453 00cc 78050000 		.word	.LC53
 5454 00d0 8C050000 		.word	.LC54
 5455 00d4 0D00     		.short	13
 5456 00d6 0000     		.space	2
 5457 00d8 7C060000 		.word	.LC55
 5458 00dc 8C060000 		.word	.LC56
 5459 00e0 1600     		.short	22
 5460 00e2 0000     		.space	2
 5461 00e4 F4060000 		.word	.LC57
 5462 00e8 08070000 		.word	.LC58
 5463 00ec 1700     		.short	23
 5464 00ee 0000     		.space	2
 5465 00f0 E4070000 		.word	.LC59
 5466 00f4 F8070000 		.word	.LC60
 5467 00f8 FFFF     		.short	-1
 5468 00fa 0000     		.space	2
 5469 00fc 00000000 		.word	0
 5470 0100 00000000 		.word	0
 5471              		.data
 5472              		.align	2
 5473              		.set	.LANCHOR1,. + 0
 5476              	g_menu_desc:
 5477 0000 C8080000 		.word	.LC61
 5478 0004 02       		.byte	2
 5479 0005 00       		.space	1
 5480 0006 0000     		.short	0
 5481 0008 FFFF     		.short	-1
 5482 000a 0000     		.space	2
 5483 000c 00000000 		.word	0
 5484 0010 00       		.byte	0
 5485 0011 000000   		.space	3
 5486 0014 6C000000 		.word	.LC15
 5487 0018 00       		.byte	0
 5488 0019 00       		.space	1
 5489 001a 9600     		.short	150
 5490 001c 0000     		.short	0
 5491 001e 0000     		.space	2
 5492 0020 00000000 		.word	system_banks_cb
 5493 0024 00       		.byte	0
 5494 0025 000000   		.space	3
 5495 0028 D4080000 		.word	.LC62
 5496 002c 02       		.byte	2
 5497 002d 00       		.space	1
 5498 002e 8200     		.short	130
 5499 0030 0000     		.short	0
 5500 0032 0000     		.space	2
 5501 0034 00000000 		.word	0
 5502 0038 00       		.byte	0
 5503 0039 000000   		.space	3
 5504 003c E8080000 		.word	.LC63
 5505 0040 04       		.byte	4
 5506 0041 00       		.space	1
 5507 0042 8400     		.short	132
 5508 0044 8200     		.short	130
 5509 0046 0000     		.space	2
 5510 0048 00000000 		.word	system_pedalboard_cb
 5511 004c 00       		.byte	0
 5512 004d 000000   		.space	3
 5513 0050 F4080000 		.word	.LC64
 5514 0054 04       		.byte	4
 5515 0055 00       		.space	1
 5516 0056 8500     		.short	133
 5517 0058 8200     		.short	130
 5518 005a 0000     		.space	2
 5519 005c 00000000 		.word	system_pedalboard_cb
 5520 0060 00       		.byte	0
 5521 0061 000000   		.space	3
 5522 0064 00090000 		.word	.LC65
 5523 0068 02       		.byte	2
 5524 0069 00       		.space	1
 5525 006a AA00     		.short	170
 5526 006c 0000     		.short	0
 5527 006e 0000     		.space	2
 5528 0070 00000000 		.word	system_quick_bypass_cb
 5529 0074 00       		.byte	0
 5530 0075 000000   		.space	3
 5531 0078 10090000 		.word	.LC66
 5532 007c 06       		.byte	6
 5533 007d 00       		.space	1
 5534 007e AB00     		.short	171
 5535 0080 AA00     		.short	170
 5536 0082 0000     		.space	2
 5537 0084 00000000 		.word	system_bypass_cb
 5538 0088 00       		.byte	0
 5539 0089 000000   		.space	3
 5540 008c 1C090000 		.word	.LC67
 5541 0090 06       		.byte	6
 5542 0091 00       		.space	1
 5543 0092 AC00     		.short	172
 5544 0094 AA00     		.short	170
 5545 0096 0000     		.space	2
 5546 0098 00000000 		.word	system_bypass_cb
 5547 009c 00       		.byte	0
 5548 009d 000000   		.space	3
 5549 00a0 28090000 		.word	.LC68
 5550 00a4 06       		.byte	6
 5551 00a5 00       		.space	1
 5552 00a6 AD00     		.short	173
 5553 00a8 AA00     		.short	170
 5554 00aa 0000     		.space	2
 5555 00ac 00000000 		.word	system_bypass_cb
 5556 00b0 00       		.byte	0
 5557 00b1 000000   		.space	3
 5558 00b4 38090000 		.word	.LC69
 5559 00b8 06       		.byte	6
 5560 00b9 00       		.space	1
 5561 00ba AE00     		.short	174
 5562 00bc AA00     		.short	170
 5563 00be 0000     		.space	2
 5564 00c0 00000000 		.word	system_bypass_cb
 5565 00c4 00       		.byte	0
 5566 00c5 000000   		.space	3
 5567 00c8 50090000 		.word	.LC70
 5568 00cc 02       		.byte	2
 5569 00cd 00       		.space	1
 5570 00ce B400     		.short	180
 5571 00d0 0000     		.short	0
 5572 00d2 0000     		.space	2
 5573 00d4 00000000 		.word	system_play_cb
 5574 00d8 00       		.byte	0
 5575 00d9 000000   		.space	3
 5576 00dc 64090000 		.word	.LC71
 5577 00e0 0A       		.byte	10
 5578 00e1 00       		.space	1
 5579 00e2 B500     		.short	181
 5580 00e4 B400     		.short	180
 5581 00e6 0000     		.space	2
 5582 00e8 00000000 		.word	system_tempo_cb
 5583 00ec 00       		.byte	0
 5584 00ed 000000   		.space	3
 5585 00f0 6C090000 		.word	.LC72
 5586 00f4 0A       		.byte	10
 5587 00f5 00       		.space	1
 5588 00f6 B600     		.short	182
 5589 00f8 B400     		.short	180
 5590 00fa 0000     		.space	2
 5591 00fc 00000000 		.word	system_bpb_cb
 5592 0100 00       		.byte	0
 5593 0101 000000   		.space	3
 5594 0104 7C090000 		.word	.LC73
 5595 0108 00       		.byte	0
 5596 0109 00       		.space	1
 5597 010a 1E00     		.short	30
 5598 010c 0000     		.short	0
 5599 010e 0000     		.space	2
 5600 0110 00000000 		.word	system_tuner_cb
 5601 0114 00       		.byte	0
 5602 0115 000000   		.space	3
 5603 0118 84090000 		.word	.LC74
 5604 011c 02       		.byte	2
 5605 011d 00       		.space	1
 5606 011e BE00     		.short	190
 5607 0120 0000     		.short	0
 5608 0122 0000     		.space	2
 5609 0124 00000000 		.word	0
 5610 0128 00       		.byte	0
 5611 0129 000000   		.space	3
 5612 012c 94090000 		.word	.LC75
 5613 0130 06       		.byte	6
 5614 0131 00       		.space	1
 5615 0132 BF00     		.short	191
 5616 0134 BE00     		.short	190
 5617 0136 0000     		.space	2
 5618 0138 00000000 		.word	system_load_pro_cb
 5619 013c 00       		.byte	0
 5620 013d 000000   		.space	3
 5621 0140 A4090000 		.word	.LC76
 5622 0144 06       		.byte	6
 5623 0145 00       		.space	1
 5624 0146 C000     		.short	192
 5625 0148 BE00     		.short	190
 5626 014a 0000     		.space	2
 5627 014c 00000000 		.word	system_load_pro_cb
 5628 0150 00       		.byte	0
 5629 0151 000000   		.space	3
 5630 0154 B4090000 		.word	.LC77
 5631 0158 06       		.byte	6
 5632 0159 00       		.space	1
 5633 015a C100     		.short	193
 5634 015c BE00     		.short	190
 5635 015e 0000     		.space	2
 5636 0160 00000000 		.word	system_load_pro_cb
 5637 0164 00       		.byte	0
 5638 0165 000000   		.space	3
 5639 0168 C4090000 		.word	.LC78
 5640 016c 06       		.byte	6
 5641 016d 00       		.space	1
 5642 016e C200     		.short	194
 5643 0170 BE00     		.short	190
 5644 0172 0000     		.space	2
 5645 0174 00000000 		.word	system_load_pro_cb
 5646 0178 00       		.byte	0
 5647 0179 000000   		.space	3
 5648 017c D4090000 		.word	.LC79
 5649 0180 06       		.byte	6
 5650 0181 00       		.space	1
 5651 0182 C300     		.short	195
 5652 0184 BE00     		.short	190
 5653 0186 0000     		.space	2
 5654 0188 00000000 		.word	system_save_pro_cb
 5655 018c 00       		.byte	0
 5656 018d 000000   		.space	3
 5657 0190 F0090000 		.word	.LC80
 5658 0194 02       		.byte	2
 5659 0195 00       		.space	1
 5660 0196 2800     		.short	40
 5661 0198 0000     		.short	0
 5662 019a 0000     		.space	2
 5663 019c 00000000 		.word	0
 5664 01a0 00       		.byte	0
 5665 01a1 000000   		.space	3
 5666 01a4 F8090000 		.word	.LC81
 5667 01a8 02       		.byte	2
 5668 01a9 00       		.space	1
 5669 01aa 0A00     		.short	10
 5670 01ac 2800     		.short	40
 5671 01ae 0000     		.space	2
 5672 01b0 00000000 		.word	0
 5673 01b4 00       		.byte	0
 5674 01b5 000000   		.space	3
 5675 01b8 000A0000 		.word	.LC82
 5676 01bc 01       		.byte	1
 5677 01bd 00       		.space	1
 5678 01be 0B00     		.short	11
 5679 01c0 0A00     		.short	10
 5680 01c2 0000     		.space	2
 5681 01c4 00000000 		.word	0
 5682 01c8 00       		.byte	0
 5683 01c9 000000   		.space	3
 5684 01cc 140A0000 		.word	.LC83
 5685 01d0 06       		.byte	6
 5686 01d1 00       		.space	1
 5687 01d2 0B00     		.short	11
 5688 01d4 0A00     		.short	10
 5689 01d6 0000     		.space	2
 5690 01d8 00000000 		.word	system_sl_in_cb
 5691 01dc 00       		.byte	0
 5692 01dd 000000   		.space	3
 5693 01e0 200A0000 		.word	.LC84
 5694 01e4 09       		.byte	9
 5695 01e5 00       		.space	1
 5696 01e6 6E00     		.short	110
 5697 01e8 0A00     		.short	10
 5698 01ea 0000     		.space	2
 5699 01ec 00000000 		.word	system_volume_cb
 5700 01f0 00       		.byte	0
 5701 01f1 000000   		.space	3
 5702 01f4 300A0000 		.word	.LC85
 5703 01f8 09       		.byte	9
 5704 01f9 00       		.space	1
 5705 01fa 6F00     		.short	111
 5706 01fc 0A00     		.short	10
 5707 01fe 0000     		.space	2
 5708 0200 00000000 		.word	system_volume_cb
 5709 0204 00       		.byte	0
 5710 0205 000000   		.space	3
 5711 0208 400A0000 		.word	.LC86
 5712 020c 02       		.byte	2
 5713 020d 00       		.space	1
 5714 020e 1400     		.short	20
 5715 0210 2800     		.short	40
 5716 0212 0000     		.space	2
 5717 0214 00000000 		.word	0
 5718 0218 00       		.byte	0
 5719 0219 000000   		.space	3
 5720 021c 000A0000 		.word	.LC82
 5721 0220 01       		.byte	1
 5722 0221 00       		.space	1
 5723 0222 1500     		.short	21
 5724 0224 1400     		.short	20
 5725 0226 0000     		.space	2
 5726 0228 00000000 		.word	0
 5727 022c 00       		.byte	0
 5728 022d 000000   		.space	3
 5729 0230 480A0000 		.word	.LC87
 5730 0234 06       		.byte	6
 5731 0235 00       		.space	1
 5732 0236 1500     		.short	21
 5733 0238 1400     		.short	20
 5734 023a 0000     		.space	2
 5735 023c 00000000 		.word	system_sl_out_cb
 5736 0240 00       		.byte	0
 5737 0241 000000   		.space	3
 5738 0244 580A0000 		.word	.LC88
 5739 0248 09       		.byte	9
 5740 0249 00       		.space	1
 5741 024a 7000     		.short	112
 5742 024c 1400     		.short	20
 5743 024e 0000     		.space	2
 5744 0250 00000000 		.word	system_volume_cb
 5745 0254 00       		.byte	0
 5746 0255 000000   		.space	3
 5747 0258 680A0000 		.word	.LC89
 5748 025c 09       		.byte	9
 5749 025d 00       		.space	1
 5750 025e 7100     		.short	113
 5751 0260 1400     		.short	20
 5752 0262 0000     		.space	2
 5753 0264 00000000 		.word	system_volume_cb
 5754 0268 00       		.byte	0
 5755 0269 000000   		.space	3
 5756 026c 780A0000 		.word	.LC90
 5757 0270 06       		.byte	6
 5758 0271 00       		.space	1
 5759 0272 1700     		.short	23
 5760 0274 1400     		.short	20
 5761 0276 0000     		.space	2
 5762 0278 00000000 		.word	system_master_vol_link_cb
 5763 027c 00       		.byte	0
 5764 027d 000000   		.space	3
 5765 0280 8C0A0000 		.word	.LC91
 5766 0284 09       		.byte	9
 5767 0285 00       		.space	1
 5768 0286 7200     		.short	114
 5769 0288 1400     		.short	20
 5770 028a 0000     		.space	2
 5771 028c 00000000 		.word	system_volume_cb
 5772 0290 00       		.byte	0
 5773 0291 000000   		.space	3
 5774 0294 A00A0000 		.word	.LC92
 5775 0298 02       		.byte	2
 5776 0299 00       		.space	1
 5777 029a C800     		.short	200
 5778 029c 2800     		.short	40
 5779 029e 0000     		.space	2
 5780 02a0 00000000 		.word	0
 5781 02a4 00       		.byte	0
 5782 02a5 000000   		.space	3
 5783 02a8 000A0000 		.word	.LC82
 5784 02ac 01       		.byte	1
 5785 02ad 00       		.space	1
 5786 02ae C900     		.short	201
 5787 02b0 C800     		.short	200
 5788 02b2 0000     		.space	2
 5789 02b4 00000000 		.word	0
 5790 02b8 00       		.byte	0
 5791 02b9 000000   		.space	3
 5792 02bc AC0A0000 		.word	.LC93
 5793 02c0 06       		.byte	6
 5794 02c1 00       		.space	1
 5795 02c2 CA00     		.short	202
 5796 02c4 C800     		.short	200
 5797 02c6 0000     		.space	2
 5798 02c8 00000000 		.word	system_midi_src_cb
 5799 02cc 00       		.byte	0
 5800 02cd 000000   		.space	3
 5801 02d0 BC0A0000 		.word	.LC94
 5802 02d4 06       		.byte	6
 5803 02d5 00       		.space	1
 5804 02d6 CB00     		.short	203
 5805 02d8 C800     		.short	200
 5806 02da 0000     		.space	2
 5807 02dc 00000000 		.word	system_midi_send_cb
 5808 02e0 00       		.byte	0
 5809 02e1 000000   		.space	3
 5810 02e4 CC0A0000 		.word	.LC95
 5811 02e8 0A       		.byte	10
 5812 02e9 00       		.space	1
 5813 02ea CC00     		.short	204
 5814 02ec C800     		.short	200
 5815 02ee 0000     		.space	2
 5816 02f0 00000000 		.word	system_ss_prog_change_cb
 5817 02f4 00       		.byte	0
 5818 02f5 000000   		.space	3
 5819 02f8 E40A0000 		.word	.LC96
 5820 02fc 0A       		.byte	10
 5821 02fd 00       		.space	1
 5822 02fe CD00     		.short	205
 5823 0300 C800     		.short	200
 5824 0302 0000     		.space	2
 5825 0304 00000000 		.word	system_pb_prog_change_cb
 5826 0308 00       		.byte	0
 5827 0309 000000   		.space	3
 5828 030c FC0A0000 		.word	.LC97
 5829 0310 02       		.byte	2
 5830 0311 00       		.space	1
 5831 0312 8C00     		.short	140
 5832 0314 2800     		.short	40
 5833 0316 0000     		.space	2
 5834 0318 00000000 		.word	system_bluetooth_cb
 5835 031c 00       		.byte	0
 5836 031d 000000   		.space	3
 5837 0320 000A0000 		.word	.LC82
 5838 0324 01       		.byte	1
 5839 0325 00       		.space	1
 5840 0326 8D00     		.short	141
 5841 0328 8C00     		.short	140
 5842 032a 0000     		.space	2
 5843 032c 00000000 		.word	0
 5844 0330 00       		.byte	0
 5845 0331 000000   		.space	3
 5846 0334 080B0000 		.word	.LC98
 5847 0338 08       		.byte	8
 5848 0339 00       		.space	1
 5849 033a 8E00     		.short	142
 5850 033c 8C00     		.short	140
 5851 033e 0000     		.space	2
 5852 0340 00000000 		.word	system_bluetooth_cb
 5853 0344 00       		.byte	0
 5854 0345 000000   		.space	3
 5855 0348 1C0B0000 		.word	.LC99
 5856 034c 00       		.byte	0
 5857 034d 00       		.space	1
 5858 034e 8F00     		.short	143
 5859 0350 8C00     		.short	140
 5860 0352 0000     		.space	2
 5861 0354 00000000 		.word	0
 5862 0358 00       		.byte	0
 5863 0359 000000   		.space	3
 5864 035c 240B0000 		.word	.LC100
 5865 0360 00       		.byte	0
 5866 0361 00       		.space	1
 5867 0362 9000     		.short	144
 5868 0364 8C00     		.short	140
 5869 0366 0000     		.space	2
 5870 0368 00000000 		.word	0
 5871 036c 00       		.byte	0
 5872 036d 000000   		.space	3
 5873 0370 2C0B0000 		.word	.LC101
 5874 0374 00       		.byte	0
 5875 0375 00       		.space	1
 5876 0376 9100     		.short	145
 5877 0378 8C00     		.short	140
 5878 037a 0000     		.space	2
 5879 037c 00000000 		.word	0
 5880 0380 00       		.byte	0
 5881 0381 000000   		.space	3
 5882 0384 380B0000 		.word	.LC102
 5883 0388 06       		.byte	6
 5884 0389 00       		.space	1
 5885 038a A000     		.short	160
 5886 038c 2800     		.short	40
 5887 038e 0000     		.space	2
 5888 0390 00000000 		.word	system_display_cb
 5889 0394 00       		.byte	0
 5890 0395 000000   		.space	3
 5891 0398 4C0B0000 		.word	.LC103
 5892 039c 02       		.byte	2
 5893 039d 00       		.space	1
 5894 039e 4600     		.short	70
 5895 03a0 2800     		.short	40
 5896 03a2 0000     		.space	2
 5897 03a4 00000000 		.word	0
 5898 03a8 00       		.byte	0
 5899 03a9 000000   		.space	3
 5900 03ac 000A0000 		.word	.LC82
 5901 03b0 01       		.byte	1
 5902 03b1 00       		.space	1
 5903 03b2 4700     		.short	71
 5904 03b4 4600     		.short	70
 5905 03b6 0000     		.space	2
 5906 03b8 00000000 		.word	0
 5907 03bc 00       		.byte	0
 5908 03bd 000000   		.space	3
 5909 03c0 540B0000 		.word	.LC104
 5910 03c4 02       		.byte	2
 5911 03c5 00       		.space	1
 5912 03c6 5000     		.short	80
 5913 03c8 4600     		.short	70
 5914 03ca 0000     		.space	2
 5915 03cc 00000000 		.word	system_services_cb
 5916 03d0 01       		.byte	1
 5917 03d1 000000   		.space	3
 5918 03d4 600B0000 		.word	.LC105
 5919 03d8 01       		.byte	1
 5920 03d9 00       		.space	1
 5921 03da 5100     		.short	81
 5922 03dc 5000     		.short	80
 5923 03de 0000     		.space	2
 5924 03e0 00000000 		.word	0
 5925 03e4 00       		.byte	0
 5926 03e5 000000   		.space	3
 5927 03e8 700B0000 		.word	.LC106
 5928 03ec 00       		.byte	0
 5929 03ed 00       		.space	1
 5930 03ee 5200     		.short	82
 5931 03f0 5000     		.short	80
 5932 03f2 0000     		.space	2
 5933 03f4 00000000 		.word	0
 5934 03f8 00       		.byte	0
 5935 03f9 000000   		.space	3
 5936 03fc 780B0000 		.word	.LC107
 5937 0400 00       		.byte	0
 5938 0401 00       		.space	1
 5939 0402 5300     		.short	83
 5940 0404 5000     		.short	80
 5941 0406 0000     		.space	2
 5942 0408 00000000 		.word	0
 5943 040c 00       		.byte	0
 5944 040d 000000   		.space	3
 5945 0410 800B0000 		.word	.LC108
 5946 0414 00       		.byte	0
 5947 0415 00       		.space	1
 5948 0416 5400     		.short	84
 5949 0418 5000     		.short	80
 5950 041a 0000     		.space	2
 5951 041c 00000000 		.word	0
 5952 0420 00       		.byte	0
 5953 0421 000000   		.space	3
 5954 0424 880B0000 		.word	.LC109
 5955 0428 00       		.byte	0
 5956 0429 00       		.space	1
 5957 042a 5500     		.short	85
 5958 042c 5000     		.short	80
 5959 042e 0000     		.space	2
 5960 0430 00000000 		.word	0
 5961 0434 00       		.byte	0
 5962 0435 000000   		.space	3
 5963 0438 940B0000 		.word	.LC110
 5964 043c 02       		.byte	2
 5965 043d 00       		.space	1
 5966 043e 5A00     		.short	90
 5967 0440 4600     		.short	70
 5968 0442 0000     		.space	2
 5969 0444 00000000 		.word	system_versions_cb
 5970 0448 00       		.byte	0
 5971 0449 000000   		.space	3
 5972 044c 600B0000 		.word	.LC105
 5973 0450 01       		.byte	1
 5974 0451 00       		.space	1
 5975 0452 5B00     		.short	91
 5976 0454 5A00     		.short	90
 5977 0456 0000     		.space	2
 5978 0458 00000000 		.word	0
 5979 045c 00       		.byte	0
 5980 045d 000000   		.space	3
 5981 0460 A00B0000 		.word	.LC111
 5982 0464 00       		.byte	0
 5983 0465 00       		.space	1
 5984 0466 5C00     		.short	92
 5985 0468 5A00     		.short	90
 5986 046a 0000     		.space	2
 5987 046c 00000000 		.word	system_release_cb
 5988 0470 00       		.byte	0
 5989 0471 000000   		.space	3
 5990 0474 AC0B0000 		.word	.LC112
 5991 0478 00       		.byte	0
 5992 0479 00       		.space	1
 5993 047a 5D00     		.short	93
 5994 047c 5A00     		.short	90
 5995 047e 0000     		.space	2
 5996 0480 00000000 		.word	0
 5997 0484 00       		.byte	0
 5998 0485 000000   		.space	3
 5999 0488 B80B0000 		.word	.LC113
 6000 048c 00       		.byte	0
 6001 048d 00       		.space	1
 6002 048e 5E00     		.short	94
 6003 0490 5A00     		.short	90
 6004 0492 0000     		.space	2
 6005 0494 00000000 		.word	0
 6006 0498 00       		.byte	0
 6007 0499 000000   		.space	3
 6008 049c C00B0000 		.word	.LC114
 6009 04a0 00       		.byte	0
 6010 04a1 00       		.space	1
 6011 04a2 5F00     		.short	95
 6012 04a4 5A00     		.short	90
 6013 04a6 0000     		.space	2
 6014 04a8 00000000 		.word	0
 6015 04ac 00       		.byte	0
 6016 04ad 000000   		.space	3
 6017 04b0 CC0B0000 		.word	.LC115
 6018 04b4 02       		.byte	2
 6019 04b5 00       		.space	1
 6020 04b6 7800     		.short	120
 6021 04b8 4600     		.short	70
 6022 04ba 0000     		.space	2
 6023 04bc 00000000 		.word	system_device_cb
 6024 04c0 00       		.byte	0
 6025 04c1 000000   		.space	3
 6026 04c4 600B0000 		.word	.LC105
 6027 04c8 01       		.byte	1
 6028 04c9 00       		.space	1
 6029 04ca 7900     		.short	121
 6030 04cc 7800     		.short	120
 6031 04ce 0000     		.space	2
 6032 04d0 00000000 		.word	0
 6033 04d4 00       		.byte	0
 6034 04d5 000000   		.space	3
 6035 04d8 D40B0000 		.word	.LC116
 6036 04dc 00       		.byte	0
 6037 04dd 00       		.space	1
 6038 04de 7A00     		.short	122
 6039 04e0 7800     		.short	120
 6040 04e2 0000     		.space	2
 6041 04e4 00000000 		.word	system_tag_cb
 6042 04e8 00       		.byte	0
 6043 04e9 000000   		.space	3
 6044 04ec E40B0000 		.word	.LC117
 6045 04f0 04       		.byte	4
 6046 04f1 00       		.space	1
 6047 04f2 6400     		.short	100
 6048 04f4 2800     		.short	40
 6049 04f6 0000     		.space	2
 6050 04f8 00000000 		.word	system_upgrade_cb
 6051 04fc 00       		.byte	0
 6052 04fd 000000   		.space	3
 6053 0500 00000000 		.word	0
 6054 0504 00       		.byte	0
 6055 0505 00       		.space	1
 6056 0506 FFFF     		.short	-1
 6057 0508 FFFF     		.short	-1
 6058 050a 0000     		.space	2
 6059 050c 00000000 		.word	0
 6060 0510 00       		.byte	0
 6061 0511 000000   		.space	3
 6064              	input.10194:
 6065 0514 01       		.byte	1
 6066 0515 000000   		.space	3
 6069              	desc.10416:
 6070 0518 00000000 		.word	0
 6071 051c 07       		.byte	7
 6072 051d 00       		.space	1
 6073 051e FEFF     		.short	-2
 6074 0520 FEFF     		.short	-2
 6075 0522 0000     		.space	2
 6076 0524 00000000 		.word	0
 6077 0528 00       		.byte	0
 6078 0529 000000   		.space	3
 6079              		.bss
 6080              		.align	2
 6081              		.set	.LANCHOR0,. + 0
 6084              	g_selected_pedalboards:
 6085 0000 00000000 		.space	4
 6088              	g_bank_functions:
 6089 0004 00000000 		.space	20
 6089      00000000 
 6089      00000000 
 6089      00000000 
 6089      00000000 
 6092              	g_current_pedalboard:
 6093 0018 00       		.space	1
 6094 0019 000000   		.space	3
 6097              	g_encoders:
 6098 001c 00000000 		.space	8
 6098      00000000 
 6101              	g_foots:
 6102 0024 00000000 		.space	28
 6102      00000000 
 6102      00000000 
 6102      00000000 
 6102      00000000 
 6105              	g_naveg_pedalboards:
 6106 0040 00000000 		.space	4
 6109              	g_banks:
 6110 0044 00000000 		.space	4
 6113              	g_current_bank:
 6114 0048 00       		.space	1
 6115 0049 000000   		.space	3
 6118              	g_current_item:
 6119 004c 00000000 		.space	4
 6122              	g_current_main_item:
 6123 0050 00000000 		.space	4
 6126              	g_max_items_list:
 6127 0054 00       		.space	1
 6128 0055 000000   		.space	3
 6131              	master_vol_value:
 6132 0058 00000000 		.space	4
 6135              	g_pots:
 6136 005c 00000000 		.space	32
 6136      00000000 
 6136      00000000 
 6136      00000000 
 6136      00000000 
 6139              	g_bp_state:
 6140 007c 00       		.space	1
 6141 007d 000000   		.space	3
 6144              	g_menu:
 6145 0080 00000000 		.space	4
 6148              	g_current_menu:
 6149 0084 00000000 		.space	4
 6152              	g_update_cb:
 6153 0088 00000000 		.space	4
 6156              	g_update_data:
 6157 008c 00000000 		.space	4
 6160              	g_initialized:
 6161 0090 00       		.space	1
 6162 0091 000000   		.space	3
 6165              	g_dialog_sem:
 6166 0094 00000000 		.space	4
 6169              	snapshot_loaded.10327:
 6170 0098 00       		.space	1
 6173              	page.10328:
 6174 0099 00       		.space	1
 6177              	g_bp_first:
 6178 009a 00       		.space	1
 6181              	g_ui_connected:
 6182 009b 00       		.space	1
 6185              	banks_loaded.10347:
 6186 009c 00       		.space	1
 6187 009d 000000   		.space	3
 6190              	g_current_main_menu:
 6191 00a0 00000000 		.space	4
 6194              	toggle.10181:
 6195 00a4 00       		.space	1
 6196 00a5 000000   		.space	3
 6199              	dummy_menu.10415:
 6200 00a8 00000000 		.space	4
 6201              		.section	.rodata.str1.4,"aMS",%progbits,1
 6202              		.align	2
 6203              	.LC2:
 6204 0000 4F4E00   		.ascii	"ON\000"
 6205 0003 00       		.space	1
 6206              	.LC3:
 6207 0004 54525545 		.ascii	"TRUE BYPASS\000"
 6207      20425950 
 6207      41535300 
 6208              	.LC4:
 6209 0010 2B00     		.ascii	"+\000"
 6210 0012 0000     		.space	2
 6211              	.LC5:
 6212 0014 2D00     		.ascii	"-\000"
 6213 0016 0000     		.space	2
 6214              	.LC6:
 6215 0018 4F464600 		.ascii	"OFF\000"
 6216              	.LC7:
 6217 001c 6D7300   		.ascii	"ms\000"
 6218 001f 00       		.space	1
 6219              	.LC8:
 6220 0020 7300     		.ascii	"s\000"
 6221 0022 0000     		.space	2
 6222              	.LC9:
 6223 0024 62706D00 		.ascii	"bpm\000"
 6224              	.LC10:
 6225 0028 636F6E74 		.ascii	"control_set %i %s %f\000"
 6225      726F6C5F 
 6225      73657420 
 6225      25692025 
 6225      73202566 
 6226 003d 000000   		.space	3
 6227              	.LC11:
 6228 0040 74756E65 		.ascii	"tuner off\000"
 6228      72206F66 
 6228      6600
 6229 004a 0000     		.space	2
 6230              	.LC12:
 6231 004c 70656461 		.ascii	"pedalboard %i %s\000"
 6231      6C626F61 
 6231      72642025 
 6231      69202573 
 6231      00
 6232 005d 000000   		.space	3
 6233              	.LC14:
 6234 0060 6765745F 		.ascii	"get_pb_name\000"
 6234      70625F6E 
 6234      616D6500 
 6235              	.LC15:
 6236 006c 42414E4B 		.ascii	"BANKS\000"
 6236      5300
 6237 0072 0000     		.space	2
 6238              	.LC16:
 6239 0074 74756E65 		.ascii	"tuner_input %i\000"
 6239      725F696E 
 6239      70757420 
 6239      256900
 6240 0083 00       		.space	1
 6241              	.LC17:
 6242 0084 70656461 		.ascii	"pedalboards %s\000"
 6242      6C626F61 
 6242      72647320 
 6242      257300
 6243 0093 00       		.space	1
 6244              	.LC18:
 6245 0094 3A616C6C 		.ascii	":all\000"
 6245      00
 6246 0099 000000   		.space	3
 6247              	.LC19:
 6248 009c 62616E6B 		.ascii	"banks\000"
 6248      7300
 6249 00a2 0000     		.space	2
 6250              	.LC20:
 6251 00a4 74756E65 		.ascii	"tuner on\000"
 6251      72206F6E 
 6251      00
 6252 00ad 000000   		.space	3
 6253              	.LC21:
 6254 00b0 546F2061 		.ascii	"To access pedalboard options  please disconnect fro"
 6254      63636573 
 6254      73207065 
 6254      64616C62 
 6254      6F617264 
 6255 00e3 6D207468 		.ascii	"m the    graphical interface\000"
 6255      65202020 
 6255      20677261 
 6255      70686963 
 6255      616C2069 
 6256              	.LC22:
 6257 0100 4100     		.ascii	"A\000"
 6258 0102 0000     		.space	2
 6259              	.LC23:
 6260 0104 4200     		.ascii	"B\000"
 6261 0106 0000     		.space	2
 6262              	.LC24:
 6263 0108 4300     		.ascii	"C\000"
 6264 010a 0000     		.space	2
 6265              	.LC25:
 6266 010c 4400     		.ascii	"D\000"
 6267 010e 0000     		.space	2
 6268              	.LC26:
 6269 0110 5800     		.ascii	"X\000"
 6270 0112 0000     		.space	2
 6271              	.LC27:
 6272 0114 2000     		.ascii	" \000"
 6273 0116 0000     		.space	2
 6274              	.LC28:
 6275 0118 444200   		.ascii	"DB\000"
 6276 011b 00       		.space	1
 6277              	.LC29:
 6278 011c 5B585D00 		.ascii	"[X]\000"
 6279              	.LC30:
 6280 0120 5B205D00 		.ascii	"[ ]\000"
 6281              	.LC0:
 6282 0124 726F6F74 		.ascii	"root\000"
 6282      00
 6283 0129 000000   		.space	3
 6284              	.LC31:
 6285 012c 70656461 		.ascii	"pedalboard\000"
 6285      6C626F61 
 6285      726400
 6286 0137 00       		.space	1
 6287              	.LC32:
 6288 0138 42616E6B 		.ascii	"Banks\000"
 6288      7300
 6289 013e 0000     		.space	2
 6290              	.LC33:
 6291 0140 53617665 		.ascii	"Save state\000"
 6291      20737461 
 6291      746500
 6292 014b 00       		.space	1
 6293              	.LC34:
 6294 014c 576F756C 		.ascii	"Would you like to save the    current parameter val"
 6294      6420796F 
 6294      75206C69 
 6294      6B652074 
 6294      6F207361 
 6295 017f 75657320 		.ascii	"ues as   the default for the active    pedalboard?\000"
 6295      61732020 
 6295      20746865 
 6295      20646566 
 6295      61756C74 
 6296 01b2 0000     		.space	2
 6297              	.LC35:
 6298 01b4 52657365 		.ascii	"Reset state\000"
 6298      74207374 
 6298      61746500 
 6299              	.LC36:
 6300 01c0 576F756C 		.ascii	"Would you like to reset all   parameter values to t"
 6300      6420796F 
 6300      75206C69 
 6300      6B652074 
 6300      6F207265 
 6301 01f3 6865206C 		.ascii	"he last  saved state for the active    pedalboard?\000"
 6301      61737420 
 6301      20736176 
 6301      65642073 
 6301      74617465 
 6302 0226 0000     		.space	2
 6303              	.LC37:
 6304 0228 456E6162 		.ascii	"Enable Bluetooth\000"
 6304      6C652042 
 6304      6C756574 
 6304      6F6F7468 
 6304      00
 6305 0239 000000   		.space	3
 6306              	.LC38:
 6307 023c 426C7565 		.ascii	"Bluetooth discovery mode is   now enabled for 2 min"
 6307      746F6F74 
 6307      68206469 
 6307      73636F76 
 6307      65727920 
 6308 026f 75746573 		.ascii	"utes\000"
 6308      00
 6309              	.LC39:
 6310 0274 53746172 		.ascii	"Start System Upgrade\000"
 6310      74205379 
 6310      7374656D 
 6310      20557067 
 6310      72616465 
 6311 0289 000000   		.space	3
 6312              	.LC40:
 6313 028c 546F2073 		.ascii	"To start the system upgrade   process, please press"
 6313      74617274 
 6313      20746865 
 6313      20737973 
 6313      74656D20 
 6314 02bf 20616E64 		.ascii	" and     hold down the left most buttonand press ye"
 6314      20202020 
 6314      20686F6C 
 6314      6420646F 
 6314      776E2074 
 6315 02f2 732E2000 		.ascii	"s. \000"
 6316 02f6 0000     		.space	2
 6317              	.LC41:
 6318 02f8 4C6F6164 		.ascii	"Load user profile A\000"
 6318      20757365 
 6318      72207072 
 6318      6F66696C 
 6318      65204100 
 6319              	.LC42:
 6320 030c 4C6F6164 		.ascii	"Loading a new profile may     change your in-/outpu"
 6320      696E6720 
 6320      61206E65 
 6320      77207072 
 6320      6F66696C 
 6321 033f 74202020 		.ascii	"t        configuration. Are you sure   you want to "
 6321      20202020 
 6321      20636F6E 
 6321      66696775 
 6321      72617469 
 6322 0372 636F6E74 		.ascii	"continue? This    will discard any changes you  hav"
 6322      696E7565 
 6322      3F205468 
 6322      69732020 
 6322      20207769 
 6323 03a5 65206D61 		.ascii	"e made to the current user profile since last savin"
 6323      64652074 
 6323      6F207468 
 6323      65206375 
 6323      7272656E 
 6324 03d8 67206974 		.ascii	"g it.\000"
 6324      2E00
 6325 03de 0000     		.space	2
 6326              	.LC43:
 6327 03e0 4C6F6164 		.ascii	"Load user profile B\000"
 6327      20757365 
 6327      72207072 
 6327      6F66696C 
 6327      65204200 
 6328              	.LC44:
 6329 03f4 4C6F6164 		.ascii	"Load user profile C\000"
 6329      20757365 
 6329      72207072 
 6329      6F66696C 
 6329      65204300 
 6330              	.LC45:
 6331 0408 4C6F6164 		.ascii	"Load user profile D\000"
 6331      20757365 
 6331      72207072 
 6331      6F66696C 
 6331      65204400 
 6332              	.LC46:
 6333 041c 4F766572 		.ascii	"Overwrite user profile\000"
 6333      77726974 
 6333      65207573 
 6333      65722070 
 6333      726F6669 
 6334 0433 00       		.space	1
 6335              	.LC47:
 6336 0434 41726520 		.ascii	"Are you sure you want to      overwrite the active "
 6336      796F7520 
 6336      73757265 
 6336      20796F75 
 6336      2077616E 
 6337 0467 75736572 		.ascii	"user     profile?\000"
 6337      20202020 
 6337      2070726F 
 6337      66696C65 
 6337      3F00
 6338 0479 000000   		.space	3
 6339              	.LC48:
 6340 047c 52656C6F 		.ascii	"Reload user profile A\000"
 6340      61642075 
 6340      73657220 
 6340      70726F66 
 6340      696C6520 
 6341 0492 0000     		.space	2
 6342              	.LC49:
 6343 0494 41726520 		.ascii	"Are you sure you want to      reload the active use"
 6343      796F7520 
 6343      73757265 
 6343      20796F75 
 6343      2077616E 
 6344 04c7 72207072 		.ascii	"r profile? This will discard any       changes you "
 6344      6F66696C 
 6344      653F2054 
 6344      68697320 
 6344      77696C6C 
 6345 04fa 68617665 		.ascii	"have made to this user profile since last saving it"
 6345      206D6164 
 6345      6520746F 
 6345      20746869 
 6345      73207573 
 6346 052d 2E00     		.ascii	".\000"
 6347 052f 00       		.space	1
 6348              	.LC50:
 6349 0530 52656C6F 		.ascii	"Reload user profile B\000"
 6349      61642075 
 6349      73657220 
 6349      70726F66 
 6349      696C6520 
 6350 0546 0000     		.space	2
 6351              	.LC51:
 6352 0548 52656C6F 		.ascii	"Reload user profile C\000"
 6352      61642075 
 6352      73657220 
 6352      70726F66 
 6352      696C6520 
 6353 055e 0000     		.space	2
 6354              	.LC52:
 6355 0560 52656C6F 		.ascii	"Reload user profile D\000"
 6355      61642075 
 6355      73657220 
 6355      70726F66 
 6355      696C6520 
 6356 0576 0000     		.space	2
 6357              	.LC53:
 6358 0578 53657420 		.ascii	"Set input to EXP\000"
 6358      696E7075 
 6358      7420746F 
 6358      20455850 
 6358      00
 6359 0589 000000   		.space	3
 6360              	.LC54:
 6361 058c 596F7520 		.ascii	"You are about to set the      stereo input port to "
 6361      61726520 
 6361      61626F75 
 6361      7420746F 
 6361      20736574 
 6362 05bf 20202020 		.ascii	"         expression pedal mode. To     prevent dama"
 6362      20202020 
 6362      20657870 
 6362      72657373 
 6362      696F6E20 
 6363 05f2 67696E67 		.ascii	"ging your         equipment, please make sure   tha"
 6363      20796F75 
 6363      72202020 
 6363      20202020 
 6363      20206571 
 6364 0625 74207468 		.ascii	"t there are no control     voltage devices connecte"
 6364      65726520 
 6364      61726520 
 6364      6E6F2063 
 6364      6F6E7472 
 6365 0658 642E2020 		.ascii	"d.    Would you like to continue?\000"
 6365      2020576F 
 6365      756C6420 
 6365      796F7520 
 6365      6C696B65 
 6366 067a 0000     		.space	2
 6367              	.LC55:
 6368 067c 53657420 		.ascii	"Set input to CV\000"
 6368      696E7075 
 6368      7420746F 
 6368      20435600 
 6369              	.LC56:
 6370 068c 596F7520 		.ascii	"You are about to set the      stereo input port to "
 6370      61726520 
 6370      61626F75 
 6370      7420746F 
 6370      20736574 
 6371 06bf 636F6E74 		.ascii	"control  voltage mode. Would you like  to continue?"
 6371      726F6C20 
 6371      20766F6C 
 6371      74616765 
 6371      206D6F64 
 6372 06f2 00       		.ascii	"\000"
 6373 06f3 00       		.space	1
 6374              	.LC57:
 6375 06f4 53657420 		.ascii	"Set output to HP\000"
 6375      6F757470 
 6375      75742074 
 6375      6F204850 
 6375      00
 6376 0705 000000   		.space	3
 6377              	.LC58:
 6378 0708 596F7520 		.ascii	"You are about to set the      stereo output port to"
 6378      61726520 
 6378      61626F75 
 6378      7420746F 
 6378      20736574 
 6379 073b 20202020 		.ascii	"         headphone mode. To prevent    damaging you"
 6379      20202020 
 6379      20686561 
 6379      6470686F 
 6379      6E65206D 
 6380 076e 72206571 		.ascii	"r equipment,      please make sure that there   are"
 6380      7569706D 
 6380      656E742C 
 6380      20202020 
 6380      2020706C 
 6381 07a1 206E6F20 		.ascii	" no control voltage devicesconnected. Would you lik"
 6381      636F6E74 
 6381      726F6C20 
 6381      766F6C74 
 6381      61676520 
 6382 07d4 6520746F 		.ascii	"e to  continue?\000"
 6382      2020636F 
 6382      6E74696E 
 6382      75653F00 
 6383              	.LC59:
 6384 07e4 53657420 		.ascii	"Set output to CV\000"
 6384      6F757470 
 6384      75742074 
 6384      6F204356 
 6384      00
 6385 07f5 000000   		.space	3
 6386              	.LC60:
 6387 07f8 596F7520 		.ascii	"You are about to set the      stereo output port to"
 6387      61726520 
 6387      61626F75 
 6387      7420746F 
 6387      20736574 
 6388 082b 20636F6E 		.ascii	" control voltage mode. To prevent      damaging you"
 6388      74726F6C 
 6388      20766F6C 
 6388      74616765 
 6388      206D6F64 
 6389 085e 72206571 		.ascii	"r equipment,      please make sure that there   are"
 6389      7569706D 
 6389      656E742C 
 6389      20202020 
 6389      2020706C 
 6390 0891 206E6F20 		.ascii	" no headphones connected.  Would you like to contin"
 6390      68656164 
 6390      70686F6E 
 6390      65732063 
 6390      6F6E6E65 
 6391 08c4 75653F00 		.ascii	"ue?\000"
 6392              	.LC61:
 6393 08c8 53455454 		.ascii	"SETTINGS\000"
 6393      494E4753 
 6393      00
 6394 08d1 000000   		.space	3
 6395              	.LC62:
 6396 08d4 43555252 		.ascii	"CURRENT PEDALBOARD\000"
 6396      454E5420 
 6396      50454441 
 6396      4C424F41 
 6396      524400
 6397 08e7 00       		.space	1
 6398              	.LC63:
 6399 08e8 53415645 		.ascii	"SAVE STATE\000"
 6399      20535441 
 6399      544500
 6400 08f3 00       		.space	1
 6401              	.LC64:
 6402 08f4 52455345 		.ascii	"RESET STATE\000"
 6402      54205354 
 6402      41544500 
 6403              	.LC65:
 6404 0900 48415244 		.ascii	"HARDWARE BYPASS\000"
 6404      57415245 
 6404      20425950 
 6404      41535300 
 6405              	.LC66:
 6406 0910 4348414E 		.ascii	"CHANNEL 1\000"
 6406      4E454C20 
 6406      3100
 6407 091a 0000     		.space	2
 6408              	.LC67:
 6409 091c 4348414E 		.ascii	"CHANNEL 2\000"
 6409      4E454C20 
 6409      3200
 6410 0926 0000     		.space	2
 6411              	.LC68:
 6412 0928 4348414E 		.ascii	"CHANNEL 1 & 2\000"
 6412      4E454C20 
 6412      31202620 
 6412      3200
 6413 0936 0000     		.space	2
 6414              	.LC69:
 6415 0938 51554943 		.ascii	"QUICK BYPASS CHANNEL(S)\000"
 6415      4B204259 
 6415      50415353 
 6415      20434841 
 6415      4E4E454C 
 6416              	.LC70:
 6417 0950 54454D50 		.ascii	"TEMPO & TRANSPORT\000"
 6417      4F202620 
 6417      5452414E 
 6417      53504F52 
 6417      5400
 6418 0962 0000     		.space	2
 6419              	.LC71:
 6420 0964 54454D50 		.ascii	"TEMPO\000"
 6420      4F00
 6421 096a 0000     		.space	2
 6422              	.LC72:
 6423 096c 42454154 		.ascii	"BEATS PER BAR\000"
 6423      53205045 
 6423      52204241 
 6423      5200
 6424 097a 0000     		.space	2
 6425              	.LC73:
 6426 097c 54554E45 		.ascii	"TUNER\000"
 6426      5200
 6427 0982 0000     		.space	2
 6428              	.LC74:
 6429 0984 55534552 		.ascii	"USER PROFILES\000"
 6429      2050524F 
 6429      46494C45 
 6429      5300
 6430 0992 0000     		.space	2
 6431              	.LC75:
 6432 0994 55534552 		.ascii	"USER PROFILE A\000"
 6432      2050524F 
 6432      46494C45 
 6432      204100
 6433 09a3 00       		.space	1
 6434              	.LC76:
 6435 09a4 55534552 		.ascii	"USER PROFILE B\000"
 6435      2050524F 
 6435      46494C45 
 6435      204200
 6436 09b3 00       		.space	1
 6437              	.LC77:
 6438 09b4 55534552 		.ascii	"USER PROFILE C\000"
 6438      2050524F 
 6438      46494C45 
 6438      204300
 6439 09c3 00       		.space	1
 6440              	.LC78:
 6441 09c4 55534552 		.ascii	"USER PROFILE D\000"
 6441      2050524F 
 6441      46494C45 
 6441      204400
 6442 09d3 00       		.space	1
 6443              	.LC79:
 6444 09d4 4F564552 		.ascii	"OVERWRITE CURRENT PROFILE\000"
 6444      57524954 
 6444      45204355 
 6444      5252454E 
 6444      54205052 
 6445 09ee 0000     		.space	2
 6446              	.LC80:
 6447 09f0 53595354 		.ascii	"SYSTEM\000"
 6447      454D00
 6448 09f7 00       		.space	1
 6449              	.LC81:
 6450 09f8 494E5055 		.ascii	"INPUTS\000"
 6450      545300
 6451 09ff 00       		.space	1
 6452              	.LC82:
 6453 0a00 3C204241 		.ascii	"< BACK TO SYSTEM\000"
 6453      434B2054 
 6453      4F205359 
 6453      5354454D 
 6453      00
 6454 0a11 000000   		.space	3
 6455              	.LC83:
 6456 0a14 53544552 		.ascii	"STEREO LINK\000"
 6456      454F204C 
 6456      494E4B00 
 6457              	.LC84:
 6458 0a20 494E5055 		.ascii	"INPUT 1 GAIN\000"
 6458      54203120 
 6458      4741494E 
 6458      00
 6459 0a2d 000000   		.space	3
 6460              	.LC85:
 6461 0a30 494E5055 		.ascii	"INPUT 2 GAIN\000"
 6461      54203220 
 6461      4741494E 
 6461      00
 6462 0a3d 000000   		.space	3
 6463              	.LC86:
 6464 0a40 4F555450 		.ascii	"OUTPUTS\000"
 6464      55545300 
 6465              	.LC87:
 6466 0a48 53544552 		.ascii	"STEREO LINK \000"
 6466      454F204C 
 6466      494E4B20 
 6466      00
 6467 0a55 000000   		.space	3
 6468              	.LC88:
 6469 0a58 4F555450 		.ascii	"OUTPUT 1 GAIN\000"
 6469      55542031 
 6469      20474149 
 6469      4E00
 6470 0a66 0000     		.space	2
 6471              	.LC89:
 6472 0a68 4F555450 		.ascii	"OUTPUT 2 GAIN\000"
 6472      55542032 
 6472      20474149 
 6472      4E00
 6473 0a76 0000     		.space	2
 6474              	.LC90:
 6475 0a78 4D415354 		.ascii	"MASTER VOLUME LINK \000"
 6475      45522056 
 6475      4F4C554D 
 6475      45204C49 
 6475      4E4B2000 
 6476              	.LC91:
 6477 0a8c 48454144 		.ascii	"HEADPHONE VOLUME\000"
 6477      50484F4E 
 6477      4520564F 
 6477      4C554D45 
 6477      00
 6478 0a9d 000000   		.space	3
 6479              	.LC92:
 6480 0aa0 53594E43 		.ascii	"SYNC & MIDI\000"
 6480      2026204D 
 6480      49444900 
 6481              	.LC93:
 6482 0aac 434C4F43 		.ascii	"CLOCK SOURCE\000"
 6482      4B20534F 
 6482      55524345 
 6482      00
 6483 0ab9 000000   		.space	3
 6484              	.LC94:
 6485 0abc 53454E44 		.ascii	"SEND MIDI CLOCK\000"
 6485      204D4944 
 6485      4920434C 
 6485      4F434B00 
 6486              	.LC95:
 6487 0acc 534E4150 		.ascii	"SNAPSHOT NAV MIDI CHAN\000"
 6487      53484F54 
 6487      204E4156 
 6487      204D4944 
 6487      49204348 
 6488 0ae3 00       		.space	1
 6489              	.LC96:
 6490 0ae4 50454441 		.ascii	"PEDALBOARD NAV MIDI CHN\000"
 6490      4C424F41 
 6490      5244204E 
 6490      4156204D 
 6490      49444920 
 6491              	.LC97:
 6492 0afc 424C5545 		.ascii	"BLUETOOTH\000"
 6492      544F4F54 
 6492      4800
 6493 0b06 0000     		.space	2
 6494              	.LC98:
 6495 0b08 454E4142 		.ascii	"ENABLE DISCOVERY\000"
 6495      4C452044 
 6495      4953434F 
 6495      56455259 
 6495      00
 6496 0b19 000000   		.space	3
 6497              	.LC99:
 6498 0b1c 53544154 		.ascii	"STATUS:\000"
 6498      55533A00 
 6499              	.LC100:
 6500 0b24 4E414D45 		.ascii	"NAME:\000"
 6500      3A00
 6501 0b2a 0000     		.space	2
 6502              	.LC101:
 6503 0b2c 41444452 		.ascii	"ADDRESS:\000"
 6503      4553533A 
 6503      00
 6504 0b35 000000   		.space	3
 6505              	.LC102:
 6506 0b38 44495350 		.ascii	"DISPLAY BRIGHTNESS\000"
 6506      4C415920 
 6506      42524947 
 6506      48544E45 
 6506      535300
 6507 0b4b 00       		.space	1
 6508              	.LC103:
 6509 0b4c 494E464F 		.ascii	"INFO\000"
 6509      00
 6510 0b51 000000   		.space	3
 6511              	.LC104:
 6512 0b54 53455256 		.ascii	"SERVICES\000"
 6512      49434553 
 6512      00
 6513 0b5d 000000   		.space	3
 6514              	.LC105:
 6515 0b60 3C204241 		.ascii	"< BACK TO INFO\000"
 6515      434B2054 
 6515      4F20494E 
 6515      464F00
 6516 0b6f 00       		.space	1
 6517              	.LC106:
 6518 0b70 4A41434B 		.ascii	"JACK:\000"
 6518      3A00
 6519 0b76 0000     		.space	2
 6520              	.LC107:
 6521 0b78 53534844 		.ascii	"SSHD:\000"
 6521      3A00
 6522 0b7e 0000     		.space	2
 6523              	.LC108:
 6524 0b80 4D4F442D 		.ascii	"MOD-UI:\000"
 6524      55493A00 
 6525              	.LC109:
 6526 0b88 444E534D 		.ascii	"DNSMASQ:\000"
 6526      4153513A 
 6526      00
 6527 0b91 000000   		.space	3
 6528              	.LC110:
 6529 0b94 56455253 		.ascii	"VERSIONS\000"
 6529      494F4E53 
 6529      00
 6530 0b9d 000000   		.space	3
 6531              	.LC111:
 6532 0ba0 56455253 		.ascii	"VERSION:\000"
 6532      494F4E3A 
 6532      00
 6533 0ba9 000000   		.space	3
 6534              	.LC112:
 6535 0bac 52455354 		.ascii	"RESTORE:\000"
 6535      4F52453A 
 6535      00
 6536 0bb5 000000   		.space	3
 6537              	.LC113:
 6538 0bb8 53595354 		.ascii	"SYSTEM:\000"
 6538      454D3A00 
 6539              	.LC114:
 6540 0bc0 434F4E54 		.ascii	"CONTROLLER:\000"
 6540      524F4C4C 
 6540      45523A00 
 6541              	.LC115:
 6542 0bcc 44455649 		.ascii	"DEVICE\000"
 6542      434500
 6543 0bd3 00       		.space	1
 6544              	.LC116:
 6545 0bd4 53455249 		.ascii	"SERIAL NUMBER:\000"
 6545      414C204E 
 6545      554D4245 
 6545      523A00
 6546 0be3 00       		.space	1
 6547              	.LC117:
 6548 0be4 53595354 		.ascii	"SYSTEM UPGRADE\000"
 6548      454D2055 
 6548      50475241 
 6548      444500
 6549              		.ident	"GCC: (GNU Tools for Arm Embedded Processors 7-2018-q3-update) 7.3.1 20180622 (release) [AR