   1              		.cpu cortex-m3
   2              		.eabi_attribute 20, 1
   3              		.eabi_attribute 21, 1
   4              		.eabi_attribute 23, 3
   5              		.eabi_attribute 24, 1
   6              		.eabi_attribute 25, 1
   7              		.eabi_attribute 26, 1
   8              		.eabi_attribute 30, 2
   9              		.eabi_attribute 34, 1
  10              		.eabi_attribute 18, 4
  11              		.file	"naveg.c"
  12              		.text
  13              		.align	1
  14              		.p2align 2,,3
  15              		.syntax unified
  16              		.thumb
  17              		.thumb_func
  18              		.fpu softvfp
  20              	bank_config_footer:
  21              		@ args = 0, pretend = 0, frame = 0
  22              		@ frame_needed = 0, uses_anonymous_args = 0
  23 0000 2DE9F047 		push	{r4, r5, r6, r7, r8, r9, r10, lr}
  24 0004 434E     		ldr	r6, .L45
  25 0006 3568     		ldr	r5, [r6]
  26 0008 1DB1     		cbz	r5, .L2
  27 000a AA7A     		ldrb	r2, [r5, #10]	@ zero_extendqisi2
  28 000c 2B68     		ldr	r3, [r5]
  29 000e 53F82250 		ldr	r5, [r3, r2, lsl #2]
  30              	.L2:
  31 0012 414C     		ldr	r4, .L45+4
  32 0014 DFF80CA1 		ldr	r10, .L45+16
  33 0018 DFF80C91 		ldr	r9, .L45+20
  34 001c DFF80C81 		ldr	r8, .L45+24
  35 0020 A71D     		adds	r7, r4, #6
  36              	.L21:
  37 0022 E378     		ldrb	r3, [r4, #3]	@ zero_extendqisi2
  38 0024 022B     		cmp	r3, #2
  39 0026 41D0     		beq	.L4
  40 0028 032B     		cmp	r3, #3
  41 002a 23D0     		beq	.L5
  42 002c 012B     		cmp	r3, #1
  43 002e 04D0     		beq	.L39
  44              	.L3:
  45 0030 0234     		adds	r4, r4, #2
  46 0032 BC42     		cmp	r4, r7
  47 0034 F5D1     		bne	.L21
  48 0036 BDE8F087 		pop	{r4, r5, r6, r7, r8, r9, r10, pc}
  49              	.L39:
  50 003a A078     		ldrb	r0, [r4, #2]	@ zero_extendqisi2
  51 003c 0238     		subs	r0, r0, #2
  52 003e C0B2     		uxtb	r0, r0
  53 0040 FFF7FEFF 		bl	hardware_leds
  54 0044 0621     		movs	r1, #6
  55 0046 FFF7FEFF 		bl	ledz_on
  56 004a A078     		ldrb	r0, [r4, #2]	@ zero_extendqisi2
  57 004c 334B     		ldr	r3, .L45+8
  58 004e 0238     		subs	r0, r0, #2
  59 0050 C0B2     		uxtb	r0, r0
  60 0052 03F10A01 		add	r1, r3, #10
  61              	.L8:
  62 0056 5A78     		ldrb	r2, [r3, #1]	@ zero_extendqisi2
  63 0058 8242     		cmp	r2, r0
  64 005a 07D0     		beq	.L40
  65              	.L7:
  66 005c 0233     		adds	r3, r3, #2
  67 005e 8B42     		cmp	r3, r1
  68 0060 F9D1     		bne	.L8
  69 0062 4246     		mov	r2, r8
  70 0064 2E49     		ldr	r1, .L45+12
  71 0066 FFF7FEFF 		bl	screen_footer
  72 006a E1E7     		b	.L3
  73              	.L40:
  74 006c 1A78     		ldrb	r2, [r3]	@ zero_extendqisi2
  75 006e 012A     		cmp	r2, #1
  76 0070 F4D1     		bne	.L7
  77 0072 DDE7     		b	.L3
  78              	.L5:
  79 0074 A078     		ldrb	r0, [r4, #2]	@ zero_extendqisi2
  80 0076 337B     		ldrb	r3, [r6, #12]	@ zero_extendqisi2
  81 0078 0238     		subs	r0, r0, #2
  82 007a 012B     		cmp	r3, #1
  83 007c C0B2     		uxtb	r0, r0
  84 007e 34D0     		beq	.L41
  85 0080 FFF7FEFF 		bl	hardware_leds
  86 0084 0621     		movs	r1, #6
  87 0086 FFF7FEFF 		bl	ledz_on
  88              	.L17:
  89 008a A078     		ldrb	r0, [r4, #2]	@ zero_extendqisi2
  90 008c 234B     		ldr	r3, .L45+8
  91 008e 0238     		subs	r0, r0, #2
  92 0090 C0B2     		uxtb	r0, r0
  93 0092 03F10A01 		add	r1, r3, #10
  94              	.L19:
  95 0096 5A78     		ldrb	r2, [r3, #1]	@ zero_extendqisi2
  96 0098 8242     		cmp	r2, r0
  97 009a 32D0     		beq	.L42
  98              	.L18:
  99 009c 0233     		adds	r3, r3, #2
 100 009e 9942     		cmp	r1, r3
 101 00a0 F9D1     		bne	.L19
 102 00a2 4A46     		mov	r2, r9
 103 00a4 2946     		mov	r1, r5
 104 00a6 FFF7FEFF 		bl	screen_footer
 105 00aa C1E7     		b	.L3
 106              	.L4:
 107 00ac 3368     		ldr	r3, [r6]
 108 00ae A078     		ldrb	r0, [r4, #2]	@ zero_extendqisi2
 109 00b0 1B7A     		ldrb	r3, [r3, #8]	@ zero_extendqisi2
 110 00b2 327B     		ldrb	r2, [r6, #12]	@ zero_extendqisi2
 111 00b4 013B     		subs	r3, r3, #1
 112 00b6 0238     		subs	r0, r0, #2
 113 00b8 9A42     		cmp	r2, r3
 114 00ba C0B2     		uxtb	r0, r0
 115 00bc 1BD0     		beq	.L43
 116 00be FFF7FEFF 		bl	hardware_leds
 117 00c2 0621     		movs	r1, #6
 118 00c4 FFF7FEFF 		bl	ledz_on
 119              	.L11:
 120 00c8 A078     		ldrb	r0, [r4, #2]	@ zero_extendqisi2
 121 00ca 144B     		ldr	r3, .L45+8
 122 00cc 0238     		subs	r0, r0, #2
 123 00ce C0B2     		uxtb	r0, r0
 124 00d0 03F10A01 		add	r1, r3, #10
 125              	.L14:
 126 00d4 5A78     		ldrb	r2, [r3, #1]	@ zero_extendqisi2
 127 00d6 8242     		cmp	r2, r0
 128 00d8 17D0     		beq	.L44
 129              	.L12:
 130 00da 0233     		adds	r3, r3, #2
 131 00dc 9942     		cmp	r1, r3
 132 00de F9D1     		bne	.L14
 133 00e0 5246     		mov	r2, r10
 134 00e2 2946     		mov	r1, r5
 135 00e4 FFF7FEFF 		bl	screen_footer
 136 00e8 A2E7     		b	.L3
 137              	.L41:
 138 00ea FFF7FEFF 		bl	hardware_leds
 139 00ee FF21     		movs	r1, #255
 140 00f0 FFF7FEFF 		bl	ledz_off
 141 00f4 C9E7     		b	.L17
 142              	.L43:
 143 00f6 FFF7FEFF 		bl	hardware_leds
 144 00fa FF21     		movs	r1, #255
 145 00fc FFF7FEFF 		bl	ledz_off
 146 0100 E2E7     		b	.L11
 147              	.L42:
 148 0102 1A78     		ldrb	r2, [r3]	@ zero_extendqisi2
 149 0104 012A     		cmp	r2, #1
 150 0106 C9D1     		bne	.L18
 151 0108 92E7     		b	.L3
 152              	.L44:
 153 010a 1A78     		ldrb	r2, [r3]	@ zero_extendqisi2
 154 010c 012A     		cmp	r2, #1
 155 010e E4D1     		bne	.L12
 156 0110 8EE7     		b	.L3
 157              	.L46:
 158 0112 00BF     		.align	2
 159              	.L45:
 160 0114 00000000 		.word	.LANCHOR0
 161 0118 04000000 		.word	.LANCHOR0+4
 162 011c 00000000 		.word	g_tool
 163 0120 04000000 		.word	.LC3
 164 0124 10000000 		.word	.LC4
 165 0128 14000000 		.word	.LC5
 166 012c 00000000 		.word	.LC2
 168              		.global	__aeabi_fcmple
 169              		.global	__aeabi_f2d
 170              		.global	__aeabi_dadd
 171              		.global	__aeabi_d2uiz
 172              		.global	__aeabi_fcmpeq
 173              		.global	__aeabi_f2iz
 174              		.global	__aeabi_i2f
 175              		.align	1
 176              		.p2align 2,,3
 177              		.syntax unified
 178              		.thumb
 179              		.thumb_func
 180              		.fpu softvfp
 182              	foot_control_add:
 183              		@ args = 0, pretend = 0, frame = 32
 184              		@ frame_needed = 0, uses_anonymous_args = 0
 185 0130 0278     		ldrb	r2, [r0]	@ zero_extendqisi2
 186 0132 082A     		cmp	r2, #8
 187 0134 48D8     		bhi	.L152
 188 0136 2DE9F043 		push	{r4, r5, r6, r7, r8, r9, lr}
 189 013a 0123     		movs	r3, #1
 190 013c 0546     		mov	r5, r0
 191 013e 824C     		ldr	r4, .L167
 192 0140 89B0     		sub	sp, sp, #36
 193              	.L51:
 194 0142 14F81300 		ldrb	r0, [r4, r3, lsl #1]	@ zero_extendqisi2
 195 0146 5900     		lsls	r1, r3, #1
 196 0148 9042     		cmp	r0, r2
 197 014a 03F10103 		add	r3, r3, #1
 198 014e 31D0     		beq	.L156
 199              	.L49:
 200 0150 042B     		cmp	r3, #4
 201 0152 F6D1     		bne	.L51
 202 0154 023A     		subs	r2, r2, #2
 203 0156 7D4B     		ldr	r3, .L167+4
 204 0158 9000     		lsls	r0, r2, #2
 205 015a 1918     		adds	r1, r3, r0
 206 015c 0969     		ldr	r1, [r1, #16]
 207 015e 09B1     		cbz	r1, .L53
 208 0160 A942     		cmp	r1, r5
 209 0162 2BD1     		bne	.L50
 210              	.L53:
 211 0164 297B     		ldrb	r1, [r5, #12]	@ zero_extendqisi2
 212 0166 0344     		add	r3, r3, r0
 213 0168 0139     		subs	r1, r1, #1
 214 016a 1D61     		str	r5, [r3, #16]
 215 016c 1F29     		cmp	r1, #31
 216 016e 28D8     		bhi	.L47
 217 0170 DFE811F0 		tbh	[pc, r1, lsl #1]
 218              	.L55:
 219 0174 5800     		.2byte	(.L54-.L55)/2
 220 0176 F400     		.2byte	(.L56-.L55)/2
 221 0178 2700     		.2byte	(.L47-.L55)/2
 222 017a 8500     		.2byte	(.L57-.L55)/2
 223 017c 2700     		.2byte	(.L47-.L55)/2
 224 017e 2700     		.2byte	(.L47-.L55)/2
 225 0180 2700     		.2byte	(.L47-.L55)/2
 226 0182 8500     		.2byte	(.L57-.L55)/2
 227 0184 2700     		.2byte	(.L47-.L55)/2
 228 0186 2700     		.2byte	(.L47-.L55)/2
 229 0188 2700     		.2byte	(.L47-.L55)/2
 230 018a 2700     		.2byte	(.L47-.L55)/2
 231 018c 2700     		.2byte	(.L47-.L55)/2
 232 018e 2700     		.2byte	(.L47-.L55)/2
 233 0190 2700     		.2byte	(.L47-.L55)/2
 234 0192 CE00     		.2byte	(.L58-.L55)/2
 235 0194 2700     		.2byte	(.L47-.L55)/2
 236 0196 2700     		.2byte	(.L47-.L55)/2
 237 0198 2700     		.2byte	(.L47-.L55)/2
 238 019a 2700     		.2byte	(.L47-.L55)/2
 239 019c 2700     		.2byte	(.L47-.L55)/2
 240 019e 2700     		.2byte	(.L47-.L55)/2
 241 01a0 2700     		.2byte	(.L47-.L55)/2
 242 01a2 2700     		.2byte	(.L47-.L55)/2
 243 01a4 2700     		.2byte	(.L47-.L55)/2
 244 01a6 2700     		.2byte	(.L47-.L55)/2
 245 01a8 2700     		.2byte	(.L47-.L55)/2
 246 01aa 2700     		.2byte	(.L47-.L55)/2
 247 01ac 2700     		.2byte	(.L47-.L55)/2
 248 01ae 2700     		.2byte	(.L47-.L55)/2
 249 01b0 2700     		.2byte	(.L47-.L55)/2
 250 01b2 2B00     		.2byte	(.L59-.L55)/2
 251              		.p2align 1
 252              	.L156:
 253 01b4 2144     		add	r1, r1, r4
 254 01b6 4978     		ldrb	r1, [r1, #1]	@ zero_extendqisi2
 255 01b8 0029     		cmp	r1, #0
 256 01ba C9D0     		beq	.L49
 257              	.L50:
 258 01bc 2846     		mov	r0, r5
 259 01be FFF7FEFF 		bl	data_free_control
 260              	.L47:
 261 01c2 09B0     		add	sp, sp, #36
 262              		@ sp needed
 263 01c4 BDE8F083 		pop	{r4, r5, r6, r7, r8, r9, pc}
 264              	.L152:
 265 01c8 7047     		bx	lr
 266              	.L59:
 267 01ca 0021     		movs	r1, #0
 268 01cc 2869     		ldr	r0, [r5, #16]	@ float
 269 01ce D4B2     		uxtb	r4, r2
 270 01d0 FFF7FEFF 		bl	__aeabi_fcmple
 271 01d4 0028     		cmp	r0, #0
 272 01d6 40F06E81 		bne	.L157
 273 01da 2046     		mov	r0, r4
 274 01dc FFF7FEFF 		bl	hardware_leds
 275 01e0 0121     		movs	r1, #1
 276 01e2 FFF7FEFF 		bl	ledz_on
 277              	.L62:
 278 01e6 2C78     		ldrb	r4, [r5]	@ zero_extendqisi2
 279 01e8 594B     		ldr	r3, .L167+8
 280 01ea 023C     		subs	r4, r4, #2
 281 01ec E4B2     		uxtb	r4, r4
 282 01ee 012C     		cmp	r4, #1
 283 01f0 94BF     		ite	ls
 284 01f2 0021     		movls	r1, #0
 285 01f4 0121     		movhi	r1, #1
 286 01f6 03F10A00 		add	r0, r3, #10
 287              	.L65:
 288 01fa 5A78     		ldrb	r2, [r3, #1]	@ zero_extendqisi2
 289 01fc 8A42     		cmp	r2, r1
 290 01fe 00F04581 		beq	.L158
 291              	.L63:
 292 0202 0233     		adds	r3, r3, #2
 293 0204 9842     		cmp	r0, r3
 294 0206 F8D1     		bne	.L65
 295 0208 0021     		movs	r1, #0
 296 020a 2869     		ldr	r0, [r5, #16]	@ float
 297 020c FFF7FEFF 		bl	__aeabi_fcmple
 298 0210 504B     		ldr	r3, .L167+12
 299 0212 514A     		ldr	r2, .L167+16
 300 0214 6968     		ldr	r1, [r5, #4]
 301 0216 0028     		cmp	r0, #0
 302 0218 08BF     		it	eq
 303 021a 1A46     		moveq	r2, r3
 304 021c 2046     		mov	r0, r4
 305 021e FFF7FEFF 		bl	screen_footer
 306 0222 CEE7     		b	.L47
 307              	.L54:
 308 0224 0021     		movs	r1, #0
 309 0226 2869     		ldr	r0, [r5, #16]	@ float
 310 0228 D4B2     		uxtb	r4, r2
 311 022a FFF7FEFF 		bl	__aeabi_fcmple
 312 022e 0028     		cmp	r0, #0
 313 0230 40F04881 		bne	.L159
 314 0234 2046     		mov	r0, r4
 315 0236 FFF7FEFF 		bl	hardware_leds
 316 023a 0121     		movs	r1, #1
 317 023c FFF7FEFF 		bl	ledz_off
 318              	.L84:
 319 0240 2C78     		ldrb	r4, [r5]	@ zero_extendqisi2
 320 0242 434B     		ldr	r3, .L167+8
 321 0244 023C     		subs	r4, r4, #2
 322 0246 E4B2     		uxtb	r4, r4
 323 0248 012C     		cmp	r4, #1
 324 024a 94BF     		ite	ls
 325 024c 0021     		movls	r1, #0
 326 024e 0121     		movhi	r1, #1
 327 0250 03F10A00 		add	r0, r3, #10
 328              	.L86:
 329 0254 5A78     		ldrb	r2, [r3, #1]	@ zero_extendqisi2
 330 0256 8A42     		cmp	r2, r1
 331 0258 00F00E81 		beq	.L160
 332              	.L85:
 333 025c 0233     		adds	r3, r3, #2
 334 025e 9842     		cmp	r0, r3
 335 0260 F8D1     		bne	.L86
 336 0262 0021     		movs	r1, #0
 337 0264 2869     		ldr	r0, [r5, #16]	@ float
 338 0266 FFF7FEFF 		bl	__aeabi_fcmpeq
 339 026a 3A4B     		ldr	r3, .L167+12
 340 026c 3A4A     		ldr	r2, .L167+16
 341 026e 6968     		ldr	r1, [r5, #4]
 342 0270 0028     		cmp	r0, #0
 343 0272 18BF     		it	ne
 344 0274 1A46     		movne	r2, r3
 345 0276 2046     		mov	r0, r4
 346 0278 FFF7FEFF 		bl	screen_footer
 347 027c A1E7     		b	.L47
 348              	.L57:
 349 027e 4FF00009 		mov	r9, #0
 350 0282 D0B2     		uxtb	r0, r2
 351 0284 FFF7FEFF 		bl	hardware_leds
 352 0288 0721     		movs	r1, #7
 353 028a FFF7FEFF 		bl	ledz_on
 354 028e 95F82070 		ldrb	r7, [r5, #32]	@ zero_extendqisi2
 355 0292 A5F81C90 		strh	r9, [r5, #28]	@ movhi
 356 0296 002F     		cmp	r7, #0
 357 0298 00F03A81 		beq	.L105
 358 029c 6E6A     		ldr	r6, [r5, #36]
 359 029e D5F81080 		ldr	r8, [r5, #16]	@ float
 360 02a2 3368     		ldr	r3, [r6]
 361 02a4 93F90400 		ldrsb	r0, [r3, #4]
 362 02a8 FFF7FEFF 		bl	__aeabi_i2f
 363 02ac 0146     		mov	r1, r0
 364 02ae 4046     		mov	r0, r8
 365 02b0 FFF7FEFF 		bl	__aeabi_fcmpeq
 366 02b4 0446     		mov	r4, r0
 367 02b6 60B1     		cbz	r0, .L91
 368 02b8 2DE1     		b	.L161
 369              	.L93:
 370 02ba 56F8043F 		ldr	r3, [r6, #4]!
 371 02be 93F90400 		ldrsb	r0, [r3, #4]
 372 02c2 FFF7FEFF 		bl	__aeabi_i2f
 373 02c6 4146     		mov	r1, r8
 374 02c8 FFF7FEFF 		bl	__aeabi_fcmpeq
 375 02cc 0028     		cmp	r0, #0
 376 02ce 40F0EA80 		bne	.L162
 377              	.L91:
 378 02d2 0134     		adds	r4, r4, #1
 379 02d4 E4B2     		uxtb	r4, r4
 380 02d6 BC42     		cmp	r4, r7
 381 02d8 EFD1     		bne	.L93
 382 02da 012C     		cmp	r4, #1
 383 02dc 94BF     		ite	ls
 384 02de 0021     		movls	r1, #0
 385 02e0 0121     		movhi	r1, #1
 386 02e2 27B2     		sxth	r7, r4
 387              	.L88:
 388 02e4 1A4B     		ldr	r3, .L167+8
 389 02e6 EF83     		strh	r7, [r5, #30]	@ movhi
 390 02e8 03F10A00 		add	r0, r3, #10
 391              	.L95:
 392 02ec 5A78     		ldrb	r2, [r3, #1]	@ zero_extendqisi2
 393 02ee 8A42     		cmp	r2, r1
 394 02f0 00F0B980 		beq	.L163
 395              	.L94:
 396 02f4 0233     		adds	r3, r3, #2
 397 02f6 9842     		cmp	r0, r3
 398 02f8 F8D1     		bne	.L95
 399 02fa 6B6A     		ldr	r3, [r5, #36]
 400 02fc 2878     		ldrb	r0, [r5]	@ zero_extendqisi2
 401 02fe 53F82430 		ldr	r3, [r3, r4, lsl #2]
 402 0302 0238     		subs	r0, r0, #2
 403 0304 1A68     		ldr	r2, [r3]
 404 0306 C0B2     		uxtb	r0, r0
 405 0308 6968     		ldr	r1, [r5, #4]
 406 030a FFF7FEFF 		bl	screen_footer
 407 030e 58E7     		b	.L47
 408              	.L58:
 409 0310 D0B2     		uxtb	r0, r2
 410 0312 FFF7FEFF 		bl	hardware_leds
 411 0316 0721     		movs	r1, #7
 412 0318 FFF7FEFF 		bl	ledz_on
 413 031c 2878     		ldrb	r0, [r5]	@ zero_extendqisi2
 414 031e 0C4B     		ldr	r3, .L167+8
 415 0320 0238     		subs	r0, r0, #2
 416 0322 C0B2     		uxtb	r0, r0
 417 0324 0128     		cmp	r0, #1
 418 0326 94BF     		ite	ls
 419 0328 0021     		movls	r1, #0
 420 032a 0121     		movhi	r1, #1
 421 032c 03F10A04 		add	r4, r3, #10
 422              	.L69:
 423 0330 5A78     		ldrb	r2, [r3, #1]	@ zero_extendqisi2
 424 0332 8A42     		cmp	r2, r1
 425 0334 00F0A580 		beq	.L164
 426              	.L68:
 427 0338 0233     		adds	r3, r3, #2
 428 033a 9C42     		cmp	r4, r3
 429 033c F8D1     		bne	.L69
 430 033e 6968     		ldr	r1, [r5, #4]
 431 0340 054A     		ldr	r2, .L167+16
 432 0342 FFF7FEFF 		bl	screen_footer
 433 0346 3CE7     		b	.L47
 434              	.L168:
 435              		.align	2
 436              	.L167:
 437 0348 04000000 		.word	.LANCHOR0+4
 438 034c 00000000 		.word	.LANCHOR0
 439 0350 00000000 		.word	g_tool
 440 0354 00000000 		.word	.LC2
 441 0358 18000000 		.word	.LC6
 442              	.L56:
 443 035c D0B2     		uxtb	r0, r2
 444 035e FFF7FEFF 		bl	hardware_leds
 445 0362 0721     		movs	r1, #7
 446 0364 FFF7FEFF 		bl	ledz_on
 447 0368 2969     		ldr	r1, [r5, #16]	@ float
 448 036a A868     		ldr	r0, [r5, #8]
 449 036c FFF7FEFF 		bl	convert_to_ms
 450 0370 FFF7FEFF 		bl	__aeabi_f2d
 451 0374 0022     		movs	r2, #0
 452 0376 6B4B     		ldr	r3, .L169
 453 0378 FFF7FEFF 		bl	__aeabi_dadd
 454 037c FFF7FEFF 		bl	__aeabi_d2uiz
 455 0380 84B2     		uxth	r4, r0
 456 0382 2878     		ldrb	r0, [r5]	@ zero_extendqisi2
 457 0384 642C     		cmp	r4, #100
 458 0386 A0F10200 		sub	r0, r0, #2
 459 038a C0B2     		uxtb	r0, r0
 460 038c 40F28380 		bls	.L71
 461 0390 FFF7FEFF 		bl	hardware_leds
 462 0394 A4F16403 		sub	r3, r4, #100
 463 0398 9BB2     		uxth	r3, r3
 464 039a 6422     		movs	r2, #100
 465 039c 0721     		movs	r1, #7
 466 039e FFF7FEFF 		bl	ledz_blink
 467              	.L72:
 468 03a2 2C78     		ldrb	r4, [r5]	@ zero_extendqisi2
 469 03a4 604F     		ldr	r7, .L169+4
 470 03a6 023C     		subs	r4, r4, #2
 471 03a8 6600     		lsls	r6, r4, #1
 472 03aa 3319     		adds	r3, r6, r4
 473 03ac 07EB8303 		add	r3, r7, r3, lsl #2
 474 03b0 1B7A     		ldrb	r3, [r3, #8]	@ zero_extendqisi2
 475 03b2 FBB9     		cbnz	r3, .L73
 476 03b4 D5F80880 		ldr	r8, [r5, #8]
 477 03b8 5C49     		ldr	r1, .L169+8
 478 03ba 4046     		mov	r0, r8
 479 03bc FFF7FEFF 		bl	strcmp
 480 03c0 0028     		cmp	r0, #0
 481 03c2 00F08680 		beq	.L74
 482 03c6 5A49     		ldr	r1, .L169+12
 483 03c8 4046     		mov	r0, r8
 484 03ca FFF7FEFF 		bl	strcmp
 485 03ce 0028     		cmp	r0, #0
 486 03d0 7FD0     		beq	.L74
 487 03d2 D5F81490 		ldr	r9, [r5, #20]	@ float
 488 03d6 0021     		movs	r1, #0
 489 03d8 4846     		mov	r0, r9
 490 03da FFF7FEFF 		bl	__aeabi_fcmpeq
 491 03de 0028     		cmp	r0, #0
 492 03e0 00F09D80 		beq	.L165
 493 03e4 40F6B830 		movw	r0, #3000
 494              	.L76:
 495 03e8 0122     		movs	r2, #1
 496 03ea 3319     		adds	r3, r6, r4
 497 03ec 07EB8303 		add	r3, r7, r3, lsl #2
 498 03f0 5860     		str	r0, [r3, #4]
 499 03f2 1A72     		strb	r2, [r3, #8]
 500              	.L73:
 501 03f4 E2B2     		uxtb	r2, r4
 502 03f6 012A     		cmp	r2, #1
 503 03f8 94BF     		ite	ls
 504 03fa 0022     		movls	r2, #0
 505 03fc 0122     		movhi	r2, #1
 506 03fe 4D4B     		ldr	r3, .L169+16
 507 0400 03F10A00 		add	r0, r3, #10
 508              	.L78:
 509 0404 5978     		ldrb	r1, [r3, #1]	@ zero_extendqisi2
 510 0406 9142     		cmp	r1, r2
 511 0408 32D0     		beq	.L166
 512              	.L77:
 513 040a 0233     		adds	r3, r3, #2
 514 040c 9842     		cmp	r0, r3
 515 040e F9D1     		bne	.L78
 516 0410 AC68     		ldr	r4, [r5, #8]
 517 0412 4649     		ldr	r1, .L169+8
 518 0414 2046     		mov	r0, r4
 519 0416 FFF7FEFF 		bl	strcasecmp
 520 041a 2E69     		ldr	r6, [r5, #16]	@ float
 521 041c 28B1     		cbz	r0, .L100
 522 041e 2046     		mov	r0, r4
 523 0420 4549     		ldr	r1, .L169+20
 524 0422 FFF7FEFF 		bl	strcasecmp
 525 0426 0028     		cmp	r0, #0
 526 0428 69D1     		bne	.L80
 527              	.L100:
 528 042a 6C46     		mov	r4, sp
 529 042c 3046     		mov	r0, r6
 530 042e FFF7FEFF 		bl	__aeabi_f2iz
 531 0432 0023     		movs	r3, #0
 532 0434 2146     		mov	r1, r4
 533 0436 2022     		movs	r2, #32
 534 0438 FFF7FEFF 		bl	int_to_str
 535 043c C3B2     		uxtb	r3, r0
 536              	.L81:
 537 043e 2022     		movs	r2, #32
 538 0440 581C     		adds	r0, r3, #1
 539 0442 0DEB0201 		add	r1, sp, r2
 540 0446 C0B2     		uxtb	r0, r0
 541 0448 0B44     		add	r3, r3, r1
 542 044a 2044     		add	r0, r0, r4
 543 044c A968     		ldr	r1, [r5, #8]
 544 044e 03F8202C 		strb	r2, [r3, #-32]
 545 0452 FFF7FEFF 		bl	strcpy
 546 0456 2878     		ldrb	r0, [r5]	@ zero_extendqisi2
 547 0458 2246     		mov	r2, r4
 548 045a 0238     		subs	r0, r0, #2
 549 045c C0B2     		uxtb	r0, r0
 550 045e 6968     		ldr	r1, [r5, #4]
 551 0460 FFF7FEFF 		bl	screen_footer
 552 0464 ADE6     		b	.L47
 553              	.L163:
 554 0466 1A78     		ldrb	r2, [r3]	@ zero_extendqisi2
 555 0468 012A     		cmp	r2, #1
 556 046a 7FF443AF 		bne	.L94
 557 046e A8E6     		b	.L47
 558              	.L166:
 559 0470 1978     		ldrb	r1, [r3]	@ zero_extendqisi2
 560 0472 0129     		cmp	r1, #1
 561 0474 C9D1     		bne	.L77
 562 0476 A4E6     		b	.L47
 563              	.L160:
 564 0478 1A78     		ldrb	r2, [r3]	@ zero_extendqisi2
 565 047a 012A     		cmp	r2, #1
 566 047c 7FF4EEAE 		bne	.L85
 567 0480 9FE6     		b	.L47
 568              	.L164:
 569 0482 1A78     		ldrb	r2, [r3]	@ zero_extendqisi2
 570 0484 012A     		cmp	r2, #1
 571 0486 7FF457AF 		bne	.L68
 572 048a 9AE6     		b	.L47
 573              	.L158:
 574 048c 1A78     		ldrb	r2, [r3]	@ zero_extendqisi2
 575 048e 012A     		cmp	r2, #1
 576 0490 7FF4B7AE 		bne	.L63
 577 0494 95E6     		b	.L47
 578              	.L71:
 579 0496 FFF7FEFF 		bl	hardware_leds
 580 049a 6308     		lsrs	r3, r4, #1
 581 049c 1A46     		mov	r2, r3
 582 049e 0721     		movs	r1, #7
 583 04a0 FFF7FEFF 		bl	ledz_blink
 584 04a4 7DE7     		b	.L72
 585              	.L162:
 586 04a6 012C     		cmp	r4, #1
 587 04a8 94BF     		ite	ls
 588 04aa 0021     		movls	r1, #0
 589 04ac 0121     		movhi	r1, #1
 590 04ae 23B2     		sxth	r3, r4
 591              	.L89:
 592 04b0 AB83     		strh	r3, [r5, #28]	@ movhi
 593 04b2 3FB2     		sxth	r7, r7
 594 04b4 16E7     		b	.L88
 595              	.L157:
 596 04b6 2046     		mov	r0, r4
 597 04b8 FFF7FEFF 		bl	hardware_leds
 598 04bc 0121     		movs	r1, #1
 599 04be FFF7FEFF 		bl	ledz_off
 600 04c2 90E6     		b	.L62
 601              	.L159:
 602 04c4 2046     		mov	r0, r4
 603 04c6 FFF7FEFF 		bl	hardware_leds
 604 04ca 0121     		movs	r1, #1
 605 04cc FFF7FEFF 		bl	ledz_on
 606 04d0 B6E6     		b	.L84
 607              	.L74:
 608 04d2 4046     		mov	r0, r8
 609 04d4 A969     		ldr	r1, [r5, #24]	@ float
 610              	.L155:
 611 04d6 FFF7FEFF 		bl	convert_to_ms
 612 04da FFF7FEFF 		bl	__aeabi_f2d
 613 04de 114B     		ldr	r3, .L169
 614 04e0 0022     		movs	r2, #0
 615 04e2 FFF7FEFF 		bl	__aeabi_dadd
 616 04e6 FFF7FEFF 		bl	__aeabi_d2uiz
 617 04ea 40F6B833 		movw	r3, #3000
 618 04ee 2C78     		ldrb	r4, [r5]	@ zero_extendqisi2
 619 04f0 9842     		cmp	r0, r3
 620 04f2 A4F10204 		sub	r4, r4, #2
 621 04f6 28BF     		it	cs
 622 04f8 1846     		movcs	r0, r3
 623 04fa 6600     		lsls	r6, r4, #1
 624 04fc 74E7     		b	.L76
 625              	.L80:
 626 04fe 6C46     		mov	r4, sp
 627 0500 0223     		movs	r3, #2
 628 0502 3046     		mov	r0, r6
 629 0504 2146     		mov	r1, r4
 630 0506 2022     		movs	r2, #32
 631 0508 FFF7FEFF 		bl	float_to_str
 632 050c C3B2     		uxtb	r3, r0
 633 050e 96E7     		b	.L81
 634              	.L105:
 635 0510 3946     		mov	r1, r7
 636 0512 3C46     		mov	r4, r7
 637 0514 E6E6     		b	.L88
 638              	.L161:
 639 0516 4946     		mov	r1, r9
 640 0518 4B46     		mov	r3, r9
 641 051a 4C46     		mov	r4, r9
 642 051c C8E7     		b	.L89
 643              	.L165:
 644 051e 4946     		mov	r1, r9
 645 0520 4046     		mov	r0, r8
 646 0522 D8E7     		b	.L155
 647              	.L170:
 648              		.align	2
 649              	.L169:
 650 0524 0000E03F 		.word	1071644672
 651 0528 00000000 		.word	g_tap_tempo
 652 052c 1C000000 		.word	.LC7
 653 0530 20000000 		.word	.LC8
 654 0534 00000000 		.word	g_tool
 655 0538 24000000 		.word	.LC9
 657              		.align	1
 658              		.p2align 2,,3
 659              		.syntax unified
 660              		.thumb
 661              		.thumb_func
 662              		.fpu softvfp
 664              	parse_pedalboards_list:
 665              		@ args = 0, pretend = 0, frame = 0
 666              		@ frame_needed = 0, uses_anonymous_args = 0
 667 053c 70B5     		push	{r4, r5, r6, lr}
 668 053e 0546     		mov	r5, r0
 669 0540 FFF7FEFF 		bl	strarr_length
 670 0544 084C     		ldr	r4, .L181
 671 0546 861E     		subs	r6, r0, #2
 672 0548 E06A     		ldr	r0, [r4, #44]
 673 054a 28B1     		cbz	r0, .L172
 674 054c 2368     		ldr	r3, [r4]
 675 054e 0BB1     		cbz	r3, .L173
 676 0550 9842     		cmp	r0, r3
 677 0552 01D0     		beq	.L172
 678              	.L173:
 679 0554 FFF7FEFF 		bl	data_free_pedalboards_list
 680              	.L172:
 681 0558 3146     		mov	r1, r6
 682 055a 05F10800 		add	r0, r5, #8
 683 055e FFF7FEFF 		bl	data_parse_pedalboards_list
 684 0562 E062     		str	r0, [r4, #44]
 685 0564 70BD     		pop	{r4, r5, r6, pc}
 686              	.L182:
 687 0566 00BF     		.align	2
 688              	.L181:
 689 0568 00000000 		.word	.LANCHOR0
 691              		.global	__aeabi_fdiv
 692              		.global	__aeabi_fsub
 693              		.global	__aeabi_fmul
 694              		.global	__aeabi_fadd
 695              		.global	__aeabi_dmul
 696              		.global	__aeabi_d2f
 697              		.global	__aeabi_fcmpgt
 698              		.align	1
 699              		.p2align 2,,3
 700              		.syntax unified
 701              		.thumb
 702              		.thumb_func
 703              		.fpu softvfp
 705              	step_to_value:
 706              		@ args = 0, pretend = 0, frame = 0
 707              		@ frame_needed = 0, uses_anonymous_args = 0
 708 056c 2DE9F843 		push	{r3, r4, r5, r6, r7, r8, r9, lr}
 709 0570 B0F91C50 		ldrsh	r5, [r0, #28]
 710 0574 0446     		mov	r4, r0
 711 0576 2846     		mov	r0, r5
 712 0578 FFF7FEFF 		bl	__aeabi_i2f
 713 057c 0646     		mov	r6, r0
 714 057e B4F91E00 		ldrsh	r0, [r4, #30]
 715 0582 0138     		subs	r0, r0, #1
 716 0584 FFF7FEFF 		bl	__aeabi_i2f
 717 0588 0146     		mov	r1, r0
 718 058a 3046     		mov	r0, r6
 719 058c FFF7FEFF 		bl	__aeabi_fdiv
 720 0590 237B     		ldrb	r3, [r4, #12]	@ zero_extendqisi2
 721 0592 6669     		ldr	r6, [r4, #20]	@ float
 722 0594 082B     		cmp	r3, #8
 723 0596 A769     		ldr	r7, [r4, #24]	@ float
 724 0598 44D0     		beq	.L185
 725 059a 8046     		mov	r8, r0
 726 059c 3CD9     		bls	.L209
 727 059e 402B     		cmp	r3, #64
 728 05a0 2BD1     		bne	.L210
 729 05a2 FFF7FEFF 		bl	__aeabi_f2d
 730 05a6 8046     		mov	r8, r0
 731 05a8 8946     		mov	r9, r1
 732 05aa 3846     		mov	r0, r7
 733 05ac 3146     		mov	r1, r6
 734 05ae FFF7FEFF 		bl	__aeabi_fdiv
 735 05b2 FFF7FEFF 		bl	__aeabi_f2d
 736 05b6 4246     		mov	r2, r8
 737 05b8 4B46     		mov	r3, r9
 738 05ba FFF7FEFF 		bl	pow
 739 05be 8046     		mov	r8, r0
 740 05c0 8946     		mov	r9, r1
 741 05c2 3046     		mov	r0, r6
 742 05c4 FFF7FEFF 		bl	__aeabi_f2d
 743 05c8 4246     		mov	r2, r8
 744 05ca 4B46     		mov	r3, r9
 745 05cc FFF7FEFF 		bl	__aeabi_dmul
 746 05d0 FFF7FEFF 		bl	__aeabi_d2f
 747 05d4 0546     		mov	r5, r0
 748 05d6 A769     		ldr	r7, [r4, #24]	@ float
 749 05d8 6669     		ldr	r6, [r4, #20]	@ float
 750 05da 2061     		str	r0, [r4, #16]	@ float
 751              	.L189:
 752 05dc 3946     		mov	r1, r7
 753 05de 2846     		mov	r0, r5
 754 05e0 FFF7FEFF 		bl	__aeabi_fcmpgt
 755 05e4 08B1     		cbz	r0, .L190
 756 05e6 3D46     		mov	r5, r7
 757 05e8 2761     		str	r7, [r4, #16]	@ float
 758              	.L190:
 759 05ea 2946     		mov	r1, r5
 760 05ec 3046     		mov	r0, r6
 761 05ee FFF7FEFF 		bl	__aeabi_fcmpgt
 762 05f2 00B1     		cbz	r0, .L183
 763 05f4 2661     		str	r6, [r4, #16]	@ float
 764              	.L183:
 765 05f6 BDE8F883 		pop	{r3, r4, r5, r6, r7, r8, r9, pc}
 766              	.L210:
 767 05fa 802B     		cmp	r3, #128
 768 05fc 10D1     		bne	.L184
 769              	.L187:
 770 05fe 3146     		mov	r1, r6
 771 0600 3846     		mov	r0, r7
 772 0602 FFF7FEFF 		bl	__aeabi_fsub
 773 0606 4146     		mov	r1, r8
 774 0608 FFF7FEFF 		bl	__aeabi_fmul
 775 060c 3146     		mov	r1, r6
 776 060e FFF7FEFF 		bl	__aeabi_fadd
 777 0612 0546     		mov	r5, r0
 778 0614 2061     		str	r0, [r4, #16]	@ float
 779 0616 E1E7     		b	.L189
 780              	.L209:
 781 0618 002B     		cmp	r3, #0
 782 061a F0D0     		beq	.L187
 783 061c 042B     		cmp	r3, #4
 784 061e 01D0     		beq	.L185
 785              	.L184:
 786 0620 2569     		ldr	r5, [r4, #16]	@ float
 787 0622 DBE7     		b	.L189
 788              	.L185:
 789 0624 636A     		ldr	r3, [r4, #36]
 790 0626 53F82530 		ldr	r3, [r3, r5, lsl #2]
 791 062a 93F90400 		ldrsb	r0, [r3, #4]
 792 062e FFF7FEFF 		bl	__aeabi_i2f
 793 0632 0546     		mov	r5, r0
 794 0634 2061     		str	r0, [r4, #16]	@ float
 795 0636 D1E7     		b	.L189
 797              		.global	__aeabi_fcmplt
 798              		.global	__aeabi_ui2f
 799              		.align	1
 800              		.p2align 2,,3
 801              		.syntax unified
 802              		.thumb
 803              		.thumb_func
 804              		.fpu softvfp
 806              	control_set:
 807              		@ args = 0, pretend = 0, frame = 128
 808              		@ frame_needed = 0, uses_anonymous_args = 0
 809 0638 F0B5     		push	{r4, r5, r6, r7, lr}
 810 063a 0B7B     		ldrb	r3, [r1, #12]	@ zero_extendqisi2
 811 063c A1B0     		sub	sp, sp, #132
 812 063e 082B     		cmp	r3, #8
 813 0640 0D46     		mov	r5, r1
 814 0642 0446     		mov	r4, r0
 815 0644 00F08980 		beq	.L213
 816 0648 50D8     		bhi	.L214
 817 064a 012B     		cmp	r3, #1
 818 064c 00F0D080 		beq	.L215
 819 0650 C0F0B680 		bcc	.L216
 820 0654 022B     		cmp	r3, #2
 821 0656 7ED1     		bne	.L287
 822 0658 FFF7FEFF 		bl	hardware_timestamp
 823 065c 2B78     		ldrb	r3, [r5]	@ zero_extendqisi2
 824 065e 874A     		ldr	r2, .L296
 825 0660 023B     		subs	r3, r3, #2
 826 0662 03EB4303 		add	r3, r3, r3, lsl #1
 827 0666 9B00     		lsls	r3, r3, #2
 828 0668 D118     		adds	r1, r2, r3
 829 066a 0E7A     		ldrb	r6, [r1, #8]	@ zero_extendqisi2
 830 066c D458     		ldr	r4, [r2, r3]
 831 066e 012E     		cmp	r6, #1
 832 0670 D050     		str	r0, [r2, r3]
 833 0672 46D1     		bne	.L212
 834 0674 4B68     		ldr	r3, [r1, #4]
 835 0676 041B     		subs	r4, r0, r4
 836 0678 A342     		cmp	r3, r4
 837 067a C0F0F080 		bcc	.L288
 838              	.L239:
 839 067e 2969     		ldr	r1, [r5, #16]	@ float
 840 0680 A868     		ldr	r0, [r5, #8]
 841 0682 FFF7FEFF 		bl	convert_to_ms
 842 0686 0646     		mov	r6, r0
 843 0688 2046     		mov	r0, r4
 844 068a FFF7FEFF 		bl	__aeabi_ui2f
 845 068e 0146     		mov	r1, r0
 846 0690 0446     		mov	r4, r0
 847 0692 3046     		mov	r0, r6
 848 0694 FFF7FEFF 		bl	__aeabi_fsub
 849 0698 FFF7FEFF 		bl	__aeabi_f2iz
 850 069c 6330     		adds	r0, r0, #99
 851 069e C628     		cmp	r0, #198
 852 06a0 00F2E480 		bhi	.L289
 853 06a4 2969     		ldr	r1, [r5, #16]	@ float
 854 06a6 0846     		mov	r0, r1
 855 06a8 FFF7FEFF 		bl	__aeabi_fadd
 856 06ac 2146     		mov	r1, r4
 857 06ae 0646     		mov	r6, r0
 858 06b0 A868     		ldr	r0, [r5, #8]
 859 06b2 FFF7FEFF 		bl	convert_from_ms
 860 06b6 0146     		mov	r1, r0
 861 06b8 3046     		mov	r0, r6
 862 06ba FFF7FEFF 		bl	__aeabi_fadd
 863 06be 7049     		ldr	r1, .L296+4
 864 06c0 FFF7FEFF 		bl	__aeabi_fdiv
 865 06c4 0446     		mov	r4, r0
 866 06c6 2861     		str	r0, [r5, #16]	@ float
 867              	.L240:
 868 06c8 AE69     		ldr	r6, [r5, #24]	@ float
 869 06ca 2146     		mov	r1, r4
 870 06cc 3046     		mov	r0, r6
 871 06ce FFF7FEFF 		bl	__aeabi_fcmplt
 872 06d2 08B1     		cbz	r0, .L241
 873 06d4 3446     		mov	r4, r6
 874 06d6 2E61     		str	r6, [r5, #16]	@ float
 875              	.L241:
 876 06d8 6E69     		ldr	r6, [r5, #20]	@ float
 877 06da 2146     		mov	r1, r4
 878 06dc 3046     		mov	r0, r6
 879 06de FFF7FEFF 		bl	__aeabi_fcmpgt
 880 06e2 0028     		cmp	r0, #0
 881 06e4 00F08B80 		beq	.L238
 882 06e8 2E61     		str	r6, [r5, #16]	@ float
 883 06ea 88E0     		b	.L238
 884              	.L214:
 885 06ec 202B     		cmp	r3, #32
 886 06ee 7FD0     		beq	.L215
 887 06f0 62D8     		bhi	.L218
 888 06f2 102B     		cmp	r3, #16
 889 06f4 05D1     		bne	.L212
 890 06f6 4FF07E53 		mov	r3, #1065353216
 891 06fa 0846     		mov	r0, r1
 892 06fc 0B61     		str	r3, [r1, #16]	@ float
 893 06fe FFF717FD 		bl	foot_control_add
 894              	.L212:
 895 0702 6846     		mov	r0, sp
 896 0704 5F49     		ldr	r1, .L296+8
 897 0706 FFF7FEFF 		bl	copy_command
 898 070a 0023     		movs	r3, #0
 899 070c 0DEB0001 		add	r1, sp, r0
 900 0710 0446     		mov	r4, r0
 901 0712 C0F18002 		rsb	r2, r0, #128
 902 0716 2878     		ldrb	r0, [r5]	@ zero_extendqisi2
 903 0718 FFF7FEFF 		bl	int_to_str
 904 071c 2026     		movs	r6, #32
 905 071e 2044     		add	r0, r0, r4
 906 0720 C3B2     		uxtb	r3, r0
 907 0722 5C1C     		adds	r4, r3, #1
 908 0724 E4B2     		uxtb	r4, r4
 909 0726 20AA     		add	r2, sp, #128
 910 0728 0DEB0401 		add	r1, sp, r4
 911 072c 2869     		ldr	r0, [r5, #16]	@ float
 912 072e D518     		adds	r5, r2, r3
 913 0730 C4F18002 		rsb	r2, r4, #128
 914 0734 0323     		movs	r3, #3
 915 0736 05F8806C 		strb	r6, [r5, #-128]
 916 073a FFF7FEFF 		bl	float_to_str
 917 073e 0022     		movs	r2, #0
 918 0740 2044     		add	r0, r0, r4
 919 0742 C1B2     		uxtb	r1, r0
 920 0744 20AB     		add	r3, sp, #128
 921 0746 0B44     		add	r3, r3, r1
 922 0748 6846     		mov	r0, sp
 923 074a 03F8802C 		strb	r2, [r3, #-128]
 924 074e FFF7FEFF 		bl	comm_webgui_send
 925 0752 21B0     		add	sp, sp, #132
 926              		@ sp needed
 927 0754 F0BD     		pop	{r4, r5, r6, r7, pc}
 928              	.L287:
 929 0756 042B     		cmp	r3, #4
 930 0758 D3D1     		bne	.L212
 931              	.L213:
 932 075a 2E78     		ldrb	r6, [r5]	@ zero_extendqisi2
 933 075c 012E     		cmp	r6, #1
 934 075e 5AD9     		bls	.L290
 935 0760 F31E     		subs	r3, r6, #3
 936 0762 052B     		cmp	r3, #5
 937 0764 CDD8     		bhi	.L212
 938 0766 AB8B     		ldrh	r3, [r5, #28]
 939 0768 95F82020 		ldrb	r2, [r5, #32]	@ zero_extendqisi2
 940 076c 0133     		adds	r3, r3, #1
 941 076e 1BB2     		sxth	r3, r3
 942 0770 9342     		cmp	r3, r2
 943 0772 A8BF     		it	ge
 944 0774 0022     		movge	r2, #0
 945 0776 AB83     		strh	r3, [r5, #28]	@ movhi
 946 0778 A4BF     		itt	ge
 947 077a 1346     		movge	r3, r2
 948 077c AA83     		strhge	r2, [r5, #28]	@ movhi
 949 077e 6A6A     		ldr	r2, [r5, #36]
 950 0780 B8BF     		it	lt
 951 0782 9B00     		lsllt	r3, r3, #2
 952 0784 D758     		ldr	r7, [r2, r3]
 953 0786 97F90400 		ldrsb	r0, [r7, #4]
 954 078a FFF7FEFF 		bl	__aeabi_i2f
 955 078e 012C     		cmp	r4, #1
 956 0790 94BF     		ite	ls
 957 0792 0024     		movls	r4, #0
 958 0794 0124     		movhi	r4, #1
 959 0796 3C4B     		ldr	r3, .L296+12
 960 0798 2861     		str	r0, [r5, #16]	@ float
 961 079a 03F10A01 		add	r1, r3, #10
 962              	.L234:
 963 079e 5A78     		ldrb	r2, [r3, #1]	@ zero_extendqisi2
 964 07a0 A242     		cmp	r2, r4
 965 07a2 34D0     		beq	.L291
 966              	.L233:
 967 07a4 0233     		adds	r3, r3, #2
 968 07a6 9942     		cmp	r1, r3
 969 07a8 F9D1     		bne	.L234
 970 07aa B01E     		subs	r0, r6, #2
 971 07ac C0B2     		uxtb	r0, r0
 972 07ae 3A68     		ldr	r2, [r7]
 973 07b0 6968     		ldr	r1, [r5, #4]
 974 07b2 FFF7FEFF 		bl	screen_footer
 975 07b6 A4E7     		b	.L212
 976              	.L218:
 977 07b8 402B     		cmp	r3, #64
 978 07ba 01D0     		beq	.L216
 979 07bc 802B     		cmp	r3, #128
 980 07be A0D1     		bne	.L212
 981              	.L216:
 982 07c0 2B78     		ldrb	r3, [r5]	@ zero_extendqisi2
 983 07c2 012B     		cmp	r3, #1
 984 07c4 3DD9     		bls	.L292
 985 07c6 0A3B     		subs	r3, r3, #10
 986 07c8 062B     		cmp	r3, #6
 987 07ca 9AD8     		bhi	.L212
 988 07cc 032C     		cmp	r4, #3
 989 07ce 94BF     		ite	ls
 990 07d0 0021     		movls	r1, #0
 991 07d2 0121     		movhi	r1, #1
 992 07d4 2C4B     		ldr	r3, .L296+12
 993 07d6 03F10A00 		add	r0, r3, #10
 994              	.L226:
 995 07da 5A78     		ldrb	r2, [r3, #1]	@ zero_extendqisi2
 996 07dc 8A42     		cmp	r2, r1
 997 07de 12D0     		beq	.L293
 998              	.L225:
 999 07e0 0233     		adds	r3, r3, #2
 1000 07e2 8342     		cmp	r3, r0
 1001 07e4 F9D1     		bne	.L226
 1002 07e6 2046     		mov	r0, r4
 1003 07e8 2946     		mov	r1, r5
 1004 07ea FFF7FEFF 		bl	screen_pot
 1005 07ee 88E7     		b	.L212
 1006              	.L215:
 1007 07f0 0024     		movs	r4, #0
 1008 07f2 2869     		ldr	r0, [r5, #16]	@ float
 1009 07f4 2146     		mov	r1, r4
 1010 07f6 FFF7FEFF 		bl	__aeabi_fcmpgt
 1011 07fa F0B1     		cbz	r0, .L283
 1012 07fc 2C61     		str	r4, [r5, #16]	@ float
 1013              	.L238:
 1014 07fe 2846     		mov	r0, r5
 1015 0800 FFF796FC 		bl	foot_control_add
 1016 0804 7DE7     		b	.L212
 1017              	.L293:
 1018 0806 1A78     		ldrb	r2, [r3]	@ zero_extendqisi2
 1019 0808 012A     		cmp	r2, #1
 1020 080a E9D1     		bne	.L225
 1021 080c 79E7     		b	.L212
 1022              	.L291:
 1023 080e 1A78     		ldrb	r2, [r3]	@ zero_extendqisi2
 1024 0810 012A     		cmp	r2, #1
 1025 0812 C7D1     		bne	.L233
 1026 0814 75E7     		b	.L212
 1027              	.L290:
 1028 0816 1C4B     		ldr	r3, .L296+12
 1029 0818 03F10A01 		add	r1, r3, #10
 1030              	.L230:
 1031 081c 5A78     		ldrb	r2, [r3, #1]	@ zero_extendqisi2
 1032 081e A242     		cmp	r2, r4
 1033 0820 07D0     		beq	.L294
 1034              	.L229:
 1035 0822 0233     		adds	r3, r3, #2
 1036 0824 9942     		cmp	r1, r3
 1037 0826 F9D1     		bne	.L230
 1038              	.L223:
 1039 0828 2046     		mov	r0, r4
 1040 082a 2946     		mov	r1, r5
 1041 082c FFF7FEFF 		bl	screen_encoder
 1042 0830 67E7     		b	.L212
 1043              	.L294:
 1044 0832 1A78     		ldrb	r2, [r3]	@ zero_extendqisi2
 1045 0834 012A     		cmp	r2, #1
 1046 0836 F4D1     		bne	.L229
 1047 0838 63E7     		b	.L212
 1048              	.L283:
 1049 083a 4FF07E53 		mov	r3, #1065353216
 1050 083e 2B61     		str	r3, [r5, #16]	@ float
 1051 0840 DDE7     		b	.L238
 1052              	.L292:
 1053 0842 114B     		ldr	r3, .L296+12
 1054 0844 03F10A01 		add	r1, r3, #10
 1055              	.L222:
 1056 0848 5A78     		ldrb	r2, [r3, #1]	@ zero_extendqisi2
 1057 084a A242     		cmp	r2, r4
 1058 084c 03D0     		beq	.L295
 1059              	.L221:
 1060 084e 0233     		adds	r3, r3, #2
 1061 0850 8B42     		cmp	r3, r1
 1062 0852 F9D1     		bne	.L222
 1063 0854 E8E7     		b	.L223
 1064              	.L295:
 1065 0856 1A78     		ldrb	r2, [r3]	@ zero_extendqisi2
 1066 0858 012A     		cmp	r2, #1
 1067 085a F8D1     		bne	.L221
 1068 085c 51E7     		b	.L212
 1069              	.L288:
 1070 085e A4F13200 		sub	r0, r4, #50
 1071 0862 8342     		cmp	r3, r0
 1072 0864 7FF64DAF 		bls	.L212
 1073 0868 1C46     		mov	r4, r3
 1074 086a 08E7     		b	.L239
 1075              	.L289:
 1076 086c 2146     		mov	r1, r4
 1077 086e A868     		ldr	r0, [r5, #8]
 1078 0870 FFF7FEFF 		bl	convert_from_ms
 1079 0874 0446     		mov	r4, r0
 1080 0876 2861     		str	r0, [r5, #16]	@ float
 1081 0878 26E7     		b	.L240
 1082              	.L297:
 1083 087a 00BF     		.align	2
 1084              	.L296:
 1085 087c 00000000 		.word	g_tap_tempo
 1086 0880 00004040 		.word	1077936128
 1087 0884 28000000 		.word	.LC10
 1088 0888 00000000 		.word	g_tool
 1090              		.align	1
 1091              		.p2align 2,,3
 1092              		.syntax unified
 1093              		.thumb
 1094              		.thumb_func
 1095              		.fpu softvfp
 1097              	display_disable_all_tools:
 1098              		@ args = 0, pretend = 0, frame = 0
 1099              		@ frame_needed = 0, uses_anonymous_args = 0
 1100 088c 10B5     		push	{r4, lr}
 1101 088e 0B4B     		ldr	r3, .L308
 1102 0890 0446     		mov	r4, r0
 1103 0892 9B78     		ldrb	r3, [r3, #2]	@ zero_extendqisi2
 1104 0894 63B9     		cbnz	r3, .L307
 1105              	.L299:
 1106 0896 0020     		movs	r0, #0
 1107 0898 084B     		ldr	r3, .L308
 1108 089a 03F10A01 		add	r1, r3, #10
 1109              	.L301:
 1110 089e 5A78     		ldrb	r2, [r3, #1]	@ zero_extendqisi2
 1111 08a0 0233     		adds	r3, r3, #2
 1112 08a2 A242     		cmp	r2, r4
 1113 08a4 08BF     		it	eq
 1114 08a6 03F8020C 		strbeq	r0, [r3, #-2]
 1115 08aa 8B42     		cmp	r3, r1
 1116 08ac F7D1     		bne	.L301
 1117 08ae 10BD     		pop	{r4, pc}
 1118              	.L307:
 1119 08b0 0921     		movs	r1, #9
 1120 08b2 0348     		ldr	r0, .L308+4
 1121 08b4 FFF7FEFF 		bl	comm_webgui_send
 1122 08b8 EDE7     		b	.L299
 1123              	.L309:
 1124 08ba 00BF     		.align	2
 1125              	.L308:
 1126 08bc 00000000 		.word	g_tool
 1127 08c0 3C000000 		.word	.LC11
 1129              		.align	1
 1130              		.p2align 2,,3
 1131              		.syntax unified
 1132              		.thumb
 1133              		.thumb_func
 1134              		.fpu softvfp
 1136              	send_load_pedalboard:
 1137              		@ args = 0, pretend = 0, frame = 128
 1138              		@ frame_needed = 0, uses_anonymous_args = 0
 1139 08c4 70B5     		push	{r4, r5, r6, lr}
 1140 08c6 A0B0     		sub	sp, sp, #128
 1141 08c8 0646     		mov	r6, r0
 1142 08ca 0D46     		mov	r5, r1
 1143 08cc 6846     		mov	r0, sp
 1144 08ce 1A49     		ldr	r1, .L316
 1145 08d0 FFF7FEFF 		bl	copy_command
 1146 08d4 0446     		mov	r4, r0
 1147 08d6 0023     		movs	r3, #0
 1148 08d8 0DEB0401 		add	r1, sp, r4
 1149 08dc 0822     		movs	r2, #8
 1150 08de 3046     		mov	r0, r6
 1151 08e0 FFF7FEFF 		bl	int_to_str
 1152 08e4 2022     		movs	r2, #32
 1153 08e6 2044     		add	r0, r0, r4
 1154 08e8 C0B2     		uxtb	r0, r0
 1155 08ea 20AC     		add	r4, sp, #128
 1156 08ec 2B78     		ldrb	r3, [r5]	@ zero_extendqisi2
 1157 08ee 411C     		adds	r1, r0, #1
 1158 08f0 2044     		add	r0, r0, r4
 1159 08f2 C9B2     		uxtb	r1, r1
 1160 08f4 00F8802C 		strb	r2, [r0, #-128]
 1161 08f8 DBB1     		cbz	r3, .L313
 1162              	.L312:
 1163 08fa 20AA     		add	r2, sp, #128
 1164 08fc 0A44     		add	r2, r2, r1
 1165 08fe 02F8803C 		strb	r3, [r2, #-128]
 1166 0902 0131     		adds	r1, r1, #1
 1167 0904 15F8013F 		ldrb	r3, [r5, #1]!	@ zero_extendqisi2
 1168 0908 CCB2     		uxtb	r4, r1
 1169 090a 2146     		mov	r1, r4
 1170 090c 002B     		cmp	r3, #0
 1171 090e F4D1     		bne	.L312
 1172              	.L311:
 1173 0910 0023     		movs	r3, #0
 1174 0912 20AA     		add	r2, sp, #128
 1175 0914 2244     		add	r2, r2, r4
 1176 0916 1946     		mov	r1, r3
 1177 0918 1846     		mov	r0, r3
 1178 091a 02F8803C 		strb	r3, [r2, #-128]
 1179 091e FFF7FEFF 		bl	comm_webgui_set_response_cb
 1180 0922 2146     		mov	r1, r4
 1181 0924 6846     		mov	r0, sp
 1182 0926 FFF7FEFF 		bl	comm_webgui_send
 1183 092a FFF7FEFF 		bl	comm_webgui_wait_response
 1184 092e 20B0     		add	sp, sp, #128
 1185              		@ sp needed
 1186 0930 70BD     		pop	{r4, r5, r6, pc}
 1187              	.L313:
 1188 0932 0C46     		mov	r4, r1
 1189 0934 ECE7     		b	.L311
 1190              	.L317:
 1191 0936 00BF     		.align	2
 1192              	.L316:
 1193 0938 48000000 		.word	.LC12
 1195              		.align	1
 1196              		.p2align 2,,3
 1197              		.syntax unified
 1198              		.thumb
 1199              		.thumb_func
 1200              		.fpu softvfp
 1202              	parse_banks_list:
 1203              		@ args = 0, pretend = 0, frame = 0
 1204              		@ frame_needed = 0, uses_anonymous_args = 0
 1205 093c 70B5     		push	{r4, r5, r6, lr}
 1206 093e 0546     		mov	r5, r0
 1207 0940 FFF7FEFF 		bl	strarr_length
 1208 0944 084C     		ldr	r4, .L328
 1209 0946 861E     		subs	r6, r0, #2
 1210 0948 206B     		ldr	r0, [r4, #48]
 1211 094a 08B1     		cbz	r0, .L319
 1212 094c FFF7FEFF 		bl	data_free_banks_list
 1213              	.L319:
 1214 0950 3146     		mov	r1, r6
 1215 0952 05F10800 		add	r0, r5, #8
 1216 0956 FFF7FEFF 		bl	data_parse_banks_list
 1217 095a 2063     		str	r0, [r4, #48]
 1218 095c 10B1     		cbz	r0, .L318
 1219 095e 94F83430 		ldrb	r3, [r4, #52]	@ zero_extendqisi2
 1220 0962 8372     		strb	r3, [r0, #10]
 1221              	.L318:
 1222 0964 70BD     		pop	{r4, r5, r6, pc}
 1223              	.L329:
 1224 0966 00BF     		.align	2
 1225              	.L328:
 1226 0968 00000000 		.word	.LANCHOR0
 1228              		.align	1
 1229              		.p2align 2,,3
 1230              		.syntax unified
 1231              		.thumb
 1232              		.thumb_func
 1233              		.fpu softvfp
 1235              	menu_up:
 1236              		@ args = 0, pretend = 0, frame = 0
 1237              		@ frame_needed = 0, uses_anonymous_args = 0
 1238 096c 38B5     		push	{r3, r4, r5, lr}
 1239 096e 164B     		ldr	r3, .L347
 1240 0970 88B1     		cbz	r0, .L331
 1241 0972 9C6B     		ldr	r4, [r3, #56]
 1242 0974 6268     		ldr	r2, [r4, #4]
 1243 0976 1379     		ldrb	r3, [r2, #4]	@ zero_extendqisi2
 1244 0978 093B     		subs	r3, r3, #9
 1245 097a 012B     		cmp	r3, #1
 1246 097c 11D9     		bls	.L345
 1247              	.L333:
 1248 097e A37B     		ldrb	r3, [r4, #14]	@ zero_extendqisi2
 1249 0980 FBB9     		cbnz	r3, .L346
 1250              	.L335:
 1251 0982 D368     		ldr	r3, [r2, #12]
 1252 0984 13B1     		cbz	r3, .L336
 1253 0986 0121     		movs	r1, #1
 1254 0988 2046     		mov	r0, r4
 1255 098a 9847     		blx	r3
 1256              	.L336:
 1257 098c 2046     		mov	r0, r4
 1258 098e BDE83840 		pop	{r3, r4, r5, lr}
 1259 0992 FFF7FEBF 		b	screen_system_menu
 1260              	.L331:
 1261 0996 DC6B     		ldr	r4, [r3, #60]
 1262 0998 6268     		ldr	r2, [r4, #4]
 1263 099a 1379     		ldrb	r3, [r2, #4]	@ zero_extendqisi2
 1264 099c 093B     		subs	r3, r3, #9
 1265 099e 012B     		cmp	r3, #1
 1266 09a0 EDD8     		bhi	.L333
 1267              	.L345:
 1268 09a2 B4F91E50 		ldrsh	r5, [r4, #30]
 1269 09a6 FFF7FEFF 		bl	hardware_get_acceleration
 1270 09aa A28B     		ldrh	r2, [r4, #28]
 1271 09ac B4F91830 		ldrsh	r3, [r4, #24]
 1272 09b0 05FB1020 		mls	r0, r5, r0, r2
 1273 09b4 00B2     		sxth	r0, r0
 1274 09b6 9842     		cmp	r0, r3
 1275 09b8 A083     		strh	r0, [r4, #28]	@ movhi
 1276 09ba 6268     		ldr	r2, [r4, #4]
 1277 09bc B8BF     		it	lt
 1278 09be A383     		strhlt	r3, [r4, #28]	@ movhi
 1279 09c0 DFE7     		b	.L335
 1280              	.L346:
 1281 09c2 013B     		subs	r3, r3, #1
 1282 09c4 A373     		strb	r3, [r4, #14]
 1283 09c6 DCE7     		b	.L335
 1284              	.L348:
 1285              		.align	2
 1286              	.L347:
 1287 09c8 00000000 		.word	.LANCHOR0
 1289              		.align	1
 1290              		.p2align 2,,3
 1291              		.syntax unified
 1292              		.thumb
 1293              		.thumb_func
 1294              		.fpu softvfp
 1296              	menu_down:
 1297              		@ args = 0, pretend = 0, frame = 0
 1298              		@ frame_needed = 0, uses_anonymous_args = 0
 1299 09cc 38B5     		push	{r3, r4, r5, lr}
 1300 09ce 174B     		ldr	r3, .L362
 1301 09d0 B0B1     		cbz	r0, .L350
 1302 09d2 9C6B     		ldr	r4, [r3, #56]
 1303 09d4 6268     		ldr	r2, [r4, #4]
 1304 09d6 1379     		ldrb	r3, [r2, #4]	@ zero_extendqisi2
 1305 09d8 093B     		subs	r3, r3, #9
 1306 09da 012B     		cmp	r3, #1
 1307 09dc 16D9     		bls	.L361
 1308              	.L352:
 1309 09de 237B     		ldrb	r3, [r4, #12]	@ zero_extendqisi2
 1310 09e0 A17B     		ldrb	r1, [r4, #14]	@ zero_extendqisi2
 1311 09e2 013B     		subs	r3, r3, #1
 1312 09e4 9942     		cmp	r1, r3
 1313 09e6 BCBF     		itt	lt
 1314 09e8 0131     		addlt	r1, r1, #1
 1315 09ea A173     		strblt	r1, [r4, #14]
 1316              	.L354:
 1317 09ec D368     		ldr	r3, [r2, #12]
 1318 09ee 13B1     		cbz	r3, .L355
 1319 09f0 0221     		movs	r1, #2
 1320 09f2 2046     		mov	r0, r4
 1321 09f4 9847     		blx	r3
 1322              	.L355:
 1323 09f6 2046     		mov	r0, r4
 1324 09f8 BDE83840 		pop	{r3, r4, r5, lr}
 1325 09fc FFF7FEBF 		b	screen_system_menu
 1326              	.L350:
 1327 0a00 DC6B     		ldr	r4, [r3, #60]
 1328 0a02 6268     		ldr	r2, [r4, #4]
 1329 0a04 1379     		ldrb	r3, [r2, #4]	@ zero_extendqisi2
 1330 0a06 093B     		subs	r3, r3, #9
 1331 0a08 012B     		cmp	r3, #1
 1332 0a0a E8D8     		bhi	.L352
 1333              	.L361:
 1334 0a0c B4F91E50 		ldrsh	r5, [r4, #30]
 1335 0a10 FFF7FEFF 		bl	hardware_get_acceleration
 1336 0a14 A28B     		ldrh	r2, [r4, #28]
 1337 0a16 B4F91A30 		ldrsh	r3, [r4, #26]
 1338 0a1a 05FB0020 		mla	r0, r5, r0, r2
 1339 0a1e 00B2     		sxth	r0, r0
 1340 0a20 9842     		cmp	r0, r3
 1341 0a22 A083     		strh	r0, [r4, #28]	@ movhi
 1342 0a24 6268     		ldr	r2, [r4, #4]
 1343 0a26 C8BF     		it	gt
 1344 0a28 A383     		strhgt	r3, [r4, #28]	@ movhi
 1345 0a2a DFE7     		b	.L354
 1346              	.L363:
 1347              		.align	2
 1348              	.L362:
 1349 0a2c 00000000 		.word	.LANCHOR0
 1351              		.align	1
 1352              		.p2align 2,,3
 1353              		.syntax unified
 1354              		.thumb
 1355              		.thumb_func
 1356              		.fpu softvfp
 1358              	reset_menu_hover.isra.0:
 1359              		@ args = 0, pretend = 0, frame = 0
 1360              		@ frame_needed = 0, uses_anonymous_args = 0
 1361 0a30 80B1     		cbz	r0, .L373
 1362 0a32 38B5     		push	{r3, r4, r5, lr}
 1363 0a34 0446     		mov	r4, r0
 1364 0a36 0025     		movs	r5, #0
 1365              	.L367:
 1366 0a38 2268     		ldr	r2, [r4]
 1367 0a3a 5368     		ldr	r3, [r2, #4]
 1368 0a3c 1B79     		ldrb	r3, [r3, #4]	@ zero_extendqisi2
 1369 0a3e 023B     		subs	r3, r3, #2
 1370 0a40 012B     		cmp	r3, #1
 1371 0a42 98BF     		it	ls
 1372 0a44 9573     		strbls	r5, [r2, #14]
 1373 0a46 A068     		ldr	r0, [r4, #8]
 1374 0a48 FFF7F2FF 		bl	reset_menu_hover.isra.0
 1375 0a4c 6469     		ldr	r4, [r4, #20]
 1376 0a4e 002C     		cmp	r4, #0
 1377 0a50 F2D1     		bne	.L367
 1378 0a52 38BD     		pop	{r3, r4, r5, pc}
 1379              	.L373:
 1380 0a54 7047     		bx	lr
 1382              		.align	1
 1383 0a56 00BF     		.p2align 2,,3
 1384              		.syntax unified
 1385              		.thumb
 1386              		.thumb_func
 1387              		.fpu softvfp
 1389              	create_menu_tree.isra.1:
 1390              		@ args = 0, pretend = 0, frame = 0
 1391              		@ frame_needed = 0, uses_anonymous_args = 0
 1392 0a58 2DE9F84F 		push	{r3, r4, r5, r6, r7, r8, r9, r10, fp, lr}
 1393 0a5c 224E     		ldr	r6, .L388
 1394 0a5e 3368     		ldr	r3, [r6]
 1395 0a60 BBB1     		cbz	r3, .L376
 1396 0a62 0024     		movs	r4, #0
 1397 0a64 8B46     		mov	fp, r1
 1398 0a66 8046     		mov	r8, r0
 1399 0a68 4FF47F4A 		mov	r10, #65280
 1400 0a6c 2346     		mov	r3, r4
 1401              	.L381:
 1402 0a6e 03EB8305 		add	r5, r3, r3, lsl #2
 1403 0a72 06EB8507 		add	r7, r6, r5, lsl #2
 1404 0a76 3B89     		ldrh	r3, [r7, #8]
 1405 0a78 BBF80020 		ldrh	r2, [fp]
 1406 0a7c 9A42     		cmp	r2, r3
 1407 0a7e 0AD0     		beq	.L387
 1408              	.L379:
 1409 0a80 0134     		adds	r4, r4, #1
 1410 0a82 E4B2     		uxtb	r4, r4
 1411 0a84 04EB8403 		add	r3, r4, r4, lsl #2
 1412 0a88 56F82320 		ldr	r2, [r6, r3, lsl #2]
 1413 0a8c 2346     		mov	r3, r4
 1414 0a8e 002A     		cmp	r2, #0
 1415 0a90 EDD1     		bne	.L381
 1416              	.L376:
 1417 0a92 BDE8F88F 		pop	{r3, r4, r5, r6, r7, r8, r9, r10, fp, pc}
 1418              	.L387:
 1419 0a96 2020     		movs	r0, #32
 1420 0a98 FFF7FEFF 		bl	pvPortMalloc
 1421 0a9c 0022     		movs	r2, #0
 1422 0a9e 8146     		mov	r9, r0
 1423 0aa0 124B     		ldr	r3, .L388+4
 1424 0aa2 89F80E20 		strb	r2, [r9, #14]
 1425 0aa6 93F84000 		ldrb	r0, [r3, #64]	@ zero_extendqisi2
 1426 0aaa A9F80CA0 		strh	r10, [r9, #12]	@ movhi
 1427 0aae 8000     		lsls	r0, r0, #2
 1428 0ab0 FFF7FEFF 		bl	pvPortMalloc
 1429 0ab4 C9E90170 		strd	r7, r0, [r9, #4]
 1430 0ab8 2020     		movs	r0, #32
 1431 0aba FFF7FEFF 		bl	pvPortMalloc
 1432 0abe 56F82510 		ldr	r1, [r6, r5, lsl #2]
 1433 0ac2 C9F80000 		str	r0, [r9]
 1434 0ac6 FFF7FEFF 		bl	strcpy
 1435 0aca 4946     		mov	r1, r9
 1436 0acc 4046     		mov	r0, r8
 1437 0ace FFF7FEFF 		bl	node_child
 1438 0ad2 D9F80430 		ldr	r3, [r9, #4]
 1439 0ad6 1B79     		ldrb	r3, [r3, #4]	@ zero_extendqisi2
 1440 0ad8 023B     		subs	r3, r3, #2
 1441 0ada 012B     		cmp	r3, #1
 1442 0adc D0D8     		bhi	.L379
 1443 0ade B91D     		adds	r1, r7, #6
 1444 0ae0 FFF7BAFF 		bl	create_menu_tree.isra.1
 1445 0ae4 CCE7     		b	.L379
 1446              	.L389:
 1447 0ae6 00BF     		.align	2
 1448              	.L388:
 1449 0ae8 00000000 		.word	.LANCHOR1
 1450 0aec 00000000 		.word	.LANCHOR0
 1452              		.global	__aeabi_f2uiz
 1453              		.align	1
 1454              		.p2align 2,,3
 1455              		.syntax unified
 1456              		.thumb
 1457              		.thumb_func
 1458              		.fpu softvfp
 1460              	naveg_set_master_volume.part.3:
 1461              		@ args = 0, pretend = 0, frame = 0
 1462              		@ frame_needed = 0, uses_anonymous_args = 0
 1463 0af0 70B5     		push	{r4, r5, r6, lr}
 1464 0af2 A8B1     		cbz	r0, .L391
 1465 0af4 FFF7FEFF 		bl	hardware_get_acceleration
 1466 0af8 4000     		lsls	r0, r0, #1
 1467 0afa FFF7FEFF 		bl	__aeabi_i2f
 1468 0afe 1F4C     		ldr	r4, .L399
 1469 0b00 0146     		mov	r1, r0
 1470 0b02 606C     		ldr	r0, [r4, #68]	@ float
 1471 0b04 FFF7FEFF 		bl	__aeabi_fsub
 1472 0b08 1D4E     		ldr	r6, .L399+4
 1473 0b0a 0546     		mov	r5, r0
 1474 0b0c 3146     		mov	r1, r6
 1475 0b0e FFF7FEFF 		bl	__aeabi_fcmplt
 1476 0b12 70BB     		cbnz	r0, .L392
 1477 0b14 6564     		str	r5, [r4, #68]	@ float
 1478              	.L393:
 1479 0b16 2846     		mov	r0, r5
 1480 0b18 0221     		movs	r1, #2
 1481 0b1a FFF7FEFF 		bl	system_master_volume_cb
 1482 0b1e 14E0     		b	.L394
 1483              	.L391:
 1484 0b20 FFF7FEFF 		bl	hardware_get_acceleration
 1485 0b24 154C     		ldr	r4, .L399
 1486 0b26 4000     		lsls	r0, r0, #1
 1487 0b28 FFF7FEFF 		bl	__aeabi_i2f
 1488 0b2c 0025     		movs	r5, #0
 1489 0b2e 616C     		ldr	r1, [r4, #68]	@ float
 1490 0b30 FFF7FEFF 		bl	__aeabi_fadd
 1491 0b34 2946     		mov	r1, r5
 1492 0b36 0646     		mov	r6, r0
 1493 0b38 FFF7FEFF 		bl	__aeabi_fcmpgt
 1494 0b3c E0B1     		cbz	r0, .L398
 1495 0b3e 2E46     		mov	r6, r5
 1496 0b40 6564     		str	r5, [r4, #68]	@ float
 1497              	.L396:
 1498 0b42 3046     		mov	r0, r6
 1499 0b44 0121     		movs	r1, #1
 1500 0b46 FFF7FEFF 		bl	system_master_volume_cb
 1501              	.L394:
 1502 0b4a 606C     		ldr	r0, [r4, #68]	@ float
 1503 0b4c 0D49     		ldr	r1, .L399+8
 1504 0b4e FFF7FEFF 		bl	__aeabi_fadd
 1505 0b52 0C49     		ldr	r1, .L399+8
 1506 0b54 FFF7FEFF 		bl	__aeabi_fdiv
 1507 0b58 0B49     		ldr	r1, .L399+12
 1508 0b5a FFF7FEFF 		bl	__aeabi_fmul
 1509 0b5e 0021     		movs	r1, #0
 1510 0b60 FFF7FEFF 		bl	__aeabi_fadd
 1511 0b64 FFF7FEFF 		bl	__aeabi_f2uiz
 1512 0b68 BDE87040 		pop	{r4, r5, r6, lr}
 1513 0b6c 40B2     		sxtb	r0, r0
 1514 0b6e FFF7FEBF 		b	screen_master_vol
 1515              	.L392:
 1516 0b72 3546     		mov	r5, r6
 1517 0b74 6664     		str	r6, [r4, #68]	@ float
 1518 0b76 CEE7     		b	.L393
 1519              	.L398:
 1520 0b78 6664     		str	r6, [r4, #68]	@ float
 1521 0b7a E2E7     		b	.L396
 1522              	.L400:
 1523              		.align	2
 1524              	.L399:
 1525 0b7c 00000000 		.word	.LANCHOR0
 1526 0b80 000070C2 		.word	-1032847360
 1527 0b84 00007042 		.word	1114636288
 1528 0b88 0000C842 		.word	1120403456
 1530              		.align	1
 1531              		.p2align 2,,3
 1532              		.global	draw_all_pots
 1533              		.syntax unified
 1534              		.thumb
 1535              		.thumb_func
 1536              		.fpu softvfp
 1538              	draw_all_pots:
 1539              		@ args = 0, pretend = 0, frame = 0
 1540              		@ frame_needed = 0, uses_anonymous_args = 0
 1541 0b8c 0128     		cmp	r0, #1
 1542 0b8e 14BF     		ite	ne
 1543 0b90 0023     		movne	r3, #0
 1544 0b92 0423     		moveq	r3, #4
 1545 0b94 70B5     		push	{r4, r5, r6, lr}
 1546 0b96 1C46     		mov	r4, r3
 1547 0b98 074D     		ldr	r5, .L407
 1548 0b9a 1E1D     		adds	r6, r3, #4
 1549 0b9c 05EB8305 		add	r5, r5, r3, lsl #2
 1550 0ba0 F6B2     		uxtb	r6, r6
 1551              	.L403:
 1552 0ba2 2046     		mov	r0, r4
 1553 0ba4 0134     		adds	r4, r4, #1
 1554 0ba6 55F8041B 		ldr	r1, [r5], #4
 1555 0baa E4B2     		uxtb	r4, r4
 1556 0bac FFF7FEFF 		bl	screen_pot
 1557 0bb0 B442     		cmp	r4, r6
 1558 0bb2 F6D1     		bne	.L403
 1559 0bb4 70BD     		pop	{r4, r5, r6, pc}
 1560              	.L408:
 1561 0bb6 00BF     		.align	2
 1562              	.L407:
 1563 0bb8 48000000 		.word	.LANCHOR0+72
 1565              		.align	1
 1566              		.p2align 2,,3
 1567              		.global	draw_all_foots
 1568              		.syntax unified
 1569              		.thumb
 1570              		.thumb_func
 1571              		.fpu softvfp
 1573              	draw_all_foots:
 1574              		@ args = 0, pretend = 0, frame = 0
 1575              		@ frame_needed = 0, uses_anonymous_args = 0
 1576 0bbc 0128     		cmp	r0, #1
 1577 0bbe 14BF     		ite	ne
 1578 0bc0 0023     		movne	r3, #0
 1579 0bc2 0223     		moveq	r3, #2
 1580 0bc4 70B5     		push	{r4, r5, r6, lr}
 1581 0bc6 124C     		ldr	r4, .L418
 1582 0bc8 1E46     		mov	r6, r3
 1583 0bca 04EB8303 		add	r3, r4, r3, lsl #2
 1584 0bce 1869     		ldr	r0, [r3, #16]
 1585 0bd0 14BF     		ite	ne
 1586 0bd2 0125     		movne	r5, #1
 1587 0bd4 0325     		moveq	r5, #3
 1588 0bd6 50B1     		cbz	r0, .L416
 1589 0bd8 04EB8504 		add	r4, r4, r5, lsl #2
 1590 0bdc FFF7A8FA 		bl	foot_control_add
 1591 0be0 2269     		ldr	r2, [r4, #16]
 1592 0be2 72B1     		cbz	r2, .L417
 1593              	.L413:
 1594 0be4 BDE87040 		pop	{r4, r5, r6, lr}
 1595 0be8 1046     		mov	r0, r2
 1596 0bea FFF7A1BA 		b	foot_control_add
 1597              	.L416:
 1598 0bee 0246     		mov	r2, r0
 1599 0bf0 0146     		mov	r1, r0
 1600 0bf2 04EB8504 		add	r4, r4, r5, lsl #2
 1601 0bf6 3046     		mov	r0, r6
 1602 0bf8 FFF7FEFF 		bl	screen_footer
 1603 0bfc 2269     		ldr	r2, [r4, #16]
 1604 0bfe 002A     		cmp	r2, #0
 1605 0c00 F0D1     		bne	.L413
 1606              	.L417:
 1607 0c02 701C     		adds	r0, r6, #1
 1608 0c04 1146     		mov	r1, r2
 1609 0c06 BDE87040 		pop	{r4, r5, r6, lr}
 1610 0c0a FFF7FEBF 		b	screen_footer
 1611              	.L419:
 1612 0c0e 00BF     		.align	2
 1613              	.L418:
 1614 0c10 00000000 		.word	.LANCHOR0
 1616              		.align	1
 1617              		.p2align 2,,3
 1618              		.global	naveg_init
 1619              		.syntax unified
 1620              		.thumb
 1621              		.thumb_func
 1622              		.fpu softvfp
 1624              	naveg_init:
 1625              		@ args = 0, pretend = 0, frame = 24
 1626              		@ frame_needed = 0, uses_anonymous_args = 0
 1627 0c14 0022     		movs	r2, #0
 1628 0c16 2DE9F043 		push	{r4, r5, r6, r7, r8, r9, lr}
 1629 0c1a 474D     		ldr	r5, .L441
 1630 0c1c 4749     		ldr	r1, .L441+4
 1631 0c1e 1346     		mov	r3, r2
 1632 0c20 C5E91A22 		strd	r2, r2, [r5, #104]
 1633 0c24 87B0     		sub	sp, sp, #28
 1634 0c26 05F10C02 		add	r2, r5, #12
 1635 0c2a 05F12800 		add	r0, r5, #40
 1636              	.L421:
 1637 0c2e 42F8043F 		str	r3, [r2, #4]!
 1638 0c32 9042     		cmp	r0, r2
 1639 0c34 0B72     		strb	r3, [r1, #8]
 1640 0c36 01F10C01 		add	r1, r1, #12
 1641 0c3a F8D1     		bne	.L421
 1642 0c3c 0126     		movs	r6, #1
 1643 0c3e 4FF0FF12 		mov	r2, #16711935
 1644 0c42 3F49     		ldr	r1, .L441+8
 1645 0c44 AB64     		str	r3, [r5, #72]
 1646 0c46 0868     		ldr	r0, [r1]
 1647 0c48 C5E91333 		strd	r3, r3, [r5, #76]
 1648 0c4c C5E91533 		strd	r3, r3, [r5, #84]
 1649 0c50 C5E91733 		strd	r3, r3, [r5, #92]
 1650 0c54 6B66     		str	r3, [r5, #100]
 1651 0c56 C5E90B33 		strd	r3, r3, [r5, #44]
 1652 0c5a 2B60     		str	r3, [r5]
 1653 0c5c 85F87030 		strb	r3, [r5, #112]
 1654 0c60 2E73     		strb	r6, [r5, #12]
 1655 0c62 C5E90122 		strd	r2, r2, [r5, #4]
 1656 0c66 95F84070 		ldrb	r7, [r5, #64]	@ zero_extendqisi2
 1657 0c6a 78B3     		cbz	r0, .L422
 1658 0c6c 8C46     		mov	ip, r1
 1659 0c6e DCF81400 		ldr	r0, [ip, #20]
 1660 0c72 BE46     		mov	lr, r7
 1661 0c74 4FF00008 		mov	r8, #0
 1662 0c78 F3B2     		uxtb	r3, r6
 1663 0c7a 3246     		mov	r2, r6
 1664 0c7c 10B3     		cbz	r0, .L423
 1665              	.L440:
 1666 0c7e 0024     		movs	r4, #0
 1667 0c80 BCF80690 		ldrh	r9, [ip, #6]
 1668              	.L425:
 1669 0c84 02EB8202 		add	r2, r2, r2, lsl #2
 1670 0c88 01EB8202 		add	r2, r1, r2, lsl #2
 1671 0c8c 0133     		adds	r3, r3, #1
 1672 0c8e 1089     		ldrh	r0, [r2, #8]
 1673 0c90 DBB2     		uxtb	r3, r3
 1674 0c92 03EB8302 		add	r2, r3, r3, lsl #2
 1675 0c96 4845     		cmp	r0, r9
 1676 0c98 51F82200 		ldr	r0, [r1, r2, lsl #2]
 1677 0c9c 04BF     		itt	eq
 1678 0c9e 0134     		addeq	r4, r4, #1
 1679 0ca0 E4B2     		uxtbeq	r4, r4
 1680 0ca2 1A46     		mov	r2, r3
 1681 0ca4 0028     		cmp	r0, #0
 1682 0ca6 EDD1     		bne	.L425
 1683 0ca8 A645     		cmp	lr, r4
 1684 0caa 02D2     		bcs	.L426
 1685 0cac A646     		mov	lr, r4
 1686 0cae 4FF00108 		mov	r8, #1
 1687              	.L426:
 1688 0cb2 0CF1140C 		add	ip, ip, #20
 1689 0cb6 DCF81400 		ldr	r0, [ip, #20]
 1690 0cba 0136     		adds	r6, r6, #1
 1691 0cbc F3B2     		uxtb	r3, r6
 1692 0cbe 3246     		mov	r2, r6
 1693 0cc0 0028     		cmp	r0, #0
 1694 0cc2 DCD1     		bne	.L440
 1695              	.L423:
 1696 0cc4 B8F1000F 		cmp	r8, #0
 1697 0cc8 18BF     		it	ne
 1698 0cca 7746     		movne	r7, lr
 1699              	.L422:
 1700 0ccc 1D4E     		ldr	r6, .L441+12
 1701 0cce 01AC     		add	r4, sp, #4
 1702 0cd0 0FCE     		ldmia	r6!, {r0, r1, r2, r3}
 1703 0cd2 0FC4     		stmia	r4!, {r0, r1, r2, r3}
 1704 0cd4 3368     		ldr	r3, [r6]
 1705 0cd6 0137     		adds	r7, r7, #1
 1706 0cd8 0020     		movs	r0, #0
 1707 0cda 2360     		str	r3, [r4]
 1708 0cdc 85F84070 		strb	r7, [r5, #64]
 1709 0ce0 FFF7FEFF 		bl	node_create
 1710 0ce4 0DF10A01 		add	r1, sp, #10
 1711 0ce8 6867     		str	r0, [r5, #116]
 1712 0cea 0024     		movs	r4, #0
 1713 0cec FFF7B4FE 		bl	create_menu_tree.isra.1
 1714 0cf0 0123     		movs	r3, #1
 1715 0cf2 6E6F     		ldr	r6, [r5, #116]
 1716 0cf4 2146     		mov	r1, r4
 1717 0cf6 B268     		ldr	r2, [r6, #8]
 1718 0cf8 1846     		mov	r0, r3
 1719 0cfa 1768     		ldr	r7, [r2]
 1720 0cfc 0322     		movs	r2, #3
 1721 0cfe AE67     		str	r6, [r5, #120]
 1722 0d00 AF63     		str	r7, [r5, #56]
 1723 0d02 C5E91F44 		strd	r4, r4, [r5, #124]
 1724 0d06 85F88430 		strb	r3, [r5, #132]
 1725 0d0a FFF7FEFF 		bl	xQueueGenericCreate
 1726 0d0e 0246     		mov	r2, r0
 1727 0d10 C5F88800 		str	r0, [r5, #136]
 1728 0d14 30B1     		cbz	r0, .L427
 1729 0d16 2246     		mov	r2, r4
 1730 0d18 2346     		mov	r3, r4
 1731 0d1a 2146     		mov	r1, r4
 1732 0d1c FFF7FEFF 		bl	xQueueGenericSend
 1733 0d20 D5F88820 		ldr	r2, [r5, #136]
 1734              	.L427:
 1735 0d24 0023     		movs	r3, #0
 1736 0d26 1046     		mov	r0, r2
 1737 0d28 1946     		mov	r1, r3
 1738 0d2a 1A46     		mov	r2, r3
 1739 0d2c FFF7FEFF 		bl	xQueueGenericReceive
 1740 0d30 07B0     		add	sp, sp, #28
 1741              		@ sp needed
 1742 0d32 BDE8F083 		pop	{r4, r5, r6, r7, r8, r9, pc}
 1743              	.L442:
 1744 0d36 00BF     		.align	2
 1745              	.L441:
 1746 0d38 00000000 		.word	.LANCHOR0
 1747 0d3c 00000000 		.word	g_tap_tempo
 1748 0d40 00000000 		.word	.LANCHOR1
 1749 0d44 00000000 		.word	.LANCHOR2
 1751              		.align	1
 1752              		.p2align 2,,3
 1753              		.global	naveg_initial_state
 1754              		.syntax unified
 1755              		.thumb
 1756              		.thumb_func
 1757              		.fpu softvfp
 1759              	naveg_initial_state:
 1760              		@ args = 0, pretend = 0, frame = 0
 1761              		@ frame_needed = 0, uses_anonymous_args = 0
 1762 0d48 2DE9F047 		push	{r4, r5, r6, r7, r8, r9, r10, lr}
 1763 0d4c 002A     		cmp	r2, #0
 1764 0d4e 3DD0     		beq	.L476
 1765 0d50 1546     		mov	r5, r2
 1766 0d52 0F46     		mov	r7, r1
 1767 0d54 FFF7FEFF 		bl	atoi
 1768 0d58 244E     		ldr	r6, .L477
 1769 0d5a 0130     		adds	r0, r0, #1
 1770 0d5c 336B     		ldr	r3, [r6, #48]
 1771 0d5e C0B2     		uxtb	r0, r0
 1772 0d60 86F83400 		strb	r0, [r6, #52]
 1773 0d64 0BB1     		cbz	r3, .L448
 1774 0d66 9872     		strb	r0, [r3, #10]
 1775 0d68 5872     		strb	r0, [r3, #9]
 1776              	.L448:
 1777 0d6a F06A     		ldr	r0, [r6, #44]
 1778 0d6c 08B1     		cbz	r0, .L449
 1779 0d6e FFF7FEFF 		bl	data_free_pedalboards_list
 1780              	.L449:
 1781 0d72 3068     		ldr	r0, [r6]
 1782 0d74 08B1     		cbz	r0, .L450
 1783 0d76 FFF7FEFF 		bl	data_free_pedalboards_list
 1784              	.L450:
 1785 0d7a 0024     		movs	r4, #0
 1786 0d7c 2846     		mov	r0, r5
 1787 0d7e 3460     		str	r4, [r6]
 1788 0d80 FFF7FEFF 		bl	strarr_length
 1789 0d84 0146     		mov	r1, r0
 1790 0d86 2846     		mov	r0, r5
 1791 0d88 FFF7FEFF 		bl	data_parse_pedalboards_list
 1792 0d8c 8146     		mov	r9, r0
 1793 0d8e F062     		str	r0, [r6, #44]
 1794 0d90 D0B1     		cbz	r0, .L443
 1795 0d92 90F80880 		ldrb	r8, [r0, #8]	@ zero_extendqisi2
 1796 0d96 B8F1000F 		cmp	r8, #0
 1797 0d9a 15D0     		beq	.L443
 1798 0d9c 4568     		ldr	r5, [r0, #4]
 1799 0d9e A246     		mov	r10, r4
 1800 0da0 043D     		subs	r5, r5, #4
 1801 0da2 03E0     		b	.L452
 1802              	.L451:
 1803 0da4 5FFA84FA 		uxtb	r10, r4
 1804 0da8 D045     		cmp	r8, r10
 1805 0daa 0DD9     		bls	.L443
 1806              	.L452:
 1807 0dac 3946     		mov	r1, r7
 1808 0dae 55F8040F 		ldr	r0, [r5, #4]!
 1809 0db2 FFF7FEFF 		bl	strcmp
 1810 0db6 0134     		adds	r4, r4, #1
 1811 0db8 0028     		cmp	r0, #0
 1812 0dba F3D1     		bne	.L451
 1813 0dbc 89F80AA0 		strb	r10, [r9, #10]
 1814 0dc0 89F809A0 		strb	r10, [r9, #9]
 1815 0dc4 86F80CA0 		strb	r10, [r6, #12]
 1816              	.L443:
 1817 0dc8 BDE8F087 		pop	{r4, r5, r6, r7, r8, r9, r10, pc}
 1818              	.L476:
 1819 0dcc 074E     		ldr	r6, .L477
 1820 0dce 336B     		ldr	r3, [r6, #48]
 1821 0dd0 1BB1     		cbz	r3, .L445
 1822 0dd2 9A72     		strb	r2, [r3, #10]
 1823 0dd4 5A72     		strb	r2, [r3, #9]
 1824 0dd6 86F83420 		strb	r2, [r6, #52]
 1825              	.L445:
 1826 0dda F36A     		ldr	r3, [r6, #44]
 1827 0ddc 002B     		cmp	r3, #0
 1828 0dde F3D0     		beq	.L443
 1829 0de0 0022     		movs	r2, #0
 1830 0de2 9A72     		strb	r2, [r3, #10]
 1831 0de4 5A72     		strb	r2, [r3, #9]
 1832 0de6 3273     		strb	r2, [r6, #12]
 1833 0de8 BDE8F087 		pop	{r4, r5, r6, r7, r8, r9, r10, pc}
 1834              	.L478:
 1835              		.align	2
 1836              	.L477:
 1837 0dec 00000000 		.word	.LANCHOR0
 1839              		.align	1
 1840              		.p2align 2,,3
 1841              		.global	naveg_remove_control
 1842              		.syntax unified
 1843              		.thumb
 1844              		.thumb_func
 1845              		.fpu softvfp
 1847              	naveg_remove_control:
 1848              		@ args = 0, pretend = 0, frame = 0
 1849              		@ frame_needed = 0, uses_anonymous_args = 0
 1850 0df0 2DE9F041 		push	{r4, r5, r6, r7, r8, lr}
 1851 0df4 654D     		ldr	r5, .L563
 1852 0df6 95F88430 		ldrb	r3, [r5, #132]	@ zero_extendqisi2
 1853 0dfa 43B3     		cbz	r3, .L479
 1854 0dfc 0128     		cmp	r0, #1
 1855 0dfe 0646     		mov	r6, r0
 1856 0e00 6ED9     		bls	.L552
 1857 0e02 0024     		movs	r4, #0
 1858 0e04 0828     		cmp	r0, #8
 1859 0e06 2746     		mov	r7, r4
 1860 0e08 3ED9     		bls	.L553
 1861 0e0a 4435     		adds	r5, r5, #68
 1862 0e0c 06E0     		b	.L511
 1863              	.L503:
 1864 0e0e 0378     		ldrb	r3, [r0]	@ zero_extendqisi2
 1865 0e10 B342     		cmp	r3, r6
 1866 0e12 22D0     		beq	.L554
 1867              	.L513:
 1868 0e14 0134     		adds	r4, r4, #1
 1869 0e16 E4B2     		uxtb	r4, r4
 1870 0e18 082C     		cmp	r4, #8
 1871 0e1a 18D0     		beq	.L479
 1872              	.L511:
 1873 0e1c 55F8040F 		ldr	r0, [r5, #4]!
 1874 0e20 0028     		cmp	r0, #0
 1875 0e22 F4D1     		bne	.L503
 1876 0e24 032C     		cmp	r4, #3
 1877 0e26 94BF     		ite	ls
 1878 0e28 0021     		movls	r1, #0
 1879 0e2a 0121     		movhi	r1, #1
 1880 0e2c 584B     		ldr	r3, .L563+4
 1881 0e2e 03F10A0C 		add	ip, r3, #10
 1882              	.L505:
 1883 0e32 5A78     		ldrb	r2, [r3, #1]	@ zero_extendqisi2
 1884 0e34 8A42     		cmp	r2, r1
 1885 0e36 0CD0     		beq	.L555
 1886              	.L504:
 1887 0e38 0233     		adds	r3, r3, #2
 1888 0e3a 9C45     		cmp	ip, r3
 1889 0e3c F9D1     		bne	.L505
 1890              	.L549:
 1891 0e3e 2046     		mov	r0, r4
 1892 0e40 0134     		adds	r4, r4, #1
 1893 0e42 0021     		movs	r1, #0
 1894 0e44 E4B2     		uxtb	r4, r4
 1895 0e46 FFF7FEFF 		bl	screen_pot
 1896 0e4a 082C     		cmp	r4, #8
 1897 0e4c E6D1     		bne	.L511
 1898              	.L479:
 1899 0e4e BDE8F081 		pop	{r4, r5, r6, r7, r8, pc}
 1900              	.L555:
 1901 0e52 1A78     		ldrb	r2, [r3]	@ zero_extendqisi2
 1902 0e54 012A     		cmp	r2, #1
 1903 0e56 EFD1     		bne	.L504
 1904 0e58 D9E7     		b	.L503
 1905              	.L554:
 1906 0e5a FFF7FEFF 		bl	data_free_control
 1907 0e5e 032C     		cmp	r4, #3
 1908 0e60 94BF     		ite	ls
 1909 0e62 0021     		movls	r1, #0
 1910 0e64 0121     		movhi	r1, #1
 1911 0e66 4A4B     		ldr	r3, .L563+4
 1912 0e68 2F60     		str	r7, [r5]
 1913 0e6a 5A78     		ldrb	r2, [r3, #1]	@ zero_extendqisi2
 1914 0e6c 03F10A00 		add	r0, r3, #10
 1915 0e70 8A42     		cmp	r2, r1
 1916 0e72 05D0     		beq	.L556
 1917              	.L508:
 1918 0e74 0233     		adds	r3, r3, #2
 1919 0e76 9842     		cmp	r0, r3
 1920 0e78 E1D0     		beq	.L549
 1921 0e7a 5A78     		ldrb	r2, [r3, #1]	@ zero_extendqisi2
 1922 0e7c 8A42     		cmp	r2, r1
 1923 0e7e F9D1     		bne	.L508
 1924              	.L556:
 1925 0e80 1A78     		ldrb	r2, [r3]	@ zero_extendqisi2
 1926 0e82 012A     		cmp	r2, #1
 1927 0e84 F6D1     		bne	.L508
 1928 0e86 C5E7     		b	.L513
 1929              	.L553:
 1930 0e88 05F10C08 		add	r8, r5, #12
 1931 0e8c 0435     		adds	r5, r5, #4
 1932 0e8e 06E0     		b	.L502
 1933              	.L489:
 1934 0e90 0378     		ldrb	r3, [r0]	@ zero_extendqisi2
 1935 0e92 B342     		cmp	r3, r6
 1936 0e94 3CD0     		beq	.L557
 1937              	.L512:
 1938 0e96 0134     		adds	r4, r4, #1
 1939 0e98 E4B2     		uxtb	r4, r4
 1940 0e9a 072C     		cmp	r4, #7
 1941 0e9c D7D0     		beq	.L479
 1942              	.L502:
 1943 0e9e 58F8040F 		ldr	r0, [r8, #4]!
 1944 0ea2 0028     		cmp	r0, #0
 1945 0ea4 F4D1     		bne	.L489
 1946 0ea6 0123     		movs	r3, #1
 1947              	.L491:
 1948 0ea8 15F81310 		ldrb	r1, [r5, r3, lsl #1]	@ zero_extendqisi2
 1949 0eac 5A00     		lsls	r2, r3, #1
 1950 0eae A142     		cmp	r1, r4
 1951 0eb0 03F10103 		add	r3, r3, #1
 1952 0eb4 0FD0     		beq	.L558
 1953              	.L490:
 1954 0eb6 042B     		cmp	r3, #4
 1955 0eb8 F6D1     		bne	.L491
 1956 0eba 354B     		ldr	r3, .L563+4
 1957 0ebc 03F10A01 		add	r1, r3, #10
 1958 0ec0 02E0     		b	.L493
 1959              	.L492:
 1960 0ec2 0233     		adds	r3, r3, #2
 1961 0ec4 9942     		cmp	r1, r3
 1962 0ec6 40D0     		beq	.L547
 1963              	.L493:
 1964 0ec8 5A78     		ldrb	r2, [r3, #1]	@ zero_extendqisi2
 1965 0eca A242     		cmp	r2, r4
 1966 0ecc F9D1     		bne	.L492
 1967 0ece 1A78     		ldrb	r2, [r3]	@ zero_extendqisi2
 1968 0ed0 012A     		cmp	r2, #1
 1969 0ed2 F6D1     		bne	.L492
 1970 0ed4 DCE7     		b	.L489
 1971              	.L558:
 1972 0ed6 2A44     		add	r2, r2, r5
 1973 0ed8 5278     		ldrb	r2, [r2, #1]	@ zero_extendqisi2
 1974 0eda 002A     		cmp	r2, #0
 1975 0edc EBD0     		beq	.L490
 1976 0ede D7E7     		b	.L489
 1977              	.L552:
 1978 0ee0 05EB8005 		add	r5, r5, r0, lsl #2
 1979 0ee4 A86E     		ldr	r0, [r5, #104]
 1980 0ee6 0028     		cmp	r0, #0
 1981 0ee8 3AD0     		beq	.L482
 1982 0eea FFF7FEFF 		bl	data_free_control
 1983 0eee 0022     		movs	r2, #0
 1984 0ef0 274B     		ldr	r3, .L563+4
 1985 0ef2 AA66     		str	r2, [r5, #104]
 1986 0ef4 03F10A01 		add	r1, r3, #10
 1987              	.L484:
 1988 0ef8 5A78     		ldrb	r2, [r3, #1]	@ zero_extendqisi2
 1989 0efa B242     		cmp	r2, r6
 1990 0efc 3ED0     		beq	.L559
 1991              	.L483:
 1992 0efe 0233     		adds	r3, r3, #2
 1993 0f00 9942     		cmp	r1, r3
 1994 0f02 F9D1     		bne	.L484
 1995              	.L485:
 1996 0f04 3046     		mov	r0, r6
 1997 0f06 BDE8F041 		pop	{r4, r5, r6, r7, r8, lr}
 1998 0f0a 0021     		movs	r1, #0
 1999 0f0c FFF7FEBF 		b	screen_encoder
 2000              	.L557:
 2001 0f10 FFF7FEFF 		bl	data_free_control
 2002 0f14 0123     		movs	r3, #1
 2003 0f16 C8F80070 		str	r7, [r8]
 2004              	.L497:
 2005 0f1a 15F81310 		ldrb	r1, [r5, r3, lsl #1]	@ zero_extendqisi2
 2006 0f1e 5A00     		lsls	r2, r3, #1
 2007 0f20 A142     		cmp	r1, r4
 2008 0f22 03F10103 		add	r3, r3, #1
 2009 0f26 16D0     		beq	.L560
 2010              	.L496:
 2011 0f28 042B     		cmp	r3, #4
 2012 0f2a F6D1     		bne	.L497
 2013 0f2c 2046     		mov	r0, r4
 2014 0f2e FFF7FEFF 		bl	hardware_leds
 2015 0f32 0721     		movs	r1, #7
 2016 0f34 FFF7FEFF 		bl	ledz_off
 2017 0f38 154B     		ldr	r3, .L563+4
 2018 0f3a 03F10A02 		add	r2, r3, #10
 2019              	.L500:
 2020 0f3e 5978     		ldrb	r1, [r3, #1]	@ zero_extendqisi2
 2021 0f40 A142     		cmp	r1, r4
 2022 0f42 17D0     		beq	.L561
 2023              	.L499:
 2024 0f44 0233     		adds	r3, r3, #2
 2025 0f46 9A42     		cmp	r2, r3
 2026 0f48 F9D1     		bne	.L500
 2027              	.L547:
 2028 0f4a 0022     		movs	r2, #0
 2029 0f4c 2046     		mov	r0, r4
 2030 0f4e 1146     		mov	r1, r2
 2031 0f50 FFF7FEFF 		bl	screen_footer
 2032 0f54 9FE7     		b	.L512
 2033              	.L560:
 2034 0f56 2A44     		add	r2, r2, r5
 2035 0f58 5278     		ldrb	r2, [r2, #1]	@ zero_extendqisi2
 2036 0f5a 002A     		cmp	r2, #0
 2037 0f5c E4D0     		beq	.L496
 2038 0f5e 9AE7     		b	.L512
 2039              	.L482:
 2040 0f60 0B4B     		ldr	r3, .L563+4
 2041 0f62 03F10A01 		add	r1, r3, #10
 2042              	.L487:
 2043 0f66 5A78     		ldrb	r2, [r3, #1]	@ zero_extendqisi2
 2044 0f68 B242     		cmp	r2, r6
 2045 0f6a 0BD0     		beq	.L562
 2046              	.L486:
 2047 0f6c 0233     		adds	r3, r3, #2
 2048 0f6e 9942     		cmp	r1, r3
 2049 0f70 F9D1     		bne	.L487
 2050 0f72 C7E7     		b	.L485
 2051              	.L561:
 2052 0f74 1978     		ldrb	r1, [r3]	@ zero_extendqisi2
 2053 0f76 0129     		cmp	r1, #1
 2054 0f78 E4D1     		bne	.L499
 2055 0f7a 8CE7     		b	.L512
 2056              	.L559:
 2057 0f7c 1A78     		ldrb	r2, [r3]	@ zero_extendqisi2
 2058 0f7e 012A     		cmp	r2, #1
 2059 0f80 BDD1     		bne	.L483
 2060 0f82 64E7     		b	.L479
 2061              	.L562:
 2062 0f84 1A78     		ldrb	r2, [r3]	@ zero_extendqisi2
 2063 0f86 012A     		cmp	r2, #1
 2064 0f88 F0D1     		bne	.L486
 2065 0f8a 60E7     		b	.L479
 2066              	.L564:
 2067              		.align	2
 2068              	.L563:
 2069 0f8c 00000000 		.word	.LANCHOR0
 2070 0f90 00000000 		.word	g_tool
 2072              		.global	__aeabi_i2d
 2073              		.global	__aeabi_ddiv
 2074              		.global	__aeabi_d2iz
 2075              		.align	1
 2076              		.p2align 2,,3
 2077              		.global	naveg_add_control
 2078              		.syntax unified
 2079              		.thumb
 2080              		.thumb_func
 2081              		.fpu softvfp
 2083              	naveg_add_control:
 2084              		@ args = 0, pretend = 0, frame = 0
 2085              		@ frame_needed = 0, uses_anonymous_args = 0
 2086 0f94 2DE9F84F 		push	{r3, r4, r5, r6, r7, r8, r9, r10, fp, lr}
 2087 0f98 BD4C     		ldr	r4, .L654
 2088 0f9a 94F88430 		ldrb	r3, [r4, #132]	@ zero_extendqisi2
 2089 0f9e 002B     		cmp	r3, #0
 2090 0fa0 00F0BB80 		beq	.L565
 2091 0fa4 0028     		cmp	r0, #0
 2092 0fa6 00F0B880 		beq	.L565
 2093 0faa 8246     		mov	r10, r0
 2094 0fac 0078     		ldrb	r0, [r0]	@ zero_extendqisi2
 2095 0fae FFF7FEFF 		bl	naveg_remove_control
 2096 0fb2 9AF800B0 		ldrb	fp, [r10]	@ zero_extendqisi2
 2097 0fb6 BBF1010F 		cmp	fp, #1
 2098 0fba 40F2D880 		bls	.L649
 2099 0fbe BBF1080F 		cmp	fp, #8
 2100 0fc2 40F2AC80 		bls	.L650
 2101 0fc6 ABF1090B 		sub	fp, fp, #9
 2102 0fca 5FFA8BFB 		uxtb	fp, fp
 2103 0fce 4FEA8B05 		lsl	r5, fp, #2
 2104 0fd2 6319     		adds	r3, r4, r5
 2105 0fd4 986C     		ldr	r0, [r3, #72]
 2106 0fd6 08B1     		cbz	r0, .L591
 2107 0fd8 FFF7FEFF 		bl	data_free_control
 2108              	.L591:
 2109 0fdc 2C44     		add	r4, r4, r5
 2110 0fde 5846     		mov	r0, fp
 2111 0fe0 C4F848A0 		str	r10, [r4, #72]
 2112 0fe4 FFF7FEFF 		bl	hardware_get_pot_value
 2113 0fe8 40F66E73 		movw	r3, #3950
 2114 0fec 9842     		cmp	r0, r3
 2115 0fee 28BF     		it	cs
 2116 0ff0 1846     		movcs	r0, r3
 2117 0ff2 A56C     		ldr	r5, [r4, #72]
 2118 0ff4 84B2     		uxth	r4, r0
 2119 0ff6 6E69     		ldr	r6, [r5, #20]	@ float
 2120 0ff8 322C     		cmp	r4, #50
 2121 0ffa 3146     		mov	r1, r6
 2122 0ffc 2869     		ldr	r0, [r5, #16]	@ float
 2123 0ffe 38BF     		it	cc
 2124 1000 3224     		movcc	r4, #50
 2125 1002 FFF7FEFF 		bl	__aeabi_fsub
 2126 1006 A349     		ldr	r1, .L654+4
 2127 1008 FFF7FEFF 		bl	__aeabi_fmul
 2128 100c 3146     		mov	r1, r6
 2129 100e 0746     		mov	r7, r0
 2130 1010 A869     		ldr	r0, [r5, #24]	@ float
 2131 1012 FFF7FEFF 		bl	__aeabi_fsub
 2132 1016 0146     		mov	r1, r0
 2133 1018 3846     		mov	r0, r7
 2134 101a FFF7FEFF 		bl	__aeabi_fdiv
 2135 101e 9E49     		ldr	r1, .L654+8
 2136 1020 FFF7FEFF 		bl	__aeabi_fadd
 2137 1024 FFF7FEFF 		bl	__aeabi_f2uiz
 2138 1028 80B2     		uxth	r0, r0
 2139 102a 8442     		cmp	r4, r0
 2140 102c 8CBF     		ite	hi
 2141 102e 241A     		subhi	r4, r4, r0
 2142 1030 041B     		subls	r4, r0, r4
 2143 1032 B4F5967F 		cmp	r4, #300
 2144 1036 ACBF     		ite	ge
 2145 1038 0024     		movge	r4, #0
 2146 103a 0124     		movlt	r4, #1
 2147 103c 002C     		cmp	r4, #0
 2148 103e 73D0     		beq	.L594
 2149 1040 0023     		movs	r3, #0
 2150 1042 85F82830 		strb	r3, [r5, #40]
 2151              	.L595:
 2152 1046 9AF80C30 		ldrb	r3, [r10, #12]	@ zero_extendqisi2
 2153 104a 002B     		cmp	r3, #0
 2154 104c 70D0     		beq	.L597
 2155 104e 402B     		cmp	r3, #64
 2156 1050 4CD1     		bne	.L596
 2157 1052 DAF81450 		ldr	r5, [r10, #20]	@ float
 2158 1056 0021     		movs	r1, #0
 2159 1058 2846     		mov	r0, r5
 2160 105a FFF7FEFF 		bl	__aeabi_fcmpeq
 2161 105e 20B1     		cbz	r0, .L599
 2162 1060 4FF40003 		mov	r3, #8388608
 2163 1064 1D46     		mov	r5, r3
 2164 1066 CAF81430 		str	r3, [r10, #20]	@ float
 2165              	.L599:
 2166 106a 0021     		movs	r1, #0
 2167 106c DAF81800 		ldr	r0, [r10, #24]	@ float
 2168 1070 FFF7FEFF 		bl	__aeabi_fcmpeq
 2169 1074 18B1     		cbz	r0, .L601
 2170 1076 4FF40003 		mov	r3, #8388608
 2171 107a CAF81830 		str	r3, [r10, #24]	@ float
 2172              	.L601:
 2173 107e DAF81040 		ldr	r4, [r10, #16]	@ float
 2174 1082 0021     		movs	r1, #0
 2175 1084 2046     		mov	r0, r4
 2176 1086 FFF7FEFF 		bl	__aeabi_fcmpeq
 2177 108a 20B1     		cbz	r0, .L603
 2178 108c 4FF40003 		mov	r3, #8388608
 2179 1090 1C46     		mov	r4, r3
 2180 1092 CAF81030 		str	r3, [r10, #16]	@ float
 2181              	.L603:
 2182 1096 BAF91E00 		ldrsh	r0, [r10, #30]
 2183 109a 0138     		subs	r0, r0, #1
 2184 109c FFF7FEFF 		bl	__aeabi_i2d
 2185 10a0 0646     		mov	r6, r0
 2186 10a2 0F46     		mov	r7, r1
 2187 10a4 2046     		mov	r0, r4
 2188 10a6 2946     		mov	r1, r5
 2189 10a8 FFF7FEFF 		bl	__aeabi_fdiv
 2190 10ac FFF7FEFF 		bl	__aeabi_f2d
 2191 10b0 FFF7FEFF 		bl	log
 2192 10b4 8046     		mov	r8, r0
 2193 10b6 8946     		mov	r9, r1
 2194 10b8 DAF81800 		ldr	r0, [r10, #24]	@ float
 2195 10bc DAF81410 		ldr	r1, [r10, #20]	@ float
 2196 10c0 FFF7FEFF 		bl	__aeabi_fdiv
 2197 10c4 FFF7FEFF 		bl	__aeabi_f2d
 2198 10c8 FFF7FEFF 		bl	log
 2199 10cc 0446     		mov	r4, r0
 2200 10ce 0D46     		mov	r5, r1
 2201 10d0 4246     		mov	r2, r8
 2202 10d2 4B46     		mov	r3, r9
 2203 10d4 3046     		mov	r0, r6
 2204 10d6 3946     		mov	r1, r7
 2205 10d8 FFF7FEFF 		bl	__aeabi_dmul
 2206 10dc 2246     		mov	r2, r4
 2207 10de 2B46     		mov	r3, r5
 2208 10e0 FFF7FEFF 		bl	__aeabi_ddiv
 2209 10e4 FFF7FEFF 		bl	__aeabi_d2iz
 2210 10e8 AAF81C00 		strh	r0, [r10, #28]	@ movhi
 2211              	.L596:
 2212 10ec BBF1030F 		cmp	fp, #3
 2213 10f0 94BF     		ite	ls
 2214 10f2 0021     		movls	r1, #0
 2215 10f4 0121     		movhi	r1, #1
 2216 10f6 694B     		ldr	r3, .L654+12
 2217 10f8 03F10A00 		add	r0, r3, #10
 2218              	.L606:
 2219 10fc 5A78     		ldrb	r2, [r3, #1]	@ zero_extendqisi2
 2220 10fe 8A42     		cmp	r2, r1
 2221 1100 08D0     		beq	.L651
 2222              	.L605:
 2223 1102 0233     		adds	r3, r3, #2
 2224 1104 8342     		cmp	r3, r0
 2225 1106 F9D1     		bne	.L606
 2226 1108 5146     		mov	r1, r10
 2227 110a 5846     		mov	r0, fp
 2228 110c BDE8F84F 		pop	{r3, r4, r5, r6, r7, r8, r9, r10, fp, lr}
 2229 1110 FFF7FEBF 		b	screen_pot
 2230              	.L651:
 2231 1114 1A78     		ldrb	r2, [r3]	@ zero_extendqisi2
 2232 1116 012A     		cmp	r2, #1
 2233 1118 F3D1     		bne	.L605
 2234              	.L565:
 2235 111a BDE8F88F 		pop	{r3, r4, r5, r6, r7, r8, r9, r10, fp, pc}
 2236              	.L650:
 2237 111e 5046     		mov	r0, r10
 2238 1120 BDE8F84F 		pop	{r3, r4, r5, r6, r7, r8, r9, r10, fp, lr}
 2239 1124 FFF704B8 		b	foot_control_add
 2240              	.L594:
 2241 1128 0123     		movs	r3, #1
 2242 112a 85F82830 		strb	r3, [r5, #40]
 2243 112e 8AE7     		b	.L595
 2244              	.L597:
 2245 1130 DAF81440 		ldr	r4, [r10, #20]	@ float
 2246 1134 DAF81000 		ldr	r0, [r10, #16]	@ float
 2247 1138 2146     		mov	r1, r4
 2248 113a FFF7FEFF 		bl	__aeabi_fsub
 2249 113e 2146     		mov	r1, r4
 2250 1140 0546     		mov	r5, r0
 2251 1142 DAF81800 		ldr	r0, [r10, #24]	@ float
 2252 1146 FFF7FEFF 		bl	__aeabi_fsub
 2253 114a 0446     		mov	r4, r0
 2254 114c BAF91E00 		ldrsh	r0, [r10, #30]
 2255 1150 FFF7FEFF 		bl	__aeabi_i2f
 2256 1154 0146     		mov	r1, r0
 2257 1156 2046     		mov	r0, r4
 2258 1158 FFF7FEFF 		bl	__aeabi_fdiv
 2259 115c 0146     		mov	r1, r0
 2260 115e 2846     		mov	r0, r5
 2261 1160 FFF7FEFF 		bl	__aeabi_fdiv
 2262 1164 FFF7FEFF 		bl	__aeabi_f2iz
 2263 1168 AAF81C00 		strh	r0, [r10, #28]	@ movhi
 2264 116c BEE7     		b	.L596
 2265              	.L649:
 2266 116e 4FEA8B05 		lsl	r5, fp, #2
 2267 1172 6319     		adds	r3, r4, r5
 2268 1174 986E     		ldr	r0, [r3, #104]
 2269 1176 08B1     		cbz	r0, .L568
 2270 1178 FFF7FEFF 		bl	data_free_control
 2271              	.L568:
 2272 117c 9AF80C30 		ldrb	r3, [r10, #12]	@ zero_extendqisi2
 2273 1180 2C44     		add	r4, r4, r5
 2274 1182 082B     		cmp	r3, #8
 2275 1184 C4F868A0 		str	r10, [r4, #104]
 2276 1188 41D0     		beq	.L570
 2277 118a 3DD9     		bls	.L652
 2278 118c 402B     		cmp	r3, #64
 2279 118e 00F08780 		beq	.L573
 2280 1192 802B     		cmp	r3, #128
 2281 1194 25D1     		bne	.L569
 2282 1196 DAF81450 		ldr	r5, [r10, #20]	@ float
 2283 119a DAF81800 		ldr	r0, [r10, #24]	@ float
 2284 119e 2946     		mov	r1, r5
 2285 11a0 FFF7FEFF 		bl	__aeabi_fsub
 2286 11a4 4FF07E51 		mov	r1, #1065353216
 2287 11a8 0646     		mov	r6, r0
 2288 11aa FFF7FEFF 		bl	__aeabi_fadd
 2289 11ae FFF7FEFF 		bl	__aeabi_f2iz
 2290 11b2 04B2     		sxth	r4, r0
 2291 11b4 2946     		mov	r1, r5
 2292 11b6 AAF81E40 		strh	r4, [r10, #30]	@ movhi
 2293 11ba DAF81000 		ldr	r0, [r10, #16]	@ float
 2294 11be FFF7FEFF 		bl	__aeabi_fsub
 2295 11c2 0546     		mov	r5, r0
 2296 11c4 2046     		mov	r0, r4
 2297 11c6 FFF7FEFF 		bl	__aeabi_i2f
 2298 11ca 0146     		mov	r1, r0
 2299 11cc 3046     		mov	r0, r6
 2300              	.L648:
 2301 11ce FFF7FEFF 		bl	__aeabi_fdiv
 2302 11d2 0146     		mov	r1, r0
 2303 11d4 2846     		mov	r0, r5
 2304 11d6 FFF7FEFF 		bl	__aeabi_fdiv
 2305 11da FFF7FEFF 		bl	__aeabi_f2iz
 2306 11de AAF81C00 		strh	r0, [r10, #28]	@ movhi
 2307              	.L569:
 2308 11e2 2E4B     		ldr	r3, .L654+12
 2309 11e4 03F10A01 		add	r1, r3, #10
 2310              	.L588:
 2311 11e8 5A78     		ldrb	r2, [r3, #1]	@ zero_extendqisi2
 2312 11ea 5A45     		cmp	r2, fp
 2313 11ec 08D0     		beq	.L653
 2314              	.L587:
 2315 11ee 0233     		adds	r3, r3, #2
 2316 11f0 9942     		cmp	r1, r3
 2317 11f2 F9D1     		bne	.L588
 2318 11f4 5146     		mov	r1, r10
 2319 11f6 5846     		mov	r0, fp
 2320 11f8 BDE8F84F 		pop	{r3, r4, r5, r6, r7, r8, r9, r10, fp, lr}
 2321 11fc FFF7FEBF 		b	screen_encoder
 2322              	.L653:
 2323 1200 1A78     		ldrb	r2, [r3]	@ zero_extendqisi2
 2324 1202 012A     		cmp	r2, #1
 2325 1204 F3D1     		bne	.L587
 2326 1206 88E7     		b	.L565
 2327              	.L652:
 2328 1208 6BB3     		cbz	r3, .L572
 2329 120a 042B     		cmp	r3, #4
 2330 120c E9D1     		bne	.L569
 2331              	.L570:
 2332 120e 0024     		movs	r4, #0
 2333 1210 0123     		movs	r3, #1
 2334 1212 9AF82060 		ldrb	r6, [r10, #32]	@ zero_extendqisi2
 2335 1216 AAF81C40 		strh	r4, [r10, #28]	@ movhi
 2336 121a 8AF82830 		strb	r3, [r10, #40]
 2337 121e FEB1     		cbz	r6, .L581
 2338 1220 DAF82450 		ldr	r5, [r10, #36]
 2339 1224 DAF81070 		ldr	r7, [r10, #16]	@ float
 2340 1228 2B68     		ldr	r3, [r5]
 2341 122a 93F90400 		ldrsb	r0, [r3, #4]
 2342 122e FFF7FEFF 		bl	__aeabi_i2f
 2343 1232 0146     		mov	r1, r0
 2344 1234 3846     		mov	r0, r7
 2345 1236 FFF7FEFF 		bl	__aeabi_fcmpeq
 2346 123a 0028     		cmp	r0, #0
 2347 123c 7ED1     		bne	.L582
 2348 123e 0446     		mov	r4, r0
 2349 1240 0AE0     		b	.L584
 2350              	.L586:
 2351 1242 55F8043F 		ldr	r3, [r5, #4]!
 2352 1246 93F90400 		ldrsb	r0, [r3, #4]
 2353 124a FFF7FEFF 		bl	__aeabi_i2f
 2354 124e 3946     		mov	r1, r7
 2355 1250 FFF7FEFF 		bl	__aeabi_fcmpeq
 2356 1254 0028     		cmp	r0, #0
 2357 1256 71D1     		bne	.L582
 2358              	.L584:
 2359 1258 0134     		adds	r4, r4, #1
 2360 125a E4B2     		uxtb	r4, r4
 2361 125c B442     		cmp	r4, r6
 2362 125e F0D1     		bne	.L586
 2363              	.L581:
 2364 1260 AAF81E60 		strh	r6, [r10, #30]	@ movhi
 2365 1264 BDE7     		b	.L569
 2366              	.L572:
 2367 1266 DAF81440 		ldr	r4, [r10, #20]	@ float
 2368 126a DAF81000 		ldr	r0, [r10, #16]	@ float
 2369 126e 2146     		mov	r1, r4
 2370 1270 FFF7FEFF 		bl	__aeabi_fsub
 2371 1274 2146     		mov	r1, r4
 2372 1276 0546     		mov	r5, r0
 2373 1278 DAF81800 		ldr	r0, [r10, #24]	@ float
 2374 127c FFF7FEFF 		bl	__aeabi_fsub
 2375 1280 0446     		mov	r4, r0
 2376 1282 BAF91E00 		ldrsh	r0, [r10, #30]
 2377 1286 FFF7FEFF 		bl	__aeabi_i2f
 2378 128a 0146     		mov	r1, r0
 2379 128c 2046     		mov	r0, r4
 2380 128e 9EE7     		b	.L648
 2381              	.L655:
 2382              		.align	2
 2383              	.L654:
 2384 1290 00000000 		.word	.LANCHOR0
 2385 1294 00C07345 		.word	1165213696
 2386 1298 00004842 		.word	1112014848
 2387 129c 00000000 		.word	g_tool
 2388              	.L573:
 2389 12a0 DAF81470 		ldr	r7, [r10, #20]	@ float
 2390 12a4 0021     		movs	r1, #0
 2391 12a6 3846     		mov	r0, r7
 2392 12a8 FFF7FEFF 		bl	__aeabi_fcmpeq
 2393 12ac 20B1     		cbz	r0, .L575
 2394 12ae 4FF40003 		mov	r3, #8388608
 2395 12b2 1F46     		mov	r7, r3
 2396 12b4 CAF81430 		str	r3, [r10, #20]	@ float
 2397              	.L575:
 2398 12b8 0021     		movs	r1, #0
 2399 12ba DAF81800 		ldr	r0, [r10, #24]	@ float
 2400 12be FFF7FEFF 		bl	__aeabi_fcmpeq
 2401 12c2 18B1     		cbz	r0, .L577
 2402 12c4 4FF40003 		mov	r3, #8388608
 2403 12c8 CAF81830 		str	r3, [r10, #24]	@ float
 2404              	.L577:
 2405 12cc DAF81060 		ldr	r6, [r10, #16]	@ float
 2406 12d0 0021     		movs	r1, #0
 2407 12d2 3046     		mov	r0, r6
 2408 12d4 FFF7FEFF 		bl	__aeabi_fcmpeq
 2409 12d8 20B1     		cbz	r0, .L579
 2410 12da 4FF40003 		mov	r3, #8388608
 2411 12de 1E46     		mov	r6, r3
 2412 12e0 CAF81030 		str	r3, [r10, #16]	@ float
 2413              	.L579:
 2414 12e4 BAF91E00 		ldrsh	r0, [r10, #30]
 2415 12e8 0138     		subs	r0, r0, #1
 2416 12ea FFF7FEFF 		bl	__aeabi_i2d
 2417 12ee 0446     		mov	r4, r0
 2418 12f0 0D46     		mov	r5, r1
 2419 12f2 3046     		mov	r0, r6
 2420 12f4 3946     		mov	r1, r7
 2421 12f6 FFF7FEFF 		bl	__aeabi_fdiv
 2422 12fa FFF7FEFF 		bl	__aeabi_f2d
 2423 12fe FFF7FEFF 		bl	log
 2424 1302 0646     		mov	r6, r0
 2425 1304 0F46     		mov	r7, r1
 2426 1306 DAF81800 		ldr	r0, [r10, #24]	@ float
 2427 130a DAF81410 		ldr	r1, [r10, #20]	@ float
 2428 130e FFF7FEFF 		bl	__aeabi_fdiv
 2429 1312 FFF7FEFF 		bl	__aeabi_f2d
 2430 1316 FFF7FEFF 		bl	log
 2431 131a 8046     		mov	r8, r0
 2432 131c 8946     		mov	r9, r1
 2433 131e 3246     		mov	r2, r6
 2434 1320 3B46     		mov	r3, r7
 2435 1322 2046     		mov	r0, r4
 2436 1324 2946     		mov	r1, r5
 2437 1326 FFF7FEFF 		bl	__aeabi_dmul
 2438 132a 4246     		mov	r2, r8
 2439 132c 4B46     		mov	r3, r9
 2440 132e FFF7FEFF 		bl	__aeabi_ddiv
 2441 1332 FFF7FEFF 		bl	__aeabi_d2iz
 2442 1336 AAF81C00 		strh	r0, [r10, #28]	@ movhi
 2443 133a 52E7     		b	.L569
 2444              	.L582:
 2445 133c AAF81C40 		strh	r4, [r10, #28]	@ movhi
 2446 1340 8EE7     		b	.L581
 2448              		.align	1
 2449 1342 00BF     		.p2align 2,,3
 2450              		.global	naveg_inc_control
 2451              		.syntax unified
 2452              		.thumb
 2453              		.thumb_func
 2454              		.fpu softvfp
 2456              	naveg_inc_control:
 2457              		@ args = 0, pretend = 0, frame = 0
 2458              		@ frame_needed = 0, uses_anonymous_args = 0
 2459 1344 38B5     		push	{r3, r4, r5, lr}
 2460 1346 1C49     		ldr	r1, .L685
 2461 1348 91F88430 		ldrb	r3, [r1, #132]	@ zero_extendqisi2
 2462 134c 3BB3     		cbz	r3, .L656
 2463 134e 1B4B     		ldr	r3, .L685+4
 2464 1350 03F10A04 		add	r4, r3, #10
 2465              	.L659:
 2466 1354 5A78     		ldrb	r2, [r3, #1]	@ zero_extendqisi2
 2467 1356 8242     		cmp	r2, r0
 2468 1358 1ED0     		beq	.L684
 2469              	.L658:
 2470 135a 0233     		adds	r3, r3, #2
 2471 135c 9C42     		cmp	r4, r3
 2472 135e F9D1     		bne	.L659
 2473 1360 01EB8001 		add	r1, r1, r0, lsl #2
 2474 1364 8C6E     		ldr	r4, [r1, #104]
 2475 1366 D4B1     		cbz	r4, .L656
 2476 1368 237B     		ldrb	r3, [r4, #12]	@ zero_extendqisi2
 2477 136a 042B     		cmp	r3, #4
 2478 136c 18D0     		beq	.L661
 2479 136e 082B     		cmp	r3, #8
 2480 1370 16D0     		beq	.L661
 2481              	.L662:
 2482 1372 B4F91E30 		ldrsh	r3, [r4, #30]
 2483 1376 B4F91C20 		ldrsh	r2, [r4, #28]
 2484 137a 013B     		subs	r3, r3, #1
 2485 137c 9A42     		cmp	r2, r3
 2486 137e 0EDA     		bge	.L656
 2487 1380 0546     		mov	r5, r0
 2488 1382 0132     		adds	r2, r2, #1
 2489 1384 2046     		mov	r0, r4
 2490 1386 A283     		strh	r2, [r4, #28]	@ movhi
 2491 1388 FFF7F0F8 		bl	step_to_value
 2492 138c 2146     		mov	r1, r4
 2493 138e 2846     		mov	r0, r5
 2494 1390 BDE83840 		pop	{r3, r4, r5, lr}
 2495 1394 FFF750B9 		b	control_set
 2496              	.L684:
 2497 1398 1A78     		ldrb	r2, [r3]	@ zero_extendqisi2
 2498 139a 012A     		cmp	r2, #1
 2499 139c DDD1     		bne	.L658
 2500              	.L656:
 2501 139e 38BD     		pop	{r3, r4, r5, pc}
 2502              	.L661:
 2503 13a0 94F82830 		ldrb	r3, [r4, #40]	@ zero_extendqisi2
 2504 13a4 002B     		cmp	r3, #0
 2505 13a6 E4D1     		bne	.L662
 2506 13a8 0123     		movs	r3, #1
 2507 13aa 84F82830 		strb	r3, [r4, #40]
 2508 13ae 2146     		mov	r1, r4
 2509 13b0 BDE83840 		pop	{r3, r4, r5, lr}
 2510 13b4 FFF740B9 		b	control_set
 2511              	.L686:
 2512              		.align	2
 2513              	.L685:
 2514 13b8 00000000 		.word	.LANCHOR0
 2515 13bc 00000000 		.word	g_tool
 2517              		.align	1
 2518              		.p2align 2,,3
 2519              		.global	naveg_dec_control
 2520              		.syntax unified
 2521              		.thumb
 2522              		.thumb_func
 2523              		.fpu softvfp
 2525              	naveg_dec_control:
 2526              		@ args = 0, pretend = 0, frame = 0
 2527              		@ frame_needed = 0, uses_anonymous_args = 0
 2528 13c0 38B5     		push	{r3, r4, r5, lr}
 2529 13c2 1B49     		ldr	r1, .L716
 2530 13c4 91F88430 		ldrb	r3, [r1, #132]	@ zero_extendqisi2
 2531 13c8 23B3     		cbz	r3, .L687
 2532 13ca 1A4B     		ldr	r3, .L716+4
 2533 13cc 03F10A04 		add	r4, r3, #10
 2534              	.L690:
 2535 13d0 5A78     		ldrb	r2, [r3, #1]	@ zero_extendqisi2
 2536 13d2 8242     		cmp	r2, r0
 2537 13d4 1BD0     		beq	.L715
 2538              	.L689:
 2539 13d6 0233     		adds	r3, r3, #2
 2540 13d8 9C42     		cmp	r4, r3
 2541 13da F9D1     		bne	.L690
 2542 13dc 01EB8001 		add	r1, r1, r0, lsl #2
 2543 13e0 8C6E     		ldr	r4, [r1, #104]
 2544 13e2 BCB1     		cbz	r4, .L687
 2545 13e4 237B     		ldrb	r3, [r4, #12]	@ zero_extendqisi2
 2546 13e6 042B     		cmp	r3, #4
 2547 13e8 15D0     		beq	.L692
 2548 13ea 082B     		cmp	r3, #8
 2549 13ec 13D0     		beq	.L692
 2550              	.L693:
 2551 13ee B4F91C30 		ldrsh	r3, [r4, #28]
 2552 13f2 002B     		cmp	r3, #0
 2553 13f4 0EDD     		ble	.L687
 2554 13f6 0546     		mov	r5, r0
 2555 13f8 013B     		subs	r3, r3, #1
 2556 13fa 2046     		mov	r0, r4
 2557 13fc A383     		strh	r3, [r4, #28]	@ movhi
 2558 13fe FFF7B5F8 		bl	step_to_value
 2559 1402 2146     		mov	r1, r4
 2560 1404 2846     		mov	r0, r5
 2561 1406 BDE83840 		pop	{r3, r4, r5, lr}
 2562 140a FFF715B9 		b	control_set
 2563              	.L715:
 2564 140e 1A78     		ldrb	r2, [r3]	@ zero_extendqisi2
 2565 1410 012A     		cmp	r2, #1
 2566 1412 E0D1     		bne	.L689
 2567              	.L687:
 2568 1414 38BD     		pop	{r3, r4, r5, pc}
 2569              	.L692:
 2570 1416 94F82830 		ldrb	r3, [r4, #40]	@ zero_extendqisi2
 2571 141a 002B     		cmp	r3, #0
 2572 141c E7D0     		beq	.L693
 2573 141e 0023     		movs	r3, #0
 2574 1420 84F82830 		strb	r3, [r4, #40]
 2575 1424 2146     		mov	r1, r4
 2576 1426 BDE83840 		pop	{r3, r4, r5, lr}
 2577 142a FFF705B9 		b	control_set
 2578              	.L717:
 2579 142e 00BF     		.align	2
 2580              	.L716:
 2581 1430 00000000 		.word	.LANCHOR0
 2582 1434 00000000 		.word	g_tool
 2584              		.align	1
 2585              		.p2align 2,,3
 2586              		.global	naveg_set_control
 2587              		.syntax unified
 2588              		.thumb
 2589              		.thumb_func
 2590              		.fpu softvfp
 2592              	naveg_set_control:
 2593              		@ args = 0, pretend = 0, frame = 0
 2594              		@ frame_needed = 0, uses_anonymous_args = 0
 2595 1438 F8B5     		push	{r3, r4, r5, r6, r7, lr}
 2596 143a 204B     		ldr	r3, .L740
 2597 143c 93F88420 		ldrb	r2, [r3, #132]	@ zero_extendqisi2
 2598 1440 4AB1     		cbz	r2, .L718
 2599 1442 9C6E     		ldr	r4, [r3, #104]
 2600 1444 14B1     		cbz	r4, .L720
 2601 1446 2278     		ldrb	r2, [r4]	@ zero_extendqisi2
 2602 1448 8242     		cmp	r2, r0
 2603 144a 05D0     		beq	.L726
 2604              	.L720:
 2605 144c DC6E     		ldr	r4, [r3, #108]
 2606 144e 14B1     		cbz	r4, .L718
 2607 1450 2378     		ldrb	r3, [r4]	@ zero_extendqisi2
 2608 1452 8342     		cmp	r3, r0
 2609 1454 2FD0     		beq	.L739
 2610              	.L718:
 2611 1456 F8BD     		pop	{r3, r4, r5, r6, r7, pc}
 2612              	.L726:
 2613 1458 0027     		movs	r7, #0
 2614              	.L721:
 2615 145a 6669     		ldr	r6, [r4, #20]	@ float
 2616 145c 2161     		str	r1, [r4, #16]	@ float
 2617 145e 3046     		mov	r0, r6
 2618 1460 0D46     		mov	r5, r1
 2619 1462 FFF7FEFF 		bl	__aeabi_fcmpgt
 2620 1466 00B1     		cbz	r0, .L725
 2621 1468 2661     		str	r6, [r4, #16]	@ float
 2622              	.L725:
 2623 146a A669     		ldr	r6, [r4, #24]	@ float
 2624 146c 2946     		mov	r1, r5
 2625 146e 3046     		mov	r0, r6
 2626 1470 FFF7FEFF 		bl	__aeabi_fcmplt
 2627 1474 00B1     		cbz	r0, .L722
 2628 1476 2661     		str	r6, [r4, #16]	@ float
 2629              	.L722:
 2630 1478 3846     		mov	r0, r7
 2631 147a 2146     		mov	r1, r4
 2632 147c FFF7DCF8 		bl	control_set
 2633 1480 6569     		ldr	r5, [r4, #20]	@ float
 2634 1482 2069     		ldr	r0, [r4, #16]	@ float
 2635 1484 2946     		mov	r1, r5
 2636 1486 FFF7FEFF 		bl	__aeabi_fsub
 2637 148a 2946     		mov	r1, r5
 2638 148c 0646     		mov	r6, r0
 2639 148e A069     		ldr	r0, [r4, #24]	@ float
 2640 1490 FFF7FEFF 		bl	__aeabi_fsub
 2641 1494 0546     		mov	r5, r0
 2642 1496 B4F91E00 		ldrsh	r0, [r4, #30]
 2643 149a FFF7FEFF 		bl	__aeabi_i2f
 2644 149e 0146     		mov	r1, r0
 2645 14a0 2846     		mov	r0, r5
 2646 14a2 FFF7FEFF 		bl	__aeabi_fdiv
 2647 14a6 0146     		mov	r1, r0
 2648 14a8 3046     		mov	r0, r6
 2649 14aa FFF7FEFF 		bl	__aeabi_fdiv
 2650 14ae FFF7FEFF 		bl	__aeabi_f2iz
 2651 14b2 A083     		strh	r0, [r4, #28]	@ movhi
 2652 14b4 F8BD     		pop	{r3, r4, r5, r6, r7, pc}
 2653              	.L739:
 2654 14b6 0127     		movs	r7, #1
 2655 14b8 CFE7     		b	.L721
 2656              	.L741:
 2657 14ba 00BF     		.align	2
 2658              	.L740:
 2659 14bc 00000000 		.word	.LANCHOR0
 2661              		.align	1
 2662              		.p2align 2,,3
 2663              		.global	naveg_get_control
 2664              		.syntax unified
 2665              		.thumb
 2666              		.thumb_func
 2667              		.fpu softvfp
 2669              	naveg_get_control:
 2670              		@ args = 0, pretend = 0, frame = 0
 2671              		@ frame_needed = 0, uses_anonymous_args = 0
 2672              		@ link register save eliminated.
 2673 14c0 084A     		ldr	r2, .L751
 2674 14c2 92F88430 		ldrb	r3, [r2, #132]	@ zero_extendqisi2
 2675 14c6 4BB1     		cbz	r3, .L747
 2676 14c8 936E     		ldr	r3, [r2, #104]
 2677 14ca 13B1     		cbz	r3, .L744
 2678 14cc 1978     		ldrb	r1, [r3]	@ zero_extendqisi2
 2679 14ce 8142     		cmp	r1, r0
 2680 14d0 06D0     		beq	.L745
 2681              	.L744:
 2682 14d2 D36E     		ldr	r3, [r2, #108]
 2683 14d4 13B1     		cbz	r3, .L747
 2684 14d6 1A78     		ldrb	r2, [r3]	@ zero_extendqisi2
 2685 14d8 8242     		cmp	r2, r0
 2686 14da 01D0     		beq	.L745
 2687              	.L747:
 2688 14dc 0020     		movs	r0, #0
 2689 14de 7047     		bx	lr
 2690              	.L745:
 2691 14e0 1869     		ldr	r0, [r3, #16]	@ float
 2692 14e2 7047     		bx	lr
 2693              	.L752:
 2694              		.align	2
 2695              	.L751:
 2696 14e4 00000000 		.word	.LANCHOR0
 2698              		.align	1
 2699              		.p2align 2,,3
 2700              		.global	naveg_pot_change
 2701              		.syntax unified
 2702              		.thumb
 2703              		.thumb_func
 2704              		.fpu softvfp
 2706              	naveg_pot_change:
 2707              		@ args = 0, pretend = 0, frame = 0
 2708              		@ frame_needed = 0, uses_anonymous_args = 0
 2709 14e8 2DE9F041 		push	{r4, r5, r6, r7, r8, lr}
 2710 14ec 364C     		ldr	r4, .L778
 2711 14ee 94F88430 		ldrb	r3, [r4, #132]	@ zero_extendqisi2
 2712 14f2 002B     		cmp	r3, #0
 2713 14f4 43D0     		beq	.L753
 2714 14f6 0728     		cmp	r0, #7
 2715 14f8 41D8     		bhi	.L753
 2716 14fa 8600     		lsls	r6, r0, #2
 2717 14fc A319     		adds	r3, r4, r6
 2718 14fe 9B6C     		ldr	r3, [r3, #72]
 2719 1500 002B     		cmp	r3, #0
 2720 1502 3CD0     		beq	.L753
 2721 1504 0328     		cmp	r0, #3
 2722 1506 94BF     		ite	ls
 2723 1508 0021     		movls	r1, #0
 2724 150a 0121     		movhi	r1, #1
 2725 150c 2F4B     		ldr	r3, .L778+4
 2726 150e 03F10A05 		add	r5, r3, #10
 2727              	.L756:
 2728 1512 5A78     		ldrb	r2, [r3, #1]	@ zero_extendqisi2
 2729 1514 8A42     		cmp	r2, r1
 2730 1516 34D0     		beq	.L775
 2731              	.L755:
 2732 1518 0233     		adds	r3, r3, #2
 2733 151a AB42     		cmp	r3, r5
 2734 151c F9D1     		bne	.L756
 2735 151e 0546     		mov	r5, r0
 2736 1520 FFF7FEFF 		bl	hardware_get_pot_value
 2737 1524 40F66E73 		movw	r3, #3950
 2738 1528 9842     		cmp	r0, r3
 2739 152a 28BF     		it	cs
 2740 152c 1846     		movcs	r0, r3
 2741 152e 3444     		add	r4, r4, r6
 2742 1530 A66C     		ldr	r6, [r4, #72]
 2743 1532 84B2     		uxth	r4, r0
 2744 1534 7769     		ldr	r7, [r6, #20]	@ float
 2745 1536 322C     		cmp	r4, #50
 2746 1538 3946     		mov	r1, r7
 2747 153a B069     		ldr	r0, [r6, #24]	@ float
 2748 153c 38BF     		it	cc
 2749 153e 3224     		movcc	r4, #50
 2750 1540 FFF7FEFF 		bl	__aeabi_fsub
 2751 1544 8046     		mov	r8, r0
 2752 1546 3946     		mov	r1, r7
 2753 1548 3069     		ldr	r0, [r6, #16]	@ float
 2754 154a FFF7FEFF 		bl	__aeabi_fsub
 2755 154e 2049     		ldr	r1, .L778+8
 2756 1550 FFF7FEFF 		bl	__aeabi_fmul
 2757 1554 4146     		mov	r1, r8
 2758 1556 FFF7FEFF 		bl	__aeabi_fdiv
 2759 155a 1E49     		ldr	r1, .L778+12
 2760 155c FFF7FEFF 		bl	__aeabi_fadd
 2761 1560 FFF7FEFF 		bl	__aeabi_f2uiz
 2762 1564 80B2     		uxth	r0, r0
 2763 1566 A042     		cmp	r0, r4
 2764 1568 0FD2     		bcs	.L776
 2765 156a 201A     		subs	r0, r4, r0
 2766 156c B0F5E17F 		cmp	r0, #450
 2767 1570 ACBF     		ite	ge
 2768 1572 0020     		movge	r0, #0
 2769 1574 0120     		movlt	r0, #1
 2770              	.L758:
 2771 1576 78B9     		cbnz	r0, .L777
 2772 1578 0123     		movs	r3, #1
 2773 157a 86F82830 		strb	r3, [r6, #40]
 2774              	.L753:
 2775 157e BDE8F081 		pop	{r4, r5, r6, r7, r8, pc}
 2776              	.L775:
 2777 1582 1A78     		ldrb	r2, [r3]	@ zero_extendqisi2
 2778 1584 012A     		cmp	r2, #1
 2779 1586 C7D1     		bne	.L755
 2780 1588 F9E7     		b	.L753
 2781              	.L776:
 2782 158a 001B     		subs	r0, r0, r4
 2783 158c B0F5E17F 		cmp	r0, #450
 2784 1590 ACBF     		ite	ge
 2785 1592 0020     		movge	r0, #0
 2786 1594 0120     		movlt	r0, #1
 2787 1596 EEE7     		b	.L758
 2788              	.L777:
 2789 1598 0023     		movs	r3, #0
 2790 159a A4F13200 		sub	r0, r4, #50
 2791 159e 86F82830 		strb	r3, [r6, #40]
 2792 15a2 FFF7FEFF 		bl	__aeabi_i2f
 2793 15a6 4146     		mov	r1, r8
 2794 15a8 FFF7FEFF 		bl	__aeabi_fmul
 2795 15ac 0849     		ldr	r1, .L778+8
 2796 15ae FFF7FEFF 		bl	__aeabi_fdiv
 2797 15b2 3946     		mov	r1, r7
 2798 15b4 FFF7FEFF 		bl	__aeabi_fadd
 2799 15b8 3146     		mov	r1, r6
 2800 15ba 3061     		str	r0, [r6, #16]	@ float
 2801 15bc 2846     		mov	r0, r5
 2802 15be BDE8F041 		pop	{r4, r5, r6, r7, r8, lr}
 2803 15c2 FFF739B8 		b	control_set
 2804              	.L779:
 2805 15c6 00BF     		.align	2
 2806              	.L778:
 2807 15c8 00000000 		.word	.LANCHOR0
 2808 15cc 00000000 		.word	g_tool
 2809 15d0 00C07345 		.word	1165213696
 2810 15d4 00004842 		.word	1112014848
 2812              		.align	1
 2813              		.p2align 2,,3
 2814              		.global	naveg_foot_change
 2815              		.syntax unified
 2816              		.thumb
 2817              		.thumb_func
 2818              		.fpu softvfp
 2820              	naveg_foot_change:
 2821              		@ args = 0, pretend = 0, frame = 0
 2822              		@ frame_needed = 0, uses_anonymous_args = 0
 2823 15d8 70B5     		push	{r4, r5, r6, lr}
 2824 15da 654D     		ldr	r5, .L839
 2825 15dc 95F88430 		ldrb	r3, [r5, #132]	@ zero_extendqisi2
 2826 15e0 002B     		cmp	r3, #0
 2827 15e2 41D0     		beq	.L780
 2828 15e4 0628     		cmp	r0, #6
 2829 15e6 3FD8     		bhi	.L780
 2830 15e8 624E     		ldr	r6, .L839+4
 2831 15ea 0128     		cmp	r0, #1
 2832 15ec 94BF     		ite	ls
 2833 15ee 0021     		movls	r1, #0
 2834 15f0 0121     		movhi	r1, #1
 2835 15f2 3346     		mov	r3, r6
 2836 15f4 06F10A04 		add	r4, r6, #10
 2837              	.L785:
 2838 15f8 5A78     		ldrb	r2, [r3, #1]	@ zero_extendqisi2
 2839 15fa 8A42     		cmp	r2, r1
 2840 15fc 35D0     		beq	.L836
 2841              	.L784:
 2842 15fe 0233     		adds	r3, r3, #2
 2843 1600 9C42     		cmp	r4, r3
 2844 1602 F9D1     		bne	.L785
 2845 1604 0528     		cmp	r0, #5
 2846 1606 0446     		mov	r4, r0
 2847 1608 17D0     		beq	.L800
 2848 160a 0628     		cmp	r0, #6
 2849 160c 2CD0     		beq	.L780
 2850 160e 0428     		cmp	r0, #4
 2851 1610 2AD0     		beq	.L780
 2852 1612 0123     		movs	r3, #1
 2853 1614 5848     		ldr	r0, .L839+8
 2854              	.L787:
 2855 1616 10F81310 		ldrb	r1, [r0, r3, lsl #1]	@ zero_extendqisi2
 2856 161a 5A00     		lsls	r2, r3, #1
 2857 161c A142     		cmp	r1, r4
 2858 161e 03F10103 		add	r3, r3, #1
 2859 1622 26D0     		beq	.L837
 2860              	.L788:
 2861 1624 042B     		cmp	r3, #4
 2862 1626 F6D1     		bne	.L787
 2863 1628 05EB8405 		add	r5, r5, r4, lsl #2
 2864 162c 2969     		ldr	r1, [r5, #16]
 2865 162e D9B1     		cbz	r1, .L780
 2866 1630 2046     		mov	r0, r4
 2867 1632 BDE87040 		pop	{r4, r5, r6, lr}
 2868 1636 FEF7FFBF 		b	control_set
 2869              	.L800:
 2870 163a 504D     		ldr	r5, .L839+12
 2871 163c 95F86465 		ldrb	r6, [r5, #1380]	@ zero_extendqisi2
 2872 1640 012E     		cmp	r6, #1
 2873 1642 6AD0     		beq	.L801
 2874 1644 57D3     		bcc	.L802
 2875 1646 022E     		cmp	r6, #2
 2876 1648 0ED1     		bne	.L780
 2877 164a 2046     		mov	r0, r4
 2878 164c FFF7FEFF 		bl	hardware_leds
 2879 1650 0321     		movs	r1, #3
 2880 1652 FFF7FEFF 		bl	ledz_off
 2881 1656 2046     		mov	r0, r4
 2882 1658 FFF7FEFF 		bl	hardware_leds
 2883 165c 0621     		movs	r1, #6
 2884 165e FFF7FEFF 		bl	ledz_on
 2885 1662 0023     		movs	r3, #0
 2886 1664 85F86435 		strb	r3, [r5, #1380]
 2887              	.L780:
 2888 1668 70BD     		pop	{r4, r5, r6, pc}
 2889              	.L836:
 2890 166a 1A78     		ldrb	r2, [r3]	@ zero_extendqisi2
 2891 166c 012A     		cmp	r2, #1
 2892 166e C6D1     		bne	.L784
 2893 1670 70BD     		pop	{r4, r5, r6, pc}
 2894              	.L837:
 2895 1672 0244     		add	r2, r2, r0
 2896 1674 5278     		ldrb	r2, [r2, #1]	@ zero_extendqisi2
 2897 1676 002A     		cmp	r2, #0
 2898 1678 D4D0     		beq	.L788
 2899 167a 022A     		cmp	r2, #2
 2900 167c 297B     		ldrb	r1, [r5, #12]	@ zero_extendqisi2
 2901 167e 5ED0     		beq	.L791
 2902 1680 032A     		cmp	r2, #3
 2903 1682 18D1     		bne	.L793
 2904 1684 2A68     		ldr	r2, [r5]
 2905 1686 B2B1     		cbz	r2, .L793
 2906 1688 4B1E     		subs	r3, r1, #1
 2907 168a DBB2     		uxtb	r3, r3
 2908 168c 2B73     		strb	r3, [r5, #12]
 2909 168e 33B9     		cbnz	r3, .L798
 2910 1690 6B7A     		ldrb	r3, [r5, #9]	@ zero_extendqisi2
 2911 1692 002B     		cmp	r3, #0
 2912 1694 65D1     		bne	.L799
 2913 1696 137A     		ldrb	r3, [r2, #8]	@ zero_extendqisi2
 2914 1698 013B     		subs	r3, r3, #1
 2915 169a DBB2     		uxtb	r3, r3
 2916 169c 2B73     		strb	r3, [r5, #12]
 2917              	.L798:
 2918 169e 9942     		cmp	r1, r3
 2919 16a0 9372     		strb	r3, [r2, #10]
 2920 16a2 08D0     		beq	.L793
 2921              	.L834:
 2922 16a4 95F83400 		ldrb	r0, [r5, #52]	@ zero_extendqisi2
 2923 16a8 5268     		ldr	r2, [r2, #4]
 2924 16aa 0138     		subs	r0, r0, #1
 2925 16ac 52F82310 		ldr	r1, [r2, r3, lsl #2]
 2926 16b0 C0B2     		uxtb	r0, r0
 2927 16b2 FFF707F9 		bl	send_load_pedalboard
 2928              	.L793:
 2929 16b6 FEF7A3FC 		bl	bank_config_footer
 2930 16ba 2B68     		ldr	r3, [r5]
 2931 16bc 002B     		cmp	r3, #0
 2932 16be D3D0     		beq	.L780
 2933 16c0 2A6B     		ldr	r2, [r5, #48]
 2934 16c2 95F83410 		ldrb	r1, [r5, #52]	@ zero_extendqisi2
 2935 16c6 507A     		ldrb	r0, [r2, #9]	@ zero_extendqisi2
 2936 16c8 8842     		cmp	r0, r1
 2937 16ca CDD1     		bne	.L780
 2938 16cc 3179     		ldrb	r1, [r6, #4]	@ zero_extendqisi2
 2939 16ce 0029     		cmp	r1, #0
 2940 16d0 CAD0     		beq	.L780
 2941 16d2 95F87010 		ldrb	r1, [r5, #112]	@ zero_extendqisi2
 2942 16d6 0129     		cmp	r1, #1
 2943 16d8 C6D1     		bne	.L780
 2944 16da E86A     		ldr	r0, [r5, #44]
 2945 16dc 9C7A     		ldrb	r4, [r3, #10]	@ zero_extendqisi2
 2946 16de 0146     		mov	r1, r0
 2947 16e0 8472     		strb	r4, [r0, #10]
 2948 16e2 9B7A     		ldrb	r3, [r3, #10]	@ zero_extendqisi2
 2949 16e4 4372     		strb	r3, [r0, #9]
 2950 16e6 507A     		ldrb	r0, [r2, #9]	@ zero_extendqisi2
 2951 16e8 1368     		ldr	r3, [r2]
 2952 16ea BDE87040 		pop	{r4, r5, r6, lr}
 2953 16ee 53F82000 		ldr	r0, [r3, r0, lsl #2]
 2954 16f2 FFF7FEBF 		b	screen_bp_list
 2955              	.L802:
 2956 16f6 2046     		mov	r0, r4
 2957 16f8 FFF7FEFF 		bl	hardware_leds
 2958 16fc 0621     		movs	r1, #6
 2959 16fe FFF7FEFF 		bl	ledz_off
 2960 1702 2046     		mov	r0, r4
 2961 1704 FFF7FEFF 		bl	hardware_leds
 2962 1708 0121     		movs	r1, #1
 2963 170a FFF7FEFF 		bl	ledz_on
 2964 170e 95F86435 		ldrb	r3, [r5, #1380]	@ zero_extendqisi2
 2965 1712 0133     		adds	r3, r3, #1
 2966 1714 85F86435 		strb	r3, [r5, #1380]
 2967 1718 70BD     		pop	{r4, r5, r6, pc}
 2968              	.L801:
 2969 171a 2046     		mov	r0, r4
 2970 171c FFF7FEFF 		bl	hardware_leds
 2971 1720 3146     		mov	r1, r6
 2972 1722 FFF7FEFF 		bl	ledz_off
 2973 1726 2046     		mov	r0, r4
 2974 1728 FFF7FEFF 		bl	hardware_leds
 2975 172c 0321     		movs	r1, #3
 2976 172e FFF7FEFF 		bl	ledz_on
 2977 1732 95F86435 		ldrb	r3, [r5, #1380]	@ zero_extendqisi2
 2978 1736 0133     		adds	r3, r3, #1
 2979 1738 85F86435 		strb	r3, [r5, #1380]
 2980 173c 70BD     		pop	{r4, r5, r6, pc}
 2981              	.L791:
 2982 173e 2A68     		ldr	r2, [r5]
 2983 1740 002A     		cmp	r2, #0
 2984 1742 B8D0     		beq	.L793
 2985 1744 4B1C     		adds	r3, r1, #1
 2986 1746 107A     		ldrb	r0, [r2, #8]	@ zero_extendqisi2
 2987 1748 DBB2     		uxtb	r3, r3
 2988 174a 9842     		cmp	r0, r3
 2989 174c 2B73     		strb	r3, [r5, #12]
 2990 174e 03D0     		beq	.L838
 2991              	.L794:
 2992 1750 8B42     		cmp	r3, r1
 2993 1752 9372     		strb	r3, [r2, #10]
 2994 1754 A6D1     		bne	.L834
 2995 1756 AEE7     		b	.L793
 2996              	.L838:
 2997 1758 EB7A     		ldrb	r3, [r5, #11]	@ zero_extendqisi2
 2998 175a 33B9     		cbnz	r3, .L795
 2999 175c 0123     		movs	r3, #1
 3000 175e 2B73     		strb	r3, [r5, #12]
 3001 1760 F6E7     		b	.L794
 3002              	.L799:
 3003 1762 0123     		movs	r3, #1
 3004 1764 2B73     		strb	r3, [r5, #12]
 3005 1766 9372     		strb	r3, [r2, #10]
 3006 1768 A5E7     		b	.L793
 3007              	.L795:
 3008 176a 2973     		strb	r1, [r5, #12]
 3009 176c 9172     		strb	r1, [r2, #10]
 3010 176e A2E7     		b	.L793
 3011              	.L840:
 3012              		.align	2
 3013              	.L839:
 3014 1770 00000000 		.word	.LANCHOR0
 3015 1774 00000000 		.word	g_tool
 3016 1778 04000000 		.word	.LANCHOR0+4
 3017 177c 00000000 		.word	.LANCHOR1
 3019              		.align	1
 3020              		.p2align 2,,3
 3021              		.global	naveg_save_page
 3022              		.syntax unified
 3023              		.thumb
 3024              		.thumb_func
 3025              		.fpu softvfp
 3027              	naveg_save_page:
 3028              		@ args = 0, pretend = 0, frame = 0
 3029              		@ frame_needed = 0, uses_anonymous_args = 0
 3030 1780 194B     		ldr	r3, .L859
 3031 1782 03F10A01 		add	r1, r3, #10
 3032              	.L844:
 3033 1786 5A78     		ldrb	r2, [r3, #1]	@ zero_extendqisi2
 3034 1788 12B9     		cbnz	r2, .L842
 3035 178a 1A78     		ldrb	r2, [r3]	@ zero_extendqisi2
 3036 178c 012A     		cmp	r2, #1
 3037 178e 09D0     		beq	.L855
 3038              	.L842:
 3039 1790 0233     		adds	r3, r3, #2
 3040 1792 8B42     		cmp	r3, r1
 3041 1794 F7D1     		bne	.L844
 3042 1796 0628     		cmp	r0, #6
 3043 1798 10B5     		push	{r4, lr}
 3044 179a 0446     		mov	r4, r0
 3045 179c 03D0     		beq	.L858
 3046 179e 042C     		cmp	r4, #4
 3047 17a0 01D0     		beq	.L858
 3048 17a2 10BD     		pop	{r4, pc}
 3049              	.L855:
 3050 17a4 7047     		bx	lr
 3051              	.L858:
 3052 17a6 2046     		mov	r0, r4
 3053 17a8 FFF7FEFF 		bl	hardware_leds
 3054 17ac 0721     		movs	r1, #7
 3055 17ae FFF7FEFF 		bl	ledz_on
 3056 17b2 2046     		mov	r0, r4
 3057 17b4 FFF7FEFF 		bl	hardware_leds
 3058 17b8 9623     		movs	r3, #150
 3059 17ba 0121     		movs	r1, #1
 3060 17bc 1A46     		mov	r2, r3
 3061 17be FFF7FEFF 		bl	ledz_blink
 3062 17c2 4FF47A70 		mov	r0, #1000
 3063 17c6 FFF7FEFF 		bl	delay_ms
 3064 17ca 2046     		mov	r0, r4
 3065 17cc FFF7FEFF 		bl	hardware_leds
 3066 17d0 FF21     		movs	r1, #255
 3067 17d2 FFF7FEFF 		bl	ledz_off
 3068 17d6 2046     		mov	r0, r4
 3069 17d8 FFF7FEFF 		bl	hardware_leds
 3070 17dc BDE81040 		pop	{r4, lr}
 3071 17e0 0721     		movs	r1, #7
 3072 17e2 FFF7FEBF 		b	ledz_on
 3073              	.L860:
 3074 17e6 00BF     		.align	2
 3075              	.L859:
 3076 17e8 00000000 		.word	g_tool
 3078              		.align	1
 3079              		.p2align 2,,3
 3080              		.global	naveg_is_tool_mode
 3081              		.syntax unified
 3082              		.thumb
 3083              		.thumb_func
 3084              		.fpu softvfp
 3086              	naveg_is_tool_mode:
 3087              		@ args = 0, pretend = 0, frame = 0
 3088              		@ frame_needed = 0, uses_anonymous_args = 0
 3089              		@ link register save eliminated.
 3090 17ec 0146     		mov	r1, r0
 3091 17ee 094B     		ldr	r3, .L872
 3092 17f0 10B4     		push	{r4}
 3093 17f2 03F10A04 		add	r4, r3, #10
 3094              	.L864:
 3095 17f6 5A78     		ldrb	r2, [r3, #1]	@ zero_extendqisi2
 3096 17f8 8A42     		cmp	r2, r1
 3097 17fa 05D0     		beq	.L871
 3098              	.L862:
 3099 17fc 0233     		adds	r3, r3, #2
 3100 17fe A342     		cmp	r3, r4
 3101 1800 F9D1     		bne	.L864
 3102 1802 0020     		movs	r0, #0
 3103 1804 10BC     		pop	{r4}
 3104 1806 7047     		bx	lr
 3105              	.L871:
 3106 1808 1878     		ldrb	r0, [r3]	@ zero_extendqisi2
 3107 180a 0128     		cmp	r0, #1
 3108 180c F6D1     		bne	.L862
 3109 180e 10BC     		pop	{r4}
 3110 1810 7047     		bx	lr
 3111              	.L873:
 3112 1812 00BF     		.align	2
 3113              	.L872:
 3114 1814 00000000 		.word	g_tool
 3116              		.align	1
 3117              		.p2align 2,,3
 3118              		.global	naveg_print_pb_name
 3119              		.syntax unified
 3120              		.thumb
 3121              		.thumb_func
 3122              		.fpu softvfp
 3124              	naveg_print_pb_name:
 3125              		@ args = 0, pretend = 0, frame = 0
 3126              		@ frame_needed = 0, uses_anonymous_args = 0
 3127 1818 08B5     		push	{r3, lr}
 3128 181a 0021     		movs	r1, #0
 3129 181c 0448     		ldr	r0, .L876
 3130 181e FFF7FEFF 		bl	comm_webgui_set_response_cb
 3131 1822 BDE80840 		pop	{r3, lr}
 3132 1826 0B21     		movs	r1, #11
 3133 1828 0248     		ldr	r0, .L876+4
 3134 182a FFF7FEBF 		b	comm_webgui_send
 3135              	.L877:
 3136 182e 00BF     		.align	2
 3137              	.L876:
 3138 1830 00000000 		.word	screen_top_info
 3139 1834 5C000000 		.word	.LC14
 3141              		.align	1
 3142              		.p2align 2,,3
 3143              		.global	naveg_set_master_volume
 3144              		.syntax unified
 3145              		.thumb
 3146              		.thumb_func
 3147              		.fpu softvfp
 3149              	naveg_set_master_volume:
 3150              		@ args = 0, pretend = 0, frame = 0
 3151              		@ frame_needed = 0, uses_anonymous_args = 0
 3152              		@ link register save eliminated.
 3153 1838 024B     		ldr	r3, .L880
 3154 183a 1B7A     		ldrb	r3, [r3, #8]	@ zero_extendqisi2
 3155 183c 0BB1     		cbz	r3, .L878
 3156 183e FFF757B9 		b	naveg_set_master_volume.part.3
 3157              	.L878:
 3158 1842 7047     		bx	lr
 3159              	.L881:
 3160              		.align	2
 3161              	.L880:
 3162 1844 00000000 		.word	g_tool
 3164              		.align	1
 3165              		.p2align 2,,3
 3166              		.global	naveg_is_master_vol
 3167              		.syntax unified
 3168              		.thumb
 3169              		.thumb_func
 3170              		.fpu softvfp
 3172              	naveg_is_master_vol:
 3173              		@ args = 0, pretend = 0, frame = 0
 3174              		@ frame_needed = 0, uses_anonymous_args = 0
 3175              		@ link register save eliminated.
 3176 1848 024B     		ldr	r3, .L883
 3177 184a 187A     		ldrb	r0, [r3, #8]	@ zero_extendqisi2
 3178 184c 0030     		adds	r0, r0, #0
 3179 184e 18BF     		it	ne
 3180 1850 0120     		movne	r0, #1
 3181 1852 7047     		bx	lr
 3182              	.L884:
 3183              		.align	2
 3184              	.L883:
 3185 1854 00000000 		.word	g_tool
 3187              		.align	1
 3188              		.p2align 2,,3
 3189              		.global	naveg_set_banks
 3190              		.syntax unified
 3191              		.thumb
 3192              		.thumb_func
 3193              		.fpu softvfp
 3195              	naveg_set_banks:
 3196              		@ args = 0, pretend = 0, frame = 0
 3197              		@ frame_needed = 0, uses_anonymous_args = 0
 3198              		@ link register save eliminated.
 3199 1858 024B     		ldr	r3, .L890
 3200 185a 93F88420 		ldrb	r2, [r3, #132]	@ zero_extendqisi2
 3201 185e 02B1     		cbz	r2, .L885
 3202 1860 1863     		str	r0, [r3, #48]
 3203              	.L885:
 3204 1862 7047     		bx	lr
 3205              	.L891:
 3206              		.align	2
 3207              	.L890:
 3208 1864 00000000 		.word	.LANCHOR0
 3210              		.align	1
 3211              		.p2align 2,,3
 3212              		.global	naveg_get_banks
 3213              		.syntax unified
 3214              		.thumb
 3215              		.thumb_func
 3216              		.fpu softvfp
 3218              	naveg_get_banks:
 3219              		@ args = 0, pretend = 0, frame = 0
 3220              		@ frame_needed = 0, uses_anonymous_args = 0
 3221              		@ link register save eliminated.
 3222 1868 024B     		ldr	r3, .L895
 3223 186a 93F88400 		ldrb	r0, [r3, #132]	@ zero_extendqisi2
 3224 186e 00B1     		cbz	r0, .L892
 3225 1870 186B     		ldr	r0, [r3, #48]
 3226              	.L892:
 3227 1872 7047     		bx	lr
 3228              	.L896:
 3229              		.align	2
 3230              	.L895:
 3231 1874 00000000 		.word	.LANCHOR0
 3233              		.align	1
 3234              		.p2align 2,,3
 3235              		.global	naveg_bank_config
 3236              		.syntax unified
 3237              		.thumb
 3238              		.thumb_func
 3239              		.fpu softvfp
 3241              	naveg_bank_config:
 3242              		@ args = 0, pretend = 0, frame = 0
 3243              		@ frame_needed = 0, uses_anonymous_args = 0
 3244 1878 2DE9F843 		push	{r3, r4, r5, r6, r7, r8, r9, lr}
 3245 187c 494E     		ldr	r6, .L941
 3246 187e 96F88430 		ldrb	r3, [r6, #132]	@ zero_extendqisi2
 3247 1882 63B3     		cbz	r3, .L897
 3248 1884 4378     		ldrb	r3, [r0, #1]	@ zero_extendqisi2
 3249 1886 032B     		cmp	r3, #3
 3250 1888 29D8     		bhi	.L897
 3251 188a 0278     		ldrb	r2, [r0]	@ zero_extendqisi2
 3252 188c 092A     		cmp	r2, #9
 3253 188e 26D8     		bhi	.L897
 3254 1890 0546     		mov	r5, r0
 3255 1892 0127     		movs	r7, #1
 3256 1894 4FF00009 		mov	r9, #0
 3257 1898 4FF0FF08 		mov	r8, #255
 3258 189c 341D     		adds	r4, r6, #4
 3259              	.L912:
 3260 189e E278     		ldrb	r2, [r4, #3]	@ zero_extendqisi2
 3261 18a0 002B     		cmp	r3, #0
 3262 18a2 41D0     		beq	.L899
 3263 18a4 9A42     		cmp	r2, r3
 3264 18a6 2978     		ldrb	r1, [r5]	@ zero_extendqisi2
 3265 18a8 A078     		ldrb	r0, [r4, #2]	@ zero_extendqisi2
 3266 18aa 1AD0     		beq	.L937
 3267 18ac 8842     		cmp	r0, r1
 3268 18ae 41D0     		beq	.L938
 3269              	.L901:
 3270 18b0 0137     		adds	r7, r7, #1
 3271 18b2 042F     		cmp	r7, #4
 3272 18b4 04F10204 		add	r4, r4, #2
 3273 18b8 F1D1     		bne	.L912
 3274 18ba 63B1     		cbz	r3, .L914
 3275 18bc 2A88     		ldrh	r2, [r5]	@ unaligned
 3276 18be 06EB4303 		add	r3, r6, r3, lsl #1
 3277 18c2 9A80     		strh	r2, [r3, #4]	@ movhi
 3278 18c4 6B78     		ldrb	r3, [r5, #1]	@ zero_extendqisi2
 3279 18c6 023B     		subs	r3, r3, #2
 3280 18c8 012B     		cmp	r3, #1
 3281 18ca 04D8     		bhi	.L914
 3282 18cc 96F88C30 		ldrb	r3, [r6, #140]	@ zero_extendqisi2
 3283 18d0 0BB9     		cbnz	r3, .L914
 3284 18d2 F36A     		ldr	r3, [r6, #44]
 3285 18d4 3360     		str	r3, [r6]
 3286              	.L914:
 3287 18d6 BDE8F843 		pop	{r3, r4, r5, r6, r7, r8, r9, lr}
 3288 18da FEF791BB 		b	bank_config_footer
 3289              	.L897:
 3290 18de BDE8F883 		pop	{r3, r4, r5, r6, r7, r8, r9, pc}
 3291              	.L937:
 3292 18e2 8142     		cmp	r1, r0
 3293 18e4 E4D0     		beq	.L901
 3294 18e6 0238     		subs	r0, r0, #2
 3295 18e8 C0B2     		uxtb	r0, r0
 3296 18ea FFF7FEFF 		bl	hardware_leds
 3297 18ee FF21     		movs	r1, #255
 3298 18f0 FFF7FEFF 		bl	ledz_off
 3299 18f4 A078     		ldrb	r0, [r4, #2]	@ zero_extendqisi2
 3300 18f6 2C4B     		ldr	r3, .L941+4
 3301 18f8 0238     		subs	r0, r0, #2
 3302 18fa C0B2     		uxtb	r0, r0
 3303 18fc 0128     		cmp	r0, #1
 3304 18fe 94BF     		ite	ls
 3305 1900 0021     		movls	r1, #0
 3306 1902 0121     		movhi	r1, #1
 3307 1904 03F10A0C 		add	ip, r3, #10
 3308              	.L904:
 3309 1908 5A78     		ldrb	r2, [r3, #1]	@ zero_extendqisi2
 3310 190a 8A42     		cmp	r2, r1
 3311 190c 41D0     		beq	.L939
 3312              	.L902:
 3313 190e 0233     		adds	r3, r3, #2
 3314 1910 6345     		cmp	r3, ip
 3315 1912 F9D1     		bne	.L904
 3316 1914 0022     		movs	r2, #0
 3317 1916 1146     		mov	r1, r2
 3318 1918 FFF7FEFF 		bl	screen_footer
 3319              	.L903:
 3320 191c 0022     		movs	r2, #0
 3321 191e 84F80390 		strb	r9, [r4, #3]
 3322 1922 84F80280 		strb	r8, [r4, #2]
 3323 1926 6B78     		ldrb	r3, [r5, #1]	@ zero_extendqisi2
 3324              	.L899:
 3325 1928 9342     		cmp	r3, r2
 3326 192a C1D0     		beq	.L901
 3327 192c A078     		ldrb	r0, [r4, #2]	@ zero_extendqisi2
 3328 192e 2978     		ldrb	r1, [r5]	@ zero_extendqisi2
 3329 1930 8842     		cmp	r0, r1
 3330 1932 BDD1     		bne	.L901
 3331              	.L938:
 3332 1934 84F80390 		strb	r9, [r4, #3]
 3333 1938 84F80280 		strb	r8, [r4, #2]
 3334 193c 6B78     		ldrb	r3, [r5, #1]	@ zero_extendqisi2
 3335 193e 002B     		cmp	r3, #0
 3336 1940 B6D1     		bne	.L901
 3337 1942 2878     		ldrb	r0, [r5]	@ zero_extendqisi2
 3338 1944 0238     		subs	r0, r0, #2
 3339 1946 C0B2     		uxtb	r0, r0
 3340 1948 FFF7FEFF 		bl	hardware_leds
 3341 194c FF21     		movs	r1, #255
 3342 194e FFF7FEFF 		bl	ledz_off
 3343 1952 15F81720 		ldrb	r2, [r5, r7, lsl #1]	@ zero_extendqisi2
 3344 1956 144B     		ldr	r3, .L941+4
 3345 1958 023A     		subs	r2, r2, #2
 3346 195a 012A     		cmp	r2, #1
 3347 195c 94BF     		ite	ls
 3348 195e 0022     		movls	r2, #0
 3349 1960 0122     		movhi	r2, #1
 3350 1962 03F10A00 		add	r0, r3, #10
 3351              	.L909:
 3352 1966 5978     		ldrb	r1, [r3, #1]	@ zero_extendqisi2
 3353 1968 9142     		cmp	r1, r2
 3354 196a 16D0     		beq	.L940
 3355              	.L907:
 3356 196c 0233     		adds	r3, r3, #2
 3357 196e 8342     		cmp	r3, r0
 3358 1970 F9D1     		bne	.L909
 3359 1972 0022     		movs	r2, #0
 3360 1974 2878     		ldrb	r0, [r5]	@ zero_extendqisi2
 3361 1976 1146     		mov	r1, r2
 3362 1978 0238     		subs	r0, r0, #2
 3363 197a C0B2     		uxtb	r0, r0
 3364 197c FFF7FEFF 		bl	screen_footer
 3365              	.L908:
 3366 1980 2B78     		ldrb	r3, [r5]	@ zero_extendqisi2
 3367 1982 06EB8303 		add	r3, r6, r3, lsl #2
 3368 1986 1869     		ldr	r0, [r3, #16]
 3369 1988 08B1     		cbz	r0, .L936
 3370 198a FEF7D1FB 		bl	foot_control_add
 3371              	.L936:
 3372 198e 6B78     		ldrb	r3, [r5, #1]	@ zero_extendqisi2
 3373 1990 8EE7     		b	.L901
 3374              	.L939:
 3375 1992 1A78     		ldrb	r2, [r3]	@ zero_extendqisi2
 3376 1994 012A     		cmp	r2, #1
 3377 1996 BAD1     		bne	.L902
 3378 1998 C0E7     		b	.L903
 3379              	.L940:
 3380 199a 1978     		ldrb	r1, [r3]	@ zero_extendqisi2
 3381 199c 0129     		cmp	r1, #1
 3382 199e E5D1     		bne	.L907
 3383 19a0 EEE7     		b	.L908
 3384              	.L942:
 3385 19a2 00BF     		.align	2
 3386              	.L941:
 3387 19a4 00000000 		.word	.LANCHOR0
 3388 19a8 00000000 		.word	g_tool
 3390              		.align	1
 3391              		.p2align 2,,3
 3392              		.global	naveg_set_pedalboards
 3393              		.syntax unified
 3394              		.thumb
 3395              		.thumb_func
 3396              		.fpu softvfp
 3398              	naveg_set_pedalboards:
 3399              		@ args = 0, pretend = 0, frame = 0
 3400              		@ frame_needed = 0, uses_anonymous_args = 0
 3401              		@ link register save eliminated.
 3402 19ac 024B     		ldr	r3, .L948
 3403 19ae 93F88420 		ldrb	r2, [r3, #132]	@ zero_extendqisi2
 3404 19b2 02B1     		cbz	r2, .L943
 3405 19b4 D862     		str	r0, [r3, #44]
 3406              	.L943:
 3407 19b6 7047     		bx	lr
 3408              	.L949:
 3409              		.align	2
 3410              	.L948:
 3411 19b8 00000000 		.word	.LANCHOR0
 3413              		.align	1
 3414              		.p2align 2,,3
 3415              		.global	naveg_get_pedalboards
 3416              		.syntax unified
 3417              		.thumb
 3418              		.thumb_func
 3419              		.fpu softvfp
 3421              	naveg_get_pedalboards:
 3422              		@ args = 0, pretend = 0, frame = 0
 3423              		@ frame_needed = 0, uses_anonymous_args = 0
 3424              		@ link register save eliminated.
 3425 19bc 024B     		ldr	r3, .L953
 3426 19be 93F88400 		ldrb	r0, [r3, #132]	@ zero_extendqisi2
 3427 19c2 00B1     		cbz	r0, .L950
 3428 19c4 D86A     		ldr	r0, [r3, #44]
 3429              	.L950:
 3430 19c6 7047     		bx	lr
 3431              	.L954:
 3432              		.align	2
 3433              	.L953:
 3434 19c8 00000000 		.word	.LANCHOR0
 3436              		.align	1
 3437              		.p2align 2,,3
 3438              		.global	naveg_enter
 3439              		.syntax unified
 3440              		.thumb
 3441              		.thumb_func
 3442              		.fpu softvfp
 3444              	naveg_enter:
 3445              		@ args = 0, pretend = 0, frame = 128
 3446              		@ frame_needed = 0, uses_anonymous_args = 0
 3447 19cc F0B5     		push	{r4, r5, r6, r7, lr}
 3448 19ce 754D     		ldr	r5, .L1021
 3449 19d0 A1B0     		sub	sp, sp, #132
 3450 19d2 95F88430 		ldrb	r3, [r5, #132]	@ zero_extendqisi2
 3451 19d6 0446     		mov	r4, r0
 3452 19d8 1BB9     		cbnz	r3, .L956
 3453 19da EB6F     		ldr	r3, [r5, #124]
 3454 19dc 0BB1     		cbz	r3, .L956
 3455              	.L955:
 3456 19de 21B0     		add	sp, sp, #132
 3457              		@ sp needed
 3458 19e0 F0BD     		pop	{r4, r5, r6, r7, pc}
 3459              	.L956:
 3460 19e2 714E     		ldr	r6, .L1021+4
 3461 19e4 3346     		mov	r3, r6
 3462 19e6 5A78     		ldrb	r2, [r3, #1]	@ zero_extendqisi2
 3463 19e8 06F10A01 		add	r1, r6, #10
 3464 19ec A242     		cmp	r2, r4
 3465 19ee 05D0     		beq	.L1015
 3466              	.L958:
 3467 19f0 0233     		adds	r3, r3, #2
 3468 19f2 9942     		cmp	r1, r3
 3469 19f4 F3D0     		beq	.L955
 3470 19f6 5A78     		ldrb	r2, [r3, #1]	@ zero_extendqisi2
 3471 19f8 A242     		cmp	r2, r4
 3472 19fa F9D1     		bne	.L958
 3473              	.L1015:
 3474 19fc 1A78     		ldrb	r2, [r3]	@ zero_extendqisi2
 3475 19fe 012A     		cmp	r2, #1
 3476 1a00 F6D1     		bne	.L958
 3477 1a02 74B9     		cbnz	r4, .L1016
 3478 1a04 B378     		ldrb	r3, [r6, #2]	@ zero_extendqisi2
 3479 1a06 F3B9     		cbnz	r3, .L1013
 3480 1a08 A86B     		ldr	r0, [r5, #56]
 3481 1a0a 4268     		ldr	r2, [r0, #4]
 3482 1a0c D388     		ldrh	r3, [r2, #6]
 3483 1a0e B42B     		cmp	r3, #180
 3484 1a10 01D0     		beq	.L963
 3485 1a12 AA2B     		cmp	r3, #170
 3486 1a14 E3D1     		bne	.L955
 3487              	.L963:
 3488 1a16 D368     		ldr	r3, [r2, #12]
 3489 1a18 002B     		cmp	r3, #0
 3490 1a1a E0D0     		beq	.L955
 3491 1a1c 0021     		movs	r1, #0
 3492 1a1e 9847     		blx	r3
 3493 1a20 DDE7     		b	.L955
 3494              	.L1016:
 3495 1a22 012C     		cmp	r4, #1
 3496 1a24 DBD1     		bne	.L955
 3497 1a26 B378     		ldrb	r3, [r6, #2]	@ zero_extendqisi2
 3498 1a28 8BB9     		cbnz	r3, .L1017
 3499 1a2a 3279     		ldrb	r2, [r6, #4]	@ zero_extendqisi2
 3500 1a2c 92BB     		cbnz	r2, .L1018
 3501 1a2e B379     		ldrb	r3, [r6, #6]	@ zero_extendqisi2
 3502 1a30 002B     		cmp	r3, #0
 3503 1a32 D4D0     		beq	.L955
 3504 1a34 D5E91D32 		ldrd	r3, r2, [r5, #116]
 3505 1a38 9A42     		cmp	r2, r3
 3506 1a3a D0D0     		beq	.L955
 3507 1a3c AB6B     		ldr	r3, [r5, #56]
 3508 1a3e 5B68     		ldr	r3, [r3, #4]
 3509 1a40 DB88     		ldrh	r3, [r3, #6]
 3510 1a42 002B     		cmp	r3, #0
 3511 1a44 CBD0     		beq	.L955
 3512              	.L1013:
 3513 1a46 2046     		mov	r0, r4
 3514 1a48 00F0D0F9 		bl	menu_enter
 3515 1a4c C7E7     		b	.L955
 3516              	.L1017:
 3517 1a4e 6E46     		mov	r6, sp
 3518 1a50 5649     		ldr	r1, .L1021+8
 3519 1a52 3046     		mov	r0, r6
 3520 1a54 FFF7FEFF 		bl	copy_command
 3521 1a58 554F     		ldr	r7, .L1021+12
 3522 1a5a 0546     		mov	r5, r0
 3523 1a5c 97F86535 		ldrb	r3, [r7, #1381]	@ zero_extendqisi2
 3524 1a60 C5F18002 		rsb	r2, r5, #128
 3525 1a64 012B     		cmp	r3, #1
 3526 1a66 08BF     		it	eq
 3527 1a68 0224     		moveq	r4, #2
 3528 1a6a 7119     		adds	r1, r6, r5
 3529 1a6c 2046     		mov	r0, r4
 3530 1a6e 0023     		movs	r3, #0
 3531 1a70 87F86545 		strb	r4, [r7, #1381]
 3532 1a74 FFF7FEFF 		bl	int_to_str
 3533 1a78 0022     		movs	r2, #0
 3534 1a7a 2918     		adds	r1, r5, r0
 3535 1a7c 20AB     		add	r3, sp, #128
 3536 1a7e 0B44     		add	r3, r3, r1
 3537 1a80 3046     		mov	r0, r6
 3538 1a82 03F8802C 		strb	r2, [r3, #-128]
 3539 1a86 FFF7FEFF 		bl	comm_webgui_send
 3540 1a8a 97F86505 		ldrb	r0, [r7, #1381]	@ zero_extendqisi2
 3541 1a8e FFF7FEFF 		bl	screen_tuner_input
 3542 1a92 A4E7     		b	.L955
 3543              	.L1018:
 3544 1a94 95F88D20 		ldrb	r2, [r5, #141]	@ zero_extendqisi2
 3545 1a98 9AB9     		cbnz	r2, .L1019
 3546              	.L967:
 3547 1a9a 2C6B     		ldr	r4, [r5, #48]
 3548 1a9c 002C     		cmp	r4, #0
 3549 1a9e 9ED0     		beq	.L955
 3550 1aa0 95F87030 		ldrb	r3, [r5, #112]	@ zero_extendqisi2
 3551 1aa4 B3B1     		cbz	r3, .L1020
 3552 1aa6 012B     		cmp	r3, #1
 3553 1aa8 99D1     		bne	.L955
 3554 1aaa EA6A     		ldr	r2, [r5, #44]
 3555 1aac 537A     		ldrb	r3, [r2, #9]	@ zero_extendqisi2
 3556 1aae 002B     		cmp	r3, #0
 3557 1ab0 4FD1     		bne	.L972
 3558 1ab2 404E     		ldr	r6, .L1021+16
 3559 1ab4 85F87030 		strb	r3, [r5, #112]
 3560              	.L971:
 3561 1ab8 2146     		mov	r1, r4
 3562 1aba 3046     		mov	r0, r6
 3563 1abc FFF7FEFF 		bl	screen_bp_list
 3564 1ac0 8DE7     		b	.L955
 3565              	.L1019:
 3566 1ac2 A86B     		ldr	r0, [r5, #56]
 3567 1ac4 3371     		strb	r3, [r6, #4]
 3568 1ac6 3470     		strb	r4, [r6]
 3569 1ac8 7370     		strb	r3, [r6, #1]
 3570 1aca B471     		strb	r4, [r6, #6]
 3571 1acc F471     		strb	r4, [r6, #7]
 3572 1ace FFF7FEFF 		bl	screen_system_menu
 3573 1ad2 E2E7     		b	.L967
 3574              	.L1020:
 3575 1ad4 6E46     		mov	r6, sp
 3576 1ad6 627A     		ldrb	r2, [r4, #9]	@ zero_extendqisi2
 3577 1ad8 6368     		ldr	r3, [r4, #4]
 3578 1ada 3046     		mov	r0, r6
 3579 1adc 3649     		ldr	r1, .L1021+20
 3580 1ade 53F82270 		ldr	r7, [r3, r2, lsl #2]
 3581 1ae2 FFF7FEFF 		bl	copy_command
 3582 1ae6 3A78     		ldrb	r2, [r7]	@ zero_extendqisi2
 3583 1ae8 0346     		mov	r3, r0
 3584 1aea 82B3     		cbz	r2, .L978
 3585              	.L970:
 3586 1aec 20A9     		add	r1, sp, #128
 3587 1aee 1944     		add	r1, r1, r3
 3588 1af0 01F8802C 		strb	r2, [r1, #-128]
 3589 1af4 0133     		adds	r3, r3, #1
 3590 1af6 17F8012F 		ldrb	r2, [r7, #1]!	@ zero_extendqisi2
 3591 1afa DCB2     		uxtb	r4, r3
 3592 1afc 2346     		mov	r3, r4
 3593 1afe 002A     		cmp	r2, #0
 3594 1b00 F4D1     		bne	.L970
 3595              	.L969:
 3596 1b02 0027     		movs	r7, #0
 3597 1b04 20AB     		add	r3, sp, #128
 3598 1b06 2344     		add	r3, r3, r4
 3599 1b08 3946     		mov	r1, r7
 3600 1b0a 2C48     		ldr	r0, .L1021+24
 3601 1b0c 03F8807C 		strb	r7, [r3, #-128]
 3602 1b10 FFF7FEFF 		bl	comm_webgui_set_response_cb
 3603 1b14 2146     		mov	r1, r4
 3604 1b16 3046     		mov	r0, r6
 3605 1b18 FFF7FEFF 		bl	comm_webgui_send
 3606 1b1c FFF7FEFF 		bl	comm_webgui_wait_response
 3607 1b20 EC6A     		ldr	r4, [r5, #44]
 3608 1b22 002C     		cmp	r4, #0
 3609 1b24 3FF45BAF 		beq	.L955
 3610 1b28 0121     		movs	r1, #1
 3611 1b2a 2B6B     		ldr	r3, [r5, #48]
 3612 1b2c 6772     		strb	r7, [r4, #9]
 3613 1b2e 5A7A     		ldrb	r2, [r3, #9]	@ zero_extendqisi2
 3614 1b30 1E68     		ldr	r6, [r3]
 3615 1b32 207A     		ldrb	r0, [r4, #8]	@ zero_extendqisi2
 3616 1b34 56F82260 		ldr	r6, [r6, r2, lsl #2]
 3617 1b38 A072     		strb	r0, [r4, #10]
 3618 1b3a 9B7A     		ldrb	r3, [r3, #10]	@ zero_extendqisi2
 3619 1b3c 85F87010 		strb	r1, [r5, #112]
 3620 1b40 9342     		cmp	r3, r2
 3621 1b42 85F88C10 		strb	r1, [r5, #140]
 3622 1b46 B7D1     		bne	.L971
 3623 1b48 2B7B     		ldrb	r3, [r5, #12]	@ zero_extendqisi2
 3624 1b4a A372     		strb	r3, [r4, #10]
 3625 1b4c B4E7     		b	.L971
 3626              	.L978:
 3627 1b4e 0446     		mov	r4, r0
 3628 1b50 D7E7     		b	.L969
 3629              	.L972:
 3630 1b52 0020     		movs	r0, #0
 3631 1b54 617A     		ldrb	r1, [r4, #9]	@ zero_extendqisi2
 3632 1b56 85F88C00 		strb	r0, [r5, #140]
 3633 1b5a A172     		strb	r1, [r4, #10]
 3634 1b5c 5168     		ldr	r1, [r2, #4]
 3635 1b5e 9372     		strb	r3, [r2, #10]
 3636 1b60 51F82310 		ldr	r1, [r1, r3, lsl #2]
 3637 1b64 A07A     		ldrb	r0, [r4, #10]	@ zero_extendqisi2
 3638 1b66 FEF7ADFE 		bl	send_load_pedalboard
 3639 1b6a 2A6B     		ldr	r2, [r5, #48]
 3640 1b6c 95F83430 		ldrb	r3, [r5, #52]	@ zero_extendqisi2
 3641 1b70 927A     		ldrb	r2, [r2, #10]	@ zero_extendqisi2
 3642 1b72 9A42     		cmp	r2, r3
 3643 1b74 05D0     		beq	.L973
 3644 1b76 2868     		ldr	r0, [r5]
 3645 1b78 08B1     		cbz	r0, .L974
 3646 1b7a FFF7FEFF 		bl	data_free_pedalboards_list
 3647              	.L974:
 3648 1b7e 0023     		movs	r3, #0
 3649 1b80 2B60     		str	r3, [r5]
 3650              	.L973:
 3651 1b82 D5E90B43 		ldrd	r4, r3, [r5, #44]
 3652 1b86 9E7A     		ldrb	r6, [r3, #10]	@ zero_extendqisi2
 3653 1b88 587A     		ldrb	r0, [r3, #9]	@ zero_extendqisi2
 3654 1b8a 1968     		ldr	r1, [r3]
 3655 1b8c A27A     		ldrb	r2, [r4, #10]	@ zero_extendqisi2
 3656 1b8e 2B68     		ldr	r3, [r5]
 3657 1b90 85F83460 		strb	r6, [r5, #52]
 3658 1b94 2A73     		strb	r2, [r5, #12]
 3659 1b96 51F82060 		ldr	r6, [r1, r0, lsl #2]
 3660 1b9a 002B     		cmp	r3, #0
 3661 1b9c 8CD0     		beq	.L971
 3662 1b9e FEF72FFA 		bl	bank_config_footer
 3663 1ba2 89E7     		b	.L971
 3664              	.L1022:
 3665              		.align	2
 3666              	.L1021:
 3667 1ba4 00000000 		.word	.LANCHOR0
 3668 1ba8 00000000 		.word	g_tool
 3669 1bac 70000000 		.word	.LC16
 3670 1bb0 00000000 		.word	.LANCHOR1
 3671 1bb4 68000000 		.word	.LC15
 3672 1bb8 80000000 		.word	.LC17
 3673 1bbc 00000000 		.word	parse_pedalboards_list
 3675              		.align	1
 3676              		.p2align 2,,3
 3677              		.global	naveg_master_volume
 3678              		.syntax unified
 3679              		.thumb
 3680              		.thumb_func
 3681              		.fpu softvfp
 3683              	naveg_master_volume:
 3684              		@ args = 0, pretend = 0, frame = 0
 3685              		@ frame_needed = 0, uses_anonymous_args = 0
 3686 1bc0 F8B5     		push	{r3, r4, r5, r6, r7, lr}
 3687 1bc2 1E4D     		ldr	r5, .L1036
 3688 1bc4 2E78     		ldrb	r6, [r5]	@ zero_extendqisi2
 3689 1bc6 5EBB     		cbnz	r6, .L1032
 3690 1bc8 1D4F     		ldr	r7, .L1036+4
 3691 1bca 0446     		mov	r4, r0
 3692 1bcc 0021     		movs	r1, #0
 3693 1bce 786C     		ldr	r0, [r7, #68]	@ float
 3694 1bd0 FFF7FEFF 		bl	__aeabi_fcmpeq
 3695 1bd4 E8B9     		cbnz	r0, .L1033
 3696 1bd6 012C     		cmp	r4, #1
 3697 1bd8 03D1     		bne	.L1027
 3698              	.L1035:
 3699 1bda 2B7A     		ldrb	r3, [r5, #8]	@ zero_extendqisi2
 3700 1bdc 23BB     		cbnz	r3, .L1034
 3701 1bde 2C72     		strb	r4, [r5, #8]
 3702 1be0 6C72     		strb	r4, [r5, #9]
 3703              	.L1027:
 3704 1be2 0321     		movs	r1, #3
 3705 1be4 0020     		movs	r0, #0
 3706 1be6 FFF7FEFF 		bl	system_master_volume_cb
 3707 1bea 1649     		ldr	r1, .L1036+8
 3708 1bec 7864     		str	r0, [r7, #68]	@ float
 3709              	.L1031:
 3710 1bee FFF7FEFF 		bl	__aeabi_fadd
 3711 1bf2 1549     		ldr	r1, .L1036+12
 3712 1bf4 FFF7FEFF 		bl	__aeabi_fmul
 3713 1bf8 1249     		ldr	r1, .L1036+8
 3714 1bfa FFF7FEFF 		bl	__aeabi_fdiv
 3715 1bfe 0021     		movs	r1, #0
 3716 1c00 FFF7FEFF 		bl	__aeabi_fadd
 3717 1c04 FFF7FEFF 		bl	__aeabi_f2iz
 3718 1c08 BDE8F840 		pop	{r3, r4, r5, r6, r7, lr}
 3719 1c0c 40B2     		sxtb	r0, r0
 3720 1c0e FFF7FEBF 		b	screen_master_vol
 3721              	.L1033:
 3722 1c12 3146     		mov	r1, r6
 3723 1c14 3046     		mov	r0, r6
 3724 1c16 FFF7FEFF 		bl	system_save_gains_cb
 3725 1c1a 012C     		cmp	r4, #1
 3726 1c1c DDD0     		beq	.L1035
 3727 1c1e E0E7     		b	.L1027
 3728              	.L1032:
 3729 1c20 BDE8F840 		pop	{r3, r4, r5, r6, r7, lr}
 3730 1c24 FFF7FEBF 		b	naveg_enter
 3731              	.L1034:
 3732 1c28 0023     		movs	r3, #0
 3733 1c2a 1946     		mov	r1, r3
 3734 1c2c 1846     		mov	r0, r3
 3735 1c2e 2B72     		strb	r3, [r5, #8]
 3736 1c30 FFF7FEFF 		bl	system_save_gains_cb
 3737 1c34 786C     		ldr	r0, [r7, #68]	@ float
 3738 1c36 0349     		ldr	r1, .L1036+8
 3739 1c38 D9E7     		b	.L1031
 3740              	.L1037:
 3741 1c3a 00BF     		.align	2
 3742              	.L1036:
 3743 1c3c 00000000 		.word	g_tool
 3744 1c40 00000000 		.word	.LANCHOR0
 3745 1c44 00007042 		.word	1114636288
 3746 1c48 0000C842 		.word	1120403456
 3748              		.align	1
 3749              		.p2align 2,,3
 3750              		.syntax unified
 3751              		.thumb
 3752              		.thumb_func
 3753              		.fpu softvfp
 3755              	naveg_toggle_tool.part.6:
 3756              		@ args = 0, pretend = 0, frame = 0
 3757              		@ frame_needed = 0, uses_anonymous_args = 0
 3758 1c4c F8B5     		push	{r3, r4, r5, r6, r7, lr}
 3759 1c4e 0446     		mov	r4, r0
 3760 1c50 5A4E     		ldr	r6, .L1054
 3761 1c52 0846     		mov	r0, r1
 3762 1c54 0D46     		mov	r5, r1
 3763 1c56 FFF7FEFF 		bl	screen_clear
 3764 1c5a 16F81470 		ldrb	r7, [r6, r4, lsl #1]	@ zero_extendqisi2
 3765 1c5e DFB9     		cbnz	r7, .L1039
 3766 1c60 012C     		cmp	r4, #1
 3767 1c62 3BD0     		beq	.L1041
 3768 1c64 4BD3     		bcc	.L1042
 3769 1c66 022C     		cmp	r4, #2
 3770 1c68 0AD1     		bne	.L1040
 3771 1c6a 554F     		ldr	r7, .L1054+4
 3772 1c6c 97F88E30 		ldrb	r3, [r7, #142]	@ zero_extendqisi2
 3773 1c70 002B     		cmp	r3, #0
 3774 1c72 00F09580 		beq	.L1052
 3775              	.L1044:
 3776 1c76 0125     		movs	r5, #1
 3777 1c78 0023     		movs	r3, #0
 3778 1c7a 87F88E50 		strb	r5, [r7, #142]
 3779 1c7e B371     		strb	r3, [r6, #6]
 3780              	.L1040:
 3781 1c80 0122     		movs	r2, #1
 3782 1c82 06EB4403 		add	r3, r6, r4, lsl #1
 3783 1c86 06F81420 		strb	r2, [r6, r4, lsl #1]
 3784 1c8a 5D70     		strb	r5, [r3, #1]
 3785 1c8c 2946     		mov	r1, r5
 3786 1c8e 2046     		mov	r0, r4
 3787 1c90 BDE8F840 		pop	{r3, r4, r5, r6, r7, lr}
 3788 1c94 FFF7FEBF 		b	screen_tool
 3789              	.L1039:
 3790 1c98 012C     		cmp	r4, #1
 3791 1c9a 27D0     		beq	.L1046
 3792 1c9c 49D3     		bcc	.L1047
 3793 1c9e 022C     		cmp	r4, #2
 3794 1ca0 05D1     		bne	.L1053
 3795 1ca2 0123     		movs	r3, #1
 3796 1ca4 0022     		movs	r2, #0
 3797 1ca6 B371     		strb	r3, [r6, #6]
 3798 1ca8 3271     		strb	r2, [r6, #4]
 3799 1caa F371     		strb	r3, [r6, #7]
 3800 1cac F8BD     		pop	{r3, r4, r5, r6, r7, pc}
 3801              	.L1053:
 3802 1cae 444B     		ldr	r3, .L1054+4
 3803 1cb0 2846     		mov	r0, r5
 3804 1cb2 03EB8503 		add	r3, r3, r5, lsl #2
 3805 1cb6 996E     		ldr	r1, [r3, #104]
 3806 1cb8 FFF7FEFF 		bl	screen_encoder
 3807 1cbc 0021     		movs	r1, #0
 3808 1cbe 4148     		ldr	r0, .L1054+8
 3809 1cc0 FFF7FEFF 		bl	comm_webgui_set_response_cb
 3810 1cc4 0B21     		movs	r1, #11
 3811 1cc6 4048     		ldr	r0, .L1054+12
 3812 1cc8 FFF7FEFF 		bl	comm_webgui_send
 3813 1ccc 2846     		mov	r0, r5
 3814 1cce FFF7FEFF 		bl	draw_all_pots
 3815 1cd2 2846     		mov	r0, r5
 3816 1cd4 BDE8F840 		pop	{r3, r4, r5, r6, r7, lr}
 3817 1cd8 FFF7FEBF 		b	draw_all_foots
 3818              	.L1041:
 3819 1cdc 2846     		mov	r0, r5
 3820 1cde FEF7D5FD 		bl	display_disable_all_tools
 3821 1ce2 0821     		movs	r1, #8
 3822 1ce4 3948     		ldr	r0, .L1054+16
 3823 1ce6 FFF7FEFF 		bl	comm_webgui_send
 3824 1cea C9E7     		b	.L1040
 3825              	.L1046:
 3826 1cec 0921     		movs	r1, #9
 3827 1cee 3848     		ldr	r0, .L1054+20
 3828 1cf0 FFF7FEFF 		bl	comm_webgui_send
 3829 1cf4 0023     		movs	r3, #0
 3830 1cf6 B471     		strb	r4, [r6, #6]
 3831 1cf8 F471     		strb	r4, [r6, #7]
 3832 1cfa B370     		strb	r3, [r6, #2]
 3833 1cfc F8BD     		pop	{r3, r4, r5, r6, r7, pc}
 3834              	.L1042:
 3835 1cfe 0124     		movs	r4, #1
 3836 1d00 2046     		mov	r0, r4
 3837 1d02 FFF7FEFF 		bl	screen_clear
 3838 1d06 2946     		mov	r1, r5
 3839 1d08 3846     		mov	r0, r7
 3840 1d0a 3772     		strb	r7, [r6, #8]
 3841 1d0c 7570     		strb	r5, [r6, #1]
 3842 1d0e B471     		strb	r4, [r6, #6]
 3843 1d10 F471     		strb	r4, [r6, #7]
 3844 1d12 3470     		strb	r4, [r6]
 3845 1d14 FFF7FEFF 		bl	screen_tool
 3846 1d18 2046     		mov	r0, r4
 3847 1d1a 00F067F8 		bl	menu_enter
 3848 1d1e 284B     		ldr	r3, .L1054+4
 3849 1d20 3846     		mov	r0, r7
 3850 1d22 996F     		ldr	r1, [r3, #120]
 3851 1d24 9A6B     		ldr	r2, [r3, #56]
 3852 1d26 C3F89010 		str	r1, [r3, #144]
 3853 1d2a DA63     		str	r2, [r3, #60]
 3854 1d2c BDE8F840 		pop	{r3, r4, r5, r6, r7, lr}
 3855 1d30 5CE0     		b	menu_enter
 3856              	.L1047:
 3857 1d32 0024     		movs	r4, #0
 3858 1d34 2846     		mov	r0, r5
 3859 1d36 FEF7A9FD 		bl	display_disable_all_tools
 3860 1d3a 214E     		ldr	r6, .L1054+4
 3861 1d3c 0120     		movs	r0, #1
 3862 1d3e FEF7A5FD 		bl	display_disable_all_tools
 3863 1d42 2146     		mov	r1, r4
 3864 1d44 2046     		mov	r0, r4
 3865 1d46 C6E91F44 		strd	r4, r4, [r6, #124]
 3866 1d4a 86F88E40 		strb	r4, [r6, #142]
 3867 1d4e FFF7FEFF 		bl	system_save_gains_cb
 3868 1d52 06EB8503 		add	r3, r6, r5, lsl #2
 3869 1d56 996E     		ldr	r1, [r3, #104]
 3870 1d58 2846     		mov	r0, r5
 3871 1d5a FFF7FEFF 		bl	screen_encoder
 3872 1d5e 2146     		mov	r1, r4
 3873 1d60 1848     		ldr	r0, .L1054+8
 3874 1d62 FFF7FEFF 		bl	comm_webgui_set_response_cb
 3875 1d66 0B21     		movs	r1, #11
 3876 1d68 1748     		ldr	r0, .L1054+12
 3877 1d6a FFF7FEFF 		bl	comm_webgui_send
 3878 1d6e 2846     		mov	r0, r5
 3879 1d70 FFF7FEFF 		bl	draw_all_pots
 3880 1d74 2846     		mov	r0, r5
 3881 1d76 FFF7FEFF 		bl	draw_all_foots
 3882 1d7a 0120     		movs	r0, #1
 3883 1d7c FFF7FEFF 		bl	screen_clear
 3884 1d80 2046     		mov	r0, r4
 3885 1d82 F46E     		ldr	r4, [r6, #108]
 3886 1d84 FFF7FEFF 		bl	naveg_master_volume
 3887 1d88 0120     		movs	r0, #1
 3888 1d8a FFF7FEFF 		bl	draw_all_pots
 3889 1d8e 2146     		mov	r1, r4
 3890 1d90 0120     		movs	r0, #1
 3891 1d92 FFF7FEFF 		bl	screen_encoder
 3892 1d96 BDE8F840 		pop	{r3, r4, r5, r6, r7, lr}
 3893 1d9a 0120     		movs	r0, #1
 3894 1d9c FFF7FEBF 		b	draw_all_foots
 3895              	.L1052:
 3896 1da0 1946     		mov	r1, r3
 3897 1da2 0C48     		ldr	r0, .L1054+24
 3898 1da4 87F87030 		strb	r3, [r7, #112]
 3899 1da8 FFF7FEFF 		bl	comm_webgui_set_response_cb
 3900 1dac 0521     		movs	r1, #5
 3901 1dae 0A48     		ldr	r0, .L1054+28
 3902 1db0 FFF7FEFF 		bl	comm_webgui_send
 3903 1db4 FFF7FEFF 		bl	comm_webgui_wait_response
 3904 1db8 5DE7     		b	.L1044
 3905              	.L1055:
 3906 1dba 00BF     		.align	2
 3907              	.L1054:
 3908 1dbc 00000000 		.word	g_tool
 3909 1dc0 00000000 		.word	.LANCHOR0
 3910 1dc4 00000000 		.word	screen_top_info
 3911 1dc8 5C000000 		.word	.LC14
 3912 1dcc 98000000 		.word	.LC19
 3913 1dd0 3C000000 		.word	.LC11
 3914 1dd4 00000000 		.word	parse_banks_list
 3915 1dd8 90000000 		.word	.LC18
 3917              		.align	1
 3918              		.p2align 2,,3
 3919              		.global	naveg_toggle_tool
 3920              		.syntax unified
 3921              		.thumb
 3922              		.thumb_func
 3923              		.fpu softvfp
 3925              	naveg_toggle_tool:
 3926              		@ args = 0, pretend = 0, frame = 0
 3927              		@ frame_needed = 0, uses_anonymous_args = 0
 3928              		@ link register save eliminated.
 3929 1ddc 024B     		ldr	r3, .L1059
 3930 1dde 93F88430 		ldrb	r3, [r3, #132]	@ zero_extendqisi2
 3931 1de2 03B9     		cbnz	r3, .L1058
 3932 1de4 7047     		bx	lr
 3933              	.L1058:
 3934 1de6 31E7     		b	naveg_toggle_tool.part.6
 3935              	.L1060:
 3936              		.align	2
 3937              	.L1059:
 3938 1de8 00000000 		.word	.LANCHOR0
 3940              		.align	1
 3941              		.p2align 2,,3
 3942              		.syntax unified
 3943              		.thumb
 3944              		.thumb_func
 3945              		.fpu softvfp
 3947              	menu_enter:
 3948              		@ args = 0, pretend = 0, frame = 8
 3949              		@ frame_needed = 0, uses_anonymous_args = 0
 3950 1dec 2DE9F047 		push	{r4, r5, r6, r7, r8, r9, r10, lr}
 3951 1df0 0746     		mov	r7, r0
 3952 1df2 82B0     		sub	sp, sp, #8
 3953 1df4 B54E     		ldr	r6, .L1282
 3954 1df6 E0B1     		cbz	r0, .L1062
 3955 1df8 B46B     		ldr	r4, [r6, #56]
 3956 1dfa D6F87880 		ldr	r8, [r6, #120]
 3957 1dfe 6268     		ldr	r2, [r4, #4]
 3958 1e00 1379     		ldrb	r3, [r2, #4]	@ zero_extendqisi2
 3959 1e02 991E     		subs	r1, r3, #2
 3960 1e04 0129     		cmp	r1, #1
 3961 1e06 1CD9     		bls	.L1266
 3962              	.L1064:
 3963 1e08 191F     		subs	r1, r3, #4
 3964 1e0a 0129     		cmp	r1, #1
 3965 1e0c 40F28880 		bls	.L1074
 3966 1e10 082B     		cmp	r3, #8
 3967 1e12 00F08C80 		beq	.L1075
 3968 1e16 1389     		ldrh	r3, [r2, #8]
 3969 1e18 BE2B     		cmp	r3, #190
 3970 1e1a 00F08380 		beq	.L1076
 3971 1e1e D388     		ldrh	r3, [r2, #6]
 3972 1e20 0C2B     		cmp	r3, #12
 3973 1e22 7FD0     		beq	.L1076
 3974 1e24 162B     		cmp	r3, #22
 3975 1e26 7DD0     		beq	.L1076
 3976 1e28 D4F80490 		ldr	r9, [r4, #4]
 3977 1e2c B9F806C0 		ldrh	ip, [r9, #6]
 3978 1e30 2FE0     		b	.L1073
 3979              	.L1062:
 3980 1e32 F46B     		ldr	r4, [r6, #60]
 3981 1e34 D6F89080 		ldr	r8, [r6, #144]
 3982 1e38 6268     		ldr	r2, [r4, #4]
 3983 1e3a 1379     		ldrb	r3, [r2, #4]	@ zero_extendqisi2
 3984 1e3c 991E     		subs	r1, r3, #2
 3985 1e3e 0129     		cmp	r1, #1
 3986 1e40 E2D8     		bhi	.L1064
 3987              	.L1266:
 3988 1e42 A17B     		ldrb	r1, [r4, #14]	@ zero_extendqisi2
 3989 1e44 D8F80880 		ldr	r8, [r8, #8]
 3990 1e48 31B1     		cbz	r1, .L1067
 3991 1e4a 0023     		movs	r3, #0
 3992              	.L1068:
 3993 1e4c 0133     		adds	r3, r3, #1
 3994 1e4e DAB2     		uxtb	r2, r3
 3995 1e50 9142     		cmp	r1, r2
 3996 1e52 D8F81480 		ldr	r8, [r8, #20]
 3997 1e56 F9D8     		bhi	.L1068
 3998              	.L1067:
 3999 1e58 D8F80040 		ldr	r4, [r8]
 4000 1e5c D4F80490 		ldr	r9, [r4, #4]
 4001 1e60 99F80430 		ldrb	r3, [r9, #4]	@ zero_extendqisi2
 4002 1e64 012B     		cmp	r3, #1
 4003 1e66 00F08B81 		beq	.L1267
 4004              	.L1069:
 4005 1e6a 062B     		cmp	r3, #6
 4006 1e6c 02D0     		beq	.L1071
 4007 1e6e 002B     		cmp	r3, #0
 4008 1e70 40F01581 		bne	.L1268
 4009              	.L1071:
 4010 1e74 B9F80830 		ldrh	r3, [r9, #8]
 4011 1e78 B9F806C0 		ldrh	ip, [r9, #6]
 4012 1e7c BE2B     		cmp	r3, #190
 4013 1e7e 05D0     		beq	.L1072
 4014 1e80 BCF10C0F 		cmp	ip, #12
 4015 1e84 02D0     		beq	.L1072
 4016 1e86 BCF1160F 		cmp	ip, #22
 4017 1e8a 02D1     		bne	.L1073
 4018              	.L1072:
 4019 1e8c D8F80030 		ldr	r3, [r8]
 4020 1e90 B363     		str	r3, [r6, #56]
 4021              	.L1073:
 4022 1e92 BCF11E0F 		cmp	ip, #30
 4023 1e96 8E4D     		ldr	r5, .L1282+4
 4024 1e98 64D0     		beq	.L1259
 4025              	.L1082:
 4026 1e9a BCF1820F 		cmp	ip, #130
 4027 1e9e 73D0     		beq	.L1086
 4028              	.L1277:
 4029 1ea0 BCF1960F 		cmp	ip, #150
 4030 1ea4 70D0     		beq	.L1086
 4031              	.L1085:
 4032 1ea6 99F80430 		ldrb	r3, [r9, #4]	@ zero_extendqisi2
 4033 1eaa 9A1E     		subs	r2, r3, #2
 4034 1eac 012A     		cmp	r2, #1
 4035 1eae 40F29880 		bls	.L1269
 4036 1eb2 042B     		cmp	r3, #4
 4037 1eb4 6FD0     		beq	.L1087
 4038 1eb6 082B     		cmp	r3, #8
 4039 1eb8 6DD0     		beq	.L1087
 4040 1eba B9F80820 		ldrh	r2, [r9, #8]
 4041 1ebe BE2A     		cmp	r2, #190
 4042 1ec0 69D0     		beq	.L1087
 4043 1ec2 BCF10C0F 		cmp	ip, #12
 4044 1ec6 00F07381 		beq	.L1094
 4045 1eca BCF1160F 		cmp	ip, #22
 4046 1ece 00F06F81 		beq	.L1094
 4047 1ed2 062B     		cmp	r3, #6
 4048 1ed4 00F08881 		beq	.L1270
 4049 1ed8 052B     		cmp	r3, #5
 4050 1eda 00F09C81 		beq	.L1271
 4051 1ede 002B     		cmp	r3, #0
 4052 1ee0 40F0BE81 		bne	.L1116
 4053 1ee4 B36B     		ldr	r3, [r6, #56]
 4054 1ee6 5A68     		ldr	r2, [r3, #4]
 4055 1ee8 1279     		ldrb	r2, [r2, #4]	@ zero_extendqisi2
 4056 1eea 032A     		cmp	r2, #3
 4057 1eec 00F0DB81 		beq	.L1272
 4058              	.L1117:
 4059 1ef0 6368     		ldr	r3, [r4, #4]
 4060 1ef2 DB68     		ldr	r3, [r3, #12]
 4061 1ef4 13B1     		cbz	r3, .L1120
 4062 1ef6 0021     		movs	r1, #0
 4063 1ef8 2046     		mov	r0, r4
 4064 1efa 9847     		blx	r3
 4065              	.L1120:
 4066 1efc 17B1     		cbz	r7, .L1093
 4067              	.L1123:
 4068 1efe B36F     		ldr	r3, [r6, #120]
 4069 1f00 1C68     		ldr	r4, [r3]
 4070 1f02 B463     		str	r4, [r6, #56]
 4071              	.L1093:
 4072 1f04 2B78     		ldrb	r3, [r5]	@ zero_extendqisi2
 4073 1f06 1BB1     		cbz	r3, .L1263
 4074              	.L1124:
 4075 1f08 2D79     		ldrb	r5, [r5, #4]	@ zero_extendqisi2
 4076 1f0a 002D     		cmp	r5, #0
 4077 1f0c 00F02181 		beq	.L1126
 4078              	.L1263:
 4079 1f10 6368     		ldr	r3, [r4, #4]
 4080              	.L1125:
 4081 1f12 1B79     		ldrb	r3, [r3, #4]	@ zero_extendqisi2
 4082 1f14 072B     		cmp	r3, #7
 4083 1f16 00F0B480 		beq	.L1273
 4084              	.L1061:
 4085 1f1a 02B0     		add	sp, sp, #8
 4086              		@ sp needed
 4087 1f1c BDE8F087 		pop	{r4, r5, r6, r7, r8, r9, r10, pc}
 4088              	.L1074:
 4089 1f20 052B     		cmp	r3, #5
 4090 1f22 04D0     		beq	.L1075
 4091              	.L1076:
 4092 1f24 D368     		ldr	r3, [r2, #12]
 4093 1f26 13B1     		cbz	r3, .L1075
 4094 1f28 0021     		movs	r1, #0
 4095 1f2a 2046     		mov	r0, r4
 4096 1f2c 9847     		blx	r3
 4097              	.L1075:
 4098 1f2e D4F80490 		ldr	r9, [r4, #4]
 4099 1f32 B9F806C0 		ldrh	ip, [r9, #6]
 4100 1f36 BCF1820F 		cmp	ip, #130
 4101 1f3a 00F00181 		beq	.L1077
 4102 1f3e BCF1960F 		cmp	ip, #150
 4103 1f42 00F01581 		beq	.L1274
 4104 1f46 002F     		cmp	r7, #0
 4105 1f48 40F0A680 		bne	.L1275
 4106 1f4c D6F89030 		ldr	r3, [r6, #144]
 4107 1f50 1C68     		ldr	r4, [r3]
 4108              	.L1081:
 4109 1f52 D4F80490 		ldr	r9, [r4, #4]
 4110 1f56 B463     		str	r4, [r6, #56]
 4111 1f58 B9F806C0 		ldrh	ip, [r9, #6]
 4112 1f5c 5C4D     		ldr	r5, .L1282+4
 4113 1f5e BCF11E0F 		cmp	ip, #30
 4114 1f62 9AD1     		bne	.L1082
 4115              	.L1259:
 4116 1f64 AB78     		ldrb	r3, [r5, #2]	@ zero_extendqisi2
 4117 1f66 002B     		cmp	r3, #0
 4118 1f68 00F01B81 		beq	.L1276
 4119 1f6c F06B     		ldr	r0, [r6, #60]
 4120 1f6e 4368     		ldr	r3, [r0, #4]
 4121 1f70 DB68     		ldr	r3, [r3, #12]
 4122 1f72 002B     		cmp	r3, #0
 4123 1f74 97D0     		beq	.L1085
 4124 1f76 0021     		movs	r1, #0
 4125 1f78 9847     		blx	r3
 4126 1f7a D4F80490 		ldr	r9, [r4, #4]
 4127 1f7e B9F806C0 		ldrh	ip, [r9, #6]
 4128 1f82 BCF1820F 		cmp	ip, #130
 4129 1f86 8BD1     		bne	.L1277
 4130              	.L1086:
 4131 1f88 96F88D30 		ldrb	r3, [r6, #141]	@ zero_extendqisi2
 4132 1f8c 002B     		cmp	r3, #0
 4133 1f8e 8AD0     		beq	.L1085
 4134 1f90 0823     		movs	r3, #8
 4135 1f92 89F80430 		strb	r3, [r9, #4]
 4136              	.L1087:
 4137 1f96 0122     		movs	r2, #1
 4138 1f98 0223     		movs	r3, #2
 4139 1f9a 0020     		movs	r0, #0
 4140 1f9c BCF1820F 		cmp	ip, #130
 4141 1fa0 A273     		strb	r2, [r4, #14]
 4142 1fa2 2373     		strb	r3, [r4, #12]
 4143 1fa4 6061     		str	r0, [r4, #20]
 4144 1fa6 00F02C81 		beq	.L1278
 4145              	.L1097:
 4146 1faa 0123     		movs	r3, #1
 4147 1fac DFF82881 		ldr	r8, .L1282+12
 4148 1fb0 484F     		ldr	r7, .L1282+8
 4149 1fb2 06E0     		b	.L1099
 4150              	.L1108:
 4151 1fb4 B2F91420 		ldrsh	r2, [r2, #20]
 4152 1fb8 BA46     		mov	r10, r7
 4153 1fba 6245     		cmp	r2, ip
 4154 1fbc 4CD0     		beq	.L1098
 4155 1fbe D1F81C80 		ldr	r8, [r1, #28]
 4156              	.L1099:
 4157 1fc2 4FEA430E 		lsl	lr, r3, #1
 4158 1fc6 591C     		adds	r1, r3, #1
 4159 1fc8 1846     		mov	r0, r3
 4160 1fca 7344     		add	r3, lr, r3
 4161 1fcc 07EB8302 		add	r2, r7, r3, lsl #2
 4162 1fd0 CBB2     		uxtb	r3, r1
 4163 1fd2 03EB4301 		add	r1, r3, r3, lsl #1
 4164 1fd6 07EB8101 		add	r1, r7, r1, lsl #2
 4165 1fda B8F1000F 		cmp	r8, #0
 4166 1fde E9D1     		bne	.L1108
 4167 1fe0 90E7     		b	.L1093
 4168              	.L1269:
 4169 1fe2 0023     		movs	r3, #0
 4170 1fe4 2373     		strb	r3, [r4, #12]
 4171 1fe6 D8F80870 		ldr	r7, [r8, #8]
 4172 1fea C6F87880 		str	r8, [r6, #120]
 4173 1fee E7B1     		cbz	r7, .L1089
 4174              	.L1092:
 4175 1ff0 D7F80080 		ldr	r8, [r7]
 4176 1ff4 D8F80430 		ldr	r3, [r8, #4]
 4177 1ff8 1A79     		ldrb	r2, [r3, #4]	@ zero_extendqisi2
 4178 1ffa 062A     		cmp	r2, #6
 4179 1ffc A2F10901 		sub	r1, r2, #9
 4180 2000 23D0     		beq	.L1090
 4181 2002 0129     		cmp	r1, #1
 4182 2004 21D9     		bls	.L1090
 4183 2006 DA88     		ldrh	r2, [r3, #6]
 4184 2008 B42A     		cmp	r2, #180
 4185 200a 1ED0     		beq	.L1090
 4186 200c 1E2A     		cmp	r2, #30
 4187 200e 1CD0     		beq	.L1090
 4188 2010 AA2A     		cmp	r2, #170
 4189 2012 1AD0     		beq	.L1090
 4190              	.L1091:
 4191 2014 237B     		ldrb	r3, [r4, #12]	@ zero_extendqisi2
 4192 2016 A268     		ldr	r2, [r4, #8]
 4193 2018 591C     		adds	r1, r3, #1
 4194 201a 2173     		strb	r1, [r4, #12]
 4195 201c D8F80010 		ldr	r1, [r8]
 4196 2020 7F69     		ldr	r7, [r7, #20]
 4197 2022 42F82310 		str	r1, [r2, r3, lsl #2]
 4198 2026 002F     		cmp	r7, #0
 4199 2028 E2D1     		bne	.L1092
 4200              	.L1089:
 4201 202a 6268     		ldr	r2, [r4, #4]
 4202 202c D388     		ldrh	r3, [r2, #6]
 4203 202e B42B     		cmp	r3, #180
 4204 2030 3FF468AF 		beq	.L1093
 4205 2034 AA2B     		cmp	r3, #170
 4206 2036 3FF465AF 		beq	.L1093
 4207 203a D368     		ldr	r3, [r2, #12]
 4208 203c 002B     		cmp	r3, #0
 4209 203e 3FF461AF 		beq	.L1093
 4210              	.L1262:
 4211 2042 0021     		movs	r1, #0
 4212 2044 2046     		mov	r0, r4
 4213 2046 9847     		blx	r3
 4214 2048 5CE7     		b	.L1093
 4215              	.L1090:
 4216 204a DB68     		ldr	r3, [r3, #12]
 4217 204c 002B     		cmp	r3, #0
 4218 204e E1D0     		beq	.L1091
 4219 2050 0321     		movs	r1, #3
 4220 2052 4046     		mov	r0, r8
 4221 2054 9847     		blx	r3
 4222 2056 DDE7     		b	.L1091
 4223              	.L1098:
 4224 2058 B9F80830 		ldrh	r3, [r9, #8]
 4225 205c BE2B     		cmp	r3, #190
 4226 205e 22D0     		beq	.L1279
 4227 2060 BCF1C30F 		cmp	ip, #195
 4228 2064 45D0     		beq	.L1101
 4229 2066 BCF10C0F 		cmp	ip, #12
 4230 206a 37D0     		beq	.L1105
 4231 206c BCF1160F 		cmp	ip, #22
 4232 2070 34D0     		beq	.L1105
 4233              	.L1106:
 4234 2072 7044     		add	r0, r0, lr
 4235 2074 0AEB800A 		add	r10, r10, r0, lsl #2
 4236 2078 DAF81830 		ldr	r3, [r10, #24]
 4237 207c C4E90438 		strd	r3, r8, [r4, #16]
 4238 2080 40E7     		b	.L1093
 4239              	.L1273:
 4240 2082 0023     		movs	r3, #0
 4241 2084 02A9     		add	r1, sp, #8
 4242 2086 41F8043D 		str	r3, [r1, #-4]!
 4243 208a D6F88800 		ldr	r0, [r6, #136]
 4244 208e FFF7FEFF 		bl	xQueueGiveFromISR
 4245 2092 02B0     		add	sp, sp, #8
 4246              		@ sp needed
 4247 2094 BDE8F087 		pop	{r4, r5, r6, r7, r8, r9, r10, pc}
 4248              	.L1275:
 4249 2098 B36F     		ldr	r3, [r6, #120]
 4250 209a 1C68     		ldr	r4, [r3]
 4251 209c 59E7     		b	.L1081
 4252              	.L1268:
 4253 209e D8F80030 		ldr	r3, [r8]
 4254 20a2 B363     		str	r3, [r6, #56]
 4255 20a4 E6E6     		b	.L1071
 4256              	.L1279:
 4257 20a6 BCF1C30F 		cmp	ip, #195
 4258 20aa 22D0     		beq	.L1101
 4259              	.L1129:
 4260 20ac B4F91C30 		ldrsh	r3, [r4, #28]
 4261 20b0 002B     		cmp	r3, #0
 4262 20b2 00F09080 		beq	.L1102
 4263 20b6 0530     		adds	r0, r0, #5
 4264 20b8 00EB4000 		add	r0, r0, r0, lsl #1
 4265 20bc 0AEB800A 		add	r10, r10, r0, lsl #2
 4266 20c0 DAE90632 		ldrd	r3, r2, [r10, #24]
 4267 20c4 C4E90432 		strd	r3, r2, [r4, #16]
 4268 20c8 1CE7     		b	.L1093
 4269              	.L1283:
 4270 20ca 00BF     		.align	2
 4271              	.L1282:
 4272 20cc 00000000 		.word	.LANCHOR0
 4273 20d0 00000000 		.word	g_tool
 4274 20d4 00000000 		.word	.LANCHOR2
 4275 20d8 A4000000 		.word	.LC20
 4276              	.L1105:
 4277 20dc B4F91C30 		ldrsh	r3, [r4, #28]
 4278 20e0 002B     		cmp	r3, #0
 4279 20e2 6ED1     		bne	.L1107
 4280 20e4 7044     		add	r0, r0, lr
 4281 20e6 07EB8007 		add	r7, r7, r0, lsl #2
 4282 20ea BB69     		ldr	r3, [r7, #24]
 4283 20ec C4E90438 		strd	r3, r8, [r4, #16]
 4284 20f0 08E7     		b	.L1093
 4285              	.L1101:
 4286 20f2 B4F91C30 		ldrsh	r3, [r4, #28]
 4287 20f6 C4F81480 		str	r8, [r4, #20]
 4288 20fa 012B     		cmp	r3, #1
 4289 20fc 7ED0     		beq	.L1132
 4290 20fe 022B     		cmp	r3, #2
 4291 2100 00F0C680 		beq	.L1133
 4292 2104 032B     		cmp	r3, #3
 4293 2106 00F0C980 		beq	.L1134
 4294 210a 7949     		ldr	r1, .L1284
 4295 210c 794A     		ldr	r2, .L1284+4
 4296 210e 042B     		cmp	r3, #4
 4297 2110 14BF     		ite	ne
 4298 2112 8846     		movne	r8, r1
 4299 2114 9046     		moveq	r8, r2
 4300              	.L1104:
 4301 2116 7044     		add	r0, r0, lr
 4302 2118 07EB8007 		add	r7, r7, r0, lsl #2
 4303 211c D7F81890 		ldr	r9, [r7, #24]
 4304 2120 4846     		mov	r0, r9
 4305 2122 FFF7FEFF 		bl	strlen
 4306 2126 0746     		mov	r7, r0
 4307 2128 0230     		adds	r0, r0, #2
 4308 212a FFF7FEFF 		bl	malloc
 4309 212e 7A1C     		adds	r2, r7, #1
 4310 2130 4946     		mov	r1, r9
 4311 2132 FFF7FEFF 		bl	memcpy
 4312 2136 B8F80020 		ldrh	r2, [r8]
 4313 213a C253     		strh	r2, [r0, r7]	@ unaligned
 4314 213c 2061     		str	r0, [r4, #16]
 4315 213e E1E6     		b	.L1093
 4316              	.L1077:
 4317 2140 96F88D30 		ldrb	r3, [r6, #141]	@ zero_extendqisi2
 4318 2144 002B     		cmp	r3, #0
 4319 2146 3AD0     		beq	.L1280
 4320              	.L1128:
 4321 2148 0823     		movs	r3, #8
 4322 214a B463     		str	r4, [r6, #56]
 4323 214c 89F80430 		strb	r3, [r9, #4]
 4324 2150 9FE6     		b	.L1073
 4325              	.L1126:
 4326 2152 2046     		mov	r0, r4
 4327 2154 FFF7FEFF 		bl	screen_system_menu
 4328 2158 6368     		ldr	r3, [r4, #4]
 4329 215a F567     		str	r5, [r6, #124]
 4330 215c 1A7C     		ldrb	r2, [r3, #16]	@ zero_extendqisi2
 4331 215e C6F88050 		str	r5, [r6, #128]
 4332 2162 002A     		cmp	r2, #0
 4333 2164 3FF4D5AE 		beq	.L1125
 4334 2168 DA68     		ldr	r2, [r3, #12]
 4335 216a C6E91F24 		strd	r2, r4, [r6, #124]
 4336 216e D0E6     		b	.L1125
 4337              	.L1274:
 4338 2170 96F88D30 		ldrb	r3, [r6, #141]	@ zero_extendqisi2
 4339 2174 002B     		cmp	r3, #0
 4340 2176 E7D1     		bne	.L1128
 4341              	.L1079:
 4342 2178 89F80430 		strb	r3, [r9, #4]
 4343 217c B463     		str	r4, [r6, #56]
 4344 217e 88E6     		b	.L1073
 4345              	.L1267:
 4346 2180 D9F80C30 		ldr	r3, [r9, #12]
 4347 2184 13B1     		cbz	r3, .L1070
 4348 2186 2046     		mov	r0, r4
 4349 2188 0021     		movs	r1, #0
 4350 218a 9847     		blx	r3
 4351              	.L1070:
 4352 218c D8F80430 		ldr	r3, [r8, #4]
 4353 2190 D3F80480 		ldr	r8, [r3, #4]
 4354 2194 D8F80040 		ldr	r4, [r8]
 4355 2198 D4F80490 		ldr	r9, [r4, #4]
 4356 219c 99F80430 		ldrb	r3, [r9, #4]	@ zero_extendqisi2
 4357 21a0 63E6     		b	.L1069
 4358              	.L1276:
 4359 21a2 0121     		movs	r1, #1
 4360 21a4 0846     		mov	r0, r1
 4361 21a6 FFF7FEFF 		bl	naveg_toggle_tool
 4362 21aa 02B0     		add	sp, sp, #8
 4363              		@ sp needed
 4364 21ac BDE8F087 		pop	{r4, r5, r6, r7, r8, r9, r10, pc}
 4365              	.L1094:
 4366 21b0 0121     		movs	r1, #1
 4367 21b2 0222     		movs	r2, #2
 4368 21b4 0023     		movs	r3, #0
 4369 21b6 A173     		strb	r1, [r4, #14]
 4370 21b8 2273     		strb	r2, [r4, #12]
 4371 21ba 6361     		str	r3, [r4, #20]
 4372 21bc F5E6     		b	.L1097
 4373              	.L1280:
 4374 21be 0223     		movs	r3, #2
 4375 21c0 DAE7     		b	.L1079
 4376              	.L1107:
 4377 21c2 0130     		adds	r0, r0, #1
 4378 21c4 00EB4000 		add	r0, r0, r0, lsl #1
 4379 21c8 07EB8007 		add	r7, r7, r0, lsl #2
 4380 21cc D7E90632 		ldrd	r3, r2, [r7, #24]
 4381 21d0 C4E90432 		strd	r3, r2, [r4, #16]
 4382 21d4 96E6     		b	.L1093
 4383              	.L1102:
 4384 21d6 00EB4000 		add	r0, r0, r0, lsl #1
 4385 21da 0AEB800A 		add	r10, r10, r0, lsl #2
 4386 21de DAF81830 		ldr	r3, [r10, #24]
 4387 21e2 C4E90438 		strd	r3, r8, [r4, #16]
 4388 21e6 8DE6     		b	.L1093
 4389              	.L1270:
 4390 21e8 D9F80C30 		ldr	r3, [r9, #12]
 4391 21ec 002B     		cmp	r3, #0
 4392 21ee 7FF428AF 		bne	.L1262
 4393              	.L1110:
 4394 21f2 2B78     		ldrb	r3, [r5]	@ zero_extendqisi2
 4395 21f4 002B     		cmp	r3, #0
 4396 21f6 3FF490AE 		beq	.L1061
 4397 21fa 85E6     		b	.L1124
 4398              	.L1132:
 4399 21fc DFF80081 		ldr	r8, .L1284+16
 4400 2200 89E7     		b	.L1104
 4401              	.L1278:
 4402 2202 B9F80830 		ldrh	r3, [r9, #8]
 4403 2206 DFF8F080 		ldr	r8, .L1284+8
 4404 220a BE2B     		cmp	r3, #190
 4405 220c 43D0     		beq	.L1137
 4406 220e 8646     		mov	lr, r0
 4407 2210 DFF8E8A0 		ldr	r10, .L1284+12
 4408 2214 2DE7     		b	.L1106
 4409              	.L1271:
 4410 2216 0022     		movs	r2, #0
 4411 2218 0123     		movs	r3, #1
 4412 221a BCF1820F 		cmp	ip, #130
 4413 221e A273     		strb	r2, [r4, #14]
 4414 2220 6261     		str	r2, [r4, #20]
 4415 2222 2373     		strb	r3, [r4, #12]
 4416 2224 3448     		ldr	r0, .L1284+8
 4417 2226 3CD0     		beq	.L1112
 4418 2228 3449     		ldr	r1, .L1284+12
 4419 222a 04E0     		b	.L1113
 4420              	.L1115:
 4421 222c B7F91470 		ldrsh	r7, [r7, #20]
 4422 2230 BC45     		cmp	ip, r7
 4423 2232 36D0     		beq	.L1112
 4424 2234 D069     		ldr	r0, [r2, #28]
 4425              	.L1113:
 4426 2236 5A1C     		adds	r2, r3, #1
 4427 2238 03EB4303 		add	r3, r3, r3, lsl #1
 4428 223c 01EB8307 		add	r7, r1, r3, lsl #2
 4429 2240 D3B2     		uxtb	r3, r2
 4430 2242 03EB4302 		add	r2, r3, r3, lsl #1
 4431 2246 01EB8202 		add	r2, r1, r2, lsl #2
 4432 224a 0028     		cmp	r0, #0
 4433 224c EED1     		bne	.L1115
 4434              	.L1114:
 4435 224e D9F80C30 		ldr	r3, [r9, #12]
 4436 2252 002B     		cmp	r3, #0
 4437 2254 CDD0     		beq	.L1110
 4438 2256 BCF1960F 		cmp	ip, #150
 4439 225a 7FF4F2AE 		bne	.L1262
 4440 225e C8E7     		b	.L1110
 4441              	.L1116:
 4442 2260 A3F10902 		sub	r2, r3, #9
 4443 2264 012A     		cmp	r2, #1
 4444 2266 3FF64DAE 		bhi	.L1093
 4445 226a 002F     		cmp	r7, #0
 4446 226c 3FF44AAE 		beq	.L1093
 4447 2270 96F89410 		ldrb	r1, [r6, #148]	@ zero_extendqisi2
 4448 2274 69BB     		cbnz	r1, .L1121
 4449 2276 0120     		movs	r0, #1
 4450 2278 D9F80C20 		ldr	r2, [r9, #12]
 4451 227c 86F89400 		strb	r0, [r6, #148]
 4452 2280 002A     		cmp	r2, #0
 4453 2282 3FF43FAE 		beq	.L1093
 4454 2286 0A2B     		cmp	r3, #10
 4455 2288 B3D0     		beq	.L1110
 4456 228a 2046     		mov	r0, r4
 4457 228c 9047     		blx	r2
 4458 228e 39E6     		b	.L1093
 4459              	.L1133:
 4460 2290 DFF87080 		ldr	r8, .L1284+20
 4461 2294 3FE7     		b	.L1104
 4462              	.L1137:
 4463 2296 DFF864A0 		ldr	r10, .L1284+12
 4464 229a 07E7     		b	.L1129
 4465              	.L1134:
 4466 229c DFF86880 		ldr	r8, .L1284+24
 4467 22a0 39E7     		b	.L1104
 4468              	.L1112:
 4469 22a2 6061     		str	r0, [r4, #20]
 4470 22a4 D3E7     		b	.L1114
 4471              	.L1272:
 4472 22a6 1A7B     		ldrb	r2, [r3, #12]	@ zero_extendqisi2
 4473 22a8 012A     		cmp	r2, #1
 4474 22aa 0ED9     		bls	.L1118
 4475 22ac 4FF00108 		mov	r8, #1
 4476              	.L1119:
 4477 22b0 9B68     		ldr	r3, [r3, #8]
 4478 22b2 53F82800 		ldr	r0, [r3, r8, lsl #2]
 4479 22b6 FFF7FEFF 		bl	deselect_item
 4480 22ba B36B     		ldr	r3, [r6, #56]
 4481 22bc 08F10108 		add	r8, r8, #1
 4482 22c0 1A7B     		ldrb	r2, [r3, #12]	@ zero_extendqisi2
 4483 22c2 5FFA88F8 		uxtb	r8, r8
 4484 22c6 4245     		cmp	r2, r8
 4485 22c8 F2D8     		bhi	.L1119
 4486              	.L1118:
 4487 22ca 2068     		ldr	r0, [r4]
 4488 22cc FFF7FEFF 		bl	select_item
 4489 22d0 0EE6     		b	.L1117
 4490              	.L1121:
 4491 22d2 0021     		movs	r1, #0
 4492 22d4 092B     		cmp	r3, #9
 4493 22d6 86F89410 		strb	r1, [r6, #148]
 4494 22da 04D0     		beq	.L1281
 4495 22dc D9F80C30 		ldr	r3, [r9, #12]
 4496 22e0 2046     		mov	r0, r4
 4497 22e2 9847     		blx	r3
 4498 22e4 0BE6     		b	.L1123
 4499              	.L1281:
 4500 22e6 2046     		mov	r0, r4
 4501 22e8 FFF7FEFF 		bl	system_save_gains_cb
 4502 22ec 07E6     		b	.L1123
 4503              	.L1285:
 4504 22ee 00BF     		.align	2
 4505              	.L1284:
 4506 22f0 04010000 		.word	.LC25
 4507 22f4 00010000 		.word	.LC24
 4508 22f8 A4000000 		.word	.LC20
 4509 22fc 00000000 		.word	.LANCHOR2
 4510 2300 F4000000 		.word	.LC21
 4511 2304 F8000000 		.word	.LC22
 4512 2308 FC000000 		.word	.LC23
 4514              		.align	1
 4515              		.p2align 2,,3
 4516              		.global	naveg_ui_connection
 4517              		.syntax unified
 4518              		.thumb
 4519              		.thumb_func
 4520              		.fpu softvfp
 4522              	naveg_ui_connection:
 4523              		@ args = 0, pretend = 0, frame = 0
 4524              		@ frame_needed = 0, uses_anonymous_args = 0
 4525 230c 70B5     		push	{r4, r5, r6, lr}
 4526 230e 244C     		ldr	r4, .L1322
 4527 2310 94F88430 		ldrb	r3, [r4, #132]	@ zero_extendqisi2
 4528 2314 73B3     		cbz	r3, .L1286
 4529 2316 0128     		cmp	r0, #1
 4530 2318 2FD0     		beq	.L1317
 4531 231a 0023     		movs	r3, #0
 4532 231c 206B     		ldr	r0, [r4, #48]
 4533 231e 84F88D30 		strb	r3, [r4, #141]
 4534 2322 08B1     		cbz	r0, .L1295
 4535 2324 FFF7FEFF 		bl	data_free_banks_list
 4536              	.L1295:
 4537 2328 E06A     		ldr	r0, [r4, #44]
 4538 232a 08B1     		cbz	r0, .L1296
 4539 232c FFF7FEFF 		bl	data_free_pedalboards_list
 4540              	.L1296:
 4541 2330 0023     		movs	r3, #0
 4542 2332 1C4A     		ldr	r2, .L1322+4
 4543 2334 2363     		str	r3, [r4, #48]
 4544 2336 1179     		ldrb	r1, [r2, #4]	@ zero_extendqisi2
 4545 2338 E362     		str	r3, [r4, #44]
 4546 233a 2360     		str	r3, [r4]
 4547 233c 51B3     		cbz	r1, .L1297
 4548              	.L1292:
 4549 233e 94F88430 		ldrb	r3, [r4, #132]	@ zero_extendqisi2
 4550 2342 13BB     		cbnz	r3, .L1290
 4551              	.L1294:
 4552 2344 D4F89030 		ldr	r3, [r4, #144]
 4553 2348 9B68     		ldr	r3, [r3, #8]
 4554 234a 9BB1     		cbz	r3, .L1286
 4555 234c 0025     		movs	r5, #0
 4556 234e A66B     		ldr	r6, [r4, #56]
 4557 2350 03E0     		b	.L1300
 4558              	.L1320:
 4559 2352 962A     		cmp	r2, #150
 4560 2354 0FD0     		beq	.L1318
 4561 2356 5B69     		ldr	r3, [r3, #20]
 4562 2358 5BB1     		cbz	r3, .L1319
 4563              	.L1300:
 4564 235a 1868     		ldr	r0, [r3]
 4565 235c 4168     		ldr	r1, [r0, #4]
 4566 235e CA88     		ldrh	r2, [r1, #6]
 4567 2360 822A     		cmp	r2, #130
 4568 2362 F6D1     		bne	.L1320
 4569 2364 0222     		movs	r2, #2
 4570              	.L1298:
 4571 2366 5B69     		ldr	r3, [r3, #20]
 4572 2368 0646     		mov	r6, r0
 4573 236a 0125     		movs	r5, #1
 4574 236c 0A71     		strb	r2, [r1, #4]
 4575 236e 002B     		cmp	r3, #0
 4576 2370 F3D1     		bne	.L1300
 4577              	.L1319:
 4578 2372 9DB9     		cbnz	r5, .L1321
 4579              	.L1286:
 4580 2374 70BD     		pop	{r4, r5, r6, pc}
 4581              	.L1318:
 4582 2376 0022     		movs	r2, #0
 4583 2378 F5E7     		b	.L1298
 4584              	.L1317:
 4585 237a 0A4B     		ldr	r3, .L1322+4
 4586 237c 84F88D00 		strb	r0, [r4, #141]
 4587 2380 1A79     		ldrb	r2, [r3, #4]	@ zero_extendqisi2
 4588 2382 12B9     		cbnz	r2, .L1290
 4589 2384 1B78     		ldrb	r3, [r3]	@ zero_extendqisi2
 4590 2386 002B     		cmp	r3, #0
 4591 2388 F4D0     		beq	.L1286
 4592              	.L1290:
 4593 238a 0021     		movs	r1, #0
 4594 238c 0846     		mov	r0, r1
 4595 238e FFF75DFC 		bl	naveg_toggle_tool.part.6
 4596 2392 D7E7     		b	.L1294
 4597              	.L1297:
 4598 2394 1378     		ldrb	r3, [r2]	@ zero_extendqisi2
 4599 2396 002B     		cmp	r3, #0
 4600 2398 D1D1     		bne	.L1292
 4601 239a 70BD     		pop	{r4, r5, r6, pc}
 4602              	.L1321:
 4603 239c A663     		str	r6, [r4, #56]
 4604 239e 70BD     		pop	{r4, r5, r6, pc}
 4605              	.L1323:
 4606              		.align	2
 4607              	.L1322:
 4608 23a0 00000000 		.word	.LANCHOR0
 4609 23a4 00000000 		.word	g_tool
 4611              		.align	1
 4612              		.p2align 2,,3
 4613              		.global	naveg_up
 4614              		.syntax unified
 4615              		.thumb
 4616              		.thumb_func
 4617              		.fpu softvfp
 4619              	naveg_up:
 4620              		@ args = 0, pretend = 0, frame = 0
 4621              		@ frame_needed = 0, uses_anonymous_args = 0
 4622 23a8 38B5     		push	{r3, r4, r5, lr}
 4623 23aa 3D4C     		ldr	r4, .L1369
 4624 23ac 94F88430 		ldrb	r3, [r4, #132]	@ zero_extendqisi2
 4625 23b0 4BB1     		cbz	r3, .L1324
 4626 23b2 3C4D     		ldr	r5, .L1369+4
 4627 23b4 2B46     		mov	r3, r5
 4628 23b6 05F10A01 		add	r1, r5, #10
 4629              	.L1328:
 4630 23ba 5A78     		ldrb	r2, [r3, #1]	@ zero_extendqisi2
 4631 23bc 8242     		cmp	r2, r0
 4632 23be 03D0     		beq	.L1363
 4633              	.L1326:
 4634 23c0 0233     		adds	r3, r3, #2
 4635 23c2 9942     		cmp	r1, r3
 4636 23c4 F9D1     		bne	.L1328
 4637              	.L1324:
 4638 23c6 38BD     		pop	{r3, r4, r5, pc}
 4639              	.L1363:
 4640 23c8 1A78     		ldrb	r2, [r3]	@ zero_extendqisi2
 4641 23ca 012A     		cmp	r2, #1
 4642 23cc F8D1     		bne	.L1326
 4643 23ce C0B9     		cbnz	r0, .L1364
 4644 23d0 AB78     		ldrb	r3, [r5, #2]	@ zero_extendqisi2
 4645 23d2 4BBB     		cbnz	r3, .L1329
 4646 23d4 2B79     		ldrb	r3, [r5, #4]	@ zero_extendqisi2
 4647 23d6 33BB     		cbnz	r3, .L1365
 4648 23d8 2B78     		ldrb	r3, [r5]	@ zero_extendqisi2
 4649 23da 002B     		cmp	r3, #0
 4650 23dc F3D0     		beq	.L1324
 4651 23de D4E91D13 		ldrd	r1, r3, [r4, #116]
 4652 23e2 8B42     		cmp	r3, r1
 4653 23e4 A26B     		ldr	r2, [r4, #56]
 4654 23e6 02D0     		beq	.L1331
 4655 23e8 5168     		ldr	r1, [r2, #4]
 4656 23ea C988     		ldrh	r1, [r1, #6]
 4657 23ec 11B9     		cbnz	r1, .L1332
 4658              	.L1331:
 4659 23ee C4F89030 		str	r3, [r4, #144]
 4660 23f2 E263     		str	r2, [r4, #60]
 4661              	.L1332:
 4662 23f4 0020     		movs	r0, #0
 4663 23f6 FEF7B9FA 		bl	menu_up
 4664 23fa BDE83840 		pop	{r3, r4, r5, lr}
 4665 23fe 0020     		movs	r0, #0
 4666 2400 F4E4     		b	menu_enter
 4667              	.L1364:
 4668 2402 0128     		cmp	r0, #1
 4669 2404 DFD1     		bne	.L1324
 4670 2406 2B7A     		ldrb	r3, [r5, #8]	@ zero_extendqisi2
 4671 2408 0BBB     		cbnz	r3, .L1366
 4672 240a 2B79     		ldrb	r3, [r5, #4]	@ zero_extendqisi2
 4673 240c 1BBB     		cbnz	r3, .L1367
 4674 240e AB79     		ldrb	r3, [r5, #6]	@ zero_extendqisi2
 4675 2410 002B     		cmp	r3, #0
 4676 2412 D8D0     		beq	.L1324
 4677 2414 D4E91D32 		ldrd	r3, r2, [r4, #116]
 4678 2418 9A42     		cmp	r2, r3
 4679 241a 2BD0     		beq	.L1368
 4680              	.L1338:
 4681 241c BDE83840 		pop	{r3, r4, r5, lr}
 4682 2420 0120     		movs	r0, #1
 4683 2422 FEF7A3BA 		b	menu_up
 4684              	.L1365:
 4685 2426 0222     		movs	r2, #2
 4686              	.L1329:
 4687 2428 1046     		mov	r0, r2
 4688 242a 0021     		movs	r1, #0
 4689 242c FFF70EFC 		bl	naveg_toggle_tool.part.6
 4690 2430 0123     		movs	r3, #1
 4691 2432 D4F89010 		ldr	r1, [r4, #144]
 4692 2436 E26B     		ldr	r2, [r4, #60]
 4693 2438 0020     		movs	r0, #0
 4694 243a AB71     		strb	r3, [r5, #6]
 4695 243c EB71     		strb	r3, [r5, #7]
 4696 243e A167     		str	r1, [r4, #120]
 4697 2440 A263     		str	r2, [r4, #56]
 4698 2442 FEF793FA 		bl	menu_up
 4699 2446 BDE83840 		pop	{r3, r4, r5, lr}
 4700 244a 0020     		movs	r0, #0
 4701 244c CEE4     		b	menu_enter
 4702              	.L1366:
 4703 244e BDE83840 		pop	{r3, r4, r5, lr}
 4704 2452 FEF74DBB 		b	naveg_set_master_volume.part.3
 4705              	.L1367:
 4706 2456 216B     		ldr	r1, [r4, #48]
 4707 2458 0029     		cmp	r1, #0
 4708 245a B4D0     		beq	.L1324
 4709 245c 94F87030 		ldrb	r3, [r4, #112]	@ zero_extendqisi2
 4710 2460 73B9     		cbnz	r3, .L1335
 4711 2462 4B7A     		ldrb	r3, [r1, #9]	@ zero_extendqisi2
 4712 2464 CBB1     		cbz	r3, .L1341
 4713 2466 013B     		subs	r3, r3, #1
 4714 2468 0F48     		ldr	r0, .L1369+8
 4715 246a 4B72     		strb	r3, [r1, #9]
 4716              	.L1336:
 4717 246c BDE83840 		pop	{r3, r4, r5, lr}
 4718 2470 FFF7FEBF 		b	screen_bp_list
 4719              	.L1368:
 4720 2474 A36B     		ldr	r3, [r4, #56]
 4721 2476 5B68     		ldr	r3, [r3, #4]
 4722 2478 DB88     		ldrh	r3, [r3, #6]
 4723 247a 002B     		cmp	r3, #0
 4724 247c CED1     		bne	.L1338
 4725 247e A2E7     		b	.L1324
 4726              	.L1335:
 4727 2480 012B     		cmp	r3, #1
 4728 2482 A0D1     		bne	.L1324
 4729 2484 E26A     		ldr	r2, [r4, #44]
 4730 2486 537A     		ldrb	r3, [r2, #9]	@ zero_extendqisi2
 4731 2488 0BB1     		cbz	r3, .L1337
 4732 248a 013B     		subs	r3, r3, #1
 4733 248c 5372     		strb	r3, [r2, #9]
 4734              	.L1337:
 4735 248e 487A     		ldrb	r0, [r1, #9]	@ zero_extendqisi2
 4736 2490 0B68     		ldr	r3, [r1]
 4737 2492 1146     		mov	r1, r2
 4738 2494 53F82000 		ldr	r0, [r3, r0, lsl #2]
 4739 2498 E8E7     		b	.L1336
 4740              	.L1341:
 4741 249a 0348     		ldr	r0, .L1369+8
 4742 249c E6E7     		b	.L1336
 4743              	.L1370:
 4744 249e 00BF     		.align	2
 4745              	.L1369:
 4746 24a0 00000000 		.word	.LANCHOR0
 4747 24a4 00000000 		.word	g_tool
 4748 24a8 68000000 		.word	.LC15
 4750              		.align	1
 4751              		.p2align 2,,3
 4752              		.global	naveg_down
 4753              		.syntax unified
 4754              		.thumb
 4755              		.thumb_func
 4756              		.fpu softvfp
 4758              	naveg_down:
 4759              		@ args = 0, pretend = 0, frame = 0
 4760              		@ frame_needed = 0, uses_anonymous_args = 0
 4761 24ac 38B5     		push	{r3, r4, r5, lr}
 4762 24ae 404C     		ldr	r4, .L1413
 4763 24b0 94F88430 		ldrb	r3, [r4, #132]	@ zero_extendqisi2
 4764 24b4 4BB1     		cbz	r3, .L1371
 4765 24b6 3F4D     		ldr	r5, .L1413+4
 4766 24b8 2B46     		mov	r3, r5
 4767 24ba 05F10A01 		add	r1, r5, #10
 4768              	.L1375:
 4769 24be 5A78     		ldrb	r2, [r3, #1]	@ zero_extendqisi2
 4770 24c0 8242     		cmp	r2, r0
 4771 24c2 03D0     		beq	.L1407
 4772              	.L1373:
 4773 24c4 0233     		adds	r3, r3, #2
 4774 24c6 9942     		cmp	r1, r3
 4775 24c8 F9D1     		bne	.L1375
 4776              	.L1371:
 4777 24ca 38BD     		pop	{r3, r4, r5, pc}
 4778              	.L1407:
 4779 24cc 1A78     		ldrb	r2, [r3]	@ zero_extendqisi2
 4780 24ce 012A     		cmp	r2, #1
 4781 24d0 F8D1     		bne	.L1373
 4782 24d2 C0B9     		cbnz	r0, .L1408
 4783 24d4 AB78     		ldrb	r3, [r5, #2]	@ zero_extendqisi2
 4784 24d6 4BBB     		cbnz	r3, .L1376
 4785 24d8 2B79     		ldrb	r3, [r5, #4]	@ zero_extendqisi2
 4786 24da 33BB     		cbnz	r3, .L1409
 4787 24dc 2B78     		ldrb	r3, [r5]	@ zero_extendqisi2
 4788 24de 002B     		cmp	r3, #0
 4789 24e0 F3D0     		beq	.L1371
 4790 24e2 D4E91D13 		ldrd	r1, r3, [r4, #116]
 4791 24e6 8B42     		cmp	r3, r1
 4792 24e8 A26B     		ldr	r2, [r4, #56]
 4793 24ea 02D0     		beq	.L1378
 4794 24ec 5168     		ldr	r1, [r2, #4]
 4795 24ee C988     		ldrh	r1, [r1, #6]
 4796 24f0 11B9     		cbnz	r1, .L1379
 4797              	.L1378:
 4798 24f2 C4F89030 		str	r3, [r4, #144]
 4799 24f6 E263     		str	r2, [r4, #60]
 4800              	.L1379:
 4801 24f8 0020     		movs	r0, #0
 4802 24fa FEF767FA 		bl	menu_down
 4803 24fe BDE83840 		pop	{r3, r4, r5, lr}
 4804 2502 0020     		movs	r0, #0
 4805 2504 72E4     		b	menu_enter
 4806              	.L1408:
 4807 2506 0128     		cmp	r0, #1
 4808 2508 DFD1     		bne	.L1371
 4809 250a 2B7A     		ldrb	r3, [r5, #8]	@ zero_extendqisi2
 4810 250c 0BBB     		cbnz	r3, .L1410
 4811 250e 2B79     		ldrb	r3, [r5, #4]	@ zero_extendqisi2
 4812 2510 23BB     		cbnz	r3, .L1411
 4813 2512 AB79     		ldrb	r3, [r5, #6]	@ zero_extendqisi2
 4814 2514 002B     		cmp	r3, #0
 4815 2516 D8D0     		beq	.L1371
 4816 2518 D4E91D32 		ldrd	r3, r2, [r4, #116]
 4817 251c 9A42     		cmp	r2, r3
 4818 251e 2FD0     		beq	.L1412
 4819              	.L1385:
 4820 2520 BDE83840 		pop	{r3, r4, r5, lr}
 4821 2524 0120     		movs	r0, #1
 4822 2526 FEF751BA 		b	menu_down
 4823              	.L1409:
 4824 252a 0222     		movs	r2, #2
 4825              	.L1376:
 4826 252c 1046     		mov	r0, r2
 4827 252e 0021     		movs	r1, #0
 4828 2530 FFF78CFB 		bl	naveg_toggle_tool.part.6
 4829 2534 0123     		movs	r3, #1
 4830 2536 D4F89010 		ldr	r1, [r4, #144]
 4831 253a E26B     		ldr	r2, [r4, #60]
 4832 253c 0020     		movs	r0, #0
 4833 253e AB71     		strb	r3, [r5, #6]
 4834 2540 EB71     		strb	r3, [r5, #7]
 4835 2542 A167     		str	r1, [r4, #120]
 4836 2544 A263     		str	r2, [r4, #56]
 4837 2546 FEF741FA 		bl	menu_down
 4838 254a BDE83840 		pop	{r3, r4, r5, lr}
 4839 254e 0020     		movs	r0, #0
 4840 2550 4CE4     		b	menu_enter
 4841              	.L1410:
 4842 2552 0020     		movs	r0, #0
 4843 2554 BDE83840 		pop	{r3, r4, r5, lr}
 4844 2558 FEF7CABA 		b	naveg_set_master_volume.part.3
 4845              	.L1411:
 4846 255c 216B     		ldr	r1, [r4, #48]
 4847 255e 0029     		cmp	r1, #0
 4848 2560 B3D0     		beq	.L1371
 4849 2562 94F87030 		ldrb	r3, [r4, #112]	@ zero_extendqisi2
 4850 2566 8BB9     		cbnz	r3, .L1382
 4851 2568 0A7A     		ldrb	r2, [r1, #8]	@ zero_extendqisi2
 4852 256a 4B7A     		ldrb	r3, [r1, #9]	@ zero_extendqisi2
 4853 256c 013A     		subs	r2, r2, #1
 4854 256e 9342     		cmp	r3, r2
 4855 2570 1CDA     		bge	.L1388
 4856 2572 0133     		adds	r3, r3, #1
 4857 2574 1048     		ldr	r0, .L1413+8
 4858 2576 4B72     		strb	r3, [r1, #9]
 4859              	.L1383:
 4860 2578 BDE83840 		pop	{r3, r4, r5, lr}
 4861 257c FFF7FEBF 		b	screen_bp_list
 4862              	.L1412:
 4863 2580 A36B     		ldr	r3, [r4, #56]
 4864 2582 5B68     		ldr	r3, [r3, #4]
 4865 2584 DB88     		ldrh	r3, [r3, #6]
 4866 2586 002B     		cmp	r3, #0
 4867 2588 CAD1     		bne	.L1385
 4868 258a 9EE7     		b	.L1371
 4869              	.L1382:
 4870 258c 012B     		cmp	r3, #1
 4871 258e 9CD1     		bne	.L1371
 4872 2590 E36A     		ldr	r3, [r4, #44]
 4873 2592 187A     		ldrb	r0, [r3, #8]	@ zero_extendqisi2
 4874 2594 5A7A     		ldrb	r2, [r3, #9]	@ zero_extendqisi2
 4875 2596 0138     		subs	r0, r0, #1
 4876 2598 8242     		cmp	r2, r0
 4877 259a BCBF     		itt	lt
 4878 259c 0132     		addlt	r2, r2, #1
 4879 259e 5A72     		strblt	r2, [r3, #9]
 4880 25a0 487A     		ldrb	r0, [r1, #9]	@ zero_extendqisi2
 4881 25a2 0A68     		ldr	r2, [r1]
 4882 25a4 1946     		mov	r1, r3
 4883 25a6 52F82000 		ldr	r0, [r2, r0, lsl #2]
 4884 25aa E5E7     		b	.L1383
 4885              	.L1388:
 4886 25ac 0248     		ldr	r0, .L1413+8
 4887 25ae E3E7     		b	.L1383
 4888              	.L1414:
 4889              		.align	2
 4890              	.L1413:
 4891 25b0 00000000 		.word	.LANCHOR0
 4892 25b4 00000000 		.word	g_tool
 4893 25b8 68000000 		.word	.LC15
 4895              		.align	1
 4896              		.p2align 2,,3
 4897              		.global	naveg_reset_menu
 4898              		.syntax unified
 4899              		.thumb
 4900              		.thumb_func
 4901              		.fpu softvfp
 4903              	naveg_reset_menu:
 4904              		@ args = 0, pretend = 0, frame = 0
 4905              		@ frame_needed = 0, uses_anonymous_args = 0
 4906              		@ link register save eliminated.
 4907 25bc 064B     		ldr	r3, .L1418
 4908 25be 93F88420 		ldrb	r2, [r3, #132]	@ zero_extendqisi2
 4909 25c2 02B9     		cbnz	r2, .L1417
 4910 25c4 7047     		bx	lr
 4911              	.L1417:
 4912 25c6 5A6F     		ldr	r2, [r3, #116]
 4913 25c8 9068     		ldr	r0, [r2, #8]
 4914 25ca 9A67     		str	r2, [r3, #120]
 4915 25cc 0168     		ldr	r1, [r0]
 4916 25ce C3F89020 		str	r2, [r3, #144]
 4917 25d2 9963     		str	r1, [r3, #56]
 4918 25d4 FEF72CBA 		b	reset_menu_hover.isra.0
 4919              	.L1419:
 4920              		.align	2
 4921              	.L1418:
 4922 25d8 00000000 		.word	.LANCHOR0
 4924              		.align	1
 4925              		.p2align 2,,3
 4926              		.global	naveg_need_update
 4927              		.syntax unified
 4928              		.thumb
 4929              		.thumb_func
 4930              		.fpu softvfp
 4932              	naveg_need_update:
 4933              		@ args = 0, pretend = 0, frame = 0
 4934              		@ frame_needed = 0, uses_anonymous_args = 0
 4935              		@ link register save eliminated.
 4936 25dc 024B     		ldr	r3, .L1421
 4937 25de D86F     		ldr	r0, [r3, #124]
 4938 25e0 0030     		adds	r0, r0, #0
 4939 25e2 18BF     		it	ne
 4940 25e4 0120     		movne	r0, #1
 4941 25e6 7047     		bx	lr
 4942              	.L1422:
 4943              		.align	2
 4944              	.L1421:
 4945 25e8 00000000 		.word	.LANCHOR0
 4947              		.align	1
 4948              		.p2align 2,,3
 4949              		.global	naveg_update
 4950              		.syntax unified
 4951              		.thumb
 4952              		.thumb_func
 4953              		.fpu softvfp
 4955              	naveg_update:
 4956              		@ args = 0, pretend = 0, frame = 0
 4957              		@ frame_needed = 0, uses_anonymous_args = 0
 4958 25ec 10B5     		push	{r4, lr}
 4959 25ee 074C     		ldr	r4, .L1426
 4960 25f0 E36F     		ldr	r3, [r4, #124]
 4961 25f2 4BB1     		cbz	r3, .L1423
 4962 25f4 D4F88000 		ldr	r0, [r4, #128]
 4963 25f8 0021     		movs	r1, #0
 4964 25fa 9847     		blx	r3
 4965 25fc D4F88000 		ldr	r0, [r4, #128]
 4966 2600 BDE81040 		pop	{r4, lr}
 4967 2604 FFF7FEBF 		b	screen_system_menu
 4968              	.L1423:
 4969 2608 10BD     		pop	{r4, pc}
 4970              	.L1427:
 4971 260a 00BF     		.align	2
 4972              	.L1426:
 4973 260c 00000000 		.word	.LANCHOR0
 4975              		.align	1
 4976              		.p2align 2,,3
 4977              		.global	naveg_dialog
 4978              		.syntax unified
 4979              		.thumb
 4980              		.thumb_func
 4981              		.fpu softvfp
 4983              	naveg_dialog:
 4984              		@ args = 0, pretend = 0, frame = 0
 4985              		@ frame_needed = 0, uses_anonymous_args = 0
 4986 2610 70B5     		push	{r4, r5, r6, lr}
 4987 2612 1A4C     		ldr	r4, .L1436
 4988 2614 D4F89850 		ldr	r5, [r4, #152]
 4989 2618 E5B1     		cbz	r5, .L1435
 4990              	.L1429:
 4991 261a 0122     		movs	r2, #1
 4992 261c 0026     		movs	r6, #0
 4993 261e 184B     		ldr	r3, .L1436+4
 4994 2620 A567     		str	r5, [r4, #120]
 4995 2622 1A70     		strb	r2, [r3]
 4996 2624 5E70     		strb	r6, [r3, #1]
 4997 2626 2B68     		ldr	r3, [r5]
 4998 2628 1846     		mov	r0, r3
 4999 262a A363     		str	r3, [r4, #56]
 5000 262c FFF7FEFF 		bl	screen_system_menu
 5001 2630 3346     		mov	r3, r6
 5002 2632 3146     		mov	r1, r6
 5003 2634 4FF0FF32 		mov	r2, #-1
 5004 2638 D4F88800 		ldr	r0, [r4, #136]
 5005 263c FFF7FEFF 		bl	xQueueGenericReceive
 5006 2640 94F88430 		ldrb	r3, [r4, #132]	@ zero_extendqisi2
 5007 2644 1BB1     		cbz	r3, .L1430
 5008 2646 3146     		mov	r1, r6
 5009 2648 3046     		mov	r0, r6
 5010 264a FFF7FFFA 		bl	naveg_toggle_tool.part.6
 5011              	.L1430:
 5012 264e A36B     		ldr	r3, [r4, #56]
 5013 2650 987B     		ldrb	r0, [r3, #14]	@ zero_extendqisi2
 5014 2652 70BD     		pop	{r4, r5, r6, pc}
 5015              	.L1435:
 5016 2654 0646     		mov	r6, r0
 5017 2656 2020     		movs	r0, #32
 5018 2658 FFF7FEFF 		bl	pvPortMalloc
 5019 265c 4FF60271 		movw	r1, #65282
 5020 2660 084A     		ldr	r2, .L1436+8
 5021 2662 8560     		str	r5, [r0, #8]
 5022 2664 8573     		strb	r5, [r0, #14]
 5023 2666 0560     		str	r5, [r0]
 5024 2668 4661     		str	r6, [r0, #20]
 5025 266a 8181     		strh	r1, [r0, #12]	@ movhi
 5026 266c 4260     		str	r2, [r0, #4]
 5027 266e FFF7FEFF 		bl	node_create
 5028 2672 0546     		mov	r5, r0
 5029 2674 C4F89800 		str	r0, [r4, #152]
 5030 2678 CFE7     		b	.L1429
 5031              	.L1437:
 5032 267a 00BF     		.align	2
 5033              	.L1436:
 5034 267c 00000000 		.word	.LANCHOR0
 5035 2680 00000000 		.word	g_tool
 5036 2684 68050000 		.word	.LANCHOR1+1384
 5038              		.align	1
 5039              		.p2align 2,,3
 5040              		.global	naveg_ui_status
 5041              		.syntax unified
 5042              		.thumb
 5043              		.thumb_func
 5044              		.fpu softvfp
 5046              	naveg_ui_status:
 5047              		@ args = 0, pretend = 0, frame = 0
 5048              		@ frame_needed = 0, uses_anonymous_args = 0
 5049              		@ link register save eliminated.
 5050 2688 014B     		ldr	r3, .L1439
 5051 268a 93F88D00 		ldrb	r0, [r3, #141]	@ zero_extendqisi2
 5052 268e 7047     		bx	lr
 5053              	.L1440:
 5054              		.align	2
 5055              	.L1439:
 5056 2690 00000000 		.word	.LANCHOR0
 5058              		.align	1
 5059              		.p2align 2,,3
 5060              		.global	naveg_tap_tempo_status
 5061              		.syntax unified
 5062              		.thumb
 5063              		.thumb_func
 5064              		.fpu softvfp
 5066              	naveg_tap_tempo_status:
 5067              		@ args = 0, pretend = 0, frame = 0
 5068              		@ frame_needed = 0, uses_anonymous_args = 0
 5069              		@ link register save eliminated.
 5070 2694 044B     		ldr	r3, .L1442
 5071 2696 00EB4000 		add	r0, r0, r0, lsl #1
 5072 269a 03EB8003 		add	r3, r3, r0, lsl #2
 5073 269e 187A     		ldrb	r0, [r3, #8]	@ zero_extendqisi2
 5074 26a0 0030     		adds	r0, r0, #0
 5075 26a2 18BF     		it	ne
 5076 26a4 0120     		movne	r0, #1
 5077 26a6 7047     		bx	lr
 5078              	.L1443:
 5079              		.align	2
 5080              	.L1442:
 5081 26a8 00000000 		.word	g_tap_tempo
 5083              		.align	1
 5084              		.p2align 2,,3
 5085              		.global	naveg_settings_refresh
 5086              		.syntax unified
 5087              		.thumb
 5088              		.thumb_func
 5089              		.fpu softvfp
 5091              	naveg_settings_refresh:
 5092              		@ args = 0, pretend = 0, frame = 0
 5093              		@ frame_needed = 0, uses_anonymous_args = 0
 5094              		@ link register save eliminated.
 5095 26ac 034B     		ldr	r3, .L1447
 5096 26ae 10B9     		cbnz	r0, .L1446
 5097 26b0 D86B     		ldr	r0, [r3, #60]
 5098 26b2 FFF7FEBF 		b	screen_system_menu
 5099              	.L1446:
 5100 26b6 986B     		ldr	r0, [r3, #56]
 5101 26b8 FFF7FEBF 		b	screen_system_menu
 5102              	.L1448:
 5103              		.align	2
 5104              	.L1447:
 5105 26bc 00000000 		.word	.LANCHOR0
 5107              		.align	1
 5108              		.p2align 2,,3
 5109              		.global	naveg_menu_refresh
 5110              		.syntax unified
 5111              		.thumb
 5112              		.thumb_func
 5113              		.fpu softvfp
 5115              	naveg_menu_refresh:
 5116              		@ args = 0, pretend = 0, frame = 0
 5117              		@ frame_needed = 0, uses_anonymous_args = 0
 5118 26c0 70B5     		push	{r4, r5, r6, lr}
 5119 26c2 0646     		mov	r6, r0
 5120 26c4 0E4D     		ldr	r5, .L1464
 5121 26c6 88B1     		cbz	r0, .L1450
 5122 26c8 AB6F     		ldr	r3, [r5, #120]
 5123 26ca 9C68     		ldr	r4, [r3, #8]
 5124 26cc 4CB1     		cbz	r4, .L1455
 5125              	.L1454:
 5126 26ce 2068     		ldr	r0, [r4]
 5127 26d0 4368     		ldr	r3, [r0, #4]
 5128 26d2 DB68     		ldr	r3, [r3, #12]
 5129 26d4 0BB1     		cbz	r3, .L1453
 5130 26d6 0321     		movs	r1, #3
 5131 26d8 9847     		blx	r3
 5132              	.L1453:
 5133 26da 6469     		ldr	r4, [r4, #20]
 5134 26dc 002C     		cmp	r4, #0
 5135 26de F6D1     		bne	.L1454
 5136 26e0 4EB1     		cbz	r6, .L1452
 5137              	.L1455:
 5138 26e2 A86B     		ldr	r0, [r5, #56]
 5139 26e4 BDE87040 		pop	{r4, r5, r6, lr}
 5140 26e8 FFF7FEBF 		b	screen_system_menu
 5141              	.L1450:
 5142 26ec D5F89030 		ldr	r3, [r5, #144]
 5143 26f0 9C68     		ldr	r4, [r3, #8]
 5144 26f2 002C     		cmp	r4, #0
 5145 26f4 EBD1     		bne	.L1454
 5146              	.L1452:
 5147 26f6 E86B     		ldr	r0, [r5, #60]
 5148 26f8 BDE87040 		pop	{r4, r5, r6, lr}
 5149 26fc FFF7FEBF 		b	screen_system_menu
 5150              	.L1465:
 5151              		.align	2
 5152              	.L1464:
 5153 2700 00000000 		.word	.LANCHOR0
 5155              		.align	1
 5156              		.p2align 2,,3
 5157              		.global	naveg_update_gain
 5158              		.syntax unified
 5159              		.thumb
 5160              		.thumb_func
 5161              		.fpu softvfp
 5163              	naveg_update_gain:
 5164              		@ args = 0, pretend = 0, frame = 8
 5165              		@ frame_needed = 0, uses_anonymous_args = 0
 5166 2704 2DE9F04F 		push	{r4, r5, r6, r7, r8, r9, r10, fp, lr}
 5167 2708 2B4B     		ldr	r3, .L1481
 5168 270a 83B0     		sub	sp, sp, #12
 5169 270c 0028     		cmp	r0, #0
 5170 270e 50D0     		beq	.L1467
 5171 2710 9B6F     		ldr	r3, [r3, #120]
 5172              	.L1468:
 5173 2712 9C68     		ldr	r4, [r3, #8]
 5174 2714 4CB1     		cbz	r4, .L1466
 5175 2716 9146     		mov	r9, r2
 5176 2718 8EB2     		uxth	r6, r1
 5177              	.L1474:
 5178 271a 2568     		ldr	r5, [r4]
 5179 271c 6B68     		ldr	r3, [r5, #4]
 5180 271e DB88     		ldrh	r3, [r3, #6]
 5181 2720 B342     		cmp	r3, r6
 5182 2722 05D0     		beq	.L1480
 5183              	.L1470:
 5184 2724 6469     		ldr	r4, [r4, #20]
 5185 2726 002C     		cmp	r4, #0
 5186 2728 F7D1     		bne	.L1474
 5187              	.L1466:
 5188 272a 03B0     		add	sp, sp, #12
 5189              		@ sp needed
 5190 272c BDE8F08F 		pop	{r4, r5, r6, r7, r8, r9, r10, fp, pc}
 5191              	.L1480:
 5192 2730 4846     		mov	r0, r9
 5193 2732 FFF7FEFF 		bl	__aeabi_f2iz
 5194 2736 0822     		movs	r2, #8
 5195 2738 0123     		movs	r3, #1
 5196 273a A883     		strh	r0, [r5, #28]	@ movhi
 5197 273c 6946     		mov	r1, sp
 5198 273e 4846     		mov	r0, r9
 5199 2740 FFF7FEFF 		bl	float_to_str
 5200 2744 D5E90003 		ldrd	r0, r3, [r5]
 5201 2748 1968     		ldr	r1, [r3]
 5202 274a FFF7FEFF 		bl	strcpy
 5203 274e 6846     		mov	r0, sp
 5204 2750 FFF7FEFF 		bl	strlen
 5205 2754 D5F800B0 		ldr	fp, [r5]
 5206 2758 0746     		mov	r7, r0
 5207 275a 5846     		mov	r0, fp
 5208 275c FFF7FEFF 		bl	strlen
 5209 2760 FFB2     		uxtb	r7, r7
 5210 2762 C7F11D07 		rsb	r7, r7, #29
 5211 2766 C3B2     		uxtb	r3, r0
 5212 2768 FF1A     		subs	r7, r7, r3
 5213 276a 002F     		cmp	r7, #0
 5214 276c 12DD     		ble	.L1471
 5215 276e 134B     		ldr	r3, .L1481+4
 5216 2770 4FF0000A 		mov	r10, #0
 5217 2774 B3F80080 		ldrh	r8, [r3]	@ unaligned
 5218 2778 02E0     		b	.L1473
 5219              	.L1472:
 5220 277a 5846     		mov	r0, fp
 5221 277c FFF7FEFF 		bl	strlen
 5222              	.L1473:
 5223 2780 0AF10103 		add	r3, r10, #1
 5224 2784 5FFA83FA 		uxtb	r10, r3
 5225 2788 2BF80080 		strh	r8, [fp, r0]	@ unaligned
 5226 278c BA45     		cmp	r10, r7
 5227 278e D5F800B0 		ldr	fp, [r5]
 5228 2792 F2DB     		blt	.L1472
 5229              	.L1471:
 5230 2794 6946     		mov	r1, sp
 5231 2796 5846     		mov	r0, fp
 5232 2798 FFF7FEFF 		bl	strcat
 5233 279c 2D68     		ldr	r5, [r5]
 5234 279e 2846     		mov	r0, r5
 5235 27a0 FFF7FEFF 		bl	strlen
 5236 27a4 064B     		ldr	r3, .L1481+8
 5237 27a6 1A88     		ldrh	r2, [r3]	@ unaligned
 5238 27a8 9B78     		ldrb	r3, [r3, #2]	@ zero_extendqisi2
 5239 27aa 2A52     		strh	r2, [r5, r0]	@ unaligned
 5240 27ac 0544     		add	r5, r5, r0
 5241 27ae AB70     		strb	r3, [r5, #2]
 5242 27b0 B8E7     		b	.L1470
 5243              	.L1467:
 5244 27b2 D3F89030 		ldr	r3, [r3, #144]
 5245 27b6 ACE7     		b	.L1468
 5246              	.L1482:
 5247              		.align	2
 5248              	.L1481:
 5249 27b8 00000000 		.word	.LANCHOR0
 5250 27bc 08010000 		.word	.LC26
 5251 27c0 0C010000 		.word	.LC27
 5253              		.align	1
 5254              		.p2align 2,,3
 5255              		.global	naveg_bypass_refresh
 5256              		.syntax unified
 5257              		.thumb
 5258              		.thumb_func
 5259              		.fpu softvfp
 5261              	naveg_bypass_refresh:
 5262              		@ args = 0, pretend = 0, frame = 24
 5263              		@ frame_needed = 0, uses_anonymous_args = 0
 5264 27c4 3E4B     		ldr	r3, .L1516
 5265 27c6 2DE9F04F 		push	{r4, r5, r6, r7, r8, r9, r10, fp, lr}
 5266 27ca 9B6F     		ldr	r3, [r3, #120]
 5267 27cc 87B0     		sub	sp, sp, #28
 5268 27ce 9F68     		ldr	r7, [r3, #8]
 5269 27d0 002F     		cmp	r7, #0
 5270 27d2 42D0     		beq	.L1484
 5271 27d4 CDE90221 		strd	r2, r1, [sp, #8]
 5272 27d8 DFF8F880 		ldr	r8, .L1516+20
 5273 27dc DFF8F8A0 		ldr	r10, .L1516+24
 5274 27e0 0190     		str	r0, [sp, #4]
 5275              	.L1499:
 5276 27e2 3C68     		ldr	r4, [r7]
 5277 27e4 6268     		ldr	r2, [r4, #4]
 5278 27e6 D388     		ldrh	r3, [r2, #6]
 5279 27e8 AB2B     		cmp	r3, #171
 5280 27ea 4AD0     		beq	.L1512
 5281 27ec AC2B     		cmp	r3, #172
 5282 27ee 4BD0     		beq	.L1513
 5283 27f0 AD2B     		cmp	r3, #173
 5284 27f2 4CD0     		beq	.L1514
 5285              	.L1486:
 5286 27f4 1168     		ldr	r1, [r2]
 5287 27f6 2068     		ldr	r0, [r4]
 5288 27f8 FFF7FEFF 		bl	strcpy
 5289 27fc D4F800B0 		ldr	fp, [r4]
 5290 2800 5846     		mov	r0, fp
 5291 2802 FFF7FEFF 		bl	strlen
 5292 2806 C5B2     		uxtb	r5, r0
 5293 2808 C5F11C05 		rsb	r5, r5, #28
 5294 280c 002D     		cmp	r5, #0
 5295 280e 11DD     		ble	.L1489
 5296 2810 4FF00009 		mov	r9, #0
 5297 2814 B8F80060 		ldrh	r6, [r8]	@ unaligned
 5298 2818 02E0     		b	.L1491
 5299              	.L1490:
 5300 281a 5846     		mov	r0, fp
 5301 281c FFF7FEFF 		bl	strlen
 5302              	.L1491:
 5303 2820 09F10109 		add	r9, r9, #1
 5304 2824 5FFA89F9 		uxtb	r9, r9
 5305 2828 2BF80060 		strh	r6, [fp, r0]	@ unaligned
 5306 282c A945     		cmp	r9, r5
 5307 282e D4F800B0 		ldr	fp, [r4]
 5308 2832 F2DB     		blt	.L1490
 5309              	.L1489:
 5310 2834 6368     		ldr	r3, [r4, #4]
 5311 2836 DB88     		ldrh	r3, [r3, #6]
 5312 2838 AE2B     		cmp	r3, #174
 5313 283a 15D0     		beq	.L1515
 5314 283c B4F91C30 		ldrsh	r3, [r4, #28]
 5315 2840 204C     		ldr	r4, .L1516+4
 5316 2842 5846     		mov	r0, fp
 5317 2844 002B     		cmp	r3, #0
 5318 2846 08BF     		it	eq
 5319 2848 5446     		moveq	r4, r10
 5320 284a FFF7FEFF 		bl	strlen
 5321 284e 2368     		ldr	r3, [r4]
 5322 2850 4BF80030 		str	r3, [fp, r0]	@ unaligned
 5323              	.L1497:
 5324 2854 7F69     		ldr	r7, [r7, #20]
 5325 2856 002F     		cmp	r7, #0
 5326 2858 C3D1     		bne	.L1499
 5327              	.L1484:
 5328 285a 194B     		ldr	r3, .L1516
 5329 285c 986B     		ldr	r0, [r3, #56]
 5330 285e 07B0     		add	sp, sp, #28
 5331              		@ sp needed
 5332 2860 BDE8F04F 		pop	{r4, r5, r6, r7, r8, r9, r10, fp, lr}
 5333 2864 FFF7FEBF 		b	screen_system_menu
 5334              	.L1515:
 5335 2868 029B     		ldr	r3, [sp, #8]
 5336 286a 012B     		cmp	r3, #1
 5337 286c 20D0     		beq	.L1494
 5338 286e 18D3     		bcc	.L1495
 5339 2870 022B     		cmp	r3, #2
 5340 2872 01D1     		bne	.L1493
 5341 2874 144B     		ldr	r3, .L1516+8
 5342 2876 0593     		str	r3, [sp, #20]
 5343              	.L1493:
 5344 2878 5846     		mov	r0, fp
 5345 287a 05A9     		add	r1, sp, #20
 5346 287c FFF7FEFF 		bl	strcat
 5347 2880 E8E7     		b	.L1497
 5348              	.L1512:
 5349 2882 019B     		ldr	r3, [sp, #4]
 5350 2884 A383     		strh	r3, [r4, #28]	@ movhi
 5351 2886 B5E7     		b	.L1486
 5352              	.L1513:
 5353 2888 039B     		ldr	r3, [sp, #12]
 5354 288a A383     		strh	r3, [r4, #28]	@ movhi
 5355 288c B2E7     		b	.L1486
 5356              	.L1514:
 5357 288e 019B     		ldr	r3, [sp, #4]
 5358 2890 23B1     		cbz	r3, .L1488
 5359 2892 039B     		ldr	r3, [sp, #12]
 5360 2894 13B1     		cbz	r3, .L1488
 5361 2896 0123     		movs	r3, #1
 5362 2898 A383     		strh	r3, [r4, #28]	@ movhi
 5363 289a ABE7     		b	.L1486
 5364              	.L1488:
 5365 289c 0023     		movs	r3, #0
 5366 289e A383     		strh	r3, [r4, #28]	@ movhi
 5367 28a0 A8E7     		b	.L1486
 5368              	.L1495:
 5369 28a2 0A4B     		ldr	r3, .L1516+12
 5370 28a4 5846     		mov	r0, fp
 5371 28a6 05A9     		add	r1, sp, #20
 5372 28a8 0593     		str	r3, [sp, #20]
 5373 28aa FFF7FEFF 		bl	strcat
 5374 28ae D1E7     		b	.L1497
 5375              	.L1494:
 5376 28b0 074B     		ldr	r3, .L1516+16
 5377 28b2 5846     		mov	r0, fp
 5378 28b4 05A9     		add	r1, sp, #20
 5379 28b6 0593     		str	r3, [sp, #20]
 5380 28b8 FFF7FEFF 		bl	strcat
 5381 28bc CAE7     		b	.L1497
 5382              	.L1517:
 5383 28be 00BF     		.align	2
 5384              	.L1516:
 5385 28c0 00000000 		.word	.LANCHOR0
 5386 28c4 10010000 		.word	.LC28
 5387 28c8 31263200 		.word	3286577
 5388 28cc 20203100 		.word	3219488
 5389 28d0 20203200 		.word	3285024
 5390 28d4 08010000 		.word	.LC26
 5391 28d8 14010000 		.word	.LC29
 5393              		.comm	g_tool,10,4
 5394              		.comm	g_tap_tempo,84,4
 5395              		.section	.rodata
 5396              		.align	2
 5397              		.set	.LANCHOR2,. + 0
 5398              	.LC13:
 5399 0000 18010000 		.word	.LC0
 5400 0004 02       		.byte	2
 5401 0005 00       		.space	1
 5402 0006 FFFF     		.short	-1
 5403 0008 FFFF     		.short	-1
 5404 000a 0000     		.space	2
 5405 000c 00000000 		.word	0
 5406 0010 00       		.byte	0
 5407 0011 000000   		.space	3
 5410              	g_menu_popups:
 5411 0014 8200     		.short	130
 5412 0016 0000     		.space	2
 5413 0018 20010000 		.word	.LC30
 5414 001c A4000000 		.word	.LC20
 5415 0020 9600     		.short	150
 5416 0022 0000     		.space	2
 5417 0024 2C010000 		.word	.LC31
 5418 0028 A4000000 		.word	.LC20
 5419 002c 8400     		.short	132
 5420 002e 0000     		.space	2
 5421 0030 34010000 		.word	.LC32
 5422 0034 40010000 		.word	.LC33
 5423 0038 8500     		.short	133
 5424 003a 0000     		.space	2
 5425 003c 8C010000 		.word	.LC34
 5426 0040 98010000 		.word	.LC35
 5427 0044 8E00     		.short	142
 5428 0046 0000     		.space	2
 5429 0048 E8010000 		.word	.LC36
 5430 004c FC010000 		.word	.LC37
 5431 0050 6400     		.short	100
 5432 0052 0000     		.space	2
 5433 0054 34020000 		.word	.LC38
 5434 0058 4C020000 		.word	.LC39
 5435 005c BF00     		.short	191
 5436 005e 0000     		.space	2
 5437 0060 B4020000 		.word	.LC40
 5438 0064 C8020000 		.word	.LC41
 5439 0068 C000     		.short	192
 5440 006a 0000     		.space	2
 5441 006c 48030000 		.word	.LC42
 5442 0070 C8020000 		.word	.LC41
 5443 0074 C100     		.short	193
 5444 0076 0000     		.space	2
 5445 0078 5C030000 		.word	.LC43
 5446 007c C8020000 		.word	.LC41
 5447 0080 C200     		.short	194
 5448 0082 0000     		.space	2
 5449 0084 70030000 		.word	.LC44
 5450 0088 C8020000 		.word	.LC41
 5451 008c C300     		.short	195
 5452 008e 0000     		.space	2
 5453 0090 84030000 		.word	.LC45
 5454 0094 9C030000 		.word	.LC46
 5455 0098 C400     		.short	196
 5456 009a 0000     		.space	2
 5457 009c C0030000 		.word	.LC47
 5458 00a0 D8030000 		.word	.LC48
 5459 00a4 C500     		.short	197
 5460 00a6 0000     		.space	2
 5461 00a8 20040000 		.word	.LC49
 5462 00ac D8030000 		.word	.LC48
 5463 00b0 C600     		.short	198
 5464 00b2 0000     		.space	2
 5465 00b4 38040000 		.word	.LC50
 5466 00b8 D8030000 		.word	.LC48
 5467 00bc C700     		.short	199
 5468 00be 0000     		.space	2
 5469 00c0 50040000 		.word	.LC51
 5470 00c4 D8030000 		.word	.LC48
 5471 00c8 0C00     		.short	12
 5472 00ca 0000     		.space	2
 5473 00cc 68040000 		.word	.LC52
 5474 00d0 7C040000 		.word	.LC53
 5475 00d4 0D00     		.short	13
 5476 00d6 0000     		.space	2
 5477 00d8 EC040000 		.word	.LC54
 5478 00dc 7C040000 		.word	.LC53
 5479 00e0 1600     		.short	22
 5480 00e2 0000     		.space	2
 5481 00e4 FC040000 		.word	.LC55
 5482 00e8 10050000 		.word	.LC56
 5483 00ec 1700     		.short	23
 5484 00ee 0000     		.space	2
 5485 00f0 80050000 		.word	.LC57
 5486 00f4 10050000 		.word	.LC56
 5487 00f8 FFFF     		.short	-1
 5488 00fa 0000     		.space	2
 5489 00fc 00000000 		.word	0
 5490 0100 00000000 		.word	0
 5491              		.data
 5492              		.align	2
 5493              		.set	.LANCHOR1,. + 0
 5496              	g_menu_desc:
 5497 0000 94050000 		.word	.LC58
 5498 0004 02       		.byte	2
 5499 0005 00       		.space	1
 5500 0006 0000     		.short	0
 5501 0008 FFFF     		.short	-1
 5502 000a 0000     		.space	2
 5503 000c 00000000 		.word	0
 5504 0010 00       		.byte	0
 5505 0011 000000   		.space	3
 5506 0014 68000000 		.word	.LC15
 5507 0018 00       		.byte	0
 5508 0019 00       		.space	1
 5509 001a 9600     		.short	150
 5510 001c 0000     		.short	0
 5511 001e 0000     		.space	2
 5512 0020 00000000 		.word	system_banks_cb
 5513 0024 00       		.byte	0
 5514 0025 000000   		.space	3
 5515 0028 A0050000 		.word	.LC59
 5516 002c 02       		.byte	2
 5517 002d 00       		.space	1
 5518 002e 8200     		.short	130
 5519 0030 0000     		.short	0
 5520 0032 0000     		.space	2
 5521 0034 00000000 		.word	0
 5522 0038 00       		.byte	0
 5523 0039 000000   		.space	3
 5524 003c B4050000 		.word	.LC60
 5525 0040 04       		.byte	4
 5526 0041 00       		.space	1
 5527 0042 8400     		.short	132
 5528 0044 8200     		.short	130
 5529 0046 0000     		.space	2
 5530 0048 00000000 		.word	system_pedalboard_cb
 5531 004c 00       		.byte	0
 5532 004d 000000   		.space	3
 5533 0050 C0050000 		.word	.LC61
 5534 0054 04       		.byte	4
 5535 0055 00       		.space	1
 5536 0056 8500     		.short	133
 5537 0058 8200     		.short	130
 5538 005a 0000     		.space	2
 5539 005c 00000000 		.word	system_pedalboard_cb
 5540 0060 00       		.byte	0
 5541 0061 000000   		.space	3
 5542 0064 CC050000 		.word	.LC62
 5543 0068 02       		.byte	2
 5544 0069 00       		.space	1
 5545 006a AA00     		.short	170
 5546 006c 0000     		.short	0
 5547 006e 0000     		.space	2
 5548 0070 00000000 		.word	system_quick_bypass_cb
 5549 0074 00       		.byte	0
 5550 0075 000000   		.space	3
 5551 0078 DC050000 		.word	.LC63
 5552 007c 06       		.byte	6
 5553 007d 00       		.space	1
 5554 007e AB00     		.short	171
 5555 0080 AA00     		.short	170
 5556 0082 0000     		.space	2
 5557 0084 00000000 		.word	system_bypass_cb
 5558 0088 00       		.byte	0
 5559 0089 000000   		.space	3
 5560 008c E8050000 		.word	.LC64
 5561 0090 06       		.byte	6
 5562 0091 00       		.space	1
 5563 0092 AC00     		.short	172
 5564 0094 AA00     		.short	170
 5565 0096 0000     		.space	2
 5566 0098 00000000 		.word	system_bypass_cb
 5567 009c 00       		.byte	0
 5568 009d 000000   		.space	3
 5569 00a0 F4050000 		.word	.LC65
 5570 00a4 06       		.byte	6
 5571 00a5 00       		.space	1
 5572 00a6 AD00     		.short	173
 5573 00a8 AA00     		.short	170
 5574 00aa 0000     		.space	2
 5575 00ac 00000000 		.word	system_bypass_cb
 5576 00b0 00       		.byte	0
 5577 00b1 000000   		.space	3
 5578 00b4 04060000 		.word	.LC66
 5579 00b8 06       		.byte	6
 5580 00b9 00       		.space	1
 5581 00ba AE00     		.short	174
 5582 00bc AA00     		.short	170
 5583 00be 0000     		.space	2
 5584 00c0 00000000 		.word	system_bypass_cb
 5585 00c4 00       		.byte	0
 5586 00c5 000000   		.space	3
 5587 00c8 1C060000 		.word	.LC67
 5588 00cc 02       		.byte	2
 5589 00cd 00       		.space	1
 5590 00ce B400     		.short	180
 5591 00d0 0000     		.short	0
 5592 00d2 0000     		.space	2
 5593 00d4 00000000 		.word	system_play_cb
 5594 00d8 00       		.byte	0
 5595 00d9 000000   		.space	3
 5596 00dc 30060000 		.word	.LC68
 5597 00e0 0A       		.byte	10
 5598 00e1 00       		.space	1
 5599 00e2 B500     		.short	181
 5600 00e4 B400     		.short	180
 5601 00e6 0000     		.space	2
 5602 00e8 00000000 		.word	system_tempo_cb
 5603 00ec 00       		.byte	0
 5604 00ed 000000   		.space	3
 5605 00f0 38060000 		.word	.LC69
 5606 00f4 0A       		.byte	10
 5607 00f5 00       		.space	1
 5608 00f6 B600     		.short	182
 5609 00f8 B400     		.short	180
 5610 00fa 0000     		.space	2
 5611 00fc 00000000 		.word	system_bpb_cb
 5612 0100 00       		.byte	0
 5613 0101 000000   		.space	3
 5614 0104 48060000 		.word	.LC70
 5615 0108 00       		.byte	0
 5616 0109 00       		.space	1
 5617 010a 1E00     		.short	30
 5618 010c 0000     		.short	0
 5619 010e 0000     		.space	2
 5620 0110 00000000 		.word	system_tuner_cb
 5621 0114 00       		.byte	0
 5622 0115 000000   		.space	3
 5623 0118 50060000 		.word	.LC71
 5624 011c 02       		.byte	2
 5625 011d 00       		.space	1
 5626 011e BE00     		.short	190
 5627 0120 0000     		.short	0
 5628 0122 0000     		.space	2
 5629 0124 00000000 		.word	0
 5630 0128 00       		.byte	0
 5631 0129 000000   		.space	3
 5632 012c 60060000 		.word	.LC72
 5633 0130 06       		.byte	6
 5634 0131 00       		.space	1
 5635 0132 BF00     		.short	191
 5636 0134 BE00     		.short	190
 5637 0136 0000     		.space	2
 5638 0138 00000000 		.word	system_load_pro_cb
 5639 013c 00       		.byte	0
 5640 013d 000000   		.space	3
 5641 0140 70060000 		.word	.LC73
 5642 0144 06       		.byte	6
 5643 0145 00       		.space	1
 5644 0146 C000     		.short	192
 5645 0148 BE00     		.short	190
 5646 014a 0000     		.space	2
 5647 014c 00000000 		.word	system_load_pro_cb
 5648 0150 00       		.byte	0
 5649 0151 000000   		.space	3
 5650 0154 80060000 		.word	.LC74
 5651 0158 06       		.byte	6
 5652 0159 00       		.space	1
 5653 015a C100     		.short	193
 5654 015c BE00     		.short	190
 5655 015e 0000     		.space	2
 5656 0160 00000000 		.word	system_load_pro_cb
 5657 0164 00       		.byte	0
 5658 0165 000000   		.space	3
 5659 0168 90060000 		.word	.LC75
 5660 016c 06       		.byte	6
 5661 016d 00       		.space	1
 5662 016e C200     		.short	194
 5663 0170 BE00     		.short	190
 5664 0172 0000     		.space	2
 5665 0174 00000000 		.word	system_load_pro_cb
 5666 0178 00       		.byte	0
 5667 0179 000000   		.space	3
 5668 017c A0060000 		.word	.LC76
 5669 0180 06       		.byte	6
 5670 0181 00       		.space	1
 5671 0182 C300     		.short	195
 5672 0184 BE00     		.short	190
 5673 0186 0000     		.space	2
 5674 0188 00000000 		.word	system_save_pro_cb
 5675 018c 00       		.byte	0
 5676 018d 000000   		.space	3
 5677 0190 BC060000 		.word	.LC77
 5678 0194 02       		.byte	2
 5679 0195 00       		.space	1
 5680 0196 2800     		.short	40
 5681 0198 0000     		.short	0
 5682 019a 0000     		.space	2
 5683 019c 00000000 		.word	0
 5684 01a0 00       		.byte	0
 5685 01a1 000000   		.space	3
 5686 01a4 C4060000 		.word	.LC78
 5687 01a8 02       		.byte	2
 5688 01a9 00       		.space	1
 5689 01aa 0A00     		.short	10
 5690 01ac 2800     		.short	40
 5691 01ae 0000     		.space	2
 5692 01b0 00000000 		.word	0
 5693 01b4 00       		.byte	0
 5694 01b5 000000   		.space	3
 5695 01b8 CC060000 		.word	.LC79
 5696 01bc 01       		.byte	1
 5697 01bd 00       		.space	1
 5698 01be 0B00     		.short	11
 5699 01c0 0A00     		.short	10
 5700 01c2 0000     		.space	2
 5701 01c4 00000000 		.word	0
 5702 01c8 00       		.byte	0
 5703 01c9 000000   		.space	3
 5704 01cc E0060000 		.word	.LC80
 5705 01d0 06       		.byte	6
 5706 01d1 00       		.space	1
 5707 01d2 0B00     		.short	11
 5708 01d4 0A00     		.short	10
 5709 01d6 0000     		.space	2
 5710 01d8 00000000 		.word	system_sl_in_cb
 5711 01dc 00       		.byte	0
 5712 01dd 000000   		.space	3
 5713 01e0 EC060000 		.word	.LC81
 5714 01e4 09       		.byte	9
 5715 01e5 00       		.space	1
 5716 01e6 6E00     		.short	110
 5717 01e8 0A00     		.short	10
 5718 01ea 0000     		.space	2
 5719 01ec 00000000 		.word	system_volume_cb
 5720 01f0 00       		.byte	0
 5721 01f1 000000   		.space	3
 5722 01f4 FC060000 		.word	.LC82
 5723 01f8 09       		.byte	9
 5724 01f9 00       		.space	1
 5725 01fa 6F00     		.short	111
 5726 01fc 0A00     		.short	10
 5727 01fe 0000     		.space	2
 5728 0200 00000000 		.word	system_volume_cb
 5729 0204 00       		.byte	0
 5730 0205 000000   		.space	3
 5731 0208 0C070000 		.word	.LC83
 5732 020c 06       		.byte	6
 5733 020d 00       		.space	1
 5734 020e 0C00     		.short	12
 5735 0210 0A00     		.short	10
 5736 0212 0000     		.space	2
 5737 0214 00000000 		.word	system_cv_exp_cb
 5738 0218 00       		.byte	0
 5739 0219 000000   		.space	3
 5740 021c 1C070000 		.word	.LC84
 5741 0220 06       		.byte	6
 5742 0221 00       		.space	1
 5743 0222 0E00     		.short	14
 5744 0224 0A00     		.short	10
 5745 0226 0000     		.space	2
 5746 0228 00000000 		.word	system_cv_range_cb
 5747 022c 00       		.byte	0
 5748 022d 000000   		.space	3
 5749 0230 28070000 		.word	.LC85
 5750 0234 06       		.byte	6
 5751 0235 00       		.space	1
 5752 0236 0F00     		.short	15
 5753 0238 0A00     		.short	10
 5754 023a 0000     		.space	2
 5755 023c 00000000 		.word	system_exp_mode_cb
 5756 0240 00       		.byte	0
 5757 0241 000000   		.space	3
 5758 0244 34070000 		.word	.LC86
 5759 0248 02       		.byte	2
 5760 0249 00       		.space	1
 5761 024a 1400     		.short	20
 5762 024c 2800     		.short	40
 5763 024e 0000     		.space	2
 5764 0250 00000000 		.word	0
 5765 0254 00       		.byte	0
 5766 0255 000000   		.space	3
 5767 0258 CC060000 		.word	.LC79
 5768 025c 01       		.byte	1
 5769 025d 00       		.space	1
 5770 025e 1500     		.short	21
 5771 0260 1400     		.short	20
 5772 0262 0000     		.space	2
 5773 0264 00000000 		.word	0
 5774 0268 00       		.byte	0
 5775 0269 000000   		.space	3
 5776 026c 3C070000 		.word	.LC87
 5777 0270 06       		.byte	6
 5778 0271 00       		.space	1
 5779 0272 1500     		.short	21
 5780 0274 1400     		.short	20
 5781 0276 0000     		.space	2
 5782 0278 00000000 		.word	system_sl_out_cb
 5783 027c 00       		.byte	0
 5784 027d 000000   		.space	3
 5785 0280 4C070000 		.word	.LC88
 5786 0284 09       		.byte	9
 5787 0285 00       		.space	1
 5788 0286 7000     		.short	112
 5789 0288 1400     		.short	20
 5790 028a 0000     		.space	2
 5791 028c 00000000 		.word	system_volume_cb
 5792 0290 00       		.byte	0
 5793 0291 000000   		.space	3
 5794 0294 5C070000 		.word	.LC89
 5795 0298 09       		.byte	9
 5796 0299 00       		.space	1
 5797 029a 7100     		.short	113
 5798 029c 1400     		.short	20
 5799 029e 0000     		.space	2
 5800 02a0 00000000 		.word	system_volume_cb
 5801 02a4 00       		.byte	0
 5802 02a5 000000   		.space	3
 5803 02a8 6C070000 		.word	.LC90
 5804 02ac 06       		.byte	6
 5805 02ad 00       		.space	1
 5806 02ae 1800     		.short	24
 5807 02b0 1400     		.short	20
 5808 02b2 0000     		.space	2
 5809 02b4 00000000 		.word	system_master_vol_link_cb
 5810 02b8 00       		.byte	0
 5811 02b9 000000   		.space	3
 5812 02bc 80070000 		.word	.LC91
 5813 02c0 06       		.byte	6
 5814 02c1 00       		.space	1
 5815 02c2 1600     		.short	22
 5816 02c4 1400     		.short	20
 5817 02c6 0000     		.space	2
 5818 02c8 00000000 		.word	system_cv_hp_cb
 5819 02cc 00       		.byte	0
 5820 02cd 000000   		.space	3
 5821 02d0 90070000 		.word	.LC92
 5822 02d4 09       		.byte	9
 5823 02d5 00       		.space	1
 5824 02d6 7200     		.short	114
 5825 02d8 1400     		.short	20
 5826 02da 0000     		.space	2
 5827 02dc 00000000 		.word	system_volume_cb
 5828 02e0 00       		.byte	0
 5829 02e1 000000   		.space	3
 5830 02e4 A4070000 		.word	.LC93
 5831 02e8 02       		.byte	2
 5832 02e9 00       		.space	1
 5833 02ea C800     		.short	200
 5834 02ec 2800     		.short	40
 5835 02ee 0000     		.space	2
 5836 02f0 00000000 		.word	0
 5837 02f4 00       		.byte	0
 5838 02f5 000000   		.space	3
 5839 02f8 CC060000 		.word	.LC79
 5840 02fc 01       		.byte	1
 5841 02fd 00       		.space	1
 5842 02fe C900     		.short	201
 5843 0300 C800     		.short	200
 5844 0302 0000     		.space	2
 5845 0304 00000000 		.word	0
 5846 0308 00       		.byte	0
 5847 0309 000000   		.space	3
 5848 030c B0070000 		.word	.LC94
 5849 0310 06       		.byte	6
 5850 0311 00       		.space	1
 5851 0312 CA00     		.short	202
 5852 0314 C800     		.short	200
 5853 0316 0000     		.space	2
 5854 0318 00000000 		.word	system_midi_src_cb
 5855 031c 00       		.byte	0
 5856 031d 000000   		.space	3
 5857 0320 C0070000 		.word	.LC95
 5858 0324 06       		.byte	6
 5859 0325 00       		.space	1
 5860 0326 CB00     		.short	203
 5861 0328 C800     		.short	200
 5862 032a 0000     		.space	2
 5863 032c 00000000 		.word	system_midi_send_cb
 5864 0330 00       		.byte	0
 5865 0331 000000   		.space	3
 5866 0334 D0070000 		.word	.LC96
 5867 0338 0A       		.byte	10
 5868 0339 00       		.space	1
 5869 033a CC00     		.short	204
 5870 033c C800     		.short	200
 5871 033e 0000     		.space	2
 5872 0340 00000000 		.word	system_ss_prog_change_cb
 5873 0344 00       		.byte	0
 5874 0345 000000   		.space	3
 5875 0348 E8070000 		.word	.LC97
 5876 034c 0A       		.byte	10
 5877 034d 00       		.space	1
 5878 034e CD00     		.short	205
 5879 0350 C800     		.short	200
 5880 0352 0000     		.space	2
 5881 0354 00000000 		.word	system_pb_prog_change_cb
 5882 0358 00       		.byte	0
 5883 0359 000000   		.space	3
 5884 035c 00080000 		.word	.LC98
 5885 0360 02       		.byte	2
 5886 0361 00       		.space	1
 5887 0362 8C00     		.short	140
 5888 0364 2800     		.short	40
 5889 0366 0000     		.space	2
 5890 0368 00000000 		.word	system_bluetooth_cb
 5891 036c 00       		.byte	0
 5892 036d 000000   		.space	3
 5893 0370 CC060000 		.word	.LC79
 5894 0374 01       		.byte	1
 5895 0375 00       		.space	1
 5896 0376 8D00     		.short	141
 5897 0378 8C00     		.short	140
 5898 037a 0000     		.space	2
 5899 037c 00000000 		.word	0
 5900 0380 00       		.byte	0
 5901 0381 000000   		.space	3
 5902 0384 0C080000 		.word	.LC99
 5903 0388 08       		.byte	8
 5904 0389 00       		.space	1
 5905 038a 8E00     		.short	142
 5906 038c 8C00     		.short	140
 5907 038e 0000     		.space	2
 5908 0390 00000000 		.word	system_bluetooth_cb
 5909 0394 00       		.byte	0
 5910 0395 000000   		.space	3
 5911 0398 20080000 		.word	.LC100
 5912 039c 00       		.byte	0
 5913 039d 00       		.space	1
 5914 039e 8F00     		.short	143
 5915 03a0 8C00     		.short	140
 5916 03a2 0000     		.space	2
 5917 03a4 00000000 		.word	0
 5918 03a8 00       		.byte	0
 5919 03a9 000000   		.space	3
 5920 03ac 28080000 		.word	.LC101
 5921 03b0 00       		.byte	0
 5922 03b1 00       		.space	1
 5923 03b2 9000     		.short	144
 5924 03b4 8C00     		.short	140
 5925 03b6 0000     		.space	2
 5926 03b8 00000000 		.word	0
 5927 03bc 00       		.byte	0
 5928 03bd 000000   		.space	3
 5929 03c0 30080000 		.word	.LC102
 5930 03c4 00       		.byte	0
 5931 03c5 00       		.space	1
 5932 03c6 9100     		.short	145
 5933 03c8 8C00     		.short	140
 5934 03ca 0000     		.space	2
 5935 03cc 00000000 		.word	0
 5936 03d0 00       		.byte	0
 5937 03d1 000000   		.space	3
 5938 03d4 3C080000 		.word	.LC103
 5939 03d8 06       		.byte	6
 5940 03d9 00       		.space	1
 5941 03da A000     		.short	160
 5942 03dc 2800     		.short	40
 5943 03de 0000     		.space	2
 5944 03e0 00000000 		.word	system_display_cb
 5945 03e4 00       		.byte	0
 5946 03e5 000000   		.space	3
 5947 03e8 50080000 		.word	.LC104
 5948 03ec 02       		.byte	2
 5949 03ed 00       		.space	1
 5950 03ee 4600     		.short	70
 5951 03f0 2800     		.short	40
 5952 03f2 0000     		.space	2
 5953 03f4 00000000 		.word	0
 5954 03f8 00       		.byte	0
 5955 03f9 000000   		.space	3
 5956 03fc CC060000 		.word	.LC79
 5957 0400 01       		.byte	1
 5958 0401 00       		.space	1
 5959 0402 4700     		.short	71
 5960 0404 4600     		.short	70
 5961 0406 0000     		.space	2
 5962 0408 00000000 		.word	0
 5963 040c 00       		.byte	0
 5964 040d 000000   		.space	3
 5965 0410 58080000 		.word	.LC105
 5966 0414 02       		.byte	2
 5967 0415 00       		.space	1
 5968 0416 5000     		.short	80
 5969 0418 4600     		.short	70
 5970 041a 0000     		.space	2
 5971 041c 00000000 		.word	system_services_cb
 5972 0420 01       		.byte	1
 5973 0421 000000   		.space	3
 5974 0424 64080000 		.word	.LC106
 5975 0428 01       		.byte	1
 5976 0429 00       		.space	1
 5977 042a 5100     		.short	81
 5978 042c 5000     		.short	80
 5979 042e 0000     		.space	2
 5980 0430 00000000 		.word	0
 5981 0434 00       		.byte	0
 5982 0435 000000   		.space	3
 5983 0438 74080000 		.word	.LC107
 5984 043c 00       		.byte	0
 5985 043d 00       		.space	1
 5986 043e 5200     		.short	82
 5987 0440 5000     		.short	80
 5988 0442 0000     		.space	2
 5989 0444 00000000 		.word	0
 5990 0448 00       		.byte	0
 5991 0449 000000   		.space	3
 5992 044c 7C080000 		.word	.LC108
 5993 0450 00       		.byte	0
 5994 0451 00       		.space	1
 5995 0452 5300     		.short	83
 5996 0454 5000     		.short	80
 5997 0456 0000     		.space	2
 5998 0458 00000000 		.word	0
 5999 045c 00       		.byte	0
 6000 045d 000000   		.space	3
 6001 0460 84080000 		.word	.LC109
 6002 0464 00       		.byte	0
 6003 0465 00       		.space	1
 6004 0466 5400     		.short	84
 6005 0468 5000     		.short	80
 6006 046a 0000     		.space	2
 6007 046c 00000000 		.word	0
 6008 0470 00       		.byte	0
 6009 0471 000000   		.space	3
 6010 0474 8C080000 		.word	.LC110
 6011 0478 00       		.byte	0
 6012 0479 00       		.space	1
 6013 047a 5500     		.short	85
 6014 047c 5000     		.short	80
 6015 047e 0000     		.space	2
 6016 0480 00000000 		.word	0
 6017 0484 00       		.byte	0
 6018 0485 000000   		.space	3
 6019 0488 98080000 		.word	.LC111
 6020 048c 02       		.byte	2
 6021 048d 00       		.space	1
 6022 048e 5A00     		.short	90
 6023 0490 4600     		.short	70
 6024 0492 0000     		.space	2
 6025 0494 00000000 		.word	system_versions_cb
 6026 0498 00       		.byte	0
 6027 0499 000000   		.space	3
 6028 049c 64080000 		.word	.LC106
 6029 04a0 01       		.byte	1
 6030 04a1 00       		.space	1
 6031 04a2 5B00     		.short	91
 6032 04a4 5A00     		.short	90
 6033 04a6 0000     		.space	2
 6034 04a8 00000000 		.word	0
 6035 04ac 00       		.byte	0
 6036 04ad 000000   		.space	3
 6037 04b0 A4080000 		.word	.LC112
 6038 04b4 00       		.byte	0
 6039 04b5 00       		.space	1
 6040 04b6 5C00     		.short	92
 6041 04b8 5A00     		.short	90
 6042 04ba 0000     		.space	2
 6043 04bc 00000000 		.word	system_release_cb
 6044 04c0 00       		.byte	0
 6045 04c1 000000   		.space	3
 6046 04c4 B0080000 		.word	.LC113
 6047 04c8 00       		.byte	0
 6048 04c9 00       		.space	1
 6049 04ca 5D00     		.short	93
 6050 04cc 5A00     		.short	90
 6051 04ce 0000     		.space	2
 6052 04d0 00000000 		.word	0
 6053 04d4 00       		.byte	0
 6054 04d5 000000   		.space	3
 6055 04d8 BC080000 		.word	.LC114
 6056 04dc 00       		.byte	0
 6057 04dd 00       		.space	1
 6058 04de 5E00     		.short	94
 6059 04e0 5A00     		.short	90
 6060 04e2 0000     		.space	2
 6061 04e4 00000000 		.word	0
 6062 04e8 00       		.byte	0
 6063 04e9 000000   		.space	3
 6064 04ec C4080000 		.word	.LC115
 6065 04f0 00       		.byte	0
 6066 04f1 00       		.space	1
 6067 04f2 5F00     		.short	95
 6068 04f4 5A00     		.short	90
 6069 04f6 0000     		.space	2
 6070 04f8 00000000 		.word	0
 6071 04fc 00       		.byte	0
 6072 04fd 000000   		.space	3
 6073 0500 D0080000 		.word	.LC116
 6074 0504 02       		.byte	2
 6075 0505 00       		.space	1
 6076 0506 7800     		.short	120
 6077 0508 4600     		.short	70
 6078 050a 0000     		.space	2
 6079 050c 00000000 		.word	system_device_cb
 6080 0510 00       		.byte	0
 6081 0511 000000   		.space	3
 6082 0514 64080000 		.word	.LC106
 6083 0518 01       		.byte	1
 6084 0519 00       		.space	1
 6085 051a 7900     		.short	121
 6086 051c 7800     		.short	120
 6087 051e 0000     		.space	2
 6088 0520 00000000 		.word	0
 6089 0524 00       		.byte	0
 6090 0525 000000   		.space	3
 6091 0528 D8080000 		.word	.LC117
 6092 052c 00       		.byte	0
 6093 052d 00       		.space	1
 6094 052e 7A00     		.short	122
 6095 0530 7800     		.short	120
 6096 0532 0000     		.space	2
 6097 0534 00000000 		.word	system_tag_cb
 6098 0538 00       		.byte	0
 6099 0539 000000   		.space	3
 6100 053c E8080000 		.word	.LC118
 6101 0540 04       		.byte	4
 6102 0541 00       		.space	1
 6103 0542 6400     		.short	100
 6104 0544 2800     		.short	40
 6105 0546 0000     		.space	2
 6106 0548 00000000 		.word	system_upgrade_cb
 6107 054c 00       		.byte	0
 6108 054d 000000   		.space	3
 6109 0550 00000000 		.word	0
 6110 0554 00       		.byte	0
 6111 0555 00       		.space	1
 6112 0556 FFFF     		.short	-1
 6113 0558 FFFF     		.short	-1
 6114 055a 0000     		.space	2
 6115 055c 00000000 		.word	0
 6116 0560 00       		.byte	0
 6117 0561 000000   		.space	3
 6120              	page.10305:
 6121 0564 01       		.byte	1
 6124              	input.10178:
 6125 0565 01       		.byte	1
 6126 0566 0000     		.space	2
 6129              	desc.10397:
 6130 0568 00000000 		.word	0
 6131 056c 07       		.byte	7
 6132 056d 00       		.space	1
 6133 056e FEFF     		.short	-2
 6134 0570 FEFF     		.short	-2
 6135 0572 0000     		.space	2
 6136 0574 00000000 		.word	0
 6137 0578 00       		.byte	0
 6138 0579 000000   		.space	3
 6139              		.bss
 6140              		.align	2
 6141              		.set	.LANCHOR0,. + 0
 6144              	g_selected_pedalboards:
 6145 0000 00000000 		.space	4
 6148              	g_bank_functions:
 6149 0004 00000000 		.space	8
 6149      00000000 
 6152              	g_current_pedalboard:
 6153 000c 00       		.space	1
 6154 000d 000000   		.space	3
 6157              	g_foots:
 6158 0010 00000000 		.space	28
 6158      00000000 
 6158      00000000 
 6158      00000000 
 6158      00000000 
 6161              	g_naveg_pedalboards:
 6162 002c 00000000 		.space	4
 6165              	g_banks:
 6166 0030 00000000 		.space	4
 6169              	g_current_bank:
 6170 0034 00       		.space	1
 6171 0035 000000   		.space	3
 6174              	g_current_item:
 6175 0038 00000000 		.space	4
 6178              	g_current_main_item:
 6179 003c 00000000 		.space	4
 6182              	g_max_items_list:
 6183 0040 00       		.space	1
 6184 0041 000000   		.space	3
 6187              	master_vol_value:
 6188 0044 00000000 		.space	4
 6191              	g_pots:
 6192 0048 00000000 		.space	32
 6192      00000000 
 6192      00000000 
 6192      00000000 
 6192      00000000 
 6195              	g_encoders:
 6196 0068 00000000 		.space	8
 6196      00000000 
 6199              	g_bp_state:
 6200 0070 00       		.space	1
 6201 0071 000000   		.space	3
 6204              	g_menu:
 6205 0074 00000000 		.space	4
 6208              	g_current_menu:
 6209 0078 00000000 		.space	4
 6212              	g_update_cb:
 6213 007c 00000000 		.space	4
 6216              	g_update_data:
 6217 0080 00000000 		.space	4
 6220              	g_initialized:
 6221 0084 00       		.space	1
 6222 0085 000000   		.space	3
 6225              	g_dialog_sem:
 6226 0088 00000000 		.space	4
 6229              	g_bp_first:
 6230 008c 00       		.space	1
 6233              	g_ui_connected:
 6234 008d 00       		.space	1
 6237              	banks_loaded.10328:
 6238 008e 00       		.space	1
 6239 008f 00       		.space	1
 6242              	g_current_main_menu:
 6243 0090 00000000 		.space	4
 6246              	toggle.10165:
 6247 0094 00       		.space	1
 6248 0095 000000   		.space	3
 6251              	dummy_menu.10396:
 6252 0098 00000000 		.space	4
 6253              		.section	.rodata.str1.4,"aMS",%progbits,1
 6254              		.align	2
 6255              	.LC2:
 6256 0000 4F4E00   		.ascii	"ON\000"
 6257 0003 00       		.space	1
 6258              	.LC3:
 6259 0004 54525545 		.ascii	"TRUE BYPASS\000"
 6259      20425950 
 6259      41535300 
 6260              	.LC4:
 6261 0010 2B00     		.ascii	"+\000"
 6262 0012 0000     		.space	2
 6263              	.LC5:
 6264 0014 2D00     		.ascii	"-\000"
 6265 0016 0000     		.space	2
 6266              	.LC6:
 6267 0018 4F464600 		.ascii	"OFF\000"
 6268              	.LC7:
 6269 001c 6D7300   		.ascii	"ms\000"
 6270 001f 00       		.space	1
 6271              	.LC8:
 6272 0020 7300     		.ascii	"s\000"
 6273 0022 0000     		.space	2
 6274              	.LC9:
 6275 0024 62706D00 		.ascii	"bpm\000"
 6276              	.LC10:
 6277 0028 636F6E74 		.ascii	"control_set %i %f\000"
 6277      726F6C5F 
 6277      73657420 
 6277      25692025 
 6277      6600
 6278 003a 0000     		.space	2
 6279              	.LC11:
 6280 003c 74756E65 		.ascii	"tuner off\000"
 6280      72206F66 
 6280      6600
 6281 0046 0000     		.space	2
 6282              	.LC12:
 6283 0048 70656461 		.ascii	"pedalboard %i %s\000"
 6283      6C626F61 
 6283      72642025 
 6283      69202573 
 6283      00
 6284 0059 000000   		.space	3
 6285              	.LC14:
 6286 005c 6765745F 		.ascii	"get_pb_name\000"
 6286      70625F6E 
 6286      616D6500 
 6287              	.LC15:
 6288 0068 42414E4B 		.ascii	"BANKS\000"
 6288      5300
 6289 006e 0000     		.space	2
 6290              	.LC16:
 6291 0070 74756E65 		.ascii	"tuner_input %i\000"
 6291      725F696E 
 6291      70757420 
 6291      256900
 6292 007f 00       		.space	1
 6293              	.LC17:
 6294 0080 70656461 		.ascii	"pedalboards %s\000"
 6294      6C626F61 
 6294      72647320 
 6294      257300
 6295 008f 00       		.space	1
 6296              	.LC18:
 6297 0090 62616E6B 		.ascii	"banks\000"
 6297      7300
 6298 0096 0000     		.space	2
 6299              	.LC19:
 6300 0098 74756E65 		.ascii	"tuner on\000"
 6300      72206F6E 
 6300      00
 6301 00a1 000000   		.space	3
 6302              	.LC20:
 6303 00a4 546F2061 		.ascii	"To access pedalboard options  please disconnect fro"
 6303      63636573 
 6303      73207065 
 6303      64616C62 
 6303      6F617264 
 6304 00d7 6D207468 		.ascii	"m the graphical interface\000"
 6304      65206772 
 6304      61706869 
 6304      63616C20 
 6304      696E7465 
 6305 00f1 000000   		.space	3
 6306              	.LC21:
 6307 00f4 4100     		.ascii	"A\000"
 6308 00f6 0000     		.space	2
 6309              	.LC22:
 6310 00f8 4200     		.ascii	"B\000"
 6311 00fa 0000     		.space	2
 6312              	.LC23:
 6313 00fc 4300     		.ascii	"C\000"
 6314 00fe 0000     		.space	2
 6315              	.LC24:
 6316 0100 4400     		.ascii	"D\000"
 6317 0102 0000     		.space	2
 6318              	.LC25:
 6319 0104 5800     		.ascii	"X\000"
 6320 0106 0000     		.space	2
 6321              	.LC26:
 6322 0108 2000     		.ascii	" \000"
 6323 010a 0000     		.space	2
 6324              	.LC27:
 6325 010c 444200   		.ascii	"DB\000"
 6326 010f 00       		.space	1
 6327              	.LC28:
 6328 0110 5B585D00 		.ascii	"[X]\000"
 6329              	.LC29:
 6330 0114 5B205D00 		.ascii	"[ ]\000"
 6331              	.LC0:
 6332 0118 726F6F74 		.ascii	"root\000"
 6332      00
 6333 011d 000000   		.space	3
 6334              	.LC30:
 6335 0120 70656461 		.ascii	"pedalboard\000"
 6335      6C626F61 
 6335      726400
 6336 012b 00       		.space	1
 6337              	.LC31:
 6338 012c 42616E6B 		.ascii	"Banks\000"
 6338      7300
 6339 0132 0000     		.space	2
 6340              	.LC32:
 6341 0134 53617665 		.ascii	"Save state\000"
 6341      20737461 
 6341      746500
 6342 013f 00       		.space	1
 6343              	.LC33:
 6344 0140 53617665 		.ascii	"Save the current parameter values as the default fo"
 6344      20746865 
 6344      20637572 
 6344      72656E74 
 6344      20706172 
 6345 0173 72207468 		.ascii	"r the active pedalboard?\000"
 6345      65206163 
 6345      74697665 
 6345      20706564 
 6345      616C626F 
 6346              	.LC34:
 6347 018c 52657365 		.ascii	"Reset state\000"
 6347      74207374 
 6347      61746500 
 6348              	.LC35:
 6349 0198 52657365 		.ascii	"Reset all parameter values to the last saved state "
 6349      7420616C 
 6349      6C207061 
 6349      72616D65 
 6349      74657220 
 6350 01cb 666F7220 		.ascii	"for the active pedalboard?\000"
 6350      74686520 
 6350      61637469 
 6350      76652070 
 6350      6564616C 
 6351 01e6 0000     		.space	2
 6352              	.LC36:
 6353 01e8 456E6162 		.ascii	"Enable Bluetooth\000"
 6353      6C652042 
 6353      6C756574 
 6353      6F6F7468 
 6353      00
 6354 01f9 000000   		.space	3
 6355              	.LC37:
 6356 01fc 426C7565 		.ascii	"Bluetooth discovery mode is   now enabled for 2 min"
 6356      746F6F74 
 6356      68206469 
 6356      73636F76 
 6356      65727920 
 6357 022f 75746573 		.ascii	"utes\000"
 6357      00
 6358              	.LC38:
 6359 0234 53746172 		.ascii	"Start System Upgrade\000"
 6359      74205379 
 6359      7374656D 
 6359      20557067 
 6359      72616465 
 6360 0249 000000   		.space	3
 6361              	.LC39:
 6362 024c 546F2073 		.ascii	"To start the system upgrade   process, please press"
 6362      74617274 
 6362      20746865 
 6362      20737973 
 6362      74656D20 
 6363 027f 20616E64 		.ascii	" and hold down the left most buttonand press yes. \000"
 6363      20686F6C 
 6363      6420646F 
 6363      776E2074 
 6363      6865206C 
 6364 02b2 0000     		.space	2
 6365              	.LC40:
 6366 02b4 4C6F6164 		.ascii	"Load user profile A\000"
 6366      20757365 
 6366      72207072 
 6366      6F66696C 
 6366      65204100 
 6367              	.LC41:
 6368 02c8 4C6F6164 		.ascii	"Loading a new profile may change your in-/output co"
 6368      696E6720 
 6368      61206E65 
 6368      77207072 
 6368      6F66696C 
 6369 02fb 6E666967 		.ascii	"nfiguration. To prevent damage, disconnect incompat"
 6369      75726174 
 6369      696F6E2E 
 6369      20546F20 
 6369      70726576 
 6370 032e 69626C65 		.ascii	"ible devices. Continue?.\000"
 6370      20646576 
 6370      69636573 
 6370      2E20436F 
 6370      6E74696E 
 6371 0347 00       		.space	1
 6372              	.LC42:
 6373 0348 4C6F6164 		.ascii	"Load user profile B\000"
 6373      20757365 
 6373      72207072 
 6373      6F66696C 
 6373      65204200 
 6374              	.LC43:
 6375 035c 4C6F6164 		.ascii	"Load user profile C\000"
 6375      20757365 
 6375      72207072 
 6375      6F66696C 
 6375      65204300 
 6376              	.LC44:
 6377 0370 4C6F6164 		.ascii	"Load user profile D\000"
 6377      20757365 
 6377      72207072 
 6377      6F66696C 
 6377      65204400 
 6378              	.LC45:
 6379 0384 4F766572 		.ascii	"Overwrite user profile\000"
 6379      77726974 
 6379      65207573 
 6379      65722070 
 6379      726F6669 
 6380 039b 00       		.space	1
 6381              	.LC46:
 6382 039c 4F766572 		.ascii	"Overwrite the active user profile?\000"
 6382      77726974 
 6382      65207468 
 6382      65206163 
 6382      74697665 
 6383 03bf 00       		.space	1
 6384              	.LC47:
 6385 03c0 52656C6F 		.ascii	"Reload user profile A\000"
 6385      61642075 
 6385      73657220 
 6385      70726F66 
 6385      696C6520 
 6386 03d6 0000     		.space	2
 6387              	.LC48:
 6388 03d8 52656C6F 		.ascii	"Reload the active user profile? This will discard a"
 6388      61642074 
 6388      68652061 
 6388      63746976 
 6388      65207573 
 6389 040b 6E792075 		.ascii	"ny unsaved changes.\000"
 6389      6E736176 
 6389      65642063 
 6389      68616E67 
 6389      65732E00 
 6390 041f 00       		.space	1
 6391              	.LC49:
 6392 0420 52656C6F 		.ascii	"Reload user profile B\000"
 6392      61642075 
 6392      73657220 
 6392      70726F66 
 6392      696C6520 
 6393 0436 0000     		.space	2
 6394              	.LC50:
 6395 0438 52656C6F 		.ascii	"Reload user profile C\000"
 6395      61642075 
 6395      73657220 
 6395      70726F66 
 6395      696C6520 
 6396 044e 0000     		.space	2
 6397              	.LC51:
 6398 0450 52656C6F 		.ascii	"Reload user profile D\000"
 6398      61642075 
 6398      73657220 
 6398      70726F66 
 6398      696C6520 
 6399 0466 0000     		.space	2
 6400              	.LC52:
 6401 0468 53657420 		.ascii	"Set input to EXP\000"
 6401      696E7075 
 6401      7420746F 
 6401      20455850 
 6401      00
 6402 0479 000000   		.space	3
 6403              	.LC53:
 6404 047c 596F7520 		.ascii	"You are about to switch between CV and EXP mode. To"
 6404      61726520 
 6404      61626F75 
 6404      7420746F 
 6404      20737769 
 6405 04af 20707265 		.ascii	" prevent damage, disconnect incompatible devices. C"
 6405      76656E74 
 6405      2064616D 
 6405      6167652C 
 6405      20646973 
 6406 04e2 6F6E7469 		.ascii	"ontinue?\000"
 6406      6E75653F 
 6406      00
 6407 04eb 00       		.space	1
 6408              	.LC54:
 6409 04ec 53657420 		.ascii	"Set input to CV\000"
 6409      696E7075 
 6409      7420746F 
 6409      20435600 
 6410              	.LC55:
 6411 04fc 53657420 		.ascii	"Set output to HP\000"
 6411      6F757470 
 6411      75742074 
 6411      6F204850 
 6411      00
 6412 050d 000000   		.space	3
 6413              	.LC56:
 6414 0510 596F7520 		.ascii	"You are about to switch between CV and HP mode. To "
 6414      61726520 
 6414      61626F75 
 6414      7420746F 
 6414      20737769 
 6415 0543 70726576 		.ascii	"prevent damage, disconnect incompatible devices. Co"
 6415      656E7420 
 6415      64616D61 
 6415      67652C20 
 6415      64697363 
 6416 0576 6E74696E 		.ascii	"ntinue?\000"
 6416      75653F00 
 6417 057e 0000     		.space	2
 6418              	.LC57:
 6419 0580 53657420 		.ascii	"Set output to CV\000"
 6419      6F757470 
 6419      75742074 
 6419      6F204356 
 6419      00
 6420 0591 000000   		.space	3
 6421              	.LC58:
 6422 0594 53455454 		.ascii	"SETTINGS\000"
 6422      494E4753 
 6422      00
 6423 059d 000000   		.space	3
 6424              	.LC59:
 6425 05a0 43555252 		.ascii	"CURRENT PEDALBOARD\000"
 6425      454E5420 
 6425      50454441 
 6425      4C424F41 
 6425      524400
 6426 05b3 00       		.space	1
 6427              	.LC60:
 6428 05b4 53415645 		.ascii	"SAVE STATE\000"
 6428      20535441 
 6428      544500
 6429 05bf 00       		.space	1
 6430              	.LC61:
 6431 05c0 52455345 		.ascii	"RESET STATE\000"
 6431      54205354 
 6431      41544500 
 6432              	.LC62:
 6433 05cc 48415244 		.ascii	"HARDWARE BYPASS\000"
 6433      57415245 
 6433      20425950 
 6433      41535300 
 6434              	.LC63:
 6435 05dc 4348414E 		.ascii	"CHANNEL 1\000"
 6435      4E454C20 
 6435      3100
 6436 05e6 0000     		.space	2
 6437              	.LC64:
 6438 05e8 4348414E 		.ascii	"CHANNEL 2\000"
 6438      4E454C20 
 6438      3200
 6439 05f2 0000     		.space	2
 6440              	.LC65:
 6441 05f4 4348414E 		.ascii	"CHANNEL 1 & 2\000"
 6441      4E454C20 
 6441      31202620 
 6441      3200
 6442 0602 0000     		.space	2
 6443              	.LC66:
 6444 0604 51554943 		.ascii	"QUICK BYPASS CHANNEL(S)\000"
 6444      4B204259 
 6444      50415353 
 6444      20434841 
 6444      4E4E454C 
 6445              	.LC67:
 6446 061c 54454D50 		.ascii	"TEMPO & TRANSPORT\000"
 6446      4F202620 
 6446      5452414E 
 6446      53504F52 
 6446      5400
 6447 062e 0000     		.space	2
 6448              	.LC68:
 6449 0630 54454D50 		.ascii	"TEMPO\000"
 6449      4F00
 6450 0636 0000     		.space	2
 6451              	.LC69:
 6452 0638 42454154 		.ascii	"BEATS PER BAR\000"
 6452      53205045 
 6452      52204241 
 6452      5200
 6453 0646 0000     		.space	2
 6454              	.LC70:
 6455 0648 54554E45 		.ascii	"TUNER\000"
 6455      5200
 6456 064e 0000     		.space	2
 6457              	.LC71:
 6458 0650 55534552 		.ascii	"USER PROFILES\000"
 6458      2050524F 
 6458      46494C45 
 6458      5300
 6459 065e 0000     		.space	2
 6460              	.LC72:
 6461 0660 55534552 		.ascii	"USER PROFILE A\000"
 6461      2050524F 
 6461      46494C45 
 6461      204100
 6462 066f 00       		.space	1
 6463              	.LC73:
 6464 0670 55534552 		.ascii	"USER PROFILE B\000"
 6464      2050524F 
 6464      46494C45 
 6464      204200
 6465 067f 00       		.space	1
 6466              	.LC74:
 6467 0680 55534552 		.ascii	"USER PROFILE C\000"
 6467      2050524F 
 6467      46494C45 
 6467      204300
 6468 068f 00       		.space	1
 6469              	.LC75:
 6470 0690 55534552 		.ascii	"USER PROFILE D\000"
 6470      2050524F 
 6470      46494C45 
 6470      204400
 6471 069f 00       		.space	1
 6472              	.LC76:
 6473 06a0 4F564552 		.ascii	"OVERWRITE CURRENT PROFILE\000"
 6473      57524954 
 6473      45204355 
 6473      5252454E 
 6473      54205052 
 6474 06ba 0000     		.space	2
 6475              	.LC77:
 6476 06bc 53595354 		.ascii	"SYSTEM\000"
 6476      454D00
 6477 06c3 00       		.space	1
 6478              	.LC78:
 6479 06c4 494E5055 		.ascii	"INPUTS\000"
 6479      545300
 6480 06cb 00       		.space	1
 6481              	.LC79:
 6482 06cc 3C204241 		.ascii	"< BACK TO SYSTEM\000"
 6482      434B2054 
 6482      4F205359 
 6482      5354454D 
 6482      00
 6483 06dd 000000   		.space	3
 6484              	.LC80:
 6485 06e0 53544552 		.ascii	"STEREO LINK\000"
 6485      454F204C 
 6485      494E4B00 
 6486              	.LC81:
 6487 06ec 494E5055 		.ascii	"INPUT 1 GAIN\000"
 6487      54203120 
 6487      4741494E 
 6487      00
 6488 06f9 000000   		.space	3
 6489              	.LC82:
 6490 06fc 494E5055 		.ascii	"INPUT 2 GAIN\000"
 6490      54203220 
 6490      4741494E 
 6490      00
 6491 0709 000000   		.space	3
 6492              	.LC83:
 6493 070c 4356202F 		.ascii	"CV / EXP INPUT\000"
 6493      20455850 
 6493      20494E50 
 6493      555400
 6494 071b 00       		.space	1
 6495              	.LC84:
 6496 071c 43562052 		.ascii	"CV RANGE\000"
 6496      414E4745 
 6496      00
 6497 0725 000000   		.space	3
 6498              	.LC85:
 6499 0728 45585020 		.ascii	"EXP MODE\000"
 6499      4D4F4445 
 6499      00
 6500 0731 000000   		.space	3
 6501              	.LC86:
 6502 0734 4F555450 		.ascii	"OUTPUTS\000"
 6502      55545300 
 6503              	.LC87:
 6504 073c 53544552 		.ascii	"STEREO LINK \000"
 6504      454F204C 
 6504      494E4B20 
 6504      00
 6505 0749 000000   		.space	3
 6506              	.LC88:
 6507 074c 4F555450 		.ascii	"OUTPUT 1 GAIN\000"
 6507      55542031 
 6507      20474149 
 6507      4E00
 6508 075a 0000     		.space	2
 6509              	.LC89:
 6510 075c 4F555450 		.ascii	"OUTPUT 2 GAIN\000"
 6510      55542032 
 6510      20474149 
 6510      4E00
 6511 076a 0000     		.space	2
 6512              	.LC90:
 6513 076c 4D415354 		.ascii	"MASTER VOLUME LINK \000"
 6513      45522056 
 6513      4F4C554D 
 6513      45204C49 
 6513      4E4B2000 
 6514              	.LC91:
 6515 0780 4356202F 		.ascii	"CV / HP OUTPUT\000"
 6515      20485020 
 6515      4F555450 
 6515      555400
 6516 078f 00       		.space	1
 6517              	.LC92:
 6518 0790 48454144 		.ascii	"HEADPHONE VOLUME\000"
 6518      50484F4E 
 6518      4520564F 
 6518      4C554D45 
 6518      00
 6519 07a1 000000   		.space	3
 6520              	.LC93:
 6521 07a4 53594E43 		.ascii	"SYNC & MIDI\000"
 6521      2026204D 
 6521      49444900 
 6522              	.LC94:
 6523 07b0 434C4F43 		.ascii	"CLOCK SOURCE\000"
 6523      4B20534F 
 6523      55524345 
 6523      00
 6524 07bd 000000   		.space	3
 6525              	.LC95:
 6526 07c0 53454E44 		.ascii	"SEND MIDI CLOCK\000"
 6526      204D4944 
 6526      4920434C 
 6526      4F434B00 
 6527              	.LC96:
 6528 07d0 534E4150 		.ascii	"SNAPSHOT NAV MIDI CHAN\000"
 6528      53484F54 
 6528      204E4156 
 6528      204D4944 
 6528      49204348 
 6529 07e7 00       		.space	1
 6530              	.LC97:
 6531 07e8 50454441 		.ascii	"PEDALBOARD NAV MIDI CHN\000"
 6531      4C424F41 
 6531      5244204E 
 6531      4156204D 
 6531      49444920 
 6532              	.LC98:
 6533 0800 424C5545 		.ascii	"BLUETOOTH\000"
 6533      544F4F54 
 6533      4800
 6534 080a 0000     		.space	2
 6535              	.LC99:
 6536 080c 454E4142 		.ascii	"ENABLE DISCOVERY\000"
 6536      4C452044 
 6536      4953434F 
 6536      56455259 
 6536      00
 6537 081d 000000   		.space	3
 6538              	.LC100:
 6539 0820 53544154 		.ascii	"STATUS:\000"
 6539      55533A00 
 6540              	.LC101:
 6541 0828 4E414D45 		.ascii	"NAME:\000"
 6541      3A00
 6542 082e 0000     		.space	2
 6543              	.LC102:
 6544 0830 41444452 		.ascii	"ADDRESS:\000"
 6544      4553533A 
 6544      00
 6545 0839 000000   		.space	3
 6546              	.LC103:
 6547 083c 44495350 		.ascii	"DISPLAY BRIGHTNESS\000"
 6547      4C415920 
 6547      42524947 
 6547      48544E45 
 6547      535300
 6548 084f 00       		.space	1
 6549              	.LC104:
 6550 0850 494E464F 		.ascii	"INFO\000"
 6550      00
 6551 0855 000000   		.space	3
 6552              	.LC105:
 6553 0858 53455256 		.ascii	"SERVICES\000"
 6553      49434553 
 6553      00
 6554 0861 000000   		.space	3
 6555              	.LC106:
 6556 0864 3C204241 		.ascii	"< BACK TO INFO\000"
 6556      434B2054 
 6556      4F20494E 
 6556      464F00
 6557 0873 00       		.space	1
 6558              	.LC107:
 6559 0874 4A41434B 		.ascii	"JACK:\000"
 6559      3A00
 6560 087a 0000     		.space	2
 6561              	.LC108:
 6562 087c 53534844 		.ascii	"SSHD:\000"
 6562      3A00
 6563 0882 0000     		.space	2
 6564              	.LC109:
 6565 0884 4D4F442D 		.ascii	"MOD-UI:\000"
 6565      55493A00 
 6566              	.LC110:
 6567 088c 444E534D 		.ascii	"DNSMASQ:\000"
 6567      4153513A 
 6567      00
 6568 0895 000000   		.space	3
 6569              	.LC111:
 6570 0898 56455253 		.ascii	"VERSIONS\000"
 6570      494F4E53 
 6570      00
 6571 08a1 000000   		.space	3
 6572              	.LC112:
 6573 08a4 56455253 		.ascii	"VERSION:\000"
 6573      494F4E3A 
 6573      00
 6574 08ad 000000   		.space	3
 6575              	.LC113:
 6576 08b0 52455354 		.ascii	"RESTORE:\000"
 6576      4F52453A 
 6576      00
 6577 08b9 000000   		.space	3
 6578              	.LC114:
 6579 08bc 53595354 		.ascii	"SYSTEM:\000"
 6579      454D3A00 
 6580              	.LC115:
 6581 08c4 434F4E54 		.ascii	"CONTROLLER:\000"
 6581      524F4C4C 
 6581      45523A00 
 6582              	.LC116:
 6583 08d0 44455649 		.ascii	"DEVICE\000"
 6583      434500
 6584 08d7 00       		.space	1
 6585              	.LC117:
 6586 08d8 53455249 		.ascii	"SERIAL NUMBER:\000"
 6586      414C204E 
 6586      554D4245 
 6586      523A00
 6587 08e7 00       		.space	1
 6588              	.LC118:
 6589 08e8 53595354 		.ascii	"SYSTEM UPGRADE\000"
 6589      454D2055 
 6589      50475241 
 6589      444500
 6590              		.ident	"GCC: (GNU Tools for Arm Embedded Processors 7-2018-q3-update) 7.3.1 20180622 (release) [AR
DEFINED SYMBOLS
                            *ABS*:0000000000000000 naveg.c
     /tmp/ccqlNgv8.s:13     .text:0000000000000000 $t
     /tmp/ccqlNgv8.s:20     .text:0000000000000000 bank_config_footer
     /tmp/ccqlNgv8.s:160    .text:0000000000000114 $d
                            *COM*:000000000000000a g_tool
     /tmp/ccqlNgv8.s:175    .text:0000000000000130 $t
     /tmp/ccqlNgv8.s:182    .text:0000000000000130 foot_control_add
     /tmp/ccqlNgv8.s:219    .text:0000000000000174 $d
     /tmp/ccqlNgv8.s:251    .text:00000000000001b4 $t
     /tmp/ccqlNgv8.s:437    .text:0000000000000348 $d
     /tmp/ccqlNgv8.s:443    .text:000000000000035c $t
     /tmp/ccqlNgv8.s:650    .text:0000000000000524 $d
                            *COM*:0000000000000054 g_tap_tempo
     /tmp/ccqlNgv8.s:657    .text:000000000000053c $t
     /tmp/ccqlNgv8.s:664    .text:000000000000053c parse_pedalboards_list
     /tmp/ccqlNgv8.s:689    .text:0000000000000568 $d
     /tmp/ccqlNgv8.s:698    .text:000000000000056c $t
     /tmp/ccqlNgv8.s:705    .text:000000000000056c step_to_value
     /tmp/ccqlNgv8.s:806    .text:0000000000000638 control_set
     /tmp/ccqlNgv8.s:1085   .text:000000000000087c $d
     /tmp/ccqlNgv8.s:1090   .text:000000000000088c $t
     /tmp/ccqlNgv8.s:1097   .text:000000000000088c display_disable_all_tools
     /tmp/ccqlNgv8.s:1126   .text:00000000000008bc $d
     /tmp/ccqlNgv8.s:1129   .text:00000000000008c4 $t
     /tmp/ccqlNgv8.s:1136   .text:00000000000008c4 send_load_pedalboard
     /tmp/ccqlNgv8.s:1193   .text:0000000000000938 $d
     /tmp/ccqlNgv8.s:1195   .text:000000000000093c $t
     /tmp/ccqlNgv8.s:1202   .text:000000000000093c parse_banks_list
     /tmp/ccqlNgv8.s:1226   .text:0000000000000968 $d
     /tmp/ccqlNgv8.s:1228   .text:000000000000096c $t
     /tmp/ccqlNgv8.s:1235   .text:000000000000096c menu_up
     /tmp/ccqlNgv8.s:1287   .text:00000000000009c8 $d
     /tmp/ccqlNgv8.s:1289   .text:00000000000009cc $t
     /tmp/ccqlNgv8.s:1296   .text:00000000000009cc menu_down
     /tmp/ccqlNgv8.s:1349   .text:0000000000000a2c $d
     /tmp/ccqlNgv8.s:1351   .text:0000000000000a30 $t
     /tmp/ccqlNgv8.s:1358   .text:0000000000000a30 reset_menu_hover.isra.0
     /tmp/ccqlNgv8.s:1389   .text:0000000000000a58 create_menu_tree.isra.1
     /tmp/ccqlNgv8.s:1449   .text:0000000000000ae8 $d
     /tmp/ccqlNgv8.s:1453   .text:0000000000000af0 $t
     /tmp/ccqlNgv8.s:1460   .text:0000000000000af0 naveg_set_master_volume.part.3
     /tmp/ccqlNgv8.s:1525   .text:0000000000000b7c $d
     /tmp/ccqlNgv8.s:1530   .text:0000000000000b8c $t
     /tmp/ccqlNgv8.s:1538   .text:0000000000000b8c draw_all_pots
     /tmp/ccqlNgv8.s:1563   .text:0000000000000bb8 $d
     /tmp/ccqlNgv8.s:1565   .text:0000000000000bbc $t
     /tmp/ccqlNgv8.s:1573   .text:0000000000000bbc draw_all_foots
     /tmp/ccqlNgv8.s:1614   .text:0000000000000c10 $d
     /tmp/ccqlNgv8.s:1616   .text:0000000000000c14 $t
     /tmp/ccqlNgv8.s:1624   .text:0000000000000c14 naveg_init
     /tmp/ccqlNgv8.s:1746   .text:0000000000000d38 $d
     /tmp/ccqlNgv8.s:1751   .text:0000000000000d48 $t
     /tmp/ccqlNgv8.s:1759   .text:0000000000000d48 naveg_initial_state
     /tmp/ccqlNgv8.s:1837   .text:0000000000000dec $d
     /tmp/ccqlNgv8.s:1839   .text:0000000000000df0 $t
     /tmp/ccqlNgv8.s:1847   .text:0000000000000df0 naveg_remove_control
     /tmp/ccqlNgv8.s:2069   .text:0000000000000f8c $d
     /tmp/ccqlNgv8.s:2075   .text:0000000000000f94 $t
     /tmp/ccqlNgv8.s:2083   .text:0000000000000f94 naveg_add_control
     /tmp/ccqlNgv8.s:2384   .text:0000000000001290 $d
     /tmp/ccqlNgv8.s:2389   .text:00000000000012a0 $t
     /tmp/ccqlNgv8.s:2456   .text:0000000000001344 naveg_inc_control
     /tmp/ccqlNgv8.s:2514   .text:00000000000013b8 $d
     /tmp/ccqlNgv8.s:2517   .text:00000000000013c0 $t
     /tmp/ccqlNgv8.s:2525   .text:00000000000013c0 naveg_dec_control
     /tmp/ccqlNgv8.s:2581   .text:0000000000001430 $d
     /tmp/ccqlNgv8.s:2584   .text:0000000000001438 $t
     /tmp/ccqlNgv8.s:2592   .text:0000000000001438 naveg_set_control
     /tmp/ccqlNgv8.s:2659   .text:00000000000014bc $d
     /tmp/ccqlNgv8.s:2661   .text:00000000000014c0 $t
     /tmp/ccqlNgv8.s:2669   .text:00000000000014c0 naveg_get_control
     /tmp/ccqlNgv8.s:2696   .text:00000000000014e4 $d
     /tmp/ccqlNgv8.s:2698   .text:00000000000014e8 $t
     /tmp/ccqlNgv8.s:2706   .text:00000000000014e8 naveg_pot_change
     /tmp/ccqlNgv8.s:2807   .text:00000000000015c8 $d
     /tmp/ccqlNgv8.s:2812   .text:00000000000015d8 $t
     /tmp/ccqlNgv8.s:2820   .text:00000000000015d8 naveg_foot_change
     /tmp/ccqlNgv8.s:3014   .text:0000000000001770 $d
     /tmp/ccqlNgv8.s:3019   .text:0000000000001780 $t
     /tmp/ccqlNgv8.s:3027   .text:0000000000001780 naveg_save_page
     /tmp/ccqlNgv8.s:3076   .text:00000000000017e8 $d
     /tmp/ccqlNgv8.s:3078   .text:00000000000017ec $t
     /tmp/ccqlNgv8.s:3086   .text:00000000000017ec naveg_is_tool_mode
     /tmp/ccqlNgv8.s:3114   .text:0000000000001814 $d
     /tmp/ccqlNgv8.s:3116   .text:0000000000001818 $t
     /tmp/ccqlNgv8.s:3124   .text:0000000000001818 naveg_print_pb_name
     /tmp/ccqlNgv8.s:3138   .text:0000000000001830 $d
     /tmp/ccqlNgv8.s:3141   .text:0000000000001838 $t
     /tmp/ccqlNgv8.s:3149   .text:0000000000001838 naveg_set_master_volume
     /tmp/ccqlNgv8.s:3162   .text:0000000000001844 $d
     /tmp/ccqlNgv8.s:3164   .text:0000000000001848 $t
     /tmp/ccqlNgv8.s:3172   .text:0000000000001848 naveg_is_master_vol
     /tmp/ccqlNgv8.s:3185   .text:0000000000001854 $d
     /tmp/ccqlNgv8.s:3187   .text:0000000000001858 $t
     /tmp/ccqlNgv8.s:3195   .text:0000000000001858 naveg_set_banks
     /tmp/ccqlNgv8.s:3208   .text:0000000000001864 $d
     /tmp/ccqlNgv8.s:3210   .text:0000000000001868 $t
     /tmp/ccqlNgv8.s:3218   .text:0000000000001868 naveg_get_banks
     /tmp/ccqlNgv8.s:3231   .text:0000000000001874 $d
     /tmp/ccqlNgv8.s:3233   .text:0000000000001878 $t
     /tmp/ccqlNgv8.s:3241   .text:0000000000001878 naveg_bank_config
     /tmp/ccqlNgv8.s:3387   .text:00000000000019a4 $d
     /tmp/ccqlNgv8.s:3390   .text:00000000000019ac $t
     /tmp/ccqlNgv8.s:3398   .text:00000000000019ac naveg_set_pedalboards
     /tmp/ccqlNgv8.s:3411   .text:00000000000019b8 $d
     /tmp/ccqlNgv8.s:3413   .text:00000000000019bc $t
     /tmp/ccqlNgv8.s:3421   .text:00000000000019bc naveg_get_pedalboards
     /tmp/ccqlNgv8.s:3434   .text:00000000000019c8 $d
     /tmp/ccqlNgv8.s:3436   .text:00000000000019cc $t
     /tmp/ccqlNgv8.s:3444   .text:00000000000019cc naveg_enter
     /tmp/ccqlNgv8.s:3947   .text:0000000000001dec menu_enter
     /tmp/ccqlNgv8.s:3667   .text:0000000000001ba4 $d
     /tmp/ccqlNgv8.s:3675   .text:0000000000001bc0 $t
     /tmp/ccqlNgv8.s:3683   .text:0000000000001bc0 naveg_master_volume
     /tmp/ccqlNgv8.s:3743   .text:0000000000001c3c $d
     /tmp/ccqlNgv8.s:3748   .text:0000000000001c4c $t
     /tmp/ccqlNgv8.s:3755   .text:0000000000001c4c naveg_toggle_tool.part.6
     /tmp/ccqlNgv8.s:3908   .text:0000000000001dbc $d
     /tmp/ccqlNgv8.s:3917   .text:0000000000001ddc $t
     /tmp/ccqlNgv8.s:3925   .text:0000000000001ddc naveg_toggle_tool
     /tmp/ccqlNgv8.s:3938   .text:0000000000001de8 $d
     /tmp/ccqlNgv8.s:3940   .text:0000000000001dec $t
     /tmp/ccqlNgv8.s:4272   .text:00000000000020cc $d
     /tmp/ccqlNgv8.s:4277   .text:00000000000020dc $t
     /tmp/ccqlNgv8.s:4506   .text:00000000000022f0 $d
     /tmp/ccqlNgv8.s:4514   .text:000000000000230c $t
     /tmp/ccqlNgv8.s:4522   .text:000000000000230c naveg_ui_connection
     /tmp/ccqlNgv8.s:4608   .text:00000000000023a0 $d
     /tmp/ccqlNgv8.s:4611   .text:00000000000023a8 $t
     /tmp/ccqlNgv8.s:4619   .text:00000000000023a8 naveg_up
     /tmp/ccqlNgv8.s:4746   .text:00000000000024a0 $d
     /tmp/ccqlNgv8.s:4750   .text:00000000000024ac $t
     /tmp/ccqlNgv8.s:4758   .text:00000000000024ac naveg_down
     /tmp/ccqlNgv8.s:4891   .text:00000000000025b0 $d
     /tmp/ccqlNgv8.s:4895   .text:00000000000025bc $t
     /tmp/ccqlNgv8.s:4903   .text:00000000000025bc naveg_reset_menu
     /tmp/ccqlNgv8.s:4922   .text:00000000000025d8 $d
     /tmp/ccqlNgv8.s:4924   .text:00000000000025dc $t
     /tmp/ccqlNgv8.s:4932   .text:00000000000025dc naveg_need_update
     /tmp/ccqlNgv8.s:4945   .text:00000000000025e8 $d
     /tmp/ccqlNgv8.s:4947   .text:00000000000025ec $t
     /tmp/ccqlNgv8.s:4955   .text:00000000000025ec naveg_update
     /tmp/ccqlNgv8.s:4973   .text:000000000000260c $d
     /tmp/ccqlNgv8.s:4975   .text:0000000000002610 $t
     /tmp/ccqlNgv8.s:4983   .text:0000000000002610 naveg_dialog
     /tmp/ccqlNgv8.s:5034   .text:000000000000267c $d
     /tmp/ccqlNgv8.s:5038   .text:0000000000002688 $t
     /tmp/ccqlNgv8.s:5046   .text:0000000000002688 naveg_ui_status
     /tmp/ccqlNgv8.s:5056   .text:0000000000002690 $d
     /tmp/ccqlNgv8.s:5058   .text:0000000000002694 $t
     /tmp/ccqlNgv8.s:5066   .text:0000000000002694 naveg_tap_tempo_status
     /tmp/ccqlNgv8.s:5081   .text:00000000000026a8 $d
     /tmp/ccqlNgv8.s:5083   .text:00000000000026ac $t
     /tmp/ccqlNgv8.s:5091   .text:00000000000026ac naveg_settings_refresh
     /tmp/ccqlNgv8.s:5105   .text:00000000000026bc $d
     /tmp/ccqlNgv8.s:5107   .text:00000000000026c0 $t
     /tmp/ccqlNgv8.s:5115   .text:00000000000026c0 naveg_menu_refresh
     /tmp/ccqlNgv8.s:5153   .text:0000000000002700 $d
     /tmp/ccqlNgv8.s:5155   .text:0000000000002704 $t
     /tmp/ccqlNgv8.s:5163   .text:0000000000002704 naveg_update_gain
     /tmp/ccqlNgv8.s:5249   .text:00000000000027b8 $d
     /tmp/ccqlNgv8.s:5253   .text:00000000000027c4 $t
     /tmp/ccqlNgv8.s:5261   .text:00000000000027c4 naveg_bypass_refresh
     /tmp/ccqlNgv8.s:5385   .text:00000000000028c0 $d
     /tmp/ccqlNgv8.s:5396   .rodata:0000000000000000 $d
     /tmp/ccqlNgv8.s:5410   .rodata:0000000000000014 g_menu_popups
     /tmp/ccqlNgv8.s:5492   .data:0000000000000000 $d
     /tmp/ccqlNgv8.s:5496   .data:0000000000000000 g_menu_desc
     /tmp/ccqlNgv8.s:6120   .data:0000000000000564 page.10305
     /tmp/ccqlNgv8.s:6124   .data:0000000000000565 input.10178
     /tmp/ccqlNgv8.s:6129   .data:0000000000000568 desc.10397
     /tmp/ccqlNgv8.s:6140   .bss:0000000000000000 $d
     /tmp/ccqlNgv8.s:6144   .bss:0000000000000000 g_selected_pedalboards
     /tmp/ccqlNgv8.s:6148   .bss:0000000000000004 g_bank_functions
     /tmp/ccqlNgv8.s:6152   .bss:000000000000000c g_current_pedalboard
     /tmp/ccqlNgv8.s:6157   .bss:0000000000000010 g_foots
     /tmp/ccqlNgv8.s:6161   .bss:000000000000002c g_naveg_pedalboards
     /tmp/ccqlNgv8.s:6165   .bss:0000000000000030 g_banks
     /tmp/ccqlNgv8.s:6169   .bss:0000000000000034 g_current_bank
     /tmp/ccqlNgv8.s:6174   .bss:0000000000000038 g_current_item
     /tmp/ccqlNgv8.s:6178   .bss:000000000000003c g_current_main_item
     /tmp/ccqlNgv8.s:6182   .bss:0000000000000040 g_max_items_list
     /tmp/ccqlNgv8.s:6187   .bss:0000000000000044 master_vol_value
     /tmp/ccqlNgv8.s:6191   .bss:0000000000000048 g_pots
     /tmp/ccqlNgv8.s:6195   .bss:0000000000000068 g_encoders
     /tmp/ccqlNgv8.s:6199   .bss:0000000000000070 g_bp_state
     /tmp/ccqlNgv8.s:6204   .bss:0000000000000074 g_menu
     /tmp/ccqlNgv8.s:6208   .bss:0000000000000078 g_current_menu
     /tmp/ccqlNgv8.s:6212   .bss:000000000000007c g_update_cb
     /tmp/ccqlNgv8.s:6216   .bss:0000000000000080 g_update_data
     /tmp/ccqlNgv8.s:6220   .bss:0000000000000084 g_initialized
     /tmp/ccqlNgv8.s:6225   .bss:0000000000000088 g_dialog_sem
     /tmp/ccqlNgv8.s:6229   .bss:000000000000008c g_bp_first
     /tmp/ccqlNgv8.s:6233   .bss:000000000000008d g_ui_connected
     /tmp/ccqlNgv8.s:6237   .bss:000000000000008e banks_loaded.10328
     /tmp/ccqlNgv8.s:6242   .bss:0000000000000090 g_current_main_menu
     /tmp/ccqlNgv8.s:6246   .bss:0000000000000094 toggle.10165
     /tmp/ccqlNgv8.s:6251   .bss:0000000000000098 dummy_menu.10396
     /tmp/ccqlNgv8.s:6254   .rodata.str1.4:0000000000000000 $d

UNDEFINED SYMBOLS
hardware_leds
ledz_on
screen_footer
ledz_off
__aeabi_fcmple
__aeabi_f2d
__aeabi_dadd
__aeabi_d2uiz
__aeabi_fcmpeq
__aeabi_f2iz
__aeabi_i2f
data_free_control
convert_to_ms
ledz_blink
strcmp
strcasecmp
int_to_str
strcpy
float_to_str
strarr_length
data_free_pedalboards_list
data_parse_pedalboards_list
__aeabi_fdiv
__aeabi_fsub
__aeabi_fmul
__aeabi_fadd
__aeabi_dmul
__aeabi_d2f
__aeabi_fcmpgt
pow
__aeabi_fcmplt
__aeabi_ui2f
hardware_timestamp
convert_from_ms
copy_command
comm_webgui_send
screen_pot
screen_encoder
comm_webgui_set_response_cb
comm_webgui_wait_response
data_free_banks_list
data_parse_banks_list
screen_system_menu
hardware_get_acceleration
pvPortMalloc
node_child
__aeabi_f2uiz
system_master_volume_cb
screen_master_vol
node_create
xQueueGenericCreate
xQueueGenericSend
xQueueGenericReceive
atoi
__aeabi_i2d
__aeabi_ddiv
__aeabi_d2iz
hardware_get_pot_value
log
screen_bp_list
delay_ms
screen_top_info
screen_tuner_input
system_save_gains_cb
screen_clear
screen_tool
xQueueGiveFromISR
strlen
malloc
memcpy
deselect_item
select_item
strcat
system_banks_cb
system_pedalboard_cb
system_quick_bypass_cb
system_bypass_cb
system_play_cb
system_tempo_cb
system_bpb_cb
system_tuner_cb
system_load_pro_cb
system_save_pro_cb
system_sl_in_cb
system_volume_cb
system_cv_exp_cb
system_cv_range_cb
system_exp_mode_cb
system_sl_out_cb
system_master_vol_link_cb
system_cv_hp_cb
system_midi_src_cb
system_midi_send_cb
system_ss_prog_change_cb
system_pb_prog_change_cb
system_bluetooth_cb
system_display_cb
system_services_cb
system_versions_cb
system_release_cb
system_device_cb
system_tag_cb
system_upgrade_cb
