   1              		.cpu cortex-m3
   2              		.eabi_attribute 20, 1
   3              		.eabi_attribute 21, 1
   4              		.eabi_attribute 23, 3
   5              		.eabi_attribute 24, 1
   6              		.eabi_attribute 25, 1
   7              		.eabi_attribute 26, 1
   8              		.eabi_attribute 30, 2
   9              		.eabi_attribute 34, 1
  10              		.eabi_attribute 18, 4
  11              		.file	"port.c"
  12              		.text
  13              		.align	1
  14              		.p2align 2,,3
  15              		.syntax unified
  16              		.thumb
  17              		.thumb_func
  18              		.fpu softvfp
  20              	prvPortStartFirstTask:
  21              		@ Naked Function: prologue and epilogue provided by programmer.
  22              		@ args = 0, pretend = 0, frame = 0
  23              		@ frame_needed = 0, uses_anonymous_args = 0
  24              		.syntax unified
  25              	@ 266 "freertos/src/port.c" 1
  26 0000 6448     		 ldr r0, =0xE000ED08 	
  27 0002 0068     	 ldr r0, [r0] 			
  28 0004 0068     	 ldr r0, [r0] 			
  29 0006 80F30888 	 msr msp, r0			
  30 000a 62B6     	 cpsie i				
  31 000c 61B6     	 cpsie f				
  32 000e BFF34F8F 	 dsb					
  33 0012 BFF36F8F 	 isb					
  34 0016 00DF     	 svc 0					
  35 0018 00BF     	 nop					
  36              	
  37              	@ 0 "" 2
  38              		.thumb
  39              		.syntax unified
  41              		.align	1
  42 001a 00BF     		.p2align 2,,3
  43              		.global	pxPortInitialiseStack
  44              		.syntax unified
  45              		.thumb
  46              		.thumb_func
  47              		.fpu softvfp
  49              	pxPortInitialiseStack:
  50              		@ args = 0, pretend = 0, frame = 0
  51              		@ frame_needed = 0, uses_anonymous_args = 0
  52              		@ link register save eliminated.
  53 001c 10B4     		push	{r4}
  54 001e 4FF08074 		mov	r4, #16777216
  55 0022 064B     		ldr	r3, .L5
  56 0024 40F8044C 		str	r4, [r0, #-4]
  57 0028 40F8081C 		str	r1, [r0, #-8]
  58 002c 40F8202C 		str	r2, [r0, #-32]
  59 0030 40F80C3C 		str	r3, [r0, #-12]
  60 0034 10BC     		pop	{r4}
  61 0036 4038     		subs	r0, r0, #64
  62 0038 7047     		bx	lr
  63              	.L6:
  64 003a 00BF     		.align	2
  65              	.L5:
  66 003c 00000000 		.word	prvTaskExitError
  68              		.align	1
  69              		.p2align 2,,3
  70              		.global	vPortSVCHandler
  71              		.syntax unified
  72              		.thumb
  73              		.thumb_func
  74              		.fpu softvfp
  76              	vPortSVCHandler:
  77              		@ Naked Function: prologue and epilogue provided by programmer.
  78              		@ args = 0, pretend = 0, frame = 0
  79              		@ frame_needed = 0, uses_anonymous_args = 0
  80              		.syntax unified
  81              	@ 246 "freertos/src/port.c" 1
  82 0040 074B     			ldr	r3, pxCurrentTCBConst2		
  83 0042 1968     		ldr r1, [r3]					
  84 0044 0868     		ldr r0, [r1]					
  85 0046 B0E8F00F 		ldmia r0!, {r4-r11}				
  86 004a 80F30988 		msr psp, r0						
  87 004e BFF36F8F 		isb								
  88 0052 4FF00000 		mov r0, #0 						
  89 0056 80F31188 		msr	basepri, r0					
  90 005a 4EF00D0E 		orr r14, #0xd					
  91 005e 7047     		bx r14							
  92              										
  93              		.align 2						
  94 0060 00000000 	pxCurrentTCBConst2: .word pxCurrentTCB				
  95              	
  96              	@ 0 "" 2
  97              		.thumb
  98              		.syntax unified
 100              		.align	1
 101              		.p2align 2,,3
 102              		.global	vPortEndScheduler
 103              		.syntax unified
 104              		.thumb
 105              		.thumb_func
 106              		.fpu softvfp
 108              	vPortEndScheduler:
 109              		@ args = 0, pretend = 0, frame = 0
 110              		@ frame_needed = 0, uses_anonymous_args = 0
 111              		@ link register save eliminated.
 112 0064 7047     		bx	lr
 114              		.align	1
 115 0066 00BF     		.p2align 2,,3
 116              		.global	vPortYield
 117              		.syntax unified
 118              		.thumb
 119              		.thumb_func
 120              		.fpu softvfp
 122              	vPortYield:
 123              		@ args = 0, pretend = 0, frame = 0
 124              		@ frame_needed = 0, uses_anonymous_args = 0
 125              		@ link register save eliminated.
 126 0068 4FF08052 		mov	r2, #268435456
 127 006c 034B     		ldr	r3, .L10
 128 006e 1A60     		str	r2, [r3]
 129              		.syntax unified
 130              	@ 374 "freertos/src/port.c" 1
 131 0070 BFF34F8F 		dsb
 132              	@ 0 "" 2
 133              	@ 375 "freertos/src/port.c" 1
 134 0074 BFF36F8F 		isb
 135              	@ 0 "" 2
 136              		.thumb
 137              		.syntax unified
 138 0078 7047     		bx	lr
 139              	.L11:
 140 007a 00BF     		.align	2
 141              	.L10:
 142 007c 04ED00E0 		.word	-536810236
 144              		.align	1
 145              		.p2align 2,,3
 146              		.global	ulPortSetInterruptMask
 147              		.syntax unified
 148              		.thumb
 149              		.thumb_func
 150              		.fpu softvfp
 152              	ulPortSetInterruptMask:
 153              		@ Naked Function: prologue and epilogue provided by programmer.
 154              		@ args = 0, pretend = 0, frame = 0
 155              		@ frame_needed = 0, uses_anonymous_args = 0
 156              		.syntax unified
 157              	@ 411 "freertos/src/port.c" 1
 158 0080 EFF31180 			mrs r0, basepri											
 159 0084 4FF02801 		mov r1, #40												
 160 0088 81F31188 		msr basepri, r1											
 161 008c 7047     		bx lr													
 162              	
 163              	@ 0 "" 2
 164              		.thumb
 165              		.syntax unified
 166 008e 0020     		movs	r0, #0
 168              		.align	1
 169              		.p2align 2,,3
 170              		.syntax unified
 171              		.thumb
 172              		.thumb_func
 173              		.fpu softvfp
 175              	prvTaskExitError:
 176              		@ Volatile: function does not return.
 177              		@ args = 0, pretend = 0, frame = 0
 178              		@ frame_needed = 0, uses_anonymous_args = 0
 179 0090 08B5     		push	{r3, lr}
 180 0092 FFF7FEFF 		bl	ulPortSetInterruptMask
 181              	.L14:
 182 0096 FEE7     		b	.L14
 184              		.align	1
 185              		.p2align 2,,3
 186              		.global	vPortEnterCritical
 187              		.syntax unified
 188              		.thumb
 189              		.thumb_func
 190              		.fpu softvfp
 192              	vPortEnterCritical:
 193              		@ args = 0, pretend = 0, frame = 0
 194              		@ frame_needed = 0, uses_anonymous_args = 0
 195 0098 08B5     		push	{r3, lr}
 196 009a FFF7FEFF 		bl	ulPortSetInterruptMask
 197 009e 044A     		ldr	r2, .L18
 198 00a0 1368     		ldr	r3, [r2]
 199 00a2 0133     		adds	r3, r3, #1
 200 00a4 1360     		str	r3, [r2]
 201              		.syntax unified
 202              	@ 383 "freertos/src/port.c" 1
 203 00a6 BFF34F8F 		dsb
 204              	@ 0 "" 2
 205              	@ 384 "freertos/src/port.c" 1
 206 00aa BFF36F8F 		isb
 207              	@ 0 "" 2
 208              		.thumb
 209              		.syntax unified
 210 00ae 08BD     		pop	{r3, pc}
 211              	.L19:
 212              		.align	2
 213              	.L18:
 214 00b0 00000000 		.word	.LANCHOR0
 216              		.align	1
 217              		.p2align 2,,3
 218              		.global	vPortClearInterruptMask
 219              		.syntax unified
 220              		.thumb
 221              		.thumb_func
 222              		.fpu softvfp
 224              	vPortClearInterruptMask:
 225              		@ Naked Function: prologue and epilogue provided by programmer.
 226              		@ args = 0, pretend = 0, frame = 0
 227              		@ frame_needed = 0, uses_anonymous_args = 0
 228              		.syntax unified
 229              	@ 428 "freertos/src/port.c" 1
 230 00b4 80F31188 			msr basepri, r0										
 231 00b8 7047     		bx lr												
 232              	
 233              	@ 0 "" 2
 234              		.thumb
 235              		.syntax unified
 237              		.align	1
 238 00ba 00BF     		.p2align 2,,3
 239              		.global	vPortExitCritical
 240              		.syntax unified
 241              		.thumb
 242              		.thumb_func
 243              		.fpu softvfp
 245              	vPortExitCritical:
 246              		@ args = 0, pretend = 0, frame = 0
 247              		@ frame_needed = 0, uses_anonymous_args = 0
 248              		@ link register save eliminated.
 249 00bc 034B     		ldr	r3, .L24
 250 00be 1868     		ldr	r0, [r3]
 251 00c0 0138     		subs	r0, r0, #1
 252 00c2 1860     		str	r0, [r3]
 253 00c4 00B1     		cbz	r0, .L23
 254 00c6 7047     		bx	lr
 255              	.L23:
 256 00c8 FFF7FEBF 		b	vPortClearInterruptMask
 257              	.L25:
 258              		.align	2
 259              	.L24:
 260 00cc 00000000 		.word	.LANCHOR0
 262              		.align	1
 263              		.p2align 2,,3
 264              		.global	xPortPendSVHandler
 265              		.syntax unified
 266              		.thumb
 267              		.thumb_func
 268              		.fpu softvfp
 270              	xPortPendSVHandler:
 271              		@ Naked Function: prologue and epilogue provided by programmer.
 272              		@ args = 0, pretend = 0, frame = 0
 273              		@ frame_needed = 0, uses_anonymous_args = 0
 274              		.syntax unified
 275              	@ 444 "freertos/src/port.c" 1
 276 00d0 EFF30980 			mrs r0, psp							
 277 00d4 BFF36F8F 		isb									
 278              											
 279 00d8 0D4B     		ldr	r3, pxCurrentTCBConst			
 280 00da 1A68     		ldr	r2, [r3]						
 281              											
 282 00dc 20E9F00F 		stmdb r0!, {r4-r11}					
 283 00e0 1060     		str r0, [r2]						
 284              											
 285 00e2 2DE90840 		stmdb sp!, {r3, r14}				
 286 00e6 4FF02800 		mov r0, #40							
 287 00ea 80F31188 		msr basepri, r0						
 288 00ee FFF7FEFF 		bl vTaskSwitchContext				
 289 00f2 4FF00000 		mov r0, #0							
 290 00f6 80F31188 		msr basepri, r0						
 291 00fa BDE80840 		ldmia sp!, {r3, r14}				
 292              											
 293 00fe 1968     		ldr r1, [r3]						
 294 0100 0868     		ldr r0, [r1]						
 295 0102 B0E8F00F 		ldmia r0!, {r4-r11}					
 296 0106 80F30988 		msr psp, r0							
 297 010a BFF36F8F 		isb									
 298 010e 7047     		bx r14								
 299              											
 300              		.align 2							
 301 0110 00000000 	pxCurrentTCBConst: .word pxCurrentTCB	
 302              	
 303              	@ 0 "" 2
 304              		.thumb
 305              		.syntax unified
 307              		.align	1
 308              		.p2align 2,,3
 309              		.global	xPortSysTickHandler
 310              		.syntax unified
 311              		.thumb
 312              		.thumb_func
 313              		.fpu softvfp
 315              	xPortSysTickHandler:
 316              		@ args = 0, pretend = 0, frame = 0
 317              		@ frame_needed = 0, uses_anonymous_args = 0
 318 0114 08B5     		push	{r3, lr}
 319 0116 FFF7FEFF 		bl	ulPortSetInterruptMask
 320 011a FFF7FEFF 		bl	xTaskIncrementTick
 321 011e 18B1     		cbz	r0, .L28
 322 0120 4FF08052 		mov	r2, #268435456
 323 0124 034B     		ldr	r3, .L33
 324 0126 1A60     		str	r2, [r3]
 325              	.L28:
 326 0128 0020     		movs	r0, #0
 327 012a BDE80840 		pop	{r3, lr}
 328 012e FFF7FEBF 		b	vPortClearInterruptMask
 329              	.L34:
 330 0132 00BF     		.align	2
 331              	.L33:
 332 0134 04ED00E0 		.word	-536810236
 334              		.align	1
 335              		.p2align 2,,3
 336              		.weak	vPortSetupTimerInterrupt
 337              		.syntax unified
 338              		.thumb
 339              		.thumb_func
 340              		.fpu softvfp
 342              	vPortSetupTimerInterrupt:
 343              		@ args = 0, pretend = 0, frame = 0
 344              		@ frame_needed = 0, uses_anonymous_args = 0
 345              		@ link register save eliminated.
 346 0138 0721     		movs	r1, #7
 347 013a 064B     		ldr	r3, .L36
 348 013c 064A     		ldr	r2, .L36+4
 349 013e 1B68     		ldr	r3, [r3]
 350 0140 0648     		ldr	r0, .L36+8
 351 0142 A2FB0323 		umull	r2, r3, r2, r3
 352 0146 064A     		ldr	r2, .L36+12
 353 0148 9B09     		lsrs	r3, r3, #6
 354 014a 013B     		subs	r3, r3, #1
 355 014c 0360     		str	r3, [r0]
 356 014e 1160     		str	r1, [r2]
 357 0150 7047     		bx	lr
 358              	.L37:
 359 0152 00BF     		.align	2
 360              	.L36:
 361 0154 00000000 		.word	SystemCoreClock
 362 0158 D34D6210 		.word	274877907
 363 015c 14E000E0 		.word	-536813548
 364 0160 10E000E0 		.word	-536813552
 366              		.align	1
 367              		.p2align 2,,3
 368              		.global	xPortStartScheduler
 369              		.syntax unified
 370              		.thumb
 371              		.thumb_func
 372              		.fpu softvfp
 374              	xPortStartScheduler:
 375              		@ Volatile: function does not return.
 376              		@ args = 0, pretend = 0, frame = 0
 377              		@ frame_needed = 0, uses_anonymous_args = 0
 378 0164 08B5     		push	{r3, lr}
 379 0166 094B     		ldr	r3, .L41
 380 0168 1A68     		ldr	r2, [r3]
 381 016a 42F47802 		orr	r2, r2, #16252928
 382 016e 1A60     		str	r2, [r3]
 383 0170 1A68     		ldr	r2, [r3]
 384 0172 42F07842 		orr	r2, r2, #-134217728
 385 0176 1A60     		str	r2, [r3]
 386 0178 FFF7FEFF 		bl	vPortSetupTimerInterrupt
 387 017c 0022     		movs	r2, #0
 388 017e 044B     		ldr	r3, .L41+4
 389 0180 1A60     		str	r2, [r3]
 390 0182 FFF73DFF 		bl	prvPortStartFirstTask
 391 0186 FFF7FEFF 		bl	ulPortSetInterruptMask
 392              	.L39:
 393 018a FEE7     		b	.L39
 394              	.L42:
 395              		.align	2
 396              	.L41:
 397 018c 20ED00E0 		.word	-536810208
 398 0190 00000000 		.word	.LANCHOR0
 400              		.data
 401              		.align	2
 402              		.set	.LANCHOR0,. + 0
 405              	uxCriticalNesting:
 406 0000 AAAAAAAA 		.word	-1431655766
 407              		.ident	"GCC: (GNU Tools for Arm Embedded Processors 7-2018-q3-update) 7.3.1 20180622 (release) [AR