   1              		.cpu cortex-m3
   2              		.eabi_attribute 20, 1
   3              		.eabi_attribute 21, 1
   4              		.eabi_attribute 23, 3
   5              		.eabi_attribute 24, 1
   6              		.eabi_attribute 25, 1
   7              		.eabi_attribute 26, 1
   8              		.eabi_attribute 30, 1
   9              		.eabi_attribute 34, 1
  10              		.eabi_attribute 18, 4
  11              		.file	"system.c"
  12              		.text
  13              		.align	1
  14              		.syntax unified
  15              		.thumb
  16              		.thumb_func
  17              		.fpu softvfp
  19              	update_status:
  20              		@ args = 0, pretend = 0, frame = 0
  21              		@ frame_needed = 0, uses_anonymous_args = 0
  22 0000 68B1     		cbz	r0, .L4
  23 0002 10B5     		push	{r4, lr}
  24 0004 0C46     		mov	r4, r1
  25 0006 3A21     		movs	r1, #58
  26 0008 FFF7FEFF 		bl	strchr
  27 000c 30B1     		cbz	r0, .L1
  28 000e 2CB1     		cbz	r4, .L1
  29 0010 2022     		movs	r2, #32
  30 0012 4270     		strb	r2, [r0, #1]
  31 0014 2146     		mov	r1, r4
  32 0016 0230     		adds	r0, r0, #2
  33 0018 FFF7FEFF 		bl	strcpy
  34              	.L1:
  35 001c 10BD     		pop	{r4, pc}
  36              	.L4:
  37 001e 7047     		bx	lr
  39              		.align	1
  40              		.global	request_item_value
  41              		.syntax unified
  42              		.thumb
  43              		.thumb_func
  44              		.fpu softvfp
  46              	request_item_value:
  47              		@ args = 0, pretend = 0, frame = 0
  48              		@ frame_needed = 0, uses_anonymous_args = 0
  49 0020 10B5     		push	{r4, lr}
  50 0022 0446     		mov	r4, r0
  51 0024 0648     		ldr	r0, .L9
  52 0026 FFF7FEFF 		bl	comm_webgui_set_response_cb
  53 002a 2046     		mov	r0, r4
  54 002c FFF7FEFF 		bl	strlen
  55 0030 0146     		mov	r1, r0
  56 0032 2046     		mov	r0, r4
  57 0034 FFF7FEFF 		bl	comm_webgui_send
  58 0038 FFF7FEFF 		bl	comm_webgui_wait_response
  59 003c 10BD     		pop	{r4, pc}
  60              	.L10:
  61 003e 00BF     		.align	2
  62              	.L9:
  63 0040 00000000 		.word	get_item_value
  65              		.align	1
  66              		.global	set_item_value
  67              		.syntax unified
  68              		.thumb
  69              		.thumb_func
  70              		.fpu softvfp
  72              	set_item_value:
  73              		@ args = 0, pretend = 0, frame = 64
  74              		@ frame_needed = 0, uses_anonymous_args = 0
  75 0044 30B5     		push	{r4, r5, lr}
  76 0046 91B0     		sub	sp, sp, #68
  77 0048 0D46     		mov	r5, r1
  78 004a 0146     		mov	r1, r0
  79 004c 03A8     		add	r0, sp, #12
  80 004e FFF7FEFF 		bl	copy_command
  81 0052 0446     		mov	r4, r0
  82 0054 0023     		movs	r3, #0
  83 0056 0822     		movs	r2, #8
  84 0058 01A9     		add	r1, sp, #4
  85 005a 2846     		mov	r0, r5
  86 005c FFF7FEFF 		bl	int_to_str
  87 0060 9DF80430 		ldrb	r3, [sp, #4]	@ zero_extendqisi2
  88 0064 CBB1     		cbz	r3, .L14
  89 0066 01AA     		add	r2, sp, #4
  90              	.L13:
  91 0068 651C     		adds	r5, r4, #1
  92 006a EDB2     		uxtb	r5, r5
  93 006c 10A9     		add	r1, sp, #64
  94 006e 0C44     		add	r4, r4, r1
  95 0070 04F8343C 		strb	r3, [r4, #-52]
  96 0074 12F8013F 		ldrb	r3, [r2, #1]!	@ zero_extendqisi2
  97 0078 2C46     		mov	r4, r5
  98 007a 002B     		cmp	r3, #0
  99 007c F4D1     		bne	.L13
 100              	.L12:
 101 007e 10AB     		add	r3, sp, #64
 102 0080 2B44     		add	r3, r3, r5
 103 0082 0020     		movs	r0, #0
 104 0084 03F8340C 		strb	r0, [r3, #-52]
 105 0088 0146     		mov	r1, r0
 106 008a FFF7FEFF 		bl	comm_webgui_set_response_cb
 107 008e 2946     		mov	r1, r5
 108 0090 03A8     		add	r0, sp, #12
 109 0092 FFF7FEFF 		bl	comm_webgui_send
 110 0096 11B0     		add	sp, sp, #68
 111              		@ sp needed
 112 0098 30BD     		pop	{r4, r5, pc}
 113              	.L14:
 114 009a 2546     		mov	r5, r4
 115 009c EFE7     		b	.L12
 117              		.align	1
 118              		.global	system_get_current_profile
 119              		.syntax unified
 120              		.thumb
 121              		.thumb_func
 122              		.fpu softvfp
 124              	system_get_current_profile:
 125              		@ args = 0, pretend = 0, frame = 0
 126              		@ frame_needed = 0, uses_anonymous_args = 0
 127              		@ link register save eliminated.
 128 009e 014B     		ldr	r3, .L18
 129 00a0 1878     		ldrb	r0, [r3]	@ zero_extendqisi2
 130 00a2 7047     		bx	lr
 131              	.L19:
 132              		.align	2
 133              	.L18:
 134 00a4 00000000 		.word	.LANCHOR0
 136              		.align	1
 137              		.global	system_pedalboard_cb
 138              		.syntax unified
 139              		.thumb
 140              		.thumb_func
 141              		.fpu softvfp
 143              	system_pedalboard_cb:
 144              		@ args = 0, pretend = 0, frame = 0
 145              		@ frame_needed = 0, uses_anonymous_args = 0
 146 00a8 99B9     		cbnz	r1, .L25
 147 00aa 08B5     		push	{r3, lr}
 148 00ac 837B     		ldrb	r3, [r0, #14]	@ zero_extendqisi2
 149 00ae 2BB9     		cbnz	r3, .L20
 150 00b0 4368     		ldr	r3, [r0, #4]
 151 00b2 DB88     		ldrh	r3, [r3, #6]
 152 00b4 842B     		cmp	r3, #132
 153 00b6 02D0     		beq	.L22
 154 00b8 852B     		cmp	r3, #133
 155 00ba 05D0     		beq	.L23
 156              	.L20:
 157 00bc 08BD     		pop	{r3, pc}
 158              	.L22:
 159 00be 0F21     		movs	r1, #15
 160 00c0 0448     		ldr	r0, .L28
 161 00c2 FFF7FEFF 		bl	comm_webgui_send
 162 00c6 F9E7     		b	.L20
 163              	.L23:
 164 00c8 1021     		movs	r1, #16
 165 00ca 0348     		ldr	r0, .L28+4
 166 00cc FFF7FEFF 		bl	comm_webgui_send
 167 00d0 F4E7     		b	.L20
 168              	.L25:
 169 00d2 7047     		bx	lr
 170              	.L29:
 171              		.align	2
 172              	.L28:
 173 00d4 00000000 		.word	.LC1
 174 00d8 10000000 		.word	.LC2
 176              		.align	1
 177              		.global	system_bluetooth_cb
 178              		.syntax unified
 179              		.thumb
 180              		.thumb_func
 181              		.fpu softvfp
 183              	system_bluetooth_cb:
 184              		@ args = 0, pretend = 0, frame = 0
 185              		@ frame_needed = 0, uses_anonymous_args = 0
 186 00dc 49BB     		cbnz	r1, .L34
 187 00de 10B5     		push	{r4, lr}
 188 00e0 0446     		mov	r4, r0
 189 00e2 4368     		ldr	r3, [r0, #4]
 190 00e4 DB88     		ldrh	r3, [r3, #6]
 191 00e6 8C2B     		cmp	r3, #140
 192 00e8 02D0     		beq	.L37
 193 00ea 8E2B     		cmp	r3, #142
 194 00ec 1CD0     		beq	.L38
 195              	.L30:
 196 00ee 10BD     		pop	{r4, pc}
 197              	.L37:
 198 00f0 0121     		movs	r1, #1
 199 00f2 1048     		ldr	r0, .L39
 200 00f4 FFF7FEFF 		bl	cli_command
 201 00f8 A368     		ldr	r3, [r4, #8]
 202 00fa 0146     		mov	r1, r0
 203 00fc 9868     		ldr	r0, [r3, #8]
 204 00fe FFF77FFF 		bl	update_status
 205 0102 0121     		movs	r1, #1
 206 0104 0C48     		ldr	r0, .L39+4
 207 0106 FFF7FEFF 		bl	cli_command
 208 010a A368     		ldr	r3, [r4, #8]
 209 010c 0146     		mov	r1, r0
 210 010e D868     		ldr	r0, [r3, #12]
 211 0110 FFF776FF 		bl	update_status
 212 0114 0121     		movs	r1, #1
 213 0116 0948     		ldr	r0, .L39+8
 214 0118 FFF7FEFF 		bl	cli_command
 215 011c A368     		ldr	r3, [r4, #8]
 216 011e 0146     		mov	r1, r0
 217 0120 1869     		ldr	r0, [r3, #16]
 218 0122 FFF76DFF 		bl	update_status
 219 0126 E2E7     		b	.L30
 220              	.L38:
 221 0128 0021     		movs	r1, #0
 222 012a 0548     		ldr	r0, .L39+12
 223 012c FFF7FEFF 		bl	cli_command
 224 0130 DDE7     		b	.L30
 225              	.L34:
 226 0132 7047     		bx	lr
 227              	.L40:
 228              		.align	2
 229              	.L39:
 230 0134 24000000 		.word	.LC3
 231 0138 3C000000 		.word	.LC4
 232 013c 50000000 		.word	.LC5
 233 0140 68000000 		.word	.LC6
 235              		.align	1
 236              		.global	system_services_cb
 237              		.syntax unified
 238              		.thumb
 239              		.thumb_func
 240              		.fpu softvfp
 242              	system_services_cb:
 243              		@ args = 0, pretend = 0, frame = 0
 244              		@ frame_needed = 0, uses_anonymous_args = 0
 245 0144 C1B9     		cbnz	r1, .L46
 246 0146 F8B5     		push	{r3, r4, r5, r6, r7, lr}
 247 0148 0C4B     		ldr	r3, .L49
 248 014a 5968     		ldr	r1, [r3, #4]
 249 014c 99B1     		cbz	r1, .L41
 250 014e 0546     		mov	r5, r0
 251 0150 0024     		movs	r4, #0
 252 0152 0B4F     		ldr	r7, .L49+4
 253 0154 1E46     		mov	r6, r3
 254              	.L43:
 255 0156 3846     		mov	r0, r7
 256 0158 FFF7FEFF 		bl	cli_systemctl
 257 015c 0134     		adds	r4, r4, #1
 258 015e AB68     		ldr	r3, [r5, #8]
 259 0160 0146     		mov	r1, r0
 260 0162 53F82400 		ldr	r0, [r3, r4, lsl #2]
 261 0166 FFF74BFF 		bl	update_status
 262 016a E4B2     		uxtb	r4, r4
 263 016c 06EB8403 		add	r3, r6, r4, lsl #2
 264 0170 5968     		ldr	r1, [r3, #4]
 265 0172 0029     		cmp	r1, #0
 266 0174 EFD1     		bne	.L43
 267              	.L41:
 268 0176 F8BD     		pop	{r3, r4, r5, r6, r7, pc}
 269              	.L46:
 270 0178 7047     		bx	lr
 271              	.L50:
 272 017a 00BF     		.align	2
 273              	.L49:
 274 017c 00000000 		.word	.LANCHOR0
 275 0180 80000000 		.word	.LC7
 277              		.align	1
 278              		.global	system_versions_cb
 279              		.syntax unified
 280              		.thumb
 281              		.thumb_func
 282              		.fpu softvfp
 284              	system_versions_cb:
 285              		@ args = 0, pretend = 0, frame = 8
 286              		@ frame_needed = 0, uses_anonymous_args = 0
 287 0184 99BB     		cbnz	r1, .L57
 288 0186 2DE9F043 		push	{r4, r5, r6, r7, r8, r9, lr}
 289 018a 83B0     		sub	sp, sp, #12
 290 018c 0646     		mov	r6, r0
 291 018e 0D46     		mov	r5, r1
 292 0190 174B     		ldr	r3, .L60
 293 0192 9B69     		ldr	r3, [r3, #24]
 294 0194 43B3     		cbz	r3, .L51
 295 0196 0024     		movs	r4, #0
 296 0198 DFF85890 		ldr	r9, .L60+4
 297 019c 4FF00208 		mov	r8, #2
 298 01a0 134F     		ldr	r7, .L60
 299              	.L54:
 300 01a2 4146     		mov	r1, r8
 301 01a4 4846     		mov	r0, r9
 302 01a6 FFF7FEFF 		bl	cli_command
 303 01aa 07EB8505 		add	r5, r7, r5, lsl #2
 304 01ae 0121     		movs	r1, #1
 305 01b0 A869     		ldr	r0, [r5, #24]
 306 01b2 FFF7FEFF 		bl	cli_command
 307 01b6 0722     		movs	r2, #7
 308 01b8 0146     		mov	r1, r0
 309 01ba 6846     		mov	r0, sp
 310 01bc FFF7FEFF 		bl	strncpy
 311 01c0 0023     		movs	r3, #0
 312 01c2 8DF80730 		strb	r3, [sp, #7]
 313 01c6 0134     		adds	r4, r4, #1
 314 01c8 B368     		ldr	r3, [r6, #8]
 315 01ca 6946     		mov	r1, sp
 316 01cc 53F82400 		ldr	r0, [r3, r4, lsl #2]
 317 01d0 FFF716FF 		bl	update_status
 318 01d4 3046     		mov	r0, r6
 319 01d6 FFF7FEFF 		bl	screen_system_menu
 320 01da E4B2     		uxtb	r4, r4
 321 01dc 2546     		mov	r5, r4
 322 01de 07EB8403 		add	r3, r7, r4, lsl #2
 323 01e2 9B69     		ldr	r3, [r3, #24]
 324 01e4 002B     		cmp	r3, #0
 325 01e6 DCD1     		bne	.L54
 326              	.L51:
 327 01e8 03B0     		add	sp, sp, #12
 328              		@ sp needed
 329 01ea BDE8F083 		pop	{r4, r5, r6, r7, r8, r9, pc}
 330              	.L57:
 331 01ee 7047     		bx	lr
 332              	.L61:
 333              		.align	2
 334              	.L60:
 335 01f0 00000000 		.word	.LANCHOR0
 336 01f4 8C000000 		.word	.LC8
 338              		.align	1
 339              		.global	system_release_cb
 340              		.syntax unified
 341              		.thumb
 342              		.thumb_func
 343              		.fpu softvfp
 345              	system_release_cb:
 346              		@ args = 0, pretend = 0, frame = 0
 347              		@ frame_needed = 0, uses_anonymous_args = 0
 348 01f8 01B1     		cbz	r1, .L68
 349 01fa 7047     		bx	lr
 350              	.L68:
 351 01fc 10B5     		push	{r4, lr}
 352 01fe 0446     		mov	r4, r0
 353 0200 0121     		movs	r1, #1
 354 0202 0248     		ldr	r0, .L69
 355 0204 FFF7FEFF 		bl	cli_command
 356 0208 6061     		str	r0, [r4, #20]
 357 020a 10BD     		pop	{r4, pc}
 358              	.L70:
 359              		.align	2
 360              	.L69:
 361 020c 9C000000 		.word	.LC9
 363              		.align	1
 364              		.global	system_device_cb
 365              		.syntax unified
 366              		.thumb
 367              		.thumb_func
 368              		.fpu softvfp
 370              	system_device_cb:
 371              		@ args = 0, pretend = 0, frame = 0
 372              		@ frame_needed = 0, uses_anonymous_args = 0
 373 0210 01B1     		cbz	r1, .L77
 374 0212 7047     		bx	lr
 375              	.L77:
 376 0214 10B5     		push	{r4, lr}
 377 0216 0446     		mov	r4, r0
 378 0218 0121     		movs	r1, #1
 379 021a 0448     		ldr	r0, .L78
 380 021c FFF7FEFF 		bl	cli_command
 381 0220 A368     		ldr	r3, [r4, #8]
 382 0222 0146     		mov	r1, r0
 383 0224 5868     		ldr	r0, [r3, #4]
 384 0226 FFF7EBFE 		bl	update_status
 385 022a 10BD     		pop	{r4, pc}
 386              	.L79:
 387              		.align	2
 388              	.L78:
 389 022c B0000000 		.word	.LC10
 391              		.align	1
 392              		.global	system_tag_cb
 393              		.syntax unified
 394              		.thumb
 395              		.thumb_func
 396              		.fpu softvfp
 398              	system_tag_cb:
 399              		@ args = 0, pretend = 0, frame = 0
 400              		@ frame_needed = 0, uses_anonymous_args = 0
 401 0230 01B1     		cbz	r1, .L88
 402 0232 7047     		bx	lr
 403              	.L88:
 404 0234 2DE9F843 		push	{r3, r4, r5, r6, r7, r8, r9, lr}
 405 0238 0746     		mov	r7, r0
 406 023a 0121     		movs	r1, #1
 407 023c 1248     		ldr	r0, .L89
 408 023e FFF7FEFF 		bl	cli_command
 409 0242 8146     		mov	r9, r0
 410 0244 FFF7FEFF 		bl	strlen
 411 0248 3D30     		adds	r0, r0, #61
 412 024a FFF7FEFF 		bl	pvPortMalloc
 413 024e 8046     		mov	r8, r0
 414 0250 0E4C     		ldr	r4, .L89+4
 415 0252 0546     		mov	r5, r0
 416 0254 04F1300C 		add	ip, r4, #48
 417              	.L82:
 418 0258 2646     		mov	r6, r4
 419 025a 0FCE     		ldmia	r6!, {r0, r1, r2, r3}
 420 025c 2860     		str	r0, [r5]	@ unaligned
 421 025e 6960     		str	r1, [r5, #4]	@ unaligned
 422 0260 AA60     		str	r2, [r5, #8]	@ unaligned
 423 0262 EB60     		str	r3, [r5, #12]	@ unaligned
 424 0264 3446     		mov	r4, r6
 425 0266 1035     		adds	r5, r5, #16
 426 0268 6645     		cmp	r6, ip
 427 026a F5D1     		bne	.L82
 428 026c 07CC     		ldmia	r4!, {r0, r1, r2}
 429 026e 2860     		str	r0, [r5]	@ unaligned
 430 0270 6960     		str	r1, [r5, #4]	@ unaligned
 431 0272 AA60     		str	r2, [r5, #8]	@ unaligned
 432 0274 2378     		ldrb	r3, [r4]	@ zero_extendqisi2
 433 0276 2B73     		strb	r3, [r5, #12]
 434 0278 4946     		mov	r1, r9
 435 027a 4046     		mov	r0, r8
 436 027c FFF7FEFF 		bl	strcat
 437 0280 C7F81480 		str	r8, [r7, #20]
 438 0284 BDE8F883 		pop	{r3, r4, r5, r6, r7, r8, r9, pc}
 439              	.L90:
 440              		.align	2
 441              	.L89:
 442 0288 B0000000 		.word	.LC10
 443 028c C8000000 		.word	.LC11
 445              		.align	1
 446              		.global	system_upgrade_cb
 447              		.syntax unified
 448              		.thumb
 449              		.thumb_func
 450              		.fpu softvfp
 452              	system_upgrade_cb:
 453              		@ args = 0, pretend = 0, frame = 0
 454              		@ frame_needed = 0, uses_anonymous_args = 0
 455 0290 01B1     		cbz	r1, .L97
 456 0292 7047     		bx	lr
 457              	.L97:
 458 0294 10B5     		push	{r4, lr}
 459 0296 0446     		mov	r4, r0
 460 0298 0220     		movs	r0, #2
 461 029a FFF7FEFF 		bl	hardware_actuators
 462 029e A37B     		ldrb	r3, [r4, #14]	@ zero_extendqisi2
 463 02a0 03B1     		cbz	r3, .L98
 464              	.L91:
 465 02a2 10BD     		pop	{r4, pc}
 466              	.L98:
 467 02a4 FFF7FEFF 		bl	actuator_get_status
 468 02a8 10F0020F 		tst	r0, #2
 469 02ac F9D0     		beq	.L91
 470 02ae 0020     		movs	r0, #0
 471 02b0 FFF7FEFF 		bl	cli_restore
 472 02b4 F5E7     		b	.L91
 474              		.global	__aeabi_f2iz
 475              		.global	__aeabi_i2f
 476              		.align	1
 477              		.global	system_volume_cb
 478              		.syntax unified
 479              		.thumb
 480              		.thumb_func
 481              		.fpu softvfp
 483              	system_volume_cb:
 484              		@ args = 0, pretend = 0, frame = 40
 485              		@ frame_needed = 0, uses_anonymous_args = 0
 486 02b6 2DE9F04F 		push	{r4, r5, r6, r7, r8, r9, r10, fp, lr}
 487 02ba 8BB0     		sub	sp, sp, #44
 488 02bc 0546     		mov	r5, r0
 489 02be 0C46     		mov	r4, r1
 490 02c0 4368     		ldr	r3, [r0, #4]
 491 02c2 DB88     		ldrh	r3, [r3, #6]
 492 02c4 6E3B     		subs	r3, r3, #110
 493 02c6 042B     		cmp	r3, #4
 494 02c8 00F2E380 		bhi	.L99
 495 02cc DFE813F0 		tbh	[pc, r3, lsl #1]
 496              	.L102:
 497 02d0 0D00     		.2byte	(.L101-.L102)/2
 498 02d2 4C01     		.2byte	(.L103-.L102)/2
 499 02d4 1001     		.2byte	(.L104-.L102)/2
 500 02d6 0500     		.2byte	(.L105-.L102)/2
 501 02d8 1801     		.2byte	(.L128-.L102)/2
 502              		.p2align 1
 503              	.L105:
 504 02da DFF85083 		ldr	r8, .L139+56
 505 02de 4FF0804B 		mov	fp, #1073741824
 506 02e2 4FF0000A 		mov	r10, #0
 507 02e6 C34E     		ldr	r6, .L139
 508 02e8 11E1     		b	.L106
 509              	.L101:
 510 02ea 0021     		movs	r1, #0
 511 02ec 0846     		mov	r0, r1
 512 02ee FFF7FEFF 		bl	cli_command
 513 02f2 671E     		subs	r7, r4, #1
 514 02f4 012F     		cmp	r7, #1
 515 02f6 34D9     		bls	.L129
 516 02f8 4FF06909 		mov	r9, #105
 517 02fc DFF83083 		ldr	r8, .L139+60
 518 0300 4FF07E5B 		mov	fp, #1065353216
 519 0304 DFF82CA3 		ldr	r10, .L139+64
 520 0308 BB4E     		ldr	r6, .L139+4
 521 030a 0AE1     		b	.L108
 522              	.L137:
 523 030c BB4B     		ldr	r3, .L139+8
 524 030e 1B78     		ldrb	r3, [r3]	@ zero_extendqisi2
 525 0310 002B     		cmp	r3, #0
 526 0312 00F00681 		beq	.L108
 527 0316 6B68     		ldr	r3, [r5, #4]
 528 0318 DB88     		ldrh	r3, [r3, #6]
 529 031a 722B     		cmp	r3, #114
 530 031c 00F00181 		beq	.L108
 531 0320 02AC     		add	r4, sp, #8
 532 0322 B74B     		ldr	r3, .L139+12
 533 0324 0FCB     		ldm	r3, {r0, r1, r2, r3}
 534 0326 84E80F00 		stm	r4, {r0, r1, r2, r3}
 535 032a B5F91C30 		ldrsh	r3, [r5, #28]
 536 032e 3C33     		adds	r3, r3, #60
 537 0330 C3EB0313 		rsb	r3, r3, r3, lsl #4
 538 0334 DB00     		lsls	r3, r3, #3
 539 0336 B348     		ldr	r0, .L139+16
 540 0338 80FB0320 		smull	r2, r0, r0, r3
 541 033c 1844     		add	r0, r0, r3
 542 033e DB17     		asrs	r3, r3, #31
 543 0340 C3EB6010 		rsb	r0, r3, r0, asr #5
 544 0344 0123     		movs	r3, #1
 545 0346 0822     		movs	r2, #8
 546 0348 6946     		mov	r1, sp
 547 034a 8730     		adds	r0, r0, #135
 548 034c FFF7FEFF 		bl	int_to_str
 549 0350 6946     		mov	r1, sp
 550 0352 2046     		mov	r0, r4
 551 0354 FFF7FEFF 		bl	strcat
 552 0358 0021     		movs	r1, #0
 553 035a 2046     		mov	r0, r4
 554 035c FFF7FEFF 		bl	cli_command
 555 0360 50E0     		b	.L112
 556              	.L129:
 557 0362 DFF8CC82 		ldr	r8, .L139+60
 558              	.L107:
 559 0366 A84B     		ldr	r3, .L139+20
 560 0368 1B78     		ldrb	r3, [r3]	@ zero_extendqisi2
 561 036a 002B     		cmp	r3, #0
 562 036c 40F00E81 		bne	.L110
 563 0370 4FF06909 		mov	r9, #105
 564 0374 4FF07E5B 		mov	fp, #1065353216
 565 0378 DFF8B8A2 		ldr	r10, .L139+64
 566 037c 9E4E     		ldr	r6, .L139+4
 567 037e D0E0     		b	.L108
 568              	.L131:
 569 0380 DFF8B482 		ldr	r8, .L139+68
 570 0384 EFE7     		b	.L107
 571              	.L113:
 572 0386 0221     		movs	r1, #2
 573 0388 A048     		ldr	r0, .L139+24
 574 038a FFF7FEFF 		bl	cli_command
 575 038e 0221     		movs	r1, #2
 576 0390 4046     		mov	r0, r8
 577 0392 FFF7FEFF 		bl	cli_command
 578 0396 0221     		movs	r1, #2
 579 0398 9D48     		ldr	r0, .L139+28
 580 039a FFF7FEFF 		bl	cli_command
 581 039e 0121     		movs	r1, #1
 582 03a0 0020     		movs	r0, #0
 583 03a2 FFF7FEFF 		bl	cli_command
 584 03a6 0146     		mov	r1, r0
 585 03a8 02A8     		add	r0, sp, #8
 586 03aa FFF7FEFF 		bl	strcpy
 587 03ae 3046     		mov	r0, r6
 588 03b0 FFF7FEFF 		bl	__aeabi_f2iz
 589 03b4 2883     		strh	r0, [r5, #24]	@ movhi
 590 03b6 5046     		mov	r0, r10
 591 03b8 FFF7FEFF 		bl	__aeabi_f2iz
 592 03bc 6883     		strh	r0, [r5, #26]	@ movhi
 593 03be 5846     		mov	r0, fp
 594 03c0 FFF7FEFF 		bl	__aeabi_f2iz
 595 03c4 E883     		strh	r0, [r5, #30]	@ movhi
 596 03c6 9DF80830 		ldrb	r3, [sp, #8]	@ zero_extendqisi2
 597 03ca 2D2B     		cmp	r3, #45
 598 03cc 15BF     		itete	ne
 599 03ce 0021     		movne	r1, #0
 600 03d0 0121     		moveq	r1, #1
 601 03d2 0120     		movne	r0, #1
 602 03d4 4FF0FF30 		moveq	r0, #-1
 603 03d8 0AAB     		add	r3, sp, #40
 604 03da 0B44     		add	r3, r3, r1
 605 03dc 13F8202C 		ldrb	r2, [r3, #-32]	@ zero_extendqisi2
 606 03e0 2E2A     		cmp	r2, #46
 607 03e2 59D0     		beq	.L134
 608 03e4 0AAB     		add	r3, sp, #40
 609 03e6 1944     		add	r1, r1, r3
 610 03e8 1F39     		subs	r1, r1, #31
 611 03ea 0023     		movs	r3, #0
 612              	.L116:
 613 03ec 03EB8303 		add	r3, r3, r3, lsl #2
 614 03f0 02EB4303 		add	r3, r2, r3, lsl #1
 615 03f4 303B     		subs	r3, r3, #48
 616 03f6 11F8012B 		ldrb	r2, [r1], #1	@ zero_extendqisi2
 617 03fa 2E2A     		cmp	r2, #46
 618 03fc F6D1     		bne	.L116
 619              	.L117:
 620 03fe 00FB03F3 		mul	r3, r0, r3
 621 0402 AB83     		strh	r3, [r5, #28]	@ movhi
 622              	.L112:
 623 0404 B5F91C00 		ldrsh	r0, [r5, #28]
 624 0408 FFF7FEFF 		bl	__aeabi_i2f
 625 040c 6B68     		ldr	r3, [r5, #4]
 626 040e DB88     		ldrh	r3, [r3, #6]
 627 0410 6E3B     		subs	r3, r3, #110
 628 0412 804A     		ldr	r2, .L139+32
 629 0414 42F82300 		str	r0, [r2, r3, lsl #2]	@ float
 630 0418 0123     		movs	r3, #1
 631 041a 0822     		movs	r2, #8
 632 041c 0DEB0201 		add	r1, sp, r2
 633 0420 FFF7FEFF 		bl	float_to_str
 634 0424 6B68     		ldr	r3, [r5, #4]
 635 0426 1968     		ldr	r1, [r3]
 636 0428 2868     		ldr	r0, [r5]
 637 042a FFF7FEFF 		bl	strcpy
 638 042e 02A8     		add	r0, sp, #8
 639 0430 FFF7FEFF 		bl	strlen
 640 0434 8246     		mov	r10, r0
 641 0436 2868     		ldr	r0, [r5]
 642 0438 FFF7FEFF 		bl	strlen
 643 043c C0B2     		uxtb	r0, r0
 644 043e 5FFA8AFA 		uxtb	r10, r10
 645 0442 CAF11D0A 		rsb	r10, r10, #29
 646 0446 AAEB000A 		sub	r10, r10, r0
 647 044a BAF1000F 		cmp	r10, #0
 648 044e 0DDD     		ble	.L119
 649 0450 0024     		movs	r4, #0
 650 0452 714B     		ldr	r3, .L139+36
 651 0454 B3F800B0 		ldrh	fp, [r3]	@ unaligned
 652              	.L120:
 653 0458 2E68     		ldr	r6, [r5]
 654 045a 3046     		mov	r0, r6
 655 045c FFF7FEFF 		bl	strlen
 656 0460 26F800B0 		strh	fp, [r6, r0]	@ unaligned
 657 0464 0134     		adds	r4, r4, #1
 658 0466 E4B2     		uxtb	r4, r4
 659 0468 5445     		cmp	r4, r10
 660 046a F5DB     		blt	.L120
 661              	.L119:
 662 046c 02A9     		add	r1, sp, #8
 663 046e 2868     		ldr	r0, [r5]
 664 0470 FFF7FEFF 		bl	strcat
 665 0474 2C68     		ldr	r4, [r5]
 666 0476 2046     		mov	r0, r4
 667 0478 FFF7FEFF 		bl	strlen
 668 047c 2218     		adds	r2, r4, r0
 669 047e 674B     		ldr	r3, .L139+40
 670 0480 1988     		ldrh	r1, [r3]	@ unaligned
 671 0482 9B78     		ldrb	r3, [r3, #2]	@ zero_extendqisi2
 672 0484 2152     		strh	r1, [r4, r0]	@ unaligned
 673 0486 9370     		strb	r3, [r2, #2]
 674 0488 012F     		cmp	r7, #1
 675 048a 07D9     		bls	.L136
 676              	.L121:
 677 048c 0120     		movs	r0, #1
 678 048e FFF7FEFF 		bl	naveg_settings_refresh
 679              	.L99:
 680 0492 0BB0     		add	sp, sp, #44
 681              		@ sp needed
 682 0494 BDE8F08F 		pop	{r4, r5, r6, r7, r8, r9, r10, fp, pc}
 683              	.L134:
 684 0498 0023     		movs	r3, #0
 685 049a B0E7     		b	.L117
 686              	.L136:
 687 049c B9F1690F 		cmp	r9, #105
 688 04a0 14BF     		ite	ne
 689 04a2 564B     		ldrne	r3, .L139+8
 690 04a4 584B     		ldreq	r3, .L139+20
 691 04a6 1B78     		ldrb	r3, [r3]	@ zero_extendqisi2
 692 04a8 0033     		adds	r3, r3, #0
 693 04aa 18BF     		it	ne
 694 04ac 0123     		movne	r3, #1
 695 04ae 002B     		cmp	r3, #0
 696 04b0 ECD0     		beq	.L121
 697 04b2 6B68     		ldr	r3, [r5, #4]
 698 04b4 DC88     		ldrh	r4, [r3, #6]
 699 04b6 722C     		cmp	r4, #114
 700 04b8 E8D0     		beq	.L121
 701 04ba 3121     		movs	r1, #49
 702 04bc 4046     		mov	r0, r8
 703 04be FFF7FEFF 		bl	strchr
 704 04c2 50B1     		cbz	r0, .L124
 705 04c4 B5F91C00 		ldrsh	r0, [r5, #28]
 706 04c8 FFF7FEFF 		bl	__aeabi_i2f
 707 04cc 611C     		adds	r1, r4, #1
 708 04ce 0246     		mov	r2, r0
 709 04d0 C9B2     		uxtb	r1, r1
 710 04d2 0120     		movs	r0, #1
 711 04d4 FFF7FEFF 		bl	naveg_update_gain
 712 04d8 D8E7     		b	.L121
 713              	.L124:
 714 04da B5F91C00 		ldrsh	r0, [r5, #28]
 715 04de FFF7FEFF 		bl	__aeabi_i2f
 716 04e2 611E     		subs	r1, r4, #1
 717 04e4 0246     		mov	r2, r0
 718 04e6 C9B2     		uxtb	r1, r1
 719 04e8 0120     		movs	r0, #1
 720 04ea FFF7FEFF 		bl	naveg_update_gain
 721 04ee CDE7     		b	.L121
 722              	.L104:
 723 04f0 DFF84881 		ldr	r8, .L139+72
 724 04f4 4FF0804B 		mov	fp, #1073741824
 725 04f8 4FF0000A 		mov	r10, #0
 726 04fc 3D4E     		ldr	r6, .L139
 727 04fe 06E0     		b	.L106
 728              	.L128:
 729 0500 DFF83C81 		ldr	r8, .L139+76
 730 0504 DFF83CB1 		ldr	fp, .L139+80
 731 0508 DFF828A1 		ldr	r10, .L139+64
 732 050c 444E     		ldr	r6, .L139+44
 733              	.L106:
 734 050e 0021     		movs	r1, #0
 735 0510 0846     		mov	r0, r1
 736 0512 FFF7FEFF 		bl	cli_command
 737 0516 98F80090 		ldrb	r9, [r8]	@ zero_extendqisi2
 738 051a 671E     		subs	r7, r4, #1
 739 051c 012F     		cmp	r7, #1
 740 051e 7FF6F5AE 		bls	.L137
 741              	.L108:
 742 0522 002C     		cmp	r4, #0
 743 0524 3FF42FAF 		beq	.L113
 744 0528 032C     		cmp	r4, #3
 745 052a 3FF42CAF 		beq	.L113
 746 052e 012F     		cmp	r7, #1
 747 0530 3FF668AF 		bhi	.L112
 748 0534 0221     		movs	r1, #2
 749 0536 3548     		ldr	r0, .L139+24
 750 0538 FFF7FEFF 		bl	cli_command
 751 053c 0221     		movs	r1, #2
 752 053e 4046     		mov	r0, r8
 753 0540 FFF7FEFF 		bl	cli_command
 754 0544 0221     		movs	r1, #2
 755 0546 3248     		ldr	r0, .L139+28
 756 0548 FFF7FEFF 		bl	cli_command
 757 054c B5F91C00 		ldrsh	r0, [r5, #28]
 758 0550 FFF7FEFF 		bl	__aeabi_i2f
 759 0554 0123     		movs	r3, #1
 760 0556 0822     		movs	r2, #8
 761 0558 6946     		mov	r1, sp
 762 055a FFF7FEFF 		bl	float_to_str
 763 055e 0021     		movs	r1, #0
 764 0560 6846     		mov	r0, sp
 765 0562 FFF7FEFF 		bl	cli_command
 766 0566 4DE7     		b	.L112
 767              	.L103:
 768 0568 0021     		movs	r1, #0
 769 056a 0846     		mov	r0, r1
 770 056c FFF7FEFF 		bl	cli_command
 771 0570 671E     		subs	r7, r4, #1
 772 0572 012F     		cmp	r7, #1
 773 0574 7FF604AF 		bls	.L131
 774 0578 4FF06909 		mov	r9, #105
 775 057c DFF8B880 		ldr	r8, .L139+68
 776 0580 4FF07E5B 		mov	fp, #1065353216
 777 0584 DFF8ACA0 		ldr	r10, .L139+64
 778 0588 1B4E     		ldr	r6, .L139+4
 779 058a CAE7     		b	.L108
 780              	.L110:
 781 058c 6B68     		ldr	r3, [r5, #4]
 782 058e DB88     		ldrh	r3, [r3, #6]
 783 0590 722B     		cmp	r3, #114
 784 0592 27D0     		beq	.L138
 785 0594 02AC     		add	r4, sp, #8
 786 0596 234E     		ldr	r6, .L139+48
 787 0598 0FCE     		ldmia	r6!, {r0, r1, r2, r3}
 788 059a 0FC4     		stmia	r4!, {r0, r1, r2, r3}
 789 059c 96E80300 		ldm	r6, {r0, r1}
 790 05a0 44F8040B 		str	r0, [r4], #4
 791 05a4 24F8021B 		strh	r1, [r4], #2	@ movhi
 792 05a8 090C     		lsrs	r1, r1, #16
 793 05aa 2170     		strb	r1, [r4]
 794 05ac B5F91C30 		ldrsh	r3, [r5, #28]
 795 05b0 0C33     		adds	r3, r3, #12
 796 05b2 03EB4303 		add	r3, r3, r3, lsl #1
 797 05b6 1B01     		lsls	r3, r3, #4
 798 05b8 1B4C     		ldr	r4, .L139+52
 799 05ba 84FB0324 		smull	r2, r4, r4, r3
 800 05be D817     		asrs	r0, r3, #31
 801 05c0 0123     		movs	r3, #1
 802 05c2 0822     		movs	r2, #8
 803 05c4 6946     		mov	r1, sp
 804 05c6 C0EBA400 		rsb	r0, r0, r4, asr #2
 805 05ca FFF7FEFF 		bl	int_to_str
 806 05ce 6946     		mov	r1, sp
 807 05d0 02A8     		add	r0, sp, #8
 808 05d2 FFF7FEFF 		bl	strcat
 809 05d6 0021     		movs	r1, #0
 810 05d8 02A8     		add	r0, sp, #8
 811 05da FFF7FEFF 		bl	cli_command
 812 05de 4FF06909 		mov	r9, #105
 813 05e2 0FE7     		b	.L112
 814              	.L138:
 815 05e4 4FF06909 		mov	r9, #105
 816 05e8 4FF07E5B 		mov	fp, #1065353216
 817 05ec DFF844A0 		ldr	r10, .L139+64
 818 05f0 014E     		ldr	r6, .L139+4
 819 05f2 96E7     		b	.L108
 820              	.L140:
 821              		.align	2
 822              	.L139:
 823 05f4 000070C2 		.word	-1032847360
 824 05f8 000040C1 		.word	-1052770304
 825 05fc 00000000 		.word	sl_out
 826 0600 44010000 		.word	.LC18
 827 0604 89888888 		.word	-2004318071
 828 0608 00000000 		.word	sl_in
 829 060c 54010000 		.word	.LC19
 830 0610 60010000 		.word	.LC20
 831 0614 00000000 		.word	.LANCHOR1
 832 0618 68010000 		.word	.LC21
 833 061c 6C010000 		.word	.LC22
 834 0620 000004C2 		.word	-1039925248
 835 0624 2C010000 		.word	.LC17
 836 0628 ABAAAA2A 		.word	715827883
 837 062c 1C010000 		.word	.LC15
 838 0630 08010000 		.word	.LC12
 839 0634 00004041 		.word	1094713344
 840 0638 10010000 		.word	.LC13
 841 063c 24010000 		.word	.LC16
 842 0640 18010000 		.word	.LC14
 843 0644 00004040 		.word	1077936128
 845              		.global	__aeabi_d2iz
 846              		.align	1
 847              		.syntax unified
 848              		.thumb
 849              		.thumb_func
 850              		.fpu softvfp
 852              	get_item_value:
 853              		@ args = 0, pretend = 0, frame = 0
 854              		@ frame_needed = 0, uses_anonymous_args = 0
 855 0648 10B5     		push	{r4, lr}
 856 064a 0C46     		mov	r4, r1
 857 064c 4B68     		ldr	r3, [r1, #4]
 858 064e DB88     		ldrh	r3, [r3, #6]
 859 0650 0B3B     		subs	r3, r3, #11
 860 0652 C22B     		cmp	r3, #194
 861 0654 00F2CB80 		bhi	.L141
 862 0658 DFE813F0 		tbh	[pc, r3, lsl #1]
 863              	.L144:
 864 065c EE00     		.2byte	(.L143-.L144)/2
 865 065e 0701     		.2byte	(.L145-.L144)/2
 866 0660 C900     		.2byte	(.L141-.L144)/2
 867 0662 C900     		.2byte	(.L141-.L144)/2
 868 0664 C900     		.2byte	(.L141-.L144)/2
 869 0666 C900     		.2byte	(.L141-.L144)/2
 870 0668 C900     		.2byte	(.L141-.L144)/2
 871 066a C900     		.2byte	(.L141-.L144)/2
 872 066c C900     		.2byte	(.L141-.L144)/2
 873 066e C900     		.2byte	(.L141-.L144)/2
 874 0670 0C01     		.2byte	(.L146-.L144)/2
 875 0672 2C01     		.2byte	(.L147-.L144)/2
 876 0674 2501     		.2byte	(.L148-.L144)/2
 877 0676 C900     		.2byte	(.L141-.L144)/2
 878 0678 C900     		.2byte	(.L141-.L144)/2
 879 067a C900     		.2byte	(.L141-.L144)/2
 880 067c C900     		.2byte	(.L141-.L144)/2
 881 067e C900     		.2byte	(.L141-.L144)/2
 882 0680 C900     		.2byte	(.L141-.L144)/2
 883 0682 E900     		.2byte	(.L149-.L144)/2
 884 0684 C900     		.2byte	(.L141-.L144)/2
 885 0686 C900     		.2byte	(.L141-.L144)/2
 886 0688 C900     		.2byte	(.L141-.L144)/2
 887 068a C900     		.2byte	(.L141-.L144)/2
 888 068c C900     		.2byte	(.L141-.L144)/2
 889 068e C900     		.2byte	(.L141-.L144)/2
 890 0690 C900     		.2byte	(.L141-.L144)/2
 891 0692 C900     		.2byte	(.L141-.L144)/2
 892 0694 C900     		.2byte	(.L141-.L144)/2
 893 0696 C900     		.2byte	(.L141-.L144)/2
 894 0698 C900     		.2byte	(.L141-.L144)/2
 895 069a C900     		.2byte	(.L141-.L144)/2
 896 069c C900     		.2byte	(.L141-.L144)/2
 897 069e C900     		.2byte	(.L141-.L144)/2
 898 06a0 C900     		.2byte	(.L141-.L144)/2
 899 06a2 C900     		.2byte	(.L141-.L144)/2
 900 06a4 C900     		.2byte	(.L141-.L144)/2
 901 06a6 C900     		.2byte	(.L141-.L144)/2
 902 06a8 C900     		.2byte	(.L141-.L144)/2
 903 06aa C900     		.2byte	(.L141-.L144)/2
 904 06ac C900     		.2byte	(.L141-.L144)/2
 905 06ae C900     		.2byte	(.L141-.L144)/2
 906 06b0 C900     		.2byte	(.L141-.L144)/2
 907 06b2 C900     		.2byte	(.L141-.L144)/2
 908 06b4 C900     		.2byte	(.L141-.L144)/2
 909 06b6 C900     		.2byte	(.L141-.L144)/2
 910 06b8 C900     		.2byte	(.L141-.L144)/2
 911 06ba C900     		.2byte	(.L141-.L144)/2
 912 06bc C900     		.2byte	(.L141-.L144)/2
 913 06be C900     		.2byte	(.L141-.L144)/2
 914 06c0 C900     		.2byte	(.L141-.L144)/2
 915 06c2 C900     		.2byte	(.L141-.L144)/2
 916 06c4 C900     		.2byte	(.L141-.L144)/2
 917 06c6 C900     		.2byte	(.L141-.L144)/2
 918 06c8 C900     		.2byte	(.L141-.L144)/2
 919 06ca C900     		.2byte	(.L141-.L144)/2
 920 06cc C900     		.2byte	(.L141-.L144)/2
 921 06ce C900     		.2byte	(.L141-.L144)/2
 922 06d0 C900     		.2byte	(.L141-.L144)/2
 923 06d2 C900     		.2byte	(.L141-.L144)/2
 924 06d4 C900     		.2byte	(.L141-.L144)/2
 925 06d6 C900     		.2byte	(.L141-.L144)/2
 926 06d8 C900     		.2byte	(.L141-.L144)/2
 927 06da C900     		.2byte	(.L141-.L144)/2
 928 06dc C900     		.2byte	(.L141-.L144)/2
 929 06de C900     		.2byte	(.L141-.L144)/2
 930 06e0 C900     		.2byte	(.L141-.L144)/2
 931 06e2 C900     		.2byte	(.L141-.L144)/2
 932 06e4 C900     		.2byte	(.L141-.L144)/2
 933 06e6 C900     		.2byte	(.L141-.L144)/2
 934 06e8 C900     		.2byte	(.L141-.L144)/2
 935 06ea C900     		.2byte	(.L141-.L144)/2
 936 06ec C900     		.2byte	(.L141-.L144)/2
 937 06ee C900     		.2byte	(.L141-.L144)/2
 938 06f0 C900     		.2byte	(.L141-.L144)/2
 939 06f2 C900     		.2byte	(.L141-.L144)/2
 940 06f4 C900     		.2byte	(.L141-.L144)/2
 941 06f6 C900     		.2byte	(.L141-.L144)/2
 942 06f8 C900     		.2byte	(.L141-.L144)/2
 943 06fa C900     		.2byte	(.L141-.L144)/2
 944 06fc C900     		.2byte	(.L141-.L144)/2
 945 06fe C900     		.2byte	(.L141-.L144)/2
 946 0700 C900     		.2byte	(.L141-.L144)/2
 947 0702 C900     		.2byte	(.L141-.L144)/2
 948 0704 C900     		.2byte	(.L141-.L144)/2
 949 0706 C900     		.2byte	(.L141-.L144)/2
 950 0708 C900     		.2byte	(.L141-.L144)/2
 951 070a C900     		.2byte	(.L141-.L144)/2
 952 070c C900     		.2byte	(.L141-.L144)/2
 953 070e C900     		.2byte	(.L141-.L144)/2
 954 0710 C900     		.2byte	(.L141-.L144)/2
 955 0712 C900     		.2byte	(.L141-.L144)/2
 956 0714 C900     		.2byte	(.L141-.L144)/2
 957 0716 C900     		.2byte	(.L141-.L144)/2
 958 0718 C900     		.2byte	(.L141-.L144)/2
 959 071a C900     		.2byte	(.L141-.L144)/2
 960 071c C900     		.2byte	(.L141-.L144)/2
 961 071e C900     		.2byte	(.L141-.L144)/2
 962 0720 C900     		.2byte	(.L141-.L144)/2
 963 0722 F500     		.2byte	(.L150-.L144)/2
 964 0724 FE00     		.2byte	(.L151-.L144)/2
 965 0726 1301     		.2byte	(.L152-.L144)/2
 966 0728 1C01     		.2byte	(.L153-.L144)/2
 967 072a 3101     		.2byte	(.L154-.L144)/2
 968 072c C900     		.2byte	(.L141-.L144)/2
 969 072e C900     		.2byte	(.L141-.L144)/2
 970 0730 C900     		.2byte	(.L141-.L144)/2
 971 0732 C900     		.2byte	(.L141-.L144)/2
 972 0734 C900     		.2byte	(.L141-.L144)/2
 973 0736 C900     		.2byte	(.L141-.L144)/2
 974 0738 C900     		.2byte	(.L141-.L144)/2
 975 073a C900     		.2byte	(.L141-.L144)/2
 976 073c C900     		.2byte	(.L141-.L144)/2
 977 073e C900     		.2byte	(.L141-.L144)/2
 978 0740 C900     		.2byte	(.L141-.L144)/2
 979 0742 C900     		.2byte	(.L141-.L144)/2
 980 0744 C900     		.2byte	(.L141-.L144)/2
 981 0746 C900     		.2byte	(.L141-.L144)/2
 982 0748 C900     		.2byte	(.L141-.L144)/2
 983 074a C900     		.2byte	(.L141-.L144)/2
 984 074c C900     		.2byte	(.L141-.L144)/2
 985 074e C900     		.2byte	(.L141-.L144)/2
 986 0750 C900     		.2byte	(.L141-.L144)/2
 987 0752 C900     		.2byte	(.L141-.L144)/2
 988 0754 C900     		.2byte	(.L141-.L144)/2
 989 0756 C900     		.2byte	(.L141-.L144)/2
 990 0758 C900     		.2byte	(.L141-.L144)/2
 991 075a C900     		.2byte	(.L141-.L144)/2
 992 075c C900     		.2byte	(.L141-.L144)/2
 993 075e C900     		.2byte	(.L141-.L144)/2
 994 0760 C900     		.2byte	(.L141-.L144)/2
 995 0762 C900     		.2byte	(.L141-.L144)/2
 996 0764 C900     		.2byte	(.L141-.L144)/2
 997 0766 C900     		.2byte	(.L141-.L144)/2
 998 0768 C900     		.2byte	(.L141-.L144)/2
 999 076a C900     		.2byte	(.L141-.L144)/2
 1000 076c C900     		.2byte	(.L141-.L144)/2
 1001 076e C900     		.2byte	(.L141-.L144)/2
 1002 0770 C900     		.2byte	(.L141-.L144)/2
 1003 0772 C900     		.2byte	(.L141-.L144)/2
 1004 0774 C900     		.2byte	(.L141-.L144)/2
 1005 0776 C900     		.2byte	(.L141-.L144)/2
 1006 0778 C900     		.2byte	(.L141-.L144)/2
 1007 077a C900     		.2byte	(.L141-.L144)/2
 1008 077c C900     		.2byte	(.L141-.L144)/2
 1009 077e C900     		.2byte	(.L141-.L144)/2
 1010 0780 C900     		.2byte	(.L141-.L144)/2
 1011 0782 C900     		.2byte	(.L141-.L144)/2
 1012 0784 C900     		.2byte	(.L141-.L144)/2
 1013 0786 5001     		.2byte	(.L155-.L144)/2
 1014 0788 C900     		.2byte	(.L141-.L144)/2
 1015 078a C900     		.2byte	(.L141-.L144)/2
 1016 078c C900     		.2byte	(.L141-.L144)/2
 1017 078e C900     		.2byte	(.L141-.L144)/2
 1018 0790 C900     		.2byte	(.L141-.L144)/2
 1019 0792 C900     		.2byte	(.L141-.L144)/2
 1020 0794 C900     		.2byte	(.L141-.L144)/2
 1021 0796 C900     		.2byte	(.L141-.L144)/2
 1022 0798 C900     		.2byte	(.L141-.L144)/2
 1023 079a C900     		.2byte	(.L141-.L144)/2
 1024 079c CA00     		.2byte	(.L156-.L144)/2
 1025 079e D100     		.2byte	(.L157-.L144)/2
 1026 07a0 D800     		.2byte	(.L158-.L144)/2
 1027 07a2 C300     		.2byte	(.L159-.L144)/2
 1028 07a4 C900     		.2byte	(.L141-.L144)/2
 1029 07a6 C900     		.2byte	(.L141-.L144)/2
 1030 07a8 C900     		.2byte	(.L141-.L144)/2
 1031 07aa C900     		.2byte	(.L141-.L144)/2
 1032 07ac C900     		.2byte	(.L141-.L144)/2
 1033 07ae C900     		.2byte	(.L141-.L144)/2
 1034 07b0 DF00     		.2byte	(.L160-.L144)/2
 1035 07b2 E400     		.2byte	(.L161-.L144)/2
 1036 07b4 C900     		.2byte	(.L141-.L144)/2
 1037 07b6 C900     		.2byte	(.L141-.L144)/2
 1038 07b8 C900     		.2byte	(.L141-.L144)/2
 1039 07ba C900     		.2byte	(.L141-.L144)/2
 1040 07bc C900     		.2byte	(.L141-.L144)/2
 1041 07be C900     		.2byte	(.L141-.L144)/2
 1042 07c0 C900     		.2byte	(.L141-.L144)/2
 1043 07c2 C900     		.2byte	(.L141-.L144)/2
 1044 07c4 5B01     		.2byte	(.L162-.L144)/2
 1045 07c6 5B01     		.2byte	(.L162-.L144)/2
 1046 07c8 5B01     		.2byte	(.L162-.L144)/2
 1047 07ca 5B01     		.2byte	(.L162-.L144)/2
 1048 07cc C900     		.2byte	(.L141-.L144)/2
 1049 07ce C900     		.2byte	(.L141-.L144)/2
 1050 07d0 C900     		.2byte	(.L141-.L144)/2
 1051 07d2 C900     		.2byte	(.L141-.L144)/2
 1052 07d4 C900     		.2byte	(.L141-.L144)/2
 1053 07d6 C900     		.2byte	(.L141-.L144)/2
 1054 07d8 C900     		.2byte	(.L141-.L144)/2
 1055 07da 3C01     		.2byte	(.L163-.L144)/2
 1056 07dc 4101     		.2byte	(.L164-.L144)/2
 1057 07de 4601     		.2byte	(.L165-.L144)/2
 1058 07e0 4B01     		.2byte	(.L166-.L144)/2
 1059              		.p2align 1
 1060              	.L159:
 1061 07e2 8068     		ldr	r0, [r0, #8]
 1062 07e4 FFF7FEFF 		bl	atoi
 1063 07e8 A083     		strh	r0, [r4, #28]	@ movhi
 1064 07ea 524B     		ldr	r3, .L168
 1065 07ec 1875     		strb	r0, [r3, #20]
 1066              	.L141:
 1067 07ee 10BD     		pop	{r4, pc}
 1068              	.L156:
 1069 07f0 8068     		ldr	r0, [r0, #8]
 1070 07f2 FFF7FEFF 		bl	atoi
 1071 07f6 A083     		strh	r0, [r4, #28]	@ movhi
 1072 07f8 4E4B     		ldr	r3, .L168
 1073 07fa 1876     		strb	r0, [r3, #24]
 1074 07fc F7E7     		b	.L141
 1075              	.L157:
 1076 07fe 8068     		ldr	r0, [r0, #8]
 1077 0800 FFF7FEFF 		bl	atoi
 1078 0804 A083     		strh	r0, [r4, #28]	@ movhi
 1079 0806 4B4B     		ldr	r3, .L168
 1080 0808 5876     		strb	r0, [r3, #25]
 1081 080a F0E7     		b	.L141
 1082              	.L158:
 1083 080c 8068     		ldr	r0, [r0, #8]
 1084 080e FFF7FEFF 		bl	atoi
 1085 0812 A083     		strh	r0, [r4, #28]	@ movhi
 1086 0814 474B     		ldr	r3, .L168
 1087 0816 9876     		strb	r0, [r3, #26]
 1088 0818 E9E7     		b	.L141
 1089              	.L160:
 1090 081a 8068     		ldr	r0, [r0, #8]
 1091 081c FFF7FEFF 		bl	atoi
 1092 0820 A083     		strh	r0, [r4, #28]	@ movhi
 1093 0822 E4E7     		b	.L141
 1094              	.L161:
 1095 0824 8068     		ldr	r0, [r0, #8]
 1096 0826 FFF7FEFF 		bl	atoi
 1097 082a A083     		strh	r0, [r4, #28]	@ movhi
 1098 082c DFE7     		b	.L141
 1099              	.L149:
 1100 082e 8068     		ldr	r0, [r0, #8]
 1101 0830 FFF7FEFF 		bl	atoi
 1102 0834 A083     		strh	r0, [r4, #28]	@ movhi
 1103 0836 DAE7     		b	.L141
 1104              	.L143:
 1105 0838 8068     		ldr	r0, [r0, #8]
 1106 083a FFF7FEFF 		bl	atoi
 1107 083e A083     		strh	r0, [r4, #28]	@ movhi
 1108 0840 3D4B     		ldr	r3, .L168+4
 1109 0842 1870     		strb	r0, [r3]
 1110 0844 D3E7     		b	.L141
 1111              	.L150:
 1112 0846 8068     		ldr	r0, [r0, #8]
 1113 0848 FFF7FEFF 		bl	atoi
 1114 084c A083     		strh	r0, [r4, #28]	@ movhi
 1115 084e 0121     		movs	r1, #1
 1116 0850 2046     		mov	r0, r4
 1117 0852 FFF7FEFF 		bl	system_volume_cb
 1118 0856 CAE7     		b	.L141
 1119              	.L151:
 1120 0858 8068     		ldr	r0, [r0, #8]
 1121 085a FFF7FEFF 		bl	atoi
 1122 085e A083     		strh	r0, [r4, #28]	@ movhi
 1123 0860 0121     		movs	r1, #1
 1124 0862 2046     		mov	r0, r4
 1125 0864 FFF7FEFF 		bl	system_volume_cb
 1126 0868 C1E7     		b	.L141
 1127              	.L145:
 1128 086a 8068     		ldr	r0, [r0, #8]
 1129 086c FFF7FEFF 		bl	atoi
 1130 0870 A083     		strh	r0, [r4, #28]	@ movhi
 1131 0872 BCE7     		b	.L141
 1132              	.L146:
 1133 0874 8068     		ldr	r0, [r0, #8]
 1134 0876 FFF7FEFF 		bl	atoi
 1135 087a A083     		strh	r0, [r4, #28]	@ movhi
 1136 087c 2F4B     		ldr	r3, .L168+8
 1137 087e 1870     		strb	r0, [r3]
 1138 0880 B5E7     		b	.L141
 1139              	.L152:
 1140 0882 8068     		ldr	r0, [r0, #8]
 1141 0884 FFF7FEFF 		bl	atoi
 1142 0888 A083     		strh	r0, [r4, #28]	@ movhi
 1143 088a 0121     		movs	r1, #1
 1144 088c 2046     		mov	r0, r4
 1145 088e FFF7FEFF 		bl	system_volume_cb
 1146 0892 ACE7     		b	.L141
 1147              	.L153:
 1148 0894 8068     		ldr	r0, [r0, #8]
 1149 0896 FFF7FEFF 		bl	atoi
 1150 089a A083     		strh	r0, [r4, #28]	@ movhi
 1151 089c 0121     		movs	r1, #1
 1152 089e 2046     		mov	r0, r4
 1153 08a0 FFF7FEFF 		bl	system_volume_cb
 1154 08a4 A3E7     		b	.L141
 1155              	.L148:
 1156 08a6 8068     		ldr	r0, [r0, #8]
 1157 08a8 FFF7FEFF 		bl	atoi
 1158 08ac A083     		strh	r0, [r4, #28]	@ movhi
 1159 08ae 214B     		ldr	r3, .L168
 1160 08b0 1877     		strb	r0, [r3, #28]
 1161 08b2 9CE7     		b	.L141
 1162              	.L147:
 1163 08b4 8068     		ldr	r0, [r0, #8]
 1164 08b6 FFF7FEFF 		bl	atoi
 1165 08ba A083     		strh	r0, [r4, #28]	@ movhi
 1166 08bc 97E7     		b	.L141
 1167              	.L154:
 1168 08be 8068     		ldr	r0, [r0, #8]
 1169 08c0 FFF7FEFF 		bl	atof
 1170 08c4 FFF7FEFF 		bl	__aeabi_d2iz
 1171 08c8 A083     		strh	r0, [r4, #28]	@ movhi
 1172 08ca 0121     		movs	r1, #1
 1173 08cc 2046     		mov	r0, r4
 1174 08ce FFF7FEFF 		bl	system_volume_cb
 1175 08d2 8CE7     		b	.L141
 1176              	.L163:
 1177 08d4 8068     		ldr	r0, [r0, #8]
 1178 08d6 FFF7FEFF 		bl	atoi
 1179 08da A083     		strh	r0, [r4, #28]	@ movhi
 1180 08dc 87E7     		b	.L141
 1181              	.L164:
 1182 08de 8068     		ldr	r0, [r0, #8]
 1183 08e0 FFF7FEFF 		bl	atoi
 1184 08e4 A083     		strh	r0, [r4, #28]	@ movhi
 1185 08e6 82E7     		b	.L141
 1186              	.L165:
 1187 08e8 8068     		ldr	r0, [r0, #8]
 1188 08ea FFF7FEFF 		bl	atoi
 1189 08ee A083     		strh	r0, [r4, #28]	@ movhi
 1190 08f0 7DE7     		b	.L141
 1191              	.L166:
 1192 08f2 8068     		ldr	r0, [r0, #8]
 1193 08f4 FFF7FEFF 		bl	atoi
 1194 08f8 A083     		strh	r0, [r4, #28]	@ movhi
 1195 08fa 78E7     		b	.L141
 1196              	.L155:
 1197 08fc 8068     		ldr	r0, [r0, #8]
 1198 08fe FFF7FEFF 		bl	atoi
 1199 0902 0F4B     		ldr	r3, .L168+12
 1200 0904 83FB0023 		smull	r2, r3, r3, r0
 1201 0908 C017     		asrs	r0, r0, #31
 1202 090a C0EBE300 		rsb	r0, r0, r3, asr #3
 1203 090e A083     		strh	r0, [r4, #28]	@ movhi
 1204 0910 6DE7     		b	.L141
 1205              	.L162:
 1206 0912 8068     		ldr	r0, [r0, #8]
 1207 0914 FFF7FEFF 		bl	atoi
 1208 0918 0A4B     		ldr	r3, .L168+16
 1209 091a 1870     		strb	r0, [r3]
 1210 091c 6268     		ldr	r2, [r4, #4]
 1211 091e D388     		ldrh	r3, [r2, #6]
 1212 0920 1289     		ldrh	r2, [r2, #8]
 1213 0922 9B1A     		subs	r3, r3, r2
 1214 0924 C0B2     		uxtb	r0, r0
 1215 0926 8342     		cmp	r3, r0
 1216 0928 14BF     		ite	ne
 1217 092a 0023     		movne	r3, #0
 1218 092c 0123     		moveq	r3, #1
 1219 092e A383     		strh	r3, [r4, #28]	@ movhi
 1220 0930 5DE7     		b	.L141
 1221              	.L169:
 1222 0932 00BF     		.align	2
 1223              	.L168:
 1224 0934 00000000 		.word	.LANCHOR1
 1225 0938 00000000 		.word	sl_in
 1226 093c 00000000 		.word	sl_out
 1227 0940 1F85EB51 		.word	1374389535
 1228 0944 00000000 		.word	.LANCHOR0
 1230              		.align	1
 1231              		.global	system_stage_cb
 1232              		.syntax unified
 1233              		.thumb
 1234              		.thumb_func
 1235              		.fpu softvfp
 1237              	system_stage_cb:
 1238              		@ args = 0, pretend = 0, frame = 8
 1239              		@ frame_needed = 0, uses_anonymous_args = 0
 1240 0948 0029     		cmp	r1, #0
 1241 094a 4CD1     		bne	.L181
 1242 094c F0B5     		push	{r4, r5, r6, r7, lr}
 1243 094e 83B0     		sub	sp, sp, #12
 1244 0950 254B     		ldr	r3, .L184
 1245 0952 1B68     		ldr	r3, [r3]
 1246 0954 ADF80430 		strh	r3, [sp, #4]	@ movhi
 1247 0958 1B0C     		lsrs	r3, r3, #16
 1248 095a 8DF80630 		strb	r3, [sp, #6]
 1249 095e 4368     		ldr	r3, [r0, #4]
 1250 0960 DA88     		ldrh	r2, [r3, #6]
 1251 0962 D92A     		cmp	r2, #217
 1252 0964 02D0     		beq	.L172
 1253 0966 1B89     		ldrh	r3, [r3, #8]
 1254 0968 D92B     		cmp	r3, #217
 1255 096a 02D1     		bne	.L173
 1256              	.L172:
 1257 096c 3223     		movs	r3, #50
 1258 096e 8DF80430 		strb	r3, [sp, #4]
 1259              	.L173:
 1260 0972 0546     		mov	r5, r0
 1261 0974 0221     		movs	r1, #2
 1262 0976 1D48     		ldr	r0, .L184+4
 1263 0978 FFF7FEFF 		bl	cli_command
 1264 097c 0221     		movs	r1, #2
 1265 097e 01A8     		add	r0, sp, #4
 1266 0980 FFF7FEFF 		bl	cli_command
 1267 0984 0221     		movs	r1, #2
 1268 0986 1A48     		ldr	r0, .L184+8
 1269 0988 FFF7FEFF 		bl	cli_command
 1270 098c 6A68     		ldr	r2, [r5, #4]
 1271 098e D388     		ldrh	r3, [r2, #6]
 1272 0990 D42B     		cmp	r3, #212
 1273 0992 01D0     		beq	.L174
 1274 0994 D92B     		cmp	r3, #217
 1275 0996 20D1     		bne	.L175
 1276              	.L174:
 1277 0998 0121     		movs	r1, #1
 1278 099a 0020     		movs	r0, #0
 1279 099c FFF7FEFF 		bl	cli_command
 1280 09a0 0746     		mov	r7, r0
 1281 09a2 2B7B     		ldrb	r3, [r5, #12]	@ zero_extendqisi2
 1282 09a4 012B     		cmp	r3, #1
 1283 09a6 1CD9     		bls	.L170
 1284 09a8 0124     		movs	r4, #1
 1285 09aa 04E0     		b	.L178
 1286              	.L177:
 1287 09ac 0134     		adds	r4, r4, #1
 1288 09ae E4B2     		uxtb	r4, r4
 1289 09b0 2B7B     		ldrb	r3, [r5, #12]	@ zero_extendqisi2
 1290 09b2 A342     		cmp	r3, r4
 1291 09b4 15D9     		bls	.L170
 1292              	.L178:
 1293 09b6 AB68     		ldr	r3, [r5, #8]
 1294 09b8 53F82400 		ldr	r0, [r3, r4, lsl #2]
 1295 09bc FFF7FEFF 		bl	deselect_item
 1296 09c0 AB68     		ldr	r3, [r5, #8]
 1297 09c2 53F82460 		ldr	r6, [r3, r4, lsl #2]
 1298 09c6 3946     		mov	r1, r7
 1299 09c8 3046     		mov	r0, r6
 1300 09ca FFF7FEFF 		bl	strcmp
 1301 09ce 0028     		cmp	r0, #0
 1302 09d0 ECD1     		bne	.L177
 1303 09d2 3046     		mov	r0, r6
 1304 09d4 FFF7FEFF 		bl	select_item
 1305 09d8 E8E7     		b	.L177
 1306              	.L175:
 1307 09da 0021     		movs	r1, #0
 1308 09dc 1068     		ldr	r0, [r2]
 1309 09de FFF7FEFF 		bl	cli_command
 1310              	.L170:
 1311 09e2 03B0     		add	sp, sp, #12
 1312              		@ sp needed
 1313 09e4 F0BD     		pop	{r4, r5, r6, r7, pc}
 1314              	.L181:
 1315 09e6 7047     		bx	lr
 1316              	.L185:
 1317              		.align	2
 1318              	.L184:
 1319 09e8 00000000 		.word	.LANCHOR2
 1320 09ec 70010000 		.word	.LC23
 1321 09f0 80010000 		.word	.LC24
 1323              		.global	__aeabi_d2f
 1324              		.global	__aeabi_fadd
 1325              		.global	__aeabi_fmul
 1326              		.global	__aeabi_fdiv
 1327              		.align	1
 1328              		.global	system_master_volume_cb
 1329              		.syntax unified
 1330              		.thumb
 1331              		.thumb_func
 1332              		.fpu softvfp
 1334              	system_master_volume_cb:
 1335              		@ args = 0, pretend = 0, frame = 32
 1336              		@ frame_needed = 0, uses_anonymous_args = 0
 1337 09f4 30B5     		push	{r4, r5, lr}
 1338 09f6 89B0     		sub	sp, sp, #36
 1339 09f8 39B1     		cbz	r1, .L187
 1340 09fa 0446     		mov	r4, r0
 1341 09fc 0329     		cmp	r1, #3
 1342 09fe 04D0     		beq	.L187
 1343 0a00 4B1E     		subs	r3, r1, #1
 1344 0a02 012B     		cmp	r3, #1
 1345 0a04 1ED9     		bls	.L199
 1346 0a06 0020     		movs	r0, #0
 1347 0a08 1AE0     		b	.L186
 1348              	.L187:
 1349 0a0a 334B     		ldr	r3, .L200
 1350 0a0c 1A7F     		ldrb	r2, [r3, #28]	@ zero_extendqisi2
 1351 0a0e 334C     		ldr	r4, .L200+4
 1352 0a10 334B     		ldr	r3, .L200+8
 1353 0a12 012A     		cmp	r2, #1
 1354 0a14 88BF     		it	hi
 1355 0a16 1C46     		movhi	r4, r3
 1356 0a18 0221     		movs	r1, #2
 1357 0a1a 3248     		ldr	r0, .L200+12
 1358 0a1c FFF7FEFF 		bl	cli_command
 1359 0a20 0221     		movs	r1, #2
 1360 0a22 2046     		mov	r0, r4
 1361 0a24 FFF7FEFF 		bl	cli_command
 1362 0a28 0221     		movs	r1, #2
 1363 0a2a 2F48     		ldr	r0, .L200+16
 1364 0a2c FFF7FEFF 		bl	cli_command
 1365 0a30 0121     		movs	r1, #1
 1366 0a32 0020     		movs	r0, #0
 1367 0a34 FFF7FEFF 		bl	cli_command
 1368 0a38 FFF7FEFF 		bl	atof
 1369 0a3c FFF7FEFF 		bl	__aeabi_d2f
 1370              	.L186:
 1371 0a40 09B0     		add	sp, sp, #36
 1372              		@ sp needed
 1373 0a42 30BD     		pop	{r4, r5, pc}
 1374              	.L199:
 1375 0a44 244B     		ldr	r3, .L200
 1376 0a46 1B7F     		ldrb	r3, [r3, #28]	@ zero_extendqisi2
 1377 0a48 012B     		cmp	r3, #1
 1378 0a4a 26D0     		beq	.L192
 1379 0a4c 1BB1     		cbz	r3, .L193
 1380 0a4e 022B     		cmp	r3, #2
 1381 0a50 32D0     		beq	.L194
 1382              	.L191:
 1383 0a52 2046     		mov	r0, r4
 1384 0a54 F4E7     		b	.L186
 1385              	.L193:
 1386 0a56 03AD     		add	r5, sp, #12
 1387 0a58 244B     		ldr	r3, .L200+20
 1388 0a5a 0FCB     		ldm	r3, {r0, r1, r2, r3}
 1389 0a5c 85E80F00 		stm	r5, {r0, r1, r2, r3}
 1390 0a60 2349     		ldr	r1, .L200+24
 1391 0a62 2046     		mov	r0, r4
 1392 0a64 FFF7FEFF 		bl	__aeabi_fadd
 1393 0a68 2249     		ldr	r1, .L200+28
 1394 0a6a FFF7FEFF 		bl	__aeabi_fmul
 1395 0a6e 2249     		ldr	r1, .L200+32
 1396 0a70 FFF7FEFF 		bl	__aeabi_fdiv
 1397 0a74 2149     		ldr	r1, .L200+36
 1398 0a76 FFF7FEFF 		bl	__aeabi_fadd
 1399 0a7a FFF7FEFF 		bl	__aeabi_f2iz
 1400 0a7e 0123     		movs	r3, #1
 1401 0a80 0822     		movs	r2, #8
 1402 0a82 01A9     		add	r1, sp, #4
 1403 0a84 FFF7FEFF 		bl	int_to_str
 1404 0a88 01A9     		add	r1, sp, #4
 1405 0a8a 2846     		mov	r0, r5
 1406 0a8c FFF7FEFF 		bl	strcat
 1407 0a90 0021     		movs	r1, #0
 1408 0a92 2846     		mov	r0, r5
 1409 0a94 FFF7FEFF 		bl	cli_command
 1410 0a98 DBE7     		b	.L191
 1411              	.L192:
 1412 0a9a 0221     		movs	r1, #2
 1413 0a9c 1848     		ldr	r0, .L200+40
 1414 0a9e FFF7FEFF 		bl	cli_command
 1415 0aa2 0123     		movs	r3, #1
 1416 0aa4 0822     		movs	r2, #8
 1417 0aa6 01A9     		add	r1, sp, #4
 1418 0aa8 2046     		mov	r0, r4
 1419 0aaa FFF7FEFF 		bl	float_to_str
 1420 0aae 0021     		movs	r1, #0
 1421 0ab0 01A8     		add	r0, sp, #4
 1422 0ab2 FFF7FEFF 		bl	cli_command
 1423 0ab6 CCE7     		b	.L191
 1424              	.L194:
 1425 0ab8 0221     		movs	r1, #2
 1426 0aba 1248     		ldr	r0, .L200+44
 1427 0abc FFF7FEFF 		bl	cli_command
 1428 0ac0 0123     		movs	r3, #1
 1429 0ac2 0822     		movs	r2, #8
 1430 0ac4 01A9     		add	r1, sp, #4
 1431 0ac6 2046     		mov	r0, r4
 1432 0ac8 FFF7FEFF 		bl	float_to_str
 1433 0acc 0021     		movs	r1, #0
 1434 0ace 01A8     		add	r0, sp, #4
 1435 0ad0 FFF7FEFF 		bl	cli_command
 1436 0ad4 BDE7     		b	.L191
 1437              	.L201:
 1438 0ad6 00BF     		.align	2
 1439              	.L200:
 1440 0ad8 00000000 		.word	.LANCHOR1
 1441 0adc 24010000 		.word	.LC16
 1442 0ae0 1C010000 		.word	.LC15
 1443 0ae4 54010000 		.word	.LC19
 1444 0ae8 60010000 		.word	.LC20
 1445 0aec 44010000 		.word	.LC18
 1446 0af0 00006442 		.word	1113849856
 1447 0af4 0000F042 		.word	1123024896
 1448 0af8 00005842 		.word	1113063424
 1449 0afc 00000743 		.word	1124532224
 1450 0b00 88010000 		.word	.LC25
 1451 0b04 A0010000 		.word	.LC26
 1453              		.align	1
 1454              		.global	system_master_vol_link_cb
 1455              		.syntax unified
 1456              		.thumb
 1457              		.thumb_func
 1458              		.fpu softvfp
 1460              	system_master_vol_link_cb:
 1461              		@ args = 0, pretend = 0, frame = 8
 1462              		@ frame_needed = 0, uses_anonymous_args = 0
 1463 0b08 2DE9F041 		push	{r4, r5, r6, r7, r8, lr}
 1464 0b0c 82B0     		sub	sp, sp, #8
 1465 0b0e 0746     		mov	r7, r0
 1466 0b10 1C4B     		ldr	r3, .L211
 1467 0b12 1B7F     		ldrb	r3, [r3, #28]	@ zero_extendqisi2
 1468 0b14 012B     		cmp	r3, #1
 1469 0b16 2DD0     		beq	.L204
 1470 0b18 4BB3     		cbz	r3, .L205
 1471 0b1a 022B     		cmp	r3, #2
 1472 0b1c 2ED0     		beq	.L206
 1473              	.L203:
 1474 0b1e 7B68     		ldr	r3, [r7, #4]
 1475 0b20 1968     		ldr	r1, [r3]
 1476 0b22 3868     		ldr	r0, [r7]
 1477 0b24 FFF7FEFF 		bl	strcpy
 1478 0b28 01A8     		add	r0, sp, #4
 1479 0b2a FFF7FEFF 		bl	strlen
 1480 0b2e 0446     		mov	r4, r0
 1481 0b30 3868     		ldr	r0, [r7]
 1482 0b32 FFF7FEFF 		bl	strlen
 1483 0b36 C6B2     		uxtb	r6, r0
 1484 0b38 C6F11F06 		rsb	r6, r6, #31
 1485 0b3c E4B2     		uxtb	r4, r4
 1486 0b3e 361B     		subs	r6, r6, r4
 1487 0b40 002E     		cmp	r6, #0
 1488 0b42 0DDD     		ble	.L207
 1489 0b44 0024     		movs	r4, #0
 1490 0b46 104B     		ldr	r3, .L211+4
 1491 0b48 B3F80080 		ldrh	r8, [r3]	@ unaligned
 1492              	.L208:
 1493 0b4c 3D68     		ldr	r5, [r7]
 1494 0b4e 2846     		mov	r0, r5
 1495 0b50 FFF7FEFF 		bl	strlen
 1496 0b54 25F80080 		strh	r8, [r5, r0]	@ unaligned
 1497 0b58 0134     		adds	r4, r4, #1
 1498 0b5a E4B2     		uxtb	r4, r4
 1499 0b5c B442     		cmp	r4, r6
 1500 0b5e F5DB     		blt	.L208
 1501              	.L207:
 1502 0b60 01A9     		add	r1, sp, #4
 1503 0b62 3868     		ldr	r0, [r7]
 1504 0b64 FFF7FEFF 		bl	strcat
 1505 0b68 02B0     		add	sp, sp, #8
 1506              		@ sp needed
 1507 0b6a BDE8F081 		pop	{r4, r5, r6, r7, r8, pc}
 1508              	.L205:
 1509 0b6e 074B     		ldr	r3, .L211+8
 1510 0b70 0193     		str	r3, [sp, #4]
 1511 0b72 D4E7     		b	.L203
 1512              	.L204:
 1513 0b74 3123     		movs	r3, #49
 1514 0b76 ADF80430 		strh	r3, [sp, #4]	@ movhi
 1515 0b7a D0E7     		b	.L203
 1516              	.L206:
 1517 0b7c 3223     		movs	r3, #50
 1518 0b7e ADF80430 		strh	r3, [sp, #4]	@ movhi
 1519 0b82 CCE7     		b	.L203
 1520              	.L212:
 1521              		.align	2
 1522              	.L211:
 1523 0b84 00000000 		.word	.LANCHOR1
 1524 0b88 68010000 		.word	.LC21
 1525 0b8c 31263200 		.word	3286577
 1527              		.align	1
 1528              		.global	system_save_gains_cb
 1529              		.syntax unified
 1530              		.thumb
 1531              		.thumb_func
 1532              		.fpu softvfp
 1534              	system_save_gains_cb:
 1535              		@ args = 0, pretend = 0, frame = 0
 1536              		@ frame_needed = 0, uses_anonymous_args = 0
 1537 0b90 01B1     		cbz	r1, .L219
 1538 0b92 7047     		bx	lr
 1539              	.L219:
 1540 0b94 08B5     		push	{r3, lr}
 1541 0b96 0248     		ldr	r0, .L220
 1542 0b98 FFF7FEFF 		bl	cli_command
 1543 0b9c 08BD     		pop	{r3, pc}
 1544              	.L221:
 1545 0b9e 00BF     		.align	2
 1546              	.L220:
 1547 0ba0 B8010000 		.word	.LC27
 1549              		.align	1
 1550              		.global	system_banks_cb
 1551              		.syntax unified
 1552              		.thumb
 1553              		.thumb_func
 1554              		.fpu softvfp
 1556              	system_banks_cb:
 1557              		@ args = 0, pretend = 0, frame = 0
 1558              		@ frame_needed = 0, uses_anonymous_args = 0
 1559 0ba4 01B1     		cbz	r1, .L228
 1560 0ba6 7047     		bx	lr
 1561              	.L228:
 1562 0ba8 08B5     		push	{r3, lr}
 1563 0baa 0121     		movs	r1, #1
 1564 0bac 0220     		movs	r0, #2
 1565 0bae FFF7FEFF 		bl	naveg_toggle_tool
 1566 0bb2 08BD     		pop	{r3, pc}
 1568              		.align	1
 1569              		.global	system_display_cb
 1570              		.syntax unified
 1571              		.thumb
 1572              		.thumb_func
 1573              		.fpu softvfp
 1575              	system_display_cb:
 1576              		@ args = 0, pretend = 0, frame = 8
 1577              		@ frame_needed = 0, uses_anonymous_args = 0
 1578 0bb4 2DE9F043 		push	{r4, r5, r6, r7, r8, r9, lr}
 1579 0bb8 83B0     		sub	sp, sp, #12
 1580 0bba 0746     		mov	r7, r0
 1581 0bbc 8846     		mov	r8, r1
 1582 0bbe 51B9     		cbnz	r1, .L230
 1583 0bc0 284B     		ldr	r3, .L239
 1584 0bc2 DB6A     		ldr	r3, [r3, #44]
 1585 0bc4 0133     		adds	r3, r3, #1
 1586 0bc6 042B     		cmp	r3, #4
 1587 0bc8 44DC     		bgt	.L231
 1588 0bca 264A     		ldr	r2, .L239
 1589 0bcc D362     		str	r3, [r2, #44]
 1590              	.L232:
 1591 0bce 254B     		ldr	r3, .L239
 1592 0bd0 D86A     		ldr	r0, [r3, #44]
 1593 0bd2 FFF7FEFF 		bl	hardware_glcd_brightness
 1594              	.L230:
 1595 0bd6 234B     		ldr	r3, .L239
 1596 0bd8 B3F92C00 		ldrsh	r0, [r3, #44]
 1597 0bdc B883     		strh	r0, [r7, #28]	@ movhi
 1598 0bde 00EB8000 		add	r0, r0, r0, lsl #2
 1599 0be2 0023     		movs	r3, #0
 1600 0be4 0822     		movs	r2, #8
 1601 0be6 6946     		mov	r1, sp
 1602 0be8 00EB8000 		add	r0, r0, r0, lsl #2
 1603 0bec FFF7FEFF 		bl	int_to_str
 1604 0bf0 7B68     		ldr	r3, [r7, #4]
 1605 0bf2 1968     		ldr	r1, [r3]
 1606 0bf4 3868     		ldr	r0, [r7]
 1607 0bf6 FFF7FEFF 		bl	strcpy
 1608 0bfa 6846     		mov	r0, sp
 1609 0bfc FFF7FEFF 		bl	strlen
 1610 0c00 0646     		mov	r6, r0
 1611 0c02 3868     		ldr	r0, [r7]
 1612 0c04 FFF7FEFF 		bl	strlen
 1613 0c08 C0B2     		uxtb	r0, r0
 1614 0c0a F6B2     		uxtb	r6, r6
 1615 0c0c C6F11E06 		rsb	r6, r6, #30
 1616 0c10 361A     		subs	r6, r6, r0
 1617 0c12 002E     		cmp	r6, #0
 1618 0c14 0DDD     		ble	.L233
 1619 0c16 0024     		movs	r4, #0
 1620 0c18 134B     		ldr	r3, .L239+4
 1621 0c1a B3F80090 		ldrh	r9, [r3]	@ unaligned
 1622              	.L234:
 1623 0c1e 3D68     		ldr	r5, [r7]
 1624 0c20 2846     		mov	r0, r5
 1625 0c22 FFF7FEFF 		bl	strlen
 1626 0c26 25F80090 		strh	r9, [r5, r0]	@ unaligned
 1627 0c2a 0134     		adds	r4, r4, #1
 1628 0c2c E4B2     		uxtb	r4, r4
 1629 0c2e B442     		cmp	r4, r6
 1630 0c30 F5DB     		blt	.L234
 1631              	.L233:
 1632 0c32 6946     		mov	r1, sp
 1633 0c34 3868     		ldr	r0, [r7]
 1634 0c36 FFF7FEFF 		bl	strcat
 1635 0c3a 3C68     		ldr	r4, [r7]
 1636 0c3c 2046     		mov	r0, r4
 1637 0c3e FFF7FEFF 		bl	strlen
 1638 0c42 0A4B     		ldr	r3, .L239+8
 1639 0c44 1B88     		ldrh	r3, [r3]	@ unaligned
 1640 0c46 2352     		strh	r3, [r4, r0]	@ unaligned
 1641 0c48 B8F1000F 		cmp	r8, #0
 1642 0c4c 06D0     		beq	.L238
 1643              	.L229:
 1644 0c4e 03B0     		add	sp, sp, #12
 1645              		@ sp needed
 1646 0c50 BDE8F083 		pop	{r4, r5, r6, r7, r8, r9, pc}
 1647              	.L231:
 1648 0c54 034B     		ldr	r3, .L239
 1649 0c56 0022     		movs	r2, #0
 1650 0c58 DA62     		str	r2, [r3, #44]
 1651 0c5a B8E7     		b	.L232
 1652              	.L238:
 1653 0c5c 0120     		movs	r0, #1
 1654 0c5e FFF7FEFF 		bl	naveg_settings_refresh
 1655 0c62 F4E7     		b	.L229
 1656              	.L240:
 1657              		.align	2
 1658              	.L239:
 1659 0c64 00000000 		.word	.LANCHOR0
 1660 0c68 68010000 		.word	.LC21
 1661 0c6c C8010000 		.word	.LC28
 1663              		.align	1
 1664              		.global	system_sl_in_cb
 1665              		.syntax unified
 1666              		.thumb
 1667              		.thumb_func
 1668              		.fpu softvfp
 1670              	system_sl_in_cb:
 1671              		@ args = 0, pretend = 0, frame = 40
 1672              		@ frame_needed = 0, uses_anonymous_args = 0
 1673 0c70 2DE9F043 		push	{r4, r5, r6, r7, r8, r9, lr}
 1674 0c74 8BB0     		sub	sp, sp, #44
 1675 0c76 0646     		mov	r6, r0
 1676 0c78 8946     		mov	r9, r1
 1677 0c7a 69B9     		cbnz	r1, .L242
 1678 0c7c B0F91C30 		ldrsh	r3, [r0, #28]
 1679 0c80 002B     		cmp	r3, #0
 1680 0c82 3AD1     		bne	.L243
 1681 0c84 0123     		movs	r3, #1
 1682 0c86 8383     		strh	r3, [r0, #28]	@ movhi
 1683              	.L244:
 1684 0c88 317F     		ldrb	r1, [r6, #28]	@ zero_extendqisi2
 1685 0c8a 3948     		ldr	r0, .L254
 1686 0c8c FFF7FEFF 		bl	set_item_value
 1687 0c90 B6F91C30 		ldrsh	r3, [r6, #28]
 1688 0c94 012B     		cmp	r3, #1
 1689 0c96 33D0     		beq	.L252
 1690              	.L242:
 1691 0c98 B28B     		ldrh	r2, [r6, #28]
 1692 0c9a 364B     		ldr	r3, .L254+4
 1693 0c9c 1A70     		strb	r2, [r3]
 1694 0c9e 7368     		ldr	r3, [r6, #4]
 1695 0ca0 1968     		ldr	r1, [r3]
 1696 0ca2 3068     		ldr	r0, [r6]
 1697 0ca4 FFF7FEFF 		bl	strcpy
 1698 0ca8 3068     		ldr	r0, [r6]
 1699 0caa FFF7FEFF 		bl	strlen
 1700 0cae C0B2     		uxtb	r0, r0
 1701 0cb0 C0F11C07 		rsb	r7, r0, #28
 1702 0cb4 002F     		cmp	r7, #0
 1703 0cb6 0DDD     		ble	.L245
 1704 0cb8 0024     		movs	r4, #0
 1705 0cba 2F4B     		ldr	r3, .L254+8
 1706 0cbc B3F80080 		ldrh	r8, [r3]	@ unaligned
 1707              	.L246:
 1708 0cc0 3568     		ldr	r5, [r6]
 1709 0cc2 2846     		mov	r0, r5
 1710 0cc4 FFF7FEFF 		bl	strlen
 1711 0cc8 25F80080 		strh	r8, [r5, r0]	@ unaligned
 1712 0ccc 0134     		adds	r4, r4, #1
 1713 0cce E4B2     		uxtb	r4, r4
 1714 0cd0 BC42     		cmp	r4, r7
 1715 0cd2 F5DB     		blt	.L246
 1716              	.L245:
 1717 0cd4 3568     		ldr	r5, [r6]
 1718 0cd6 B6F91C20 		ldrsh	r2, [r6, #28]
 1719 0cda 284C     		ldr	r4, .L254+12
 1720 0cdc 284B     		ldr	r3, .L254+16
 1721 0cde 002A     		cmp	r2, #0
 1722 0ce0 08BF     		it	eq
 1723 0ce2 1C46     		moveq	r4, r3
 1724 0ce4 2846     		mov	r0, r5
 1725 0ce6 FFF7FEFF 		bl	strlen
 1726 0cea 2368     		ldr	r3, [r4]
 1727 0cec 2B50     		str	r3, [r5, r0]	@ unaligned
 1728 0cee B9F1000F 		cmp	r9, #0
 1729 0cf2 34D0     		beq	.L253
 1730              	.L241:
 1731 0cf4 0BB0     		add	sp, sp, #44
 1732              		@ sp needed
 1733 0cf6 BDE8F083 		pop	{r4, r5, r6, r7, r8, r9, pc}
 1734              	.L243:
 1735 0cfa 0023     		movs	r3, #0
 1736 0cfc 8383     		strh	r3, [r0, #28]	@ movhi
 1737 0cfe C3E7     		b	.L244
 1738              	.L252:
 1739 0d00 02AC     		add	r4, sp, #8
 1740 0d02 204D     		ldr	r5, .L254+20
 1741 0d04 0FCD     		ldmia	r5!, {r0, r1, r2, r3}
 1742 0d06 0FC4     		stmia	r4!, {r0, r1, r2, r3}
 1743 0d08 95E80300 		ldm	r5, {r0, r1}
 1744 0d0c 44F8040B 		str	r0, [r4], #4
 1745 0d10 24F8021B 		strh	r1, [r4], #2	@ movhi
 1746 0d14 090C     		lsrs	r1, r1, #16
 1747 0d16 2170     		strb	r1, [r4]
 1748 0d18 1B4C     		ldr	r4, .L254+24
 1749 0d1a 1C49     		ldr	r1, .L254+28
 1750 0d1c 2068     		ldr	r0, [r4]	@ float
 1751 0d1e FFF7FEFF 		bl	__aeabi_fadd
 1752 0d22 1B49     		ldr	r1, .L254+32
 1753 0d24 FFF7FEFF 		bl	__aeabi_fmul
 1754 0d28 1A49     		ldr	r1, .L254+36
 1755 0d2a FFF7FEFF 		bl	__aeabi_fdiv
 1756 0d2e 0021     		movs	r1, #0
 1757 0d30 FFF7FEFF 		bl	__aeabi_fadd
 1758 0d34 FFF7FEFF 		bl	__aeabi_f2iz
 1759 0d38 0123     		movs	r3, #1
 1760 0d3a 0822     		movs	r2, #8
 1761 0d3c 6946     		mov	r1, sp
 1762 0d3e FFF7FEFF 		bl	int_to_str
 1763 0d42 6946     		mov	r1, sp
 1764 0d44 02A8     		add	r0, sp, #8
 1765 0d46 FFF7FEFF 		bl	strcat
 1766 0d4a 0021     		movs	r1, #0
 1767 0d4c 02A8     		add	r0, sp, #8
 1768 0d4e FFF7FEFF 		bl	cli_command
 1769 0d52 2268     		ldr	r2, [r4]	@ float
 1770 0d54 6F21     		movs	r1, #111
 1771 0d56 0120     		movs	r0, #1
 1772 0d58 FFF7FEFF 		bl	naveg_update_gain
 1773 0d5c 9CE7     		b	.L242
 1774              	.L253:
 1775 0d5e 0021     		movs	r1, #0
 1776 0d60 0D48     		ldr	r0, .L254+40
 1777 0d62 FFF7FEFF 		bl	cli_command
 1778 0d66 0120     		movs	r0, #1
 1779 0d68 FFF7FEFF 		bl	naveg_settings_refresh
 1780 0d6c C2E7     		b	.L241
 1781              	.L255:
 1782 0d6e 00BF     		.align	2
 1783              	.L254:
 1784 0d70 D4010000 		.word	.LC31
 1785 0d74 00000000 		.word	sl_in
 1786 0d78 68010000 		.word	.LC21
 1787 0d7c CC010000 		.word	.LC29
 1788 0d80 D0010000 		.word	.LC30
 1789 0d84 2C010000 		.word	.LC17
 1790 0d88 00000000 		.word	.LANCHOR1
 1791 0d8c 00004041 		.word	1094713344
 1792 0d90 00004042 		.word	1111490560
 1793 0d94 0000C041 		.word	1103101952
 1794 0d98 B8010000 		.word	.LC27
 1796              		.align	1
 1797              		.global	system_sl_out_cb
 1798              		.syntax unified
 1799              		.thumb
 1800              		.thumb_func
 1801              		.fpu softvfp
 1803              	system_sl_out_cb:
 1804              		@ args = 0, pretend = 0, frame = 40
 1805              		@ frame_needed = 0, uses_anonymous_args = 0
 1806 0d9c 2DE9F043 		push	{r4, r5, r6, r7, r8, r9, lr}
 1807 0da0 8BB0     		sub	sp, sp, #44
 1808 0da2 0646     		mov	r6, r0
 1809 0da4 8946     		mov	r9, r1
 1810 0da6 69B9     		cbnz	r1, .L257
 1811 0da8 B0F91C30 		ldrsh	r3, [r0, #28]
 1812 0dac 002B     		cmp	r3, #0
 1813 0dae 3AD1     		bne	.L258
 1814 0db0 0123     		movs	r3, #1
 1815 0db2 8383     		strh	r3, [r0, #28]	@ movhi
 1816              	.L259:
 1817 0db4 317F     		ldrb	r1, [r6, #28]	@ zero_extendqisi2
 1818 0db6 3548     		ldr	r0, .L269
 1819 0db8 FFF7FEFF 		bl	set_item_value
 1820 0dbc B6F91C30 		ldrsh	r3, [r6, #28]
 1821 0dc0 012B     		cmp	r3, #1
 1822 0dc2 33D0     		beq	.L267
 1823              	.L257:
 1824 0dc4 B28B     		ldrh	r2, [r6, #28]
 1825 0dc6 324B     		ldr	r3, .L269+4
 1826 0dc8 1A70     		strb	r2, [r3]
 1827 0dca 7368     		ldr	r3, [r6, #4]
 1828 0dcc 1968     		ldr	r1, [r3]
 1829 0dce 3068     		ldr	r0, [r6]
 1830 0dd0 FFF7FEFF 		bl	strcpy
 1831 0dd4 3068     		ldr	r0, [r6]
 1832 0dd6 FFF7FEFF 		bl	strlen
 1833 0dda C0B2     		uxtb	r0, r0
 1834 0ddc C0F11C07 		rsb	r7, r0, #28
 1835 0de0 002F     		cmp	r7, #0
 1836 0de2 0DDD     		ble	.L260
 1837 0de4 0024     		movs	r4, #0
 1838 0de6 2B4B     		ldr	r3, .L269+8
 1839 0de8 B3F80080 		ldrh	r8, [r3]	@ unaligned
 1840              	.L261:
 1841 0dec 3568     		ldr	r5, [r6]
 1842 0dee 2846     		mov	r0, r5
 1843 0df0 FFF7FEFF 		bl	strlen
 1844 0df4 25F80080 		strh	r8, [r5, r0]	@ unaligned
 1845 0df8 0134     		adds	r4, r4, #1
 1846 0dfa E4B2     		uxtb	r4, r4
 1847 0dfc BC42     		cmp	r4, r7
 1848 0dfe F5DB     		blt	.L261
 1849              	.L260:
 1850 0e00 3568     		ldr	r5, [r6]
 1851 0e02 B6F91C20 		ldrsh	r2, [r6, #28]
 1852 0e06 244C     		ldr	r4, .L269+12
 1853 0e08 244B     		ldr	r3, .L269+16
 1854 0e0a 002A     		cmp	r2, #0
 1855 0e0c 08BF     		it	eq
 1856 0e0e 1C46     		moveq	r4, r3
 1857 0e10 2846     		mov	r0, r5
 1858 0e12 FFF7FEFF 		bl	strlen
 1859 0e16 2368     		ldr	r3, [r4]
 1860 0e18 2B50     		str	r3, [r5, r0]	@ unaligned
 1861 0e1a B9F1000F 		cmp	r9, #0
 1862 0e1e 2DD0     		beq	.L268
 1863              	.L256:
 1864 0e20 0BB0     		add	sp, sp, #44
 1865              		@ sp needed
 1866 0e22 BDE8F083 		pop	{r4, r5, r6, r7, r8, r9, pc}
 1867              	.L258:
 1868 0e26 0023     		movs	r3, #0
 1869 0e28 8383     		strh	r3, [r0, #28]	@ movhi
 1870 0e2a C3E7     		b	.L259
 1871              	.L267:
 1872 0e2c 02AC     		add	r4, sp, #8
 1873 0e2e 1C4B     		ldr	r3, .L269+20
 1874 0e30 0FCB     		ldm	r3, {r0, r1, r2, r3}
 1875 0e32 84E80F00 		stm	r4, {r0, r1, r2, r3}
 1876 0e36 1B4D     		ldr	r5, .L269+24
 1877 0e38 1B49     		ldr	r1, .L269+28
 1878 0e3a A868     		ldr	r0, [r5, #8]	@ float
 1879 0e3c FFF7FEFF 		bl	__aeabi_fadd
 1880 0e40 1A49     		ldr	r1, .L269+32
 1881 0e42 FFF7FEFF 		bl	__aeabi_fmul
 1882 0e46 1849     		ldr	r1, .L269+28
 1883 0e48 FFF7FEFF 		bl	__aeabi_fdiv
 1884 0e4c 1849     		ldr	r1, .L269+36
 1885 0e4e FFF7FEFF 		bl	__aeabi_fadd
 1886 0e52 FFF7FEFF 		bl	__aeabi_f2iz
 1887 0e56 0123     		movs	r3, #1
 1888 0e58 0822     		movs	r2, #8
 1889 0e5a 6946     		mov	r1, sp
 1890 0e5c FFF7FEFF 		bl	int_to_str
 1891 0e60 6946     		mov	r1, sp
 1892 0e62 2046     		mov	r0, r4
 1893 0e64 FFF7FEFF 		bl	strcat
 1894 0e68 0021     		movs	r1, #0
 1895 0e6a 2046     		mov	r0, r4
 1896 0e6c FFF7FEFF 		bl	cli_command
 1897 0e70 AA68     		ldr	r2, [r5, #8]	@ float
 1898 0e72 7121     		movs	r1, #113
 1899 0e74 0120     		movs	r0, #1
 1900 0e76 FFF7FEFF 		bl	naveg_update_gain
 1901 0e7a A3E7     		b	.L257
 1902              	.L268:
 1903 0e7c 0021     		movs	r1, #0
 1904 0e7e 0D48     		ldr	r0, .L269+40
 1905 0e80 FFF7FEFF 		bl	cli_command
 1906 0e84 0120     		movs	r0, #1
 1907 0e86 FFF7FEFF 		bl	naveg_settings_refresh
 1908 0e8a C9E7     		b	.L256
 1909              	.L270:
 1910              		.align	2
 1911              	.L269:
 1912 0e8c EC010000 		.word	.LC32
 1913 0e90 00000000 		.word	sl_out
 1914 0e94 68010000 		.word	.LC21
 1915 0e98 CC010000 		.word	.LC29
 1916 0e9c D0010000 		.word	.LC30
 1917 0ea0 44010000 		.word	.LC18
 1918 0ea4 00000000 		.word	.LANCHOR1
 1919 0ea8 00007042 		.word	1114636288
 1920 0eac 0000F042 		.word	1123024896
 1921 0eb0 00000743 		.word	1124532224
 1922 0eb4 B8010000 		.word	.LC27
 1924              		.align	1
 1925              		.global	system_tuner_cb
 1926              		.syntax unified
 1927              		.thumb
 1928              		.thumb_func
 1929              		.fpu softvfp
 1931              	system_tuner_cb:
 1932              		@ args = 0, pretend = 0, frame = 0
 1933              		@ frame_needed = 0, uses_anonymous_args = 0
 1934 0eb8 2DE9F843 		push	{r3, r4, r5, r6, r7, r8, r9, lr}
 1935 0ebc 0646     		mov	r6, r0
 1936 0ebe 0F46     		mov	r7, r1
 1937 0ec0 0029     		cmp	r1, #0
 1938 0ec2 3ED1     		bne	.L272
 1939 0ec4 B0F91C30 		ldrsh	r3, [r0, #28]
 1940 0ec8 002B     		cmp	r3, #0
 1941 0eca 37D1     		bne	.L273
 1942 0ecc 0123     		movs	r3, #1
 1943 0ece 8383     		strh	r3, [r0, #28]	@ movhi
 1944              	.L274:
 1945 0ed0 317F     		ldrb	r1, [r6, #28]	@ zero_extendqisi2
 1946 0ed2 2148     		ldr	r0, .L284
 1947 0ed4 FFF7FEFF 		bl	set_item_value
 1948              	.L275:
 1949 0ed8 7368     		ldr	r3, [r6, #4]
 1950 0eda 1968     		ldr	r1, [r3]
 1951 0edc 3068     		ldr	r0, [r6]
 1952 0ede FFF7FEFF 		bl	strcpy
 1953 0ee2 3068     		ldr	r0, [r6]
 1954 0ee4 FFF7FEFF 		bl	strlen
 1955 0ee8 C0B2     		uxtb	r0, r0
 1956 0eea C0F11708 		rsb	r8, r0, #23
 1957 0eee B8F1000F 		cmp	r8, #0
 1958 0ef2 0DDD     		ble	.L276
 1959 0ef4 0024     		movs	r4, #0
 1960 0ef6 194B     		ldr	r3, .L284+4
 1961 0ef8 B3F80090 		ldrh	r9, [r3]	@ unaligned
 1962              	.L277:
 1963 0efc 3568     		ldr	r5, [r6]
 1964 0efe 2846     		mov	r0, r5
 1965 0f00 FFF7FEFF 		bl	strlen
 1966 0f04 25F80090 		strh	r9, [r5, r0]	@ unaligned
 1967 0f08 0134     		adds	r4, r4, #1
 1968 0f0a E4B2     		uxtb	r4, r4
 1969 0f0c 4445     		cmp	r4, r8
 1970 0f0e F5DB     		blt	.L277
 1971              	.L276:
 1972 0f10 3568     		ldr	r5, [r6]
 1973 0f12 B6F91C20 		ldrsh	r2, [r6, #28]
 1974 0f16 124B     		ldr	r3, .L284+8
 1975 0f18 124C     		ldr	r4, .L284+12
 1976 0f1a 002A     		cmp	r2, #0
 1977 0f1c 18BF     		it	ne
 1978 0f1e 1C46     		movne	r4, r3
 1979 0f20 2846     		mov	r0, r5
 1980 0f22 FFF7FEFF 		bl	strlen
 1981 0f26 0646     		mov	r6, r0
 1982 0f28 2A18     		adds	r2, r5, r0
 1983 0f2a 2346     		mov	r3, r4
 1984 0f2c 03CB     		ldmia	r3!, {r0, r1}
 1985 0f2e A851     		str	r0, [r5, r6]	@ unaligned
 1986 0f30 5160     		str	r1, [r2, #4]	@ unaligned
 1987 0f32 1B78     		ldrb	r3, [r3]	@ zero_extendqisi2
 1988 0f34 1372     		strb	r3, [r2, #8]
 1989 0f36 5FB1     		cbz	r7, .L283
 1990              	.L271:
 1991 0f38 BDE8F883 		pop	{r3, r4, r5, r6, r7, r8, r9, pc}
 1992              	.L273:
 1993 0f3c 0023     		movs	r3, #0
 1994 0f3e 8383     		strh	r3, [r0, #28]	@ movhi
 1995 0f40 C6E7     		b	.L274
 1996              	.L272:
 1997 0f42 0329     		cmp	r1, #3
 1998 0f44 C8D1     		bne	.L275
 1999 0f46 0146     		mov	r1, r0
 2000 0f48 0748     		ldr	r0, .L284+16
 2001 0f4a FFF7FEFF 		bl	request_item_value
 2002 0f4e C3E7     		b	.L275
 2003              	.L283:
 2004 0f50 0020     		movs	r0, #0
 2005 0f52 FFF7FEFF 		bl	naveg_settings_refresh
 2006 0f56 EFE7     		b	.L271
 2007              	.L285:
 2008              		.align	2
 2009              	.L284:
 2010 0f58 1C020000 		.word	.LC35
 2011 0f5c 68010000 		.word	.LC21
 2012 0f60 04020000 		.word	.LC33
 2013 0f64 10020000 		.word	.LC34
 2014 0f68 30020000 		.word	.LC36
 2016              		.align	1
 2017              		.global	system_cv_exp_cb
 2018              		.syntax unified
 2019              		.thumb
 2020              		.thumb_func
 2021              		.fpu softvfp
 2023              	system_cv_exp_cb:
 2024              		@ args = 0, pretend = 0, frame = 0
 2025              		@ frame_needed = 0, uses_anonymous_args = 0
 2026 0f6c 2DE9F843 		push	{r3, r4, r5, r6, r7, r8, r9, lr}
 2027 0f70 0646     		mov	r6, r0
 2028 0f72 8946     		mov	r9, r1
 2029 0f74 31B1     		cbz	r1, .L287
 2030 0f76 0329     		cmp	r1, #3
 2031 0f78 3BD1     		bne	.L286
 2032 0f7a 0146     		mov	r1, r0
 2033 0f7c 2148     		ldr	r0, .L300
 2034 0f7e FFF7FEFF 		bl	request_item_value
 2035 0f82 0BE0     		b	.L290
 2036              	.L287:
 2037 0f84 837B     		ldrb	r3, [r0, #14]	@ zero_extendqisi2
 2038 0f86 4BB9     		cbnz	r3, .L290
 2039 0f88 B0F91C30 		ldrsh	r3, [r0, #28]
 2040 0f8c 002B     		cmp	r3, #0
 2041 0f8e 32D1     		bne	.L291
 2042 0f90 0123     		movs	r3, #1
 2043 0f92 8383     		strh	r3, [r0, #28]	@ movhi
 2044              	.L292:
 2045 0f94 317F     		ldrb	r1, [r6, #28]	@ zero_extendqisi2
 2046 0f96 1C48     		ldr	r0, .L300+4
 2047 0f98 FFF7FEFF 		bl	set_item_value
 2048              	.L290:
 2049 0f9c 7368     		ldr	r3, [r6, #4]
 2050 0f9e 1968     		ldr	r1, [r3]
 2051 0fa0 3068     		ldr	r0, [r6]
 2052 0fa2 FFF7FEFF 		bl	strcpy
 2053 0fa6 3068     		ldr	r0, [r6]
 2054 0fa8 FFF7FEFF 		bl	strlen
 2055 0fac C0B2     		uxtb	r0, r0
 2056 0fae C0F11C07 		rsb	r7, r0, #28
 2057 0fb2 002F     		cmp	r7, #0
 2058 0fb4 0DDD     		ble	.L293
 2059 0fb6 0024     		movs	r4, #0
 2060 0fb8 144B     		ldr	r3, .L300+8
 2061 0fba B3F80080 		ldrh	r8, [r3]	@ unaligned
 2062              	.L294:
 2063 0fbe 3568     		ldr	r5, [r6]
 2064 0fc0 2846     		mov	r0, r5
 2065 0fc2 FFF7FEFF 		bl	strlen
 2066 0fc6 25F80080 		strh	r8, [r5, r0]	@ unaligned
 2067 0fca 0134     		adds	r4, r4, #1
 2068 0fcc E4B2     		uxtb	r4, r4
 2069 0fce BC42     		cmp	r4, r7
 2070 0fd0 F5DB     		blt	.L294
 2071              	.L293:
 2072 0fd2 3568     		ldr	r5, [r6]
 2073 0fd4 B6F91C20 		ldrsh	r2, [r6, #28]
 2074 0fd8 0D4C     		ldr	r4, .L300+12
 2075 0fda 0E4B     		ldr	r3, .L300+16
 2076 0fdc 002A     		cmp	r2, #0
 2077 0fde 08BF     		it	eq
 2078 0fe0 1C46     		moveq	r4, r3
 2079 0fe2 2846     		mov	r0, r5
 2080 0fe4 FFF7FEFF 		bl	strlen
 2081 0fe8 2368     		ldr	r3, [r4]
 2082 0fea 2B50     		str	r3, [r5, r0]	@ unaligned
 2083 0fec B9F1000F 		cmp	r9, #0
 2084 0ff0 04D0     		beq	.L299
 2085              	.L286:
 2086 0ff2 BDE8F883 		pop	{r3, r4, r5, r6, r7, r8, r9, pc}
 2087              	.L291:
 2088 0ff6 0023     		movs	r3, #0
 2089 0ff8 8383     		strh	r3, [r0, #28]	@ movhi
 2090 0ffa CBE7     		b	.L292
 2091              	.L299:
 2092 0ffc 0120     		movs	r0, #1
 2093 0ffe FFF7FEFF 		bl	naveg_settings_refresh
 2094 1002 F6E7     		b	.L286
 2095              	.L301:
 2096              		.align	2
 2097              	.L300:
 2098 1004 58020000 		.word	.LC40
 2099 1008 48020000 		.word	.LC39
 2100 100c 68010000 		.word	.LC21
 2101 1010 40020000 		.word	.LC37
 2102 1014 44020000 		.word	.LC38
 2104              		.align	1
 2105              		.global	system_cv_hp_cb
 2106              		.syntax unified
 2107              		.thumb
 2108              		.thumb_func
 2109              		.fpu softvfp
 2111              	system_cv_hp_cb:
 2112              		@ args = 0, pretend = 0, frame = 0
 2113              		@ frame_needed = 0, uses_anonymous_args = 0
 2114 1018 2DE9F843 		push	{r3, r4, r5, r6, r7, r8, r9, lr}
 2115 101c 0646     		mov	r6, r0
 2116 101e 8946     		mov	r9, r1
 2117 1020 31B1     		cbz	r1, .L303
 2118 1022 0329     		cmp	r1, #3
 2119 1024 3ED1     		bne	.L302
 2120 1026 0146     		mov	r1, r0
 2121 1028 2348     		ldr	r0, .L316
 2122 102a FFF7FEFF 		bl	request_item_value
 2123 102e 0BE0     		b	.L306
 2124              	.L303:
 2125 1030 837B     		ldrb	r3, [r0, #14]	@ zero_extendqisi2
 2126 1032 4BB9     		cbnz	r3, .L306
 2127 1034 B0F91C30 		ldrsh	r3, [r0, #28]
 2128 1038 002B     		cmp	r3, #0
 2129 103a 35D1     		bne	.L307
 2130 103c 0123     		movs	r3, #1
 2131 103e 8383     		strh	r3, [r0, #28]	@ movhi
 2132              	.L308:
 2133 1040 317F     		ldrb	r1, [r6, #28]	@ zero_extendqisi2
 2134 1042 1E48     		ldr	r0, .L316+4
 2135 1044 FFF7FEFF 		bl	set_item_value
 2136              	.L306:
 2137 1048 7368     		ldr	r3, [r6, #4]
 2138 104a 1968     		ldr	r1, [r3]
 2139 104c 3068     		ldr	r0, [r6]
 2140 104e FFF7FEFF 		bl	strcpy
 2141 1052 3068     		ldr	r0, [r6]
 2142 1054 FFF7FEFF 		bl	strlen
 2143 1058 C0B2     		uxtb	r0, r0
 2144 105a C0F11D07 		rsb	r7, r0, #29
 2145 105e 002F     		cmp	r7, #0
 2146 1060 0DDD     		ble	.L309
 2147 1062 0024     		movs	r4, #0
 2148 1064 164B     		ldr	r3, .L316+8
 2149 1066 B3F80080 		ldrh	r8, [r3]	@ unaligned
 2150              	.L310:
 2151 106a 3568     		ldr	r5, [r6]
 2152 106c 2846     		mov	r0, r5
 2153 106e FFF7FEFF 		bl	strlen
 2154 1072 25F80080 		strh	r8, [r5, r0]	@ unaligned
 2155 1076 0134     		adds	r4, r4, #1
 2156 1078 E4B2     		uxtb	r4, r4
 2157 107a BC42     		cmp	r4, r7
 2158 107c F5DB     		blt	.L310
 2159              	.L309:
 2160 107e 3568     		ldr	r5, [r6]
 2161 1080 B6F91C20 		ldrsh	r2, [r6, #28]
 2162 1084 0F4C     		ldr	r4, .L316+12
 2163 1086 104B     		ldr	r3, .L316+16
 2164 1088 002A     		cmp	r2, #0
 2165 108a 08BF     		it	eq
 2166 108c 1C46     		moveq	r4, r3
 2167 108e 2846     		mov	r0, r5
 2168 1090 FFF7FEFF 		bl	strlen
 2169 1094 2B18     		adds	r3, r5, r0
 2170 1096 2188     		ldrh	r1, [r4]	@ unaligned
 2171 1098 A278     		ldrb	r2, [r4, #2]	@ zero_extendqisi2
 2172 109a 2952     		strh	r1, [r5, r0]	@ unaligned
 2173 109c 9A70     		strb	r2, [r3, #2]
 2174 109e B9F1000F 		cmp	r9, #0
 2175 10a2 04D0     		beq	.L315
 2176              	.L302:
 2177 10a4 BDE8F883 		pop	{r3, r4, r5, r6, r7, r8, r9, pc}
 2178              	.L307:
 2179 10a8 0023     		movs	r3, #0
 2180 10aa 8383     		strh	r3, [r0, #28]	@ movhi
 2181 10ac C8E7     		b	.L308
 2182              	.L315:
 2183 10ae 0120     		movs	r0, #1
 2184 10b0 FFF7FEFF 		bl	naveg_settings_refresh
 2185 10b4 F6E7     		b	.L302
 2186              	.L317:
 2187 10b6 00BF     		.align	2
 2188              	.L316:
 2189 10b8 7C020000 		.word	.LC44
 2190 10bc 6C020000 		.word	.LC43
 2191 10c0 68010000 		.word	.LC21
 2192 10c4 64020000 		.word	.LC41
 2193 10c8 68020000 		.word	.LC42
 2195              		.align	1
 2196              		.global	system_play_cb
 2197              		.syntax unified
 2198              		.thumb
 2199              		.thumb_func
 2200              		.fpu softvfp
 2202              	system_play_cb:
 2203              		@ args = 0, pretend = 0, frame = 0
 2204              		@ frame_needed = 0, uses_anonymous_args = 0
 2205 10cc 2DE9F843 		push	{r3, r4, r5, r6, r7, r8, r9, lr}
 2206 10d0 0646     		mov	r6, r0
 2207 10d2 0F46     		mov	r7, r1
 2208 10d4 0029     		cmp	r1, #0
 2209 10d6 3ED1     		bne	.L319
 2210 10d8 B0F91C30 		ldrsh	r3, [r0, #28]
 2211 10dc 002B     		cmp	r3, #0
 2212 10de 37D1     		bne	.L320
 2213 10e0 0123     		movs	r3, #1
 2214 10e2 8383     		strh	r3, [r0, #28]	@ movhi
 2215              	.L321:
 2216 10e4 317F     		ldrb	r1, [r6, #28]	@ zero_extendqisi2
 2217 10e6 2148     		ldr	r0, .L331
 2218 10e8 FFF7FEFF 		bl	set_item_value
 2219              	.L322:
 2220 10ec 7368     		ldr	r3, [r6, #4]
 2221 10ee 1968     		ldr	r1, [r3]
 2222 10f0 3068     		ldr	r0, [r6]
 2223 10f2 FFF7FEFF 		bl	strcpy
 2224 10f6 3068     		ldr	r0, [r6]
 2225 10f8 FFF7FEFF 		bl	strlen
 2226 10fc C0B2     		uxtb	r0, r0
 2227 10fe C0F11708 		rsb	r8, r0, #23
 2228 1102 B8F1000F 		cmp	r8, #0
 2229 1106 0DDD     		ble	.L323
 2230 1108 0024     		movs	r4, #0
 2231 110a 194B     		ldr	r3, .L331+4
 2232 110c B3F80090 		ldrh	r9, [r3]	@ unaligned
 2233              	.L324:
 2234 1110 3568     		ldr	r5, [r6]
 2235 1112 2846     		mov	r0, r5
 2236 1114 FFF7FEFF 		bl	strlen
 2237 1118 25F80090 		strh	r9, [r5, r0]	@ unaligned
 2238 111c 0134     		adds	r4, r4, #1
 2239 111e E4B2     		uxtb	r4, r4
 2240 1120 4445     		cmp	r4, r8
 2241 1122 F5DB     		blt	.L324
 2242              	.L323:
 2243 1124 3568     		ldr	r5, [r6]
 2244 1126 B6F91C20 		ldrsh	r2, [r6, #28]
 2245 112a 124B     		ldr	r3, .L331+8
 2246 112c 124C     		ldr	r4, .L331+12
 2247 112e 002A     		cmp	r2, #0
 2248 1130 18BF     		it	ne
 2249 1132 1C46     		movne	r4, r3
 2250 1134 2846     		mov	r0, r5
 2251 1136 FFF7FEFF 		bl	strlen
 2252 113a 0646     		mov	r6, r0
 2253 113c 2A18     		adds	r2, r5, r0
 2254 113e 2346     		mov	r3, r4
 2255 1140 03CB     		ldmia	r3!, {r0, r1}
 2256 1142 A851     		str	r0, [r5, r6]	@ unaligned
 2257 1144 5160     		str	r1, [r2, #4]	@ unaligned
 2258 1146 1B78     		ldrb	r3, [r3]	@ zero_extendqisi2
 2259 1148 1372     		strb	r3, [r2, #8]
 2260 114a 5FB1     		cbz	r7, .L330
 2261              	.L318:
 2262 114c BDE8F883 		pop	{r3, r4, r5, r6, r7, r8, r9, pc}
 2263              	.L320:
 2264 1150 0023     		movs	r3, #0
 2265 1152 8383     		strh	r3, [r0, #28]	@ movhi
 2266 1154 C6E7     		b	.L321
 2267              	.L319:
 2268 1156 0329     		cmp	r1, #3
 2269 1158 C8D1     		bne	.L322
 2270 115a 0146     		mov	r1, r0
 2271 115c 0748     		ldr	r0, .L331+16
 2272 115e FFF7FEFF 		bl	request_item_value
 2273 1162 C3E7     		b	.L322
 2274              	.L330:
 2275 1164 0020     		movs	r0, #0
 2276 1166 FFF7FEFF 		bl	naveg_settings_refresh
 2277 116a EFE7     		b	.L318
 2278              	.L332:
 2279              		.align	2
 2280              	.L331:
 2281 116c A0020000 		.word	.LC47
 2282 1170 68010000 		.word	.LC21
 2283 1174 88020000 		.word	.LC45
 2284 1178 94020000 		.word	.LC46
 2285 117c B4020000 		.word	.LC48
 2287              		.align	1
 2288              		.global	system_midi_src_cb
 2289              		.syntax unified
 2290              		.thumb
 2291              		.thumb_func
 2292              		.fpu softvfp
 2294              	system_midi_src_cb:
 2295              		@ args = 0, pretend = 0, frame = 16
 2296              		@ frame_needed = 0, uses_anonymous_args = 0
 2297 1180 2DE9F043 		push	{r4, r5, r6, r7, r8, r9, lr}
 2298 1184 85B0     		sub	sp, sp, #20
 2299 1186 0646     		mov	r6, r0
 2300 1188 8846     		mov	r8, r1
 2301 118a 0029     		cmp	r1, #0
 2302 118c 3DD1     		bne	.L334
 2303 118e B0F91C30 		ldrsh	r3, [r0, #28]
 2304 1192 012B     		cmp	r3, #1
 2305 1194 D4BF     		ite	le
 2306 1196 0133     		addle	r3, r3, #1
 2307 1198 0023     		movgt	r3, #0
 2308 119a 8383     		strh	r3, [r0, #28]	@ movhi
 2309 119c 017F     		ldrb	r1, [r0, #28]	@ zero_extendqisi2
 2310 119e 2A48     		ldr	r0, .L350
 2311 11a0 FFF7FEFF 		bl	set_item_value
 2312              	.L337:
 2313 11a4 B6F91C30 		ldrsh	r3, [r6, #28]
 2314 11a8 002B     		cmp	r3, #0
 2315 11aa 35D0     		beq	.L346
 2316 11ac 012B     		cmp	r3, #1
 2317 11ae 39D0     		beq	.L347
 2318 11b0 022B     		cmp	r3, #2
 2319 11b2 3ED0     		beq	.L348
 2320              	.L339:
 2321 11b4 7368     		ldr	r3, [r6, #4]
 2322 11b6 1968     		ldr	r1, [r3]
 2323 11b8 3068     		ldr	r0, [r6]
 2324 11ba FFF7FEFF 		bl	strcpy
 2325 11be 6846     		mov	r0, sp
 2326 11c0 FFF7FEFF 		bl	strlen
 2327 11c4 0446     		mov	r4, r0
 2328 11c6 3068     		ldr	r0, [r6]
 2329 11c8 FFF7FEFF 		bl	strlen
 2330 11cc C7B2     		uxtb	r7, r0
 2331 11ce C7F11F07 		rsb	r7, r7, #31
 2332 11d2 E4B2     		uxtb	r4, r4
 2333 11d4 3F1B     		subs	r7, r7, r4
 2334 11d6 002F     		cmp	r7, #0
 2335 11d8 0DDD     		ble	.L341
 2336 11da 0024     		movs	r4, #0
 2337 11dc 1B4B     		ldr	r3, .L350+4
 2338 11de B3F80090 		ldrh	r9, [r3]	@ unaligned
 2339              	.L342:
 2340 11e2 3568     		ldr	r5, [r6]
 2341 11e4 2846     		mov	r0, r5
 2342 11e6 FFF7FEFF 		bl	strlen
 2343 11ea 25F80090 		strh	r9, [r5, r0]	@ unaligned
 2344 11ee 0134     		adds	r4, r4, #1
 2345 11f0 E4B2     		uxtb	r4, r4
 2346 11f2 BC42     		cmp	r4, r7
 2347 11f4 F5DB     		blt	.L342
 2348              	.L341:
 2349 11f6 6946     		mov	r1, sp
 2350 11f8 3068     		ldr	r0, [r6]
 2351 11fa FFF7FEFF 		bl	strcat
 2352 11fe B8F1000F 		cmp	r8, #0
 2353 1202 1CD0     		beq	.L349
 2354              	.L333:
 2355 1204 05B0     		add	sp, sp, #20
 2356              		@ sp needed
 2357 1206 BDE8F083 		pop	{r4, r5, r6, r7, r8, r9, pc}
 2358              	.L334:
 2359 120a 0329     		cmp	r1, #3
 2360 120c CAD1     		bne	.L337
 2361 120e 0146     		mov	r1, r0
 2362 1210 0F48     		ldr	r0, .L350+8
 2363 1212 FFF7FEFF 		bl	request_item_value
 2364 1216 C5E7     		b	.L337
 2365              	.L346:
 2366 1218 0E4A     		ldr	r2, .L350+12
 2367 121a 6B46     		mov	r3, sp
 2368 121c 07CA     		ldm	r2, {r0, r1, r2}
 2369 121e 03C3     		stmia	r3!, {r0, r1}
 2370 1220 1A70     		strb	r2, [r3]
 2371 1222 C7E7     		b	.L339
 2372              	.L347:
 2373 1224 0C4B     		ldr	r3, .L350+16
 2374 1226 93E80300 		ldm	r3, {r0, r1}
 2375 122a 0090     		str	r0, [sp]
 2376 122c 8DF80410 		strb	r1, [sp, #4]
 2377 1230 C0E7     		b	.L339
 2378              	.L348:
 2379 1232 0A4B     		ldr	r3, .L350+20
 2380 1234 6C46     		mov	r4, sp
 2381 1236 0FCB     		ldm	r3, {r0, r1, r2, r3}
 2382 1238 07C4     		stmia	r4!, {r0, r1, r2}
 2383 123a 2370     		strb	r3, [r4]
 2384 123c BAE7     		b	.L339
 2385              	.L349:
 2386 123e 0120     		movs	r0, #1
 2387 1240 FFF7FEFF 		bl	naveg_settings_refresh
 2388 1244 DEE7     		b	.L333
 2389              	.L351:
 2390 1246 00BF     		.align	2
 2391              	.L350:
 2392 1248 C4020000 		.word	.LC49
 2393 124c 68010000 		.word	.LC21
 2394 1250 D4020000 		.word	.LC50
 2395 1254 E0020000 		.word	.LC51
 2396 1258 EC020000 		.word	.LC52
 2397 125c F4020000 		.word	.LC53
 2399              		.align	1
 2400              		.global	system_midi_send_cb
 2401              		.syntax unified
 2402              		.thumb
 2403              		.thumb_func
 2404              		.fpu softvfp
 2406              	system_midi_send_cb:
 2407              		@ args = 0, pretend = 0, frame = 0
 2408              		@ frame_needed = 0, uses_anonymous_args = 0
 2409 1260 2DE9F843 		push	{r3, r4, r5, r6, r7, r8, r9, lr}
 2410 1264 0646     		mov	r6, r0
 2411 1266 8946     		mov	r9, r1
 2412 1268 0029     		cmp	r1, #0
 2413 126a 39D1     		bne	.L353
 2414 126c B0F91C30 		ldrsh	r3, [r0, #28]
 2415 1270 002B     		cmp	r3, #0
 2416 1272 32D1     		bne	.L354
 2417 1274 0123     		movs	r3, #1
 2418 1276 8383     		strh	r3, [r0, #28]	@ movhi
 2419              	.L355:
 2420 1278 317F     		ldrb	r1, [r6, #28]	@ zero_extendqisi2
 2421 127a 1F48     		ldr	r0, .L365
 2422 127c FFF7FEFF 		bl	set_item_value
 2423              	.L356:
 2424 1280 7368     		ldr	r3, [r6, #4]
 2425 1282 1968     		ldr	r1, [r3]
 2426 1284 3068     		ldr	r0, [r6]
 2427 1286 FFF7FEFF 		bl	strcpy
 2428 128a 3068     		ldr	r0, [r6]
 2429 128c FFF7FEFF 		bl	strlen
 2430 1290 C0B2     		uxtb	r0, r0
 2431 1292 C0F11C07 		rsb	r7, r0, #28
 2432 1296 002F     		cmp	r7, #0
 2433 1298 0DDD     		ble	.L357
 2434 129a 0024     		movs	r4, #0
 2435 129c 174B     		ldr	r3, .L365+4
 2436 129e B3F80080 		ldrh	r8, [r3]	@ unaligned
 2437              	.L358:
 2438 12a2 3568     		ldr	r5, [r6]
 2439 12a4 2846     		mov	r0, r5
 2440 12a6 FFF7FEFF 		bl	strlen
 2441 12aa 25F80080 		strh	r8, [r5, r0]	@ unaligned
 2442 12ae 0134     		adds	r4, r4, #1
 2443 12b0 E4B2     		uxtb	r4, r4
 2444 12b2 BC42     		cmp	r4, r7
 2445 12b4 F5DB     		blt	.L358
 2446              	.L357:
 2447 12b6 3568     		ldr	r5, [r6]
 2448 12b8 B6F91C20 		ldrsh	r2, [r6, #28]
 2449 12bc 104C     		ldr	r4, .L365+8
 2450 12be 114B     		ldr	r3, .L365+12
 2451 12c0 002A     		cmp	r2, #0
 2452 12c2 08BF     		it	eq
 2453 12c4 1C46     		moveq	r4, r3
 2454 12c6 2846     		mov	r0, r5
 2455 12c8 FFF7FEFF 		bl	strlen
 2456 12cc 2368     		ldr	r3, [r4]
 2457 12ce 2B50     		str	r3, [r5, r0]	@ unaligned
 2458 12d0 B9F1000F 		cmp	r9, #0
 2459 12d4 0BD0     		beq	.L364
 2460              	.L352:
 2461 12d6 BDE8F883 		pop	{r3, r4, r5, r6, r7, r8, r9, pc}
 2462              	.L354:
 2463 12da 0023     		movs	r3, #0
 2464 12dc 8383     		strh	r3, [r0, #28]	@ movhi
 2465 12de CBE7     		b	.L355
 2466              	.L353:
 2467 12e0 0329     		cmp	r1, #3
 2468 12e2 CDD1     		bne	.L356
 2469 12e4 0146     		mov	r1, r0
 2470 12e6 0848     		ldr	r0, .L365+16
 2471 12e8 FFF7FEFF 		bl	request_item_value
 2472 12ec C8E7     		b	.L356
 2473              	.L364:
 2474 12ee 0120     		movs	r0, #1
 2475 12f0 FFF7FEFF 		bl	naveg_settings_refresh
 2476 12f4 EFE7     		b	.L352
 2477              	.L366:
 2478 12f6 00BF     		.align	2
 2479              	.L365:
 2480 12f8 0C030000 		.word	.LC56
 2481 12fc 68010000 		.word	.LC21
 2482 1300 04030000 		.word	.LC54
 2483 1304 08030000 		.word	.LC55
 2484 1308 20030000 		.word	.LC57
 2486              		.align	1
 2487              		.global	system_ss_prog_change_cb
 2488              		.syntax unified
 2489              		.thumb
 2490              		.thumb_func
 2491              		.fpu softvfp
 2493              	system_ss_prog_change_cb:
 2494              		@ args = 0, pretend = 0, frame = 8
 2495              		@ frame_needed = 0, uses_anonymous_args = 0
 2496 130c 2DE9F043 		push	{r4, r5, r6, r7, r8, r9, lr}
 2497 1310 83B0     		sub	sp, sp, #12
 2498 1312 0646     		mov	r6, r0
 2499 1314 8846     		mov	r8, r1
 2500 1316 0029     		cmp	r1, #0
 2501 1318 37D0     		beq	.L376
 2502 131a 0329     		cmp	r1, #3
 2503 131c 3AD0     		beq	.L377
 2504              	.L369:
 2505 131e 7368     		ldr	r3, [r6, #4]
 2506 1320 1968     		ldr	r1, [r3]
 2507 1322 3068     		ldr	r0, [r6]
 2508 1324 FFF7FEFF 		bl	strcpy
 2509 1328 0023     		movs	r3, #0
 2510 132a 0322     		movs	r2, #3
 2511 132c 6946     		mov	r1, sp
 2512 132e B6F91C00 		ldrsh	r0, [r6, #28]
 2513 1332 FFF7FEFF 		bl	int_to_str
 2514 1336 B6F91C30 		ldrsh	r3, [r6, #28]
 2515 133a 002B     		cmp	r3, #0
 2516 133c 35D0     		beq	.L378
 2517              	.L370:
 2518 133e 6846     		mov	r0, sp
 2519 1340 FFF7FEFF 		bl	strlen
 2520 1344 0446     		mov	r4, r0
 2521 1346 3068     		ldr	r0, [r6]
 2522 1348 FFF7FEFF 		bl	strlen
 2523 134c C7B2     		uxtb	r7, r0
 2524 134e C7F11F07 		rsb	r7, r7, #31
 2525 1352 E4B2     		uxtb	r4, r4
 2526 1354 3F1B     		subs	r7, r7, r4
 2527 1356 002F     		cmp	r7, #0
 2528 1358 0DDD     		ble	.L371
 2529 135a 0024     		movs	r4, #0
 2530 135c 164B     		ldr	r3, .L380
 2531 135e B3F80090 		ldrh	r9, [r3]	@ unaligned
 2532              	.L372:
 2533 1362 3568     		ldr	r5, [r6]
 2534 1364 2846     		mov	r0, r5
 2535 1366 FFF7FEFF 		bl	strlen
 2536 136a 25F80090 		strh	r9, [r5, r0]	@ unaligned
 2537 136e 0134     		adds	r4, r4, #1
 2538 1370 E4B2     		uxtb	r4, r4
 2539 1372 BC42     		cmp	r4, r7
 2540 1374 F5DB     		blt	.L372
 2541              	.L371:
 2542 1376 6946     		mov	r1, sp
 2543 1378 3068     		ldr	r0, [r6]
 2544 137a FFF7FEFF 		bl	strcat
 2545 137e B8F1000F 		cmp	r8, #0
 2546 1382 15D0     		beq	.L379
 2547              	.L367:
 2548 1384 03B0     		add	sp, sp, #12
 2549              		@ sp needed
 2550 1386 BDE8F083 		pop	{r4, r5, r6, r7, r8, r9, pc}
 2551              	.L376:
 2552 138a 017F     		ldrb	r1, [r0, #28]	@ zero_extendqisi2
 2553 138c 0B48     		ldr	r0, .L380+4
 2554 138e FFF7FEFF 		bl	set_item_value
 2555 1392 C4E7     		b	.L369
 2556              	.L377:
 2557 1394 0146     		mov	r1, r0
 2558 1396 0A48     		ldr	r0, .L380+8
 2559 1398 FFF7FEFF 		bl	request_item_value
 2560 139c 0023     		movs	r3, #0
 2561 139e 3383     		strh	r3, [r6, #24]	@ movhi
 2562 13a0 1023     		movs	r3, #16
 2563 13a2 7383     		strh	r3, [r6, #26]	@ movhi
 2564 13a4 0123     		movs	r3, #1
 2565 13a6 F383     		strh	r3, [r6, #30]	@ movhi
 2566 13a8 B9E7     		b	.L369
 2567              	.L378:
 2568 13aa 064B     		ldr	r3, .L380+12
 2569 13ac 0093     		str	r3, [sp]
 2570 13ae C6E7     		b	.L370
 2571              	.L379:
 2572 13b0 0120     		movs	r0, #1
 2573 13b2 FFF7FEFF 		bl	naveg_settings_refresh
 2574 13b6 E5E7     		b	.L367
 2575              	.L381:
 2576              		.align	2
 2577              	.L380:
 2578 13b8 68010000 		.word	.LC21
 2579 13bc 34030000 		.word	.LC58
 2580 13c0 4C030000 		.word	.LC59
 2581 13c4 4F464600 		.word	4605519
 2583              		.align	1
 2584              		.global	system_pb_prog_change_cb
 2585              		.syntax unified
 2586              		.thumb
 2587              		.thumb_func
 2588              		.fpu softvfp
 2590              	system_pb_prog_change_cb:
 2591              		@ args = 0, pretend = 0, frame = 8
 2592              		@ frame_needed = 0, uses_anonymous_args = 0
 2593 13c8 2DE9F043 		push	{r4, r5, r6, r7, r8, r9, lr}
 2594 13cc 83B0     		sub	sp, sp, #12
 2595 13ce 0646     		mov	r6, r0
 2596 13d0 8846     		mov	r8, r1
 2597 13d2 0029     		cmp	r1, #0
 2598 13d4 37D0     		beq	.L391
 2599 13d6 0329     		cmp	r1, #3
 2600 13d8 3AD0     		beq	.L392
 2601              	.L384:
 2602 13da 7368     		ldr	r3, [r6, #4]
 2603 13dc 1968     		ldr	r1, [r3]
 2604 13de 3068     		ldr	r0, [r6]
 2605 13e0 FFF7FEFF 		bl	strcpy
 2606 13e4 0023     		movs	r3, #0
 2607 13e6 0322     		movs	r2, #3
 2608 13e8 6946     		mov	r1, sp
 2609 13ea B6F91C00 		ldrsh	r0, [r6, #28]
 2610 13ee FFF7FEFF 		bl	int_to_str
 2611 13f2 B6F91C30 		ldrsh	r3, [r6, #28]
 2612 13f6 002B     		cmp	r3, #0
 2613 13f8 35D0     		beq	.L393
 2614              	.L385:
 2615 13fa 6846     		mov	r0, sp
 2616 13fc FFF7FEFF 		bl	strlen
 2617 1400 0446     		mov	r4, r0
 2618 1402 3068     		ldr	r0, [r6]
 2619 1404 FFF7FEFF 		bl	strlen
 2620 1408 C7B2     		uxtb	r7, r0
 2621 140a C7F11F07 		rsb	r7, r7, #31
 2622 140e E4B2     		uxtb	r4, r4
 2623 1410 3F1B     		subs	r7, r7, r4
 2624 1412 002F     		cmp	r7, #0
 2625 1414 0DDD     		ble	.L386
 2626 1416 0024     		movs	r4, #0
 2627 1418 164B     		ldr	r3, .L395
 2628 141a B3F80090 		ldrh	r9, [r3]	@ unaligned
 2629              	.L387:
 2630 141e 3568     		ldr	r5, [r6]
 2631 1420 2846     		mov	r0, r5
 2632 1422 FFF7FEFF 		bl	strlen
 2633 1426 25F80090 		strh	r9, [r5, r0]	@ unaligned
 2634 142a 0134     		adds	r4, r4, #1
 2635 142c E4B2     		uxtb	r4, r4
 2636 142e BC42     		cmp	r4, r7
 2637 1430 F5DB     		blt	.L387
 2638              	.L386:
 2639 1432 6946     		mov	r1, sp
 2640 1434 3068     		ldr	r0, [r6]
 2641 1436 FFF7FEFF 		bl	strcat
 2642 143a B8F1000F 		cmp	r8, #0
 2643 143e 15D0     		beq	.L394
 2644              	.L382:
 2645 1440 03B0     		add	sp, sp, #12
 2646              		@ sp needed
 2647 1442 BDE8F083 		pop	{r4, r5, r6, r7, r8, r9, pc}
 2648              	.L391:
 2649 1446 017F     		ldrb	r1, [r0, #28]	@ zero_extendqisi2
 2650 1448 0B48     		ldr	r0, .L395+4
 2651 144a FFF7FEFF 		bl	set_item_value
 2652 144e C4E7     		b	.L384
 2653              	.L392:
 2654 1450 0146     		mov	r1, r0
 2655 1452 0A48     		ldr	r0, .L395+8
 2656 1454 FFF7FEFF 		bl	request_item_value
 2657 1458 0023     		movs	r3, #0
 2658 145a 3383     		strh	r3, [r6, #24]	@ movhi
 2659 145c 1023     		movs	r3, #16
 2660 145e 7383     		strh	r3, [r6, #26]	@ movhi
 2661 1460 0123     		movs	r3, #1
 2662 1462 F383     		strh	r3, [r6, #30]	@ movhi
 2663 1464 B9E7     		b	.L384
 2664              	.L393:
 2665 1466 064B     		ldr	r3, .L395+12
 2666 1468 0093     		str	r3, [sp]
 2667 146a C6E7     		b	.L385
 2668              	.L394:
 2669 146c 0120     		movs	r0, #1
 2670 146e FFF7FEFF 		bl	naveg_settings_refresh
 2671 1472 E5E7     		b	.L382
 2672              	.L396:
 2673              		.align	2
 2674              	.L395:
 2675 1474 68010000 		.word	.LC21
 2676 1478 60030000 		.word	.LC60
 2677 147c 74030000 		.word	.LC61
 2678 1480 4F464600 		.word	4605519
 2680              		.align	1
 2681              		.global	system_tempo_cb
 2682              		.syntax unified
 2683              		.thumb
 2684              		.thumb_func
 2685              		.fpu softvfp
 2687              	system_tempo_cb:
 2688              		@ args = 0, pretend = 0, frame = 8
 2689              		@ frame_needed = 0, uses_anonymous_args = 0
 2690 1484 2DE9F043 		push	{r4, r5, r6, r7, r8, r9, lr}
 2691 1488 83B0     		sub	sp, sp, #12
 2692 148a 0746     		mov	r7, r0
 2693 148c 8846     		mov	r8, r1
 2694 148e 0029     		cmp	r1, #0
 2695 1490 3ED0     		beq	.L405
 2696 1492 0329     		cmp	r1, #3
 2697 1494 41D0     		beq	.L406
 2698              	.L399:
 2699 1496 7B68     		ldr	r3, [r7, #4]
 2700 1498 1968     		ldr	r1, [r3]
 2701 149a 3868     		ldr	r0, [r7]
 2702 149c FFF7FEFF 		bl	strcpy
 2703 14a0 0023     		movs	r3, #0
 2704 14a2 0822     		movs	r2, #8
 2705 14a4 6946     		mov	r1, sp
 2706 14a6 B7F91C00 		ldrsh	r0, [r7, #28]
 2707 14aa FFF7FEFF 		bl	int_to_str
 2708 14ae 6846     		mov	r0, sp
 2709 14b0 FFF7FEFF 		bl	strlen
 2710 14b4 0646     		mov	r6, r0
 2711 14b6 3868     		ldr	r0, [r7]
 2712 14b8 FFF7FEFF 		bl	strlen
 2713 14bc C0B2     		uxtb	r0, r0
 2714 14be F6B2     		uxtb	r6, r6
 2715 14c0 C6F11B06 		rsb	r6, r6, #27
 2716 14c4 361A     		subs	r6, r6, r0
 2717 14c6 002E     		cmp	r6, #0
 2718 14c8 0DDD     		ble	.L400
 2719 14ca 0024     		movs	r4, #0
 2720 14cc 1A4B     		ldr	r3, .L408
 2721 14ce B3F80090 		ldrh	r9, [r3]	@ unaligned
 2722              	.L401:
 2723 14d2 3D68     		ldr	r5, [r7]
 2724 14d4 2846     		mov	r0, r5
 2725 14d6 FFF7FEFF 		bl	strlen
 2726 14da 25F80090 		strh	r9, [r5, r0]	@ unaligned
 2727 14de 0134     		adds	r4, r4, #1
 2728 14e0 E4B2     		uxtb	r4, r4
 2729 14e2 B442     		cmp	r4, r6
 2730 14e4 F5DB     		blt	.L401
 2731              	.L400:
 2732 14e6 6946     		mov	r1, sp
 2733 14e8 3868     		ldr	r0, [r7]
 2734 14ea FFF7FEFF 		bl	strcat
 2735 14ee 3C68     		ldr	r4, [r7]
 2736 14f0 2046     		mov	r0, r4
 2737 14f2 FFF7FEFF 		bl	strlen
 2738 14f6 0246     		mov	r2, r0
 2739 14f8 2118     		adds	r1, r4, r0
 2740 14fa 104B     		ldr	r3, .L408+4
 2741 14fc 1868     		ldr	r0, [r3]
 2742 14fe A050     		str	r0, [r4, r2]	@ unaligned
 2743 1500 1B79     		ldrb	r3, [r3, #4]	@ zero_extendqisi2
 2744 1502 0B71     		strb	r3, [r1, #4]
 2745 1504 B8F1000F 		cmp	r8, #0
 2746 1508 12D0     		beq	.L407
 2747              	.L397:
 2748 150a 03B0     		add	sp, sp, #12
 2749              		@ sp needed
 2750 150c BDE8F083 		pop	{r4, r5, r6, r7, r8, r9, pc}
 2751              	.L405:
 2752 1510 017F     		ldrb	r1, [r0, #28]	@ zero_extendqisi2
 2753 1512 0B48     		ldr	r0, .L408+8
 2754 1514 FFF7FEFF 		bl	set_item_value
 2755 1518 BDE7     		b	.L399
 2756              	.L406:
 2757 151a 0146     		mov	r1, r0
 2758 151c 0948     		ldr	r0, .L408+12
 2759 151e FFF7FEFF 		bl	request_item_value
 2760 1522 1423     		movs	r3, #20
 2761 1524 3B83     		strh	r3, [r7, #24]	@ movhi
 2762 1526 DC23     		movs	r3, #220
 2763 1528 7B83     		strh	r3, [r7, #26]	@ movhi
 2764 152a 0123     		movs	r3, #1
 2765 152c FB83     		strh	r3, [r7, #30]	@ movhi
 2766 152e B2E7     		b	.L399
 2767              	.L407:
 2768 1530 0120     		movs	r0, #1
 2769 1532 FFF7FEFF 		bl	naveg_settings_refresh
 2770 1536 E8E7     		b	.L397
 2771              	.L409:
 2772              		.align	2
 2773              	.L408:
 2774 1538 68010000 		.word	.LC21
 2775 153c A8030000 		.word	.LC64
 2776 1540 84030000 		.word	.LC62
 2777 1544 98030000 		.word	.LC63
 2779              		.align	1
 2780              		.global	system_bpb_cb
 2781              		.syntax unified
 2782              		.thumb
 2783              		.thumb_func
 2784              		.fpu softvfp
 2786              	system_bpb_cb:
 2787              		@ args = 0, pretend = 0, frame = 8
 2788              		@ frame_needed = 0, uses_anonymous_args = 0
 2789 1548 2DE9F043 		push	{r4, r5, r6, r7, r8, r9, lr}
 2790 154c 83B0     		sub	sp, sp, #12
 2791 154e 0746     		mov	r7, r0
 2792 1550 8846     		mov	r8, r1
 2793 1552 0029     		cmp	r1, #0
 2794 1554 3DD0     		beq	.L418
 2795 1556 0329     		cmp	r1, #3
 2796 1558 40D0     		beq	.L419
 2797              	.L412:
 2798 155a 7B68     		ldr	r3, [r7, #4]
 2799 155c 1968     		ldr	r1, [r3]
 2800 155e 3868     		ldr	r0, [r7]
 2801 1560 FFF7FEFF 		bl	strcpy
 2802 1564 0023     		movs	r3, #0
 2803 1566 0822     		movs	r2, #8
 2804 1568 6946     		mov	r1, sp
 2805 156a B7F91C00 		ldrsh	r0, [r7, #28]
 2806 156e FFF7FEFF 		bl	int_to_str
 2807 1572 6846     		mov	r0, sp
 2808 1574 FFF7FEFF 		bl	strlen
 2809 1578 0646     		mov	r6, r0
 2810 157a 3868     		ldr	r0, [r7]
 2811 157c FFF7FEFF 		bl	strlen
 2812 1580 C0B2     		uxtb	r0, r0
 2813 1582 F6B2     		uxtb	r6, r6
 2814 1584 C6F11D06 		rsb	r6, r6, #29
 2815 1588 361A     		subs	r6, r6, r0
 2816 158a 002E     		cmp	r6, #0
 2817 158c 0DDD     		ble	.L413
 2818 158e 0024     		movs	r4, #0
 2819 1590 194B     		ldr	r3, .L421
 2820 1592 B3F80090 		ldrh	r9, [r3]	@ unaligned
 2821              	.L414:
 2822 1596 3D68     		ldr	r5, [r7]
 2823 1598 2846     		mov	r0, r5
 2824 159a FFF7FEFF 		bl	strlen
 2825 159e 25F80090 		strh	r9, [r5, r0]	@ unaligned
 2826 15a2 0134     		adds	r4, r4, #1
 2827 15a4 E4B2     		uxtb	r4, r4
 2828 15a6 B442     		cmp	r4, r6
 2829 15a8 F5DB     		blt	.L414
 2830              	.L413:
 2831 15aa 6946     		mov	r1, sp
 2832 15ac 3868     		ldr	r0, [r7]
 2833 15ae FFF7FEFF 		bl	strcat
 2834 15b2 3C68     		ldr	r4, [r7]
 2835 15b4 2046     		mov	r0, r4
 2836 15b6 FFF7FEFF 		bl	strlen
 2837 15ba 2218     		adds	r2, r4, r0
 2838 15bc 0F4B     		ldr	r3, .L421+4
 2839 15be 1988     		ldrh	r1, [r3]	@ unaligned
 2840 15c0 9B78     		ldrb	r3, [r3, #2]	@ zero_extendqisi2
 2841 15c2 2152     		strh	r1, [r4, r0]	@ unaligned
 2842 15c4 9370     		strb	r3, [r2, #2]
 2843 15c6 B8F1000F 		cmp	r8, #0
 2844 15ca 11D0     		beq	.L420
 2845              	.L410:
 2846 15cc 03B0     		add	sp, sp, #12
 2847              		@ sp needed
 2848 15ce BDE8F083 		pop	{r4, r5, r6, r7, r8, r9, pc}
 2849              	.L418:
 2850 15d2 017F     		ldrb	r1, [r0, #28]	@ zero_extendqisi2
 2851 15d4 0A48     		ldr	r0, .L421+8
 2852 15d6 FFF7FEFF 		bl	set_item_value
 2853 15da BEE7     		b	.L412
 2854              	.L419:
 2855 15dc 0146     		mov	r1, r0
 2856 15de 0948     		ldr	r0, .L421+12
 2857 15e0 FFF7FEFF 		bl	request_item_value
 2858 15e4 0123     		movs	r3, #1
 2859 15e6 3B83     		strh	r3, [r7, #24]	@ movhi
 2860 15e8 1022     		movs	r2, #16
 2861 15ea 7A83     		strh	r2, [r7, #26]	@ movhi
 2862 15ec FB83     		strh	r3, [r7, #30]	@ movhi
 2863 15ee B4E7     		b	.L412
 2864              	.L420:
 2865 15f0 0120     		movs	r0, #1
 2866 15f2 FFF7FEFF 		bl	naveg_settings_refresh
 2867 15f6 E9E7     		b	.L410
 2868              	.L422:
 2869              		.align	2
 2870              	.L421:
 2871 15f8 68010000 		.word	.LC21
 2872 15fc D4030000 		.word	.LC67
 2873 1600 B0030000 		.word	.LC65
 2874 1604 C4030000 		.word	.LC66
 2876              		.align	1
 2877              		.global	system_bypass_cb
 2878              		.syntax unified
 2879              		.thumb
 2880              		.thumb_func
 2881              		.fpu softvfp
 2883              	system_bypass_cb:
 2884              		@ args = 0, pretend = 0, frame = 48
 2885              		@ frame_needed = 0, uses_anonymous_args = 0
 2886 1608 2DE9F047 		push	{r4, r5, r6, r7, r8, r9, r10, lr}
 2887 160c 8CB0     		sub	sp, sp, #48
 2888 160e 0646     		mov	r6, r0
 2889 1610 8946     		mov	r9, r1
 2890 1612 0029     		cmp	r1, #0
 2891 1614 40F0BC80 		bne	.L424
 2892 1618 4768     		ldr	r7, [r0, #4]
 2893 161a FB88     		ldrh	r3, [r7, #6]
 2894 161c AD2B     		cmp	r3, #173
 2895 161e 13D0     		beq	.L449
 2896 1620 AE2B     		cmp	r3, #174
 2897 1622 6BD0     		beq	.L450
 2898 1624 A44A     		ldr	r2, .L459
 2899 1626 1344     		add	r3, r3, r2
 2900 1628 13F8933C 		ldrb	r3, [r3, #-147]	@ zero_extendqisi2
 2901 162c 012B     		cmp	r3, #1
 2902 162e 00F08580 		beq	.L451
 2903 1632 002B     		cmp	r3, #0
 2904 1634 40F08980 		bne	.L433
 2905 1638 0122     		movs	r2, #1
 2906 163a 8283     		strh	r2, [r0, #28]	@ movhi
 2907 163c F988     		ldrh	r1, [r7, #6]
 2908 163e 9E4B     		ldr	r3, .L459
 2909 1640 0B44     		add	r3, r3, r1
 2910 1642 03F8932C 		strb	r2, [r3, #-147]
 2911 1646 80E0     		b	.L433
 2912              	.L449:
 2913 1648 B0F91C30 		ldrsh	r3, [r0, #28]
 2914 164c 012B     		cmp	r3, #1
 2915 164e 0AD0     		beq	.L452
 2916 1650 93B9     		cbnz	r3, .L427
 2917 1652 0123     		movs	r3, #1
 2918 1654 8383     		strh	r3, [r0, #28]	@ movhi
 2919 1656 984A     		ldr	r2, .L459
 2920 1658 F988     		ldrh	r1, [r7, #6]
 2921 165a 1144     		add	r1, r1, r2
 2922 165c 01F8933C 		strb	r3, [r1, #-147]
 2923 1660 1376     		strb	r3, [r2, #24]
 2924 1662 5376     		strb	r3, [r2, #25]
 2925 1664 08E0     		b	.L427
 2926              	.L452:
 2927 1666 0023     		movs	r3, #0
 2928 1668 8383     		strh	r3, [r0, #28]	@ movhi
 2929 166a 934A     		ldr	r2, .L459
 2930 166c F988     		ldrh	r1, [r7, #6]
 2931 166e 1144     		add	r1, r1, r2
 2932 1670 01F8933C 		strb	r3, [r1, #-147]
 2933 1674 1376     		strb	r3, [r2, #24]
 2934 1676 5376     		strb	r3, [r2, #25]
 2935              	.L427:
 2936 1678 04AC     		add	r4, sp, #16
 2937 167a DFF84482 		ldr	r8, .L459+8
 2938 167e 2746     		mov	r7, r4
 2939 1680 4546     		mov	r5, r8
 2940 1682 0FCD     		ldmia	r5!, {r0, r1, r2, r3}
 2941 1684 0FC7     		stmia	r7!, {r0, r1, r2, r3}
 2942 1686 95E80300 		ldm	r5, {r0, r1}
 2943 168a 47F8040B 		str	r0, [r7], #4
 2944 168e 3980     		strh	r1, [r7]	@ movhi
 2945 1690 0023     		movs	r3, #0
 2946 1692 0822     		movs	r2, #8
 2947 1694 0DEB0201 		add	r1, sp, r2
 2948 1698 1846     		mov	r0, r3
 2949 169a FFF7FEFF 		bl	int_to_str
 2950 169e 02A9     		add	r1, sp, #8
 2951 16a0 2046     		mov	r0, r4
 2952 16a2 FFF7FEFF 		bl	strcat
 2953 16a6 2046     		mov	r0, r4
 2954 16a8 FFF7FEFF 		bl	strlen
 2955 16ac 834B     		ldr	r3, .L459+4
 2956 16ae B3F800A0 		ldrh	r10, [r3]	@ unaligned
 2957 16b2 24F800A0 		strh	r10, [r4, r0]	@ unaligned
 2958 16b6 317F     		ldrb	r1, [r6, #28]	@ zero_extendqisi2
 2959 16b8 2046     		mov	r0, r4
 2960 16ba FFF7FEFF 		bl	set_item_value
 2961 16be 2746     		mov	r7, r4
 2962 16c0 C446     		mov	ip, r8
 2963 16c2 BCE80F00 		ldmia	ip!, {r0, r1, r2, r3}
 2964 16c6 0FC7     		stmia	r7!, {r0, r1, r2, r3}
 2965 16c8 95E80300 		ldm	r5, {r0, r1}
 2966 16cc 47F8040B 		str	r0, [r7], #4
 2967 16d0 3980     		strh	r1, [r7]	@ movhi
 2968 16d2 0023     		movs	r3, #0
 2969 16d4 0822     		movs	r2, #8
 2970 16d6 0DEB0201 		add	r1, sp, r2
 2971 16da 0120     		movs	r0, #1
 2972 16dc FFF7FEFF 		bl	int_to_str
 2973 16e0 02A9     		add	r1, sp, #8
 2974 16e2 2046     		mov	r0, r4
 2975 16e4 FFF7FEFF 		bl	strcat
 2976 16e8 2046     		mov	r0, r4
 2977 16ea FFF7FEFF 		bl	strlen
 2978 16ee 24F800A0 		strh	r10, [r4, r0]	@ unaligned
 2979 16f2 317F     		ldrb	r1, [r6, #28]	@ zero_extendqisi2
 2980 16f4 2046     		mov	r0, r4
 2981 16f6 FFF7FEFF 		bl	set_item_value
 2982 16fa 4BE0     		b	.L428
 2983              	.L450:
 2984 16fc 6E4B     		ldr	r3, .L459
 2985 16fe DB7E     		ldrb	r3, [r3, #27]	@ zero_extendqisi2
 2986 1700 012B     		cmp	r3, #1
 2987 1702 0BD0     		beq	.L453
 2988 1704 022B     		cmp	r3, #2
 2989 1706 11D0     		beq	.L454
 2990 1708 002B     		cmp	r3, #0
 2991 170a 43D1     		bne	.L428
 2992 170c 0122     		movs	r2, #1
 2993 170e 8283     		strh	r2, [r0, #28]	@ movhi
 2994 1710 F988     		ldrh	r1, [r7, #6]
 2995 1712 694B     		ldr	r3, .L459
 2996 1714 0B44     		add	r3, r3, r1
 2997 1716 03F8932C 		strb	r2, [r3, #-147]
 2998 171a 3BE0     		b	.L428
 2999              	.L453:
 3000 171c 0222     		movs	r2, #2
 3001 171e 8283     		strh	r2, [r0, #28]	@ movhi
 3002 1720 F988     		ldrh	r1, [r7, #6]
 3003 1722 654B     		ldr	r3, .L459
 3004 1724 0B44     		add	r3, r3, r1
 3005 1726 03F8932C 		strb	r2, [r3, #-147]
 3006 172a 33E0     		b	.L428
 3007              	.L454:
 3008 172c 0022     		movs	r2, #0
 3009 172e 8283     		strh	r2, [r0, #28]	@ movhi
 3010 1730 F988     		ldrh	r1, [r7, #6]
 3011 1732 614B     		ldr	r3, .L459
 3012 1734 0B44     		add	r3, r3, r1
 3013 1736 03F8932C 		strb	r2, [r3, #-147]
 3014 173a 2BE0     		b	.L428
 3015              	.L451:
 3016 173c 0022     		movs	r2, #0
 3017 173e 8283     		strh	r2, [r0, #28]	@ movhi
 3018 1740 F988     		ldrh	r1, [r7, #6]
 3019 1742 5D4B     		ldr	r3, .L459
 3020 1744 0B44     		add	r3, r3, r1
 3021 1746 03F8932C 		strb	r2, [r3, #-147]
 3022              	.L433:
 3023 174a 0DF11008 		add	r8, sp, #16
 3024 174e 4446     		mov	r4, r8
 3025 1750 5B4D     		ldr	r5, .L459+8
 3026 1752 0FCD     		ldmia	r5!, {r0, r1, r2, r3}
 3027 1754 0FC4     		stmia	r4!, {r0, r1, r2, r3}
 3028 1756 95E80300 		ldm	r5, {r0, r1}
 3029 175a 44F8040B 		str	r0, [r4], #4
 3030 175e 2180     		strh	r1, [r4]	@ movhi
 3031 1760 F888     		ldrh	r0, [r7, #6]
 3032 1762 0023     		movs	r3, #0
 3033 1764 0822     		movs	r2, #8
 3034 1766 0DEB0201 		add	r1, sp, r2
 3035 176a AA38     		subs	r0, r0, #170
 3036 176c FFF7FEFF 		bl	int_to_str
 3037 1770 02A9     		add	r1, sp, #8
 3038 1772 4046     		mov	r0, r8
 3039 1774 FFF7FEFF 		bl	strcat
 3040 1778 4046     		mov	r0, r8
 3041 177a FFF7FEFF 		bl	strlen
 3042 177e 4F4B     		ldr	r3, .L459+4
 3043 1780 1B88     		ldrh	r3, [r3]	@ unaligned
 3044 1782 28F80030 		strh	r3, [r8, r0]	@ unaligned
 3045 1786 317F     		ldrb	r1, [r6, #28]	@ zero_extendqisi2
 3046 1788 4046     		mov	r0, r8
 3047 178a FFF7FEFF 		bl	set_item_value
 3048 178e 01E0     		b	.L428
 3049              	.L424:
 3050 1790 0329     		cmp	r1, #3
 3051 1792 31D0     		beq	.L455
 3052              	.L428:
 3053 1794 7368     		ldr	r3, [r6, #4]
 3054 1796 1968     		ldr	r1, [r3]
 3055 1798 3068     		ldr	r0, [r6]
 3056 179a FFF7FEFF 		bl	strcpy
 3057 179e 3068     		ldr	r0, [r6]
 3058 17a0 FFF7FEFF 		bl	strlen
 3059 17a4 C0B2     		uxtb	r0, r0
 3060 17a6 C0F11C07 		rsb	r7, r0, #28
 3061 17aa 002F     		cmp	r7, #0
 3062 17ac 0DDD     		ble	.L436
 3063 17ae 0024     		movs	r4, #0
 3064 17b0 424B     		ldr	r3, .L459+4
 3065 17b2 B3F80080 		ldrh	r8, [r3]	@ unaligned
 3066              	.L437:
 3067 17b6 3568     		ldr	r5, [r6]
 3068 17b8 2846     		mov	r0, r5
 3069 17ba FFF7FEFF 		bl	strlen
 3070 17be 25F80080 		strh	r8, [r5, r0]	@ unaligned
 3071 17c2 0134     		adds	r4, r4, #1
 3072 17c4 E4B2     		uxtb	r4, r4
 3073 17c6 BC42     		cmp	r4, r7
 3074 17c8 F5DB     		blt	.L437
 3075              	.L436:
 3076 17ca 7368     		ldr	r3, [r6, #4]
 3077 17cc DB88     		ldrh	r3, [r3, #6]
 3078 17ce AE2B     		cmp	r3, #174
 3079 17d0 52D0     		beq	.L456
 3080 17d2 3568     		ldr	r5, [r6]
 3081 17d4 B6F91C20 		ldrsh	r2, [r6, #28]
 3082 17d8 3A4C     		ldr	r4, .L459+12
 3083 17da 3B4B     		ldr	r3, .L459+16
 3084 17dc 002A     		cmp	r2, #0
 3085 17de 08BF     		it	eq
 3086 17e0 1C46     		moveq	r4, r3
 3087 17e2 2846     		mov	r0, r5
 3088 17e4 FFF7FEFF 		bl	strlen
 3089 17e8 2368     		ldr	r3, [r4]
 3090 17ea 2B50     		str	r3, [r5, r0]	@ unaligned
 3091              	.L443:
 3092 17ec B9F1000F 		cmp	r9, #0
 3093 17f0 57D0     		beq	.L457
 3094              	.L423:
 3095 17f2 0CB0     		add	sp, sp, #48
 3096              		@ sp needed
 3097 17f4 BDE8F087 		pop	{r4, r5, r6, r7, r8, r9, r10, pc}
 3098              	.L455:
 3099 17f8 4468     		ldr	r4, [r0, #4]
 3100 17fa E288     		ldrh	r2, [r4, #6]
 3101 17fc A2F1AB03 		sub	r3, r2, #171
 3102 1800 9BB2     		uxth	r3, r3
 3103 1802 012B     		cmp	r3, #1
 3104 1804 0FD9     		bls	.L458
 3105 1806 AD2A     		cmp	r2, #173
 3106 1808 C4D1     		bne	.L428
 3107 180a 2B4B     		ldr	r3, .L459
 3108 180c 1B7E     		ldrb	r3, [r3, #24]	@ zero_extendqisi2
 3109 180e 5BB3     		cbz	r3, .L435
 3110 1810 294B     		ldr	r3, .L459
 3111 1812 5B7E     		ldrb	r3, [r3, #25]	@ zero_extendqisi2
 3112 1814 43B3     		cbz	r3, .L435
 3113 1816 0122     		movs	r2, #1
 3114 1818 8283     		strh	r2, [r0, #28]	@ movhi
 3115 181a E188     		ldrh	r1, [r4, #6]
 3116 181c 264B     		ldr	r3, .L459
 3117 181e 0B44     		add	r3, r3, r1
 3118 1820 03F8932C 		strb	r2, [r3, #-147]
 3119 1824 B6E7     		b	.L428
 3120              	.L458:
 3121 1826 04AD     		add	r5, sp, #16
 3122 1828 284F     		ldr	r7, .L459+20
 3123 182a 0FCF     		ldmia	r7!, {r0, r1, r2, r3}
 3124 182c 0FC5     		stmia	r5!, {r0, r1, r2, r3}
 3125 182e 97E80300 		ldm	r7, {r0, r1}
 3126 1832 45F8040B 		str	r0, [r5], #4
 3127 1836 2980     		strh	r1, [r5]	@ movhi
 3128 1838 E088     		ldrh	r0, [r4, #6]
 3129 183a 0023     		movs	r3, #0
 3130 183c 0822     		movs	r2, #8
 3131 183e 0DEB0201 		add	r1, sp, r2
 3132 1842 AB38     		subs	r0, r0, #171
 3133 1844 FFF7FEFF 		bl	int_to_str
 3134 1848 02A9     		add	r1, sp, #8
 3135 184a 04A8     		add	r0, sp, #16
 3136 184c FFF7FEFF 		bl	strcat
 3137 1850 3146     		mov	r1, r6
 3138 1852 04A8     		add	r0, sp, #16
 3139 1854 FFF7FEFF 		bl	request_item_value
 3140 1858 7368     		ldr	r3, [r6, #4]
 3141 185a DA88     		ldrh	r2, [r3, #6]
 3142 185c 164B     		ldr	r3, .L459
 3143 185e 1344     		add	r3, r3, r2
 3144 1860 B28B     		ldrh	r2, [r6, #28]
 3145 1862 03F8932C 		strb	r2, [r3, #-147]
 3146 1866 95E7     		b	.L428
 3147              	.L435:
 3148 1868 0022     		movs	r2, #0
 3149 186a B283     		strh	r2, [r6, #28]	@ movhi
 3150 186c E188     		ldrh	r1, [r4, #6]
 3151 186e 124B     		ldr	r3, .L459
 3152 1870 0B44     		add	r3, r3, r1
 3153 1872 03F8932C 		strb	r2, [r3, #-147]
 3154 1876 8DE7     		b	.L428
 3155              	.L456:
 3156 1878 0F4B     		ldr	r3, .L459
 3157 187a DB7E     		ldrb	r3, [r3, #27]	@ zero_extendqisi2
 3158 187c 012B     		cmp	r3, #1
 3159 187e 0AD0     		beq	.L440
 3160 1880 33B1     		cbz	r3, .L441
 3161 1882 022B     		cmp	r3, #2
 3162 1884 0AD0     		beq	.L442
 3163              	.L439:
 3164 1886 01A9     		add	r1, sp, #4
 3165 1888 3068     		ldr	r0, [r6]
 3166 188a FFF7FEFF 		bl	strcat
 3167 188e ADE7     		b	.L443
 3168              	.L441:
 3169 1890 0F4B     		ldr	r3, .L459+24
 3170 1892 0193     		str	r3, [sp, #4]
 3171 1894 F7E7     		b	.L439
 3172              	.L440:
 3173 1896 0F4B     		ldr	r3, .L459+28
 3174 1898 0193     		str	r3, [sp, #4]
 3175 189a F4E7     		b	.L439
 3176              	.L442:
 3177 189c 0E4B     		ldr	r3, .L459+32
 3178 189e 0193     		str	r3, [sp, #4]
 3179 18a0 F1E7     		b	.L439
 3180              	.L457:
 3181 18a2 0020     		movs	r0, #0
 3182 18a4 FFF7FEFF 		bl	naveg_settings_refresh
 3183 18a8 034B     		ldr	r3, .L459
 3184 18aa DA7E     		ldrb	r2, [r3, #27]	@ zero_extendqisi2
 3185 18ac 597E     		ldrb	r1, [r3, #25]	@ zero_extendqisi2
 3186 18ae 187E     		ldrb	r0, [r3, #24]	@ zero_extendqisi2
 3187 18b0 FFF7FEFF 		bl	naveg_bypass_refresh
 3188 18b4 9DE7     		b	.L423
 3189              	.L460:
 3190 18b6 00BF     		.align	2
 3191              	.L459:
 3192 18b8 00000000 		.word	.LANCHOR1
 3193 18bc 68010000 		.word	.LC21
 3194 18c0 D8030000 		.word	.LC68
 3195 18c4 04030000 		.word	.LC54
 3196 18c8 08030000 		.word	.LC55
 3197 18cc F0030000 		.word	.LC69
 3198 18d0 20203100 		.word	3219488
 3199 18d4 20203200 		.word	3285024
 3200 18d8 31263200 		.word	3286577
 3202              		.align	1
 3203              		.global	system_quick_bypass_cb
 3204              		.syntax unified
 3205              		.thumb
 3206              		.thumb_func
 3207              		.fpu softvfp
 3209              	system_quick_bypass_cb:
 3210              		@ args = 0, pretend = 0, frame = 40
 3211              		@ frame_needed = 0, uses_anonymous_args = 0
 3212 18dc 2DE9F047 		push	{r4, r5, r6, r7, r8, r9, r10, lr}
 3213 18e0 8AB0     		sub	sp, sp, #40
 3214 18e2 0646     		mov	r6, r0
 3215 18e4 0F46     		mov	r7, r1
 3216 18e6 0029     		cmp	r1, #0
 3217 18e8 40F0B280 		bne	.L462
 3218 18ec 8D4B     		ldr	r3, .L486
 3219 18ee DB7E     		ldrb	r3, [r3, #27]	@ zero_extendqisi2
 3220 18f0 012B     		cmp	r3, #1
 3221 18f2 2ED0     		beq	.L464
 3222 18f4 23B1     		cbz	r3, .L465
 3223 18f6 022B     		cmp	r3, #2
 3224 18f8 54D0     		beq	.L466
 3225 18fa 4FF00009 		mov	r9, #0
 3226 18fe ABE0     		b	.L463
 3227              	.L465:
 3228 1900 884A     		ldr	r2, .L486
 3229 1902 147E     		ldrb	r4, [r2, #24]	@ zero_extendqisi2
 3230 1904 B4FA84F9 		clz	r9, r4
 3231 1908 4FEA5919 		lsr	r9, r9, #5
 3232 190c 82F81890 		strb	r9, [r2, #24]
 3233 1910 0DF10808 		add	r8, sp, #8
 3234 1914 4446     		mov	r4, r8
 3235 1916 844D     		ldr	r5, .L486+4
 3236 1918 0FCD     		ldmia	r5!, {r0, r1, r2, r3}
 3237 191a 0FC4     		stmia	r4!, {r0, r1, r2, r3}
 3238 191c 95E80300 		ldm	r5, {r0, r1}
 3239 1920 44F8040B 		str	r0, [r4], #4
 3240 1924 2180     		strh	r1, [r4]	@ movhi
 3241 1926 0023     		movs	r3, #0
 3242 1928 0822     		movs	r2, #8
 3243 192a 6946     		mov	r1, sp
 3244 192c 1846     		mov	r0, r3
 3245 192e FFF7FEFF 		bl	int_to_str
 3246 1932 6946     		mov	r1, sp
 3247 1934 4046     		mov	r0, r8
 3248 1936 FFF7FEFF 		bl	strcat
 3249 193a 4046     		mov	r0, r8
 3250 193c FFF7FEFF 		bl	strlen
 3251 1940 7A4B     		ldr	r3, .L486+8
 3252 1942 1B88     		ldrh	r3, [r3]	@ unaligned
 3253 1944 28F80030 		strh	r3, [r8, r0]	@ unaligned
 3254 1948 4946     		mov	r1, r9
 3255 194a 4046     		mov	r0, r8
 3256 194c FFF7FEFF 		bl	set_item_value
 3257 1950 82E0     		b	.L463
 3258              	.L464:
 3259 1952 744A     		ldr	r2, .L486
 3260 1954 547E     		ldrb	r4, [r2, #25]	@ zero_extendqisi2
 3261 1956 B4FA84F9 		clz	r9, r4
 3262 195a 4FEA5919 		lsr	r9, r9, #5
 3263 195e 82F81990 		strb	r9, [r2, #25]
 3264 1962 0DF10808 		add	r8, sp, #8
 3265 1966 4446     		mov	r4, r8
 3266 1968 6F4D     		ldr	r5, .L486+4
 3267 196a 0FCD     		ldmia	r5!, {r0, r1, r2, r3}
 3268 196c 0FC4     		stmia	r4!, {r0, r1, r2, r3}
 3269 196e 95E80300 		ldm	r5, {r0, r1}
 3270 1972 44F8040B 		str	r0, [r4], #4
 3271 1976 2180     		strh	r1, [r4]	@ movhi
 3272 1978 0023     		movs	r3, #0
 3273 197a 0822     		movs	r2, #8
 3274 197c 6946     		mov	r1, sp
 3275 197e 0120     		movs	r0, #1
 3276 1980 FFF7FEFF 		bl	int_to_str
 3277 1984 6946     		mov	r1, sp
 3278 1986 4046     		mov	r0, r8
 3279 1988 FFF7FEFF 		bl	strcat
 3280 198c 4046     		mov	r0, r8
 3281 198e FFF7FEFF 		bl	strlen
 3282 1992 664B     		ldr	r3, .L486+8
 3283 1994 1B88     		ldrh	r3, [r3]	@ unaligned
 3284 1996 28F80030 		strh	r3, [r8, r0]	@ unaligned
 3285 199a 4946     		mov	r1, r9
 3286 199c 4046     		mov	r0, r8
 3287 199e FFF7FEFF 		bl	set_item_value
 3288 19a2 59E0     		b	.L463
 3289              	.L466:
 3290 19a4 5F4B     		ldr	r3, .L486
 3291 19a6 1B7E     		ldrb	r3, [r3, #24]	@ zero_extendqisi2
 3292 19a8 002B     		cmp	r3, #0
 3293 19aa 4ED0     		beq	.L476
 3294 19ac 5D4B     		ldr	r3, .L486
 3295 19ae 5C7E     		ldrb	r4, [r3, #25]	@ zero_extendqisi2
 3296 19b0 B4FA84F9 		clz	r9, r4
 3297 19b4 4FEA5919 		lsr	r9, r9, #5
 3298              	.L467:
 3299 19b8 5A4B     		ldr	r3, .L486
 3300 19ba 83F81890 		strb	r9, [r3, #24]
 3301 19be 83F81990 		strb	r9, [r3, #25]
 3302 19c2 02AC     		add	r4, sp, #8
 3303 19c4 DFF860A1 		ldr	r10, .L486+4
 3304 19c8 A446     		mov	ip, r4
 3305 19ca 5546     		mov	r5, r10
 3306 19cc 0FCD     		ldmia	r5!, {r0, r1, r2, r3}
 3307 19ce ACE80F00 		stmia	ip!, {r0, r1, r2, r3}
 3308 19d2 95E80300 		ldm	r5, {r0, r1}
 3309 19d6 4CF8040B 		str	r0, [ip], #4
 3310 19da ACF80010 		strh	r1, [ip]	@ movhi
 3311 19de 0023     		movs	r3, #0
 3312 19e0 0822     		movs	r2, #8
 3313 19e2 6946     		mov	r1, sp
 3314 19e4 1846     		mov	r0, r3
 3315 19e6 FFF7FEFF 		bl	int_to_str
 3316 19ea 6946     		mov	r1, sp
 3317 19ec 2046     		mov	r0, r4
 3318 19ee FFF7FEFF 		bl	strcat
 3319 19f2 2046     		mov	r0, r4
 3320 19f4 FFF7FEFF 		bl	strlen
 3321 19f8 4C4B     		ldr	r3, .L486+8
 3322 19fa B3F80080 		ldrh	r8, [r3]	@ unaligned
 3323 19fe 24F80080 		strh	r8, [r4, r0]	@ unaligned
 3324 1a02 4946     		mov	r1, r9
 3325 1a04 2046     		mov	r0, r4
 3326 1a06 FFF7FEFF 		bl	set_item_value
 3327 1a0a A446     		mov	ip, r4
 3328 1a0c D646     		mov	lr, r10
 3329 1a0e BEE80F00 		ldmia	lr!, {r0, r1, r2, r3}
 3330 1a12 ACE80F00 		stmia	ip!, {r0, r1, r2, r3}
 3331 1a16 95E80300 		ldm	r5, {r0, r1}
 3332 1a1a 4CF8040B 		str	r0, [ip], #4
 3333 1a1e ACF80010 		strh	r1, [ip]	@ movhi
 3334 1a22 0023     		movs	r3, #0
 3335 1a24 0822     		movs	r2, #8
 3336 1a26 6946     		mov	r1, sp
 3337 1a28 0120     		movs	r0, #1
 3338 1a2a FFF7FEFF 		bl	int_to_str
 3339 1a2e 6946     		mov	r1, sp
 3340 1a30 2046     		mov	r0, r4
 3341 1a32 FFF7FEFF 		bl	strcat
 3342 1a36 2046     		mov	r0, r4
 3343 1a38 FFF7FEFF 		bl	strlen
 3344 1a3c 24F80080 		strh	r8, [r4, r0]	@ unaligned
 3345 1a40 4946     		mov	r1, r9
 3346 1a42 2046     		mov	r0, r4
 3347 1a44 FFF7FEFF 		bl	set_item_value
 3348 1a48 06E0     		b	.L463
 3349              	.L476:
 3350 1a4a 4FF00109 		mov	r9, #1
 3351 1a4e B3E7     		b	.L467
 3352              	.L462:
 3353 1a50 0329     		cmp	r1, #3
 3354 1a52 35D0     		beq	.L484
 3355 1a54 4FF00009 		mov	r9, #0
 3356              	.L463:
 3357 1a58 7368     		ldr	r3, [r6, #4]
 3358 1a5a 1968     		ldr	r1, [r3]
 3359 1a5c 3068     		ldr	r0, [r6]
 3360 1a5e FFF7FEFF 		bl	strcpy
 3361 1a62 3068     		ldr	r0, [r6]
 3362 1a64 FFF7FEFF 		bl	strlen
 3363 1a68 C0B2     		uxtb	r0, r0
 3364 1a6a C0F11508 		rsb	r8, r0, #21
 3365 1a6e B8F1000F 		cmp	r8, #0
 3366 1a72 0DDD     		ble	.L471
 3367 1a74 0024     		movs	r4, #0
 3368 1a76 2D4B     		ldr	r3, .L486+8
 3369 1a78 B3F800A0 		ldrh	r10, [r3]	@ unaligned
 3370              	.L472:
 3371 1a7c 3568     		ldr	r5, [r6]
 3372 1a7e 2846     		mov	r0, r5
 3373 1a80 FFF7FEFF 		bl	strlen
 3374 1a84 25F800A0 		strh	r10, [r5, r0]	@ unaligned
 3375 1a88 0134     		adds	r4, r4, #1
 3376 1a8a E4B2     		uxtb	r4, r4
 3377 1a8c 4445     		cmp	r4, r8
 3378 1a8e F5DB     		blt	.L472
 3379              	.L471:
 3380 1a90 3568     		ldr	r5, [r6]
 3381 1a92 274B     		ldr	r3, .L486+12
 3382 1a94 274C     		ldr	r4, .L486+16
 3383 1a96 B9F1000F 		cmp	r9, #0
 3384 1a9a 18BF     		it	ne
 3385 1a9c 1C46     		movne	r4, r3
 3386 1a9e 2846     		mov	r0, r5
 3387 1aa0 FFF7FEFF 		bl	strlen
 3388 1aa4 0646     		mov	r6, r0
 3389 1aa6 2A18     		adds	r2, r5, r0
 3390 1aa8 2346     		mov	r3, r4
 3391 1aaa 03CB     		ldmia	r3!, {r0, r1}
 3392 1aac A851     		str	r0, [r5, r6]	@ unaligned
 3393 1aae 5160     		str	r1, [r2, #4]	@ unaligned
 3394 1ab0 1988     		ldrh	r1, [r3]	@ unaligned
 3395 1ab2 9B78     		ldrb	r3, [r3, #2]	@ zero_extendqisi2
 3396 1ab4 1181     		strh	r1, [r2, #8]	@ unaligned
 3397 1ab6 9372     		strb	r3, [r2, #10]
 3398 1ab8 4FB3     		cbz	r7, .L485
 3399              	.L461:
 3400 1aba 0AB0     		add	sp, sp, #40
 3401              		@ sp needed
 3402 1abc BDE8F087 		pop	{r4, r5, r6, r7, r8, r9, r10, pc}
 3403              	.L484:
 3404 1ac0 184B     		ldr	r3, .L486
 3405 1ac2 DB7E     		ldrb	r3, [r3, #27]	@ zero_extendqisi2
 3406 1ac4 012B     		cmp	r3, #1
 3407 1ac6 0DD0     		beq	.L468
 3408 1ac8 23B1     		cbz	r3, .L469
 3409 1aca 022B     		cmp	r3, #2
 3410 1acc 12D0     		beq	.L470
 3411 1ace 4FF00009 		mov	r9, #0
 3412 1ad2 C1E7     		b	.L463
 3413              	.L469:
 3414 1ad4 134B     		ldr	r3, .L486
 3415 1ad6 1C7E     		ldrb	r4, [r3, #24]	@ zero_extendqisi2
 3416 1ad8 14F10009 		adds	r9, r4, #0
 3417 1adc 18BF     		it	ne
 3418 1ade 4FF00109 		movne	r9, #1
 3419 1ae2 B9E7     		b	.L463
 3420              	.L468:
 3421 1ae4 0F4B     		ldr	r3, .L486
 3422 1ae6 5C7E     		ldrb	r4, [r3, #25]	@ zero_extendqisi2
 3423 1ae8 14F10009 		adds	r9, r4, #0
 3424 1aec 18BF     		it	ne
 3425 1aee 4FF00109 		movne	r9, #1
 3426 1af2 B1E7     		b	.L463
 3427              	.L470:
 3428 1af4 0B4B     		ldr	r3, .L486
 3429 1af6 93F81890 		ldrb	r9, [r3, #24]	@ zero_extendqisi2
 3430 1afa B9F1000F 		cmp	r9, #0
 3431 1afe ABD0     		beq	.L463
 3432 1b00 5C7E     		ldrb	r4, [r3, #25]	@ zero_extendqisi2
 3433 1b02 14F10009 		adds	r9, r4, #0
 3434 1b06 18BF     		it	ne
 3435 1b08 4FF00109 		movne	r9, #1
 3436 1b0c A4E7     		b	.L463
 3437              	.L485:
 3438 1b0e 0020     		movs	r0, #0
 3439 1b10 FFF7FEFF 		bl	naveg_settings_refresh
 3440 1b14 034B     		ldr	r3, .L486
 3441 1b16 DA7E     		ldrb	r2, [r3, #27]	@ zero_extendqisi2
 3442 1b18 597E     		ldrb	r1, [r3, #25]	@ zero_extendqisi2
 3443 1b1a 187E     		ldrb	r0, [r3, #24]	@ zero_extendqisi2
 3444 1b1c FFF7FEFF 		bl	naveg_bypass_refresh
 3445 1b20 CBE7     		b	.L461
 3446              	.L487:
 3447 1b22 00BF     		.align	2
 3448              	.L486:
 3449 1b24 00000000 		.word	.LANCHOR1
 3450 1b28 D8030000 		.word	.LC68
 3451 1b2c 68010000 		.word	.LC21
 3452 1b30 08040000 		.word	.LC70
 3453 1b34 14040000 		.word	.LC71
 3455              		.align	1
 3456              		.global	system_load_pro_cb
 3457              		.syntax unified
 3458              		.thumb
 3459              		.thumb_func
 3460              		.fpu softvfp
 3462              	system_load_pro_cb:
 3463              		@ args = 0, pretend = 0, frame = 0
 3464              		@ frame_needed = 0, uses_anonymous_args = 0
 3465 1b38 2DE9F041 		push	{r4, r5, r6, r7, r8, lr}
 3466 1b3c 0446     		mov	r4, r0
 3467 1b3e A9B9     		cbnz	r1, .L489
 3468 1b40 837B     		ldrb	r3, [r0, #14]	@ zero_extendqisi2
 3469 1b42 23B1     		cbz	r3, .L496
 3470              	.L490:
 3471 1b44 0120     		movs	r0, #1
 3472 1b46 FFF7FEFF 		bl	naveg_settings_refresh
 3473 1b4a BDE8F081 		pop	{r4, r5, r6, r7, r8, pc}
 3474              	.L496:
 3475 1b4e 4268     		ldr	r2, [r0, #4]
 3476 1b50 9379     		ldrb	r3, [r2, #6]	@ zero_extendqisi2
 3477 1b52 127A     		ldrb	r2, [r2, #8]	@ zero_extendqisi2
 3478 1b54 9B1A     		subs	r3, r3, r2
 3479 1b56 DBB2     		uxtb	r3, r3
 3480 1b58 1E4A     		ldr	r2, .L498
 3481 1b5a 1370     		strb	r3, [r2]
 3482 1b5c 8383     		strh	r3, [r0, #28]	@ movhi
 3483 1b5e 0020     		movs	r0, #0
 3484 1b60 FFF7FEFF 		bl	naveg_menu_refresh
 3485 1b64 0120     		movs	r0, #1
 3486 1b66 FFF7FEFF 		bl	naveg_menu_refresh
 3487 1b6a EBE7     		b	.L490
 3488              	.L489:
 3489 1b6c 0329     		cmp	r1, #3
 3490 1b6e E9D1     		bne	.L490
 3491 1b70 184B     		ldr	r3, .L498
 3492 1b72 1978     		ldrb	r1, [r3]	@ zero_extendqisi2
 3493 1b74 4268     		ldr	r2, [r0, #4]
 3494 1b76 D388     		ldrh	r3, [r2, #6]
 3495 1b78 1089     		ldrh	r0, [r2, #8]
 3496 1b7a 1B1A     		subs	r3, r3, r0
 3497 1b7c 8B42     		cmp	r3, r1
 3498 1b7e 04D0     		beq	.L497
 3499 1b80 1168     		ldr	r1, [r2]
 3500 1b82 2068     		ldr	r0, [r4]
 3501 1b84 FFF7FEFF 		bl	strcpy
 3502 1b88 DCE7     		b	.L490
 3503              	.L497:
 3504 1b8a A183     		strh	r1, [r4, #28]	@ movhi
 3505 1b8c 1168     		ldr	r1, [r2]
 3506 1b8e 2068     		ldr	r0, [r4]
 3507 1b90 FFF7FEFF 		bl	strcpy
 3508 1b94 2068     		ldr	r0, [r4]
 3509 1b96 FFF7FEFF 		bl	strlen
 3510 1b9a C0B2     		uxtb	r0, r0
 3511 1b9c C0F11C07 		rsb	r7, r0, #28
 3512 1ba0 002F     		cmp	r7, #0
 3513 1ba2 0DDD     		ble	.L492
 3514 1ba4 0025     		movs	r5, #0
 3515 1ba6 0C4B     		ldr	r3, .L498+4
 3516 1ba8 B3F80080 		ldrh	r8, [r3]	@ unaligned
 3517              	.L493:
 3518 1bac 2668     		ldr	r6, [r4]
 3519 1bae 3046     		mov	r0, r6
 3520 1bb0 FFF7FEFF 		bl	strlen
 3521 1bb4 26F80080 		strh	r8, [r6, r0]	@ unaligned
 3522 1bb8 0135     		adds	r5, r5, #1
 3523 1bba EDB2     		uxtb	r5, r5
 3524 1bbc BD42     		cmp	r5, r7
 3525 1bbe F5DB     		blt	.L493
 3526              	.L492:
 3527 1bc0 2468     		ldr	r4, [r4]
 3528 1bc2 2046     		mov	r0, r4
 3529 1bc4 FFF7FEFF 		bl	strlen
 3530 1bc8 0346     		mov	r3, r0
 3531 1bca 044A     		ldr	r2, .L498+8
 3532 1bcc 1068     		ldr	r0, [r2]
 3533 1bce E050     		str	r0, [r4, r3]	@ unaligned
 3534 1bd0 B8E7     		b	.L490
 3535              	.L499:
 3536 1bd2 00BF     		.align	2
 3537              	.L498:
 3538 1bd4 00000000 		.word	.LANCHOR0
 3539 1bd8 68010000 		.word	.LC21
 3540 1bdc 04030000 		.word	.LC54
 3542              		.align	1
 3543              		.global	system_save_pro_cb
 3544              		.syntax unified
 3545              		.thumb
 3546              		.thumb_func
 3547              		.fpu softvfp
 3549              	system_save_pro_cb:
 3550              		@ args = 0, pretend = 0, frame = 0
 3551              		@ frame_needed = 0, uses_anonymous_args = 0
 3552 1be0 2DE9F041 		push	{r4, r5, r6, r7, r8, lr}
 3553 1be4 0546     		mov	r5, r0
 3554 1be6 49B9     		cbnz	r1, .L501
 3555 1be8 837B     		ldrb	r3, [r0, #14]	@ zero_extendqisi2
 3556 1bea 0BB1     		cbz	r3, .L512
 3557              	.L500:
 3558 1bec BDE8F081 		pop	{r4, r5, r6, r7, r8, pc}
 3559              	.L512:
 3560 1bf0 274B     		ldr	r3, .L513
 3561 1bf2 1978     		ldrb	r1, [r3]	@ zero_extendqisi2
 3562 1bf4 2748     		ldr	r0, .L513+4
 3563 1bf6 FFF7FEFF 		bl	set_item_value
 3564 1bfa F7E7     		b	.L500
 3565              	.L501:
 3566 1bfc 0329     		cmp	r1, #3
 3567 1bfe F5D1     		bne	.L500
 3568 1c00 4368     		ldr	r3, [r0, #4]
 3569 1c02 1968     		ldr	r1, [r3]
 3570 1c04 0068     		ldr	r0, [r0]
 3571 1c06 FFF7FEFF 		bl	strcpy
 3572 1c0a 2868     		ldr	r0, [r5]
 3573 1c0c FFF7FEFF 		bl	strlen
 3574 1c10 C0B2     		uxtb	r0, r0
 3575 1c12 C0F11C07 		rsb	r7, r0, #28
 3576 1c16 002F     		cmp	r7, #0
 3577 1c18 0DDD     		ble	.L503
 3578 1c1a 0024     		movs	r4, #0
 3579 1c1c 1E4B     		ldr	r3, .L513+8
 3580 1c1e B3F80080 		ldrh	r8, [r3]	@ unaligned
 3581              	.L504:
 3582 1c22 2E68     		ldr	r6, [r5]
 3583 1c24 3046     		mov	r0, r6
 3584 1c26 FFF7FEFF 		bl	strlen
 3585 1c2a 26F80080 		strh	r8, [r6, r0]	@ unaligned
 3586 1c2e 0134     		adds	r4, r4, #1
 3587 1c30 E4B2     		uxtb	r4, r4
 3588 1c32 BC42     		cmp	r4, r7
 3589 1c34 F5DB     		blt	.L504
 3590              	.L503:
 3591 1c36 164B     		ldr	r3, .L513
 3592 1c38 1B78     		ldrb	r3, [r3]	@ zero_extendqisi2
 3593 1c3a 013B     		subs	r3, r3, #1
 3594 1c3c 032B     		cmp	r3, #3
 3595 1c3e D5D8     		bhi	.L500
 3596 1c40 DFE803F0 		tbb	[pc, r3]
 3597              	.L506:
 3598 1c44 02       		.byte	(.L505-.L506)/2
 3599 1c45 0B       		.byte	(.L507-.L506)/2
 3600 1c46 14       		.byte	(.L508-.L506)/2
 3601 1c47 1D       		.byte	(.L509-.L506)/2
 3602              		.p2align 1
 3603              	.L505:
 3604 1c48 2C68     		ldr	r4, [r5]
 3605 1c4a 2046     		mov	r0, r4
 3606 1c4c FFF7FEFF 		bl	strlen
 3607 1c50 0346     		mov	r3, r0
 3608 1c52 124A     		ldr	r2, .L513+12
 3609 1c54 1068     		ldr	r0, [r2]
 3610 1c56 E050     		str	r0, [r4, r3]	@ unaligned
 3611 1c58 C8E7     		b	.L500
 3612              	.L507:
 3613 1c5a 2C68     		ldr	r4, [r5]
 3614 1c5c 2046     		mov	r0, r4
 3615 1c5e FFF7FEFF 		bl	strlen
 3616 1c62 0346     		mov	r3, r0
 3617 1c64 0E4A     		ldr	r2, .L513+16
 3618 1c66 1068     		ldr	r0, [r2]
 3619 1c68 E050     		str	r0, [r4, r3]	@ unaligned
 3620 1c6a BFE7     		b	.L500
 3621              	.L508:
 3622 1c6c 2C68     		ldr	r4, [r5]
 3623 1c6e 2046     		mov	r0, r4
 3624 1c70 FFF7FEFF 		bl	strlen
 3625 1c74 0346     		mov	r3, r0
 3626 1c76 0B4A     		ldr	r2, .L513+20
 3627 1c78 1068     		ldr	r0, [r2]
 3628 1c7a E050     		str	r0, [r4, r3]	@ unaligned
 3629 1c7c B6E7     		b	.L500
 3630              	.L509:
 3631 1c7e 2C68     		ldr	r4, [r5]
 3632 1c80 2046     		mov	r0, r4
 3633 1c82 FFF7FEFF 		bl	strlen
 3634 1c86 0346     		mov	r3, r0
 3635 1c88 074A     		ldr	r2, .L513+24
 3636 1c8a 1068     		ldr	r0, [r2]
 3637 1c8c E050     		str	r0, [r4, r3]	@ unaligned
 3638 1c8e ADE7     		b	.L500
 3639              	.L514:
 3640              		.align	2
 3641              	.L513:
 3642 1c90 00000000 		.word	.LANCHOR0
 3643 1c94 20040000 		.word	.LC72
 3644 1c98 68010000 		.word	.LC21
 3645 1c9c 34040000 		.word	.LC73
 3646 1ca0 38040000 		.word	.LC74
 3647 1ca4 3C040000 		.word	.LC75
 3648 1ca8 40040000 		.word	.LC76
 3650              		.comm	sl_in,1,1
 3651              		.comm	sl_out,1,1
 3652              		.global	current_profile
 3653              		.global	bypass
 3654              		.global	q_bypass
 3655              		.global	master_vol_port
 3656              		.global	gains_volumes
 3657              		.global	versions_names
 3658              		.global	systemctl_services
 3659              		.section	.rodata
 3660              		.align	2
 3661              		.set	.LANCHOR2,. + 0
 3662              	.LC0:
 3663 0000 31       		.byte	49
 3664 0001 20       		.byte	32
 3665 0002 00       		.byte	0
 3666              		.data
 3667              		.align	2
 3668              		.set	.LANCHOR0,. + 0
 3671              	current_profile:
 3672 0000 05       		.byte	5
 3673 0001 000000   		.space	3
 3676              	systemctl_services:
 3677 0004 68040000 		.word	.LC81
 3678 0008 70040000 		.word	.LC82
 3679 000c 78040000 		.word	.LC83
 3680 0010 80040000 		.word	.LC84
 3681 0014 00000000 		.word	0
 3684              	versions_names:
 3685 0018 44040000 		.word	.LC77
 3686 001c 4C040000 		.word	.LC78
 3687 0020 54040000 		.word	.LC79
 3688 0024 5C040000 		.word	.LC80
 3689 0028 00000000 		.word	0
 3692              	level.8792:
 3693 002c 02000000 		.word	2
 3694              		.bss
 3695              		.align	2
 3696              		.set	.LANCHOR1,. + 0
 3699              	gains_volumes:
 3700 0000 00000000 		.space	20
 3700      00000000 
 3700      00000000 
 3700      00000000 
 3700      00000000 
 3703              	q_bypass:
 3704 0014 00       		.space	1
 3705 0015 000000   		.space	3
 3708              	bypass:
 3709 0018 00000000 		.space	4
 3712              	master_vol_port:
 3713 001c 00       		.space	1
 3714              		.section	.rodata.str1.4,"aMS",%progbits,1
 3715              		.align	2
 3716              	.LC1:
 3717 0000 70656461 		.ascii	"pedalboard_save\000"
 3717      6C626F61 
 3717      72645F73 
 3717      61766500 
 3718              	.LC2:
 3719 0010 70656461 		.ascii	"pedalboard_reset\000"
 3719      6C626F61 
 3719      72645F72 
 3719      65736574 
 3719      00
 3720 0021 000000   		.space	3
 3721              	.LC3:
 3722 0024 6D6F642D 		.ascii	"mod-bluetooth status\000"
 3722      626C7565 
 3722      746F6F74 
 3722      68207374 
 3722      61747573 
 3723 0039 000000   		.space	3
 3724              	.LC4:
 3725 003c 6D6F642D 		.ascii	"mod-bluetooth name\000"
 3725      626C7565 
 3725      746F6F74 
 3725      68206E61 
 3725      6D6500
 3726 004f 00       		.space	1
 3727              	.LC5:
 3728 0050 6D6F642D 		.ascii	"mod-bluetooth address\000"
 3728      626C7565 
 3728      746F6F74 
 3728      68206164 
 3728      64726573 
 3729 0066 0000     		.space	2
 3730              	.LC6:
 3731 0068 6D6F642D 		.ascii	"mod-bluetooth discovery\000"
 3731      626C7565 
 3731      746F6F74 
 3731      68206469 
 3731      73636F76 
 3732              	.LC7:
 3733 0080 69732D61 		.ascii	"is-active \000"
 3733      63746976 
 3733      652000
 3734 008b 00       		.space	1
 3735              	.LC8:
 3736 008c 6D6F642D 		.ascii	"mod-version \000"
 3736      76657273 
 3736      696F6E20 
 3736      00
 3737 0099 000000   		.space	3
 3738              	.LC9:
 3739 009c 6D6F642D 		.ascii	"mod-version release\000"
 3739      76657273 
 3739      696F6E20 
 3739      72656C65 
 3739      61736500 
 3740              	.LC10:
 3741 00b0 63617420 		.ascii	"cat /var/cache/mod/tag\000"
 3741      2F766172 
 3741      2F636163 
 3741      68652F6D 
 3741      6F642F74 
 3742 00c7 00       		.space	1
 3743              	.LC11:
 3744 00c8 54686520 		.ascii	"The serial number of your     device is:           "
 3744      73657269 
 3744      616C206E 
 3744      756D6265 
 3744      72206F66 
 3745 00fb 20202020 		.ascii	"         \000"
 3745      20202020 
 3745      2000
 3746 0105 000000   		.space	3
 3747              	.LC12:
 3748 0108 696E2031 		.ascii	"in 1\000"
 3748      00
 3749 010d 000000   		.space	3
 3750              	.LC13:
 3751 0110 696E2032 		.ascii	"in 2\000"
 3751      00
 3752 0115 000000   		.space	3
 3753              	.LC14:
 3754 0118 687000   		.ascii	"hp\000"
 3755 011b 00       		.space	1
 3756              	.LC15:
 3757 011c 6F757420 		.ascii	"out 2\000"
 3757      3200
 3758 0122 0000     		.space	2
 3759              	.LC16:
 3760 0124 6F757420 		.ascii	"out 1\000"
 3760      3100
 3761 012a 0000     		.space	2
 3762              	.LC17:
 3763 012c 616D6978 		.ascii	"amixer set 'PGA Gain' \000"
 3763      65722073 
 3763      65742027 
 3763      50474120 
 3763      4761696E 
 3764 0143 00       		.space	1
 3765              	.LC18:
 3766 0144 616D6978 		.ascii	"amixer set DAC \000"
 3766      65722073 
 3766      65742044 
 3766      41432000 
 3767              	.LC19:
 3768 0154 6D6F642D 		.ascii	"mod-amixer \000"
 3768      616D6978 
 3768      65722000 
 3769              	.LC20:
 3770 0160 20766F6C 		.ascii	" vol \000"
 3770      2000
 3771 0166 0000     		.space	2
 3772              	.LC21:
 3773 0168 2000     		.ascii	" \000"
 3774 016a 0000     		.space	2
 3775              	.LC22:
 3776 016c 444200   		.ascii	"DB\000"
 3777 016f 00       		.space	1
 3778              	.LC23:
 3779 0170 6D6F642D 		.ascii	"mod-amixer in \000"
 3779      616D6978 
 3779      65722069 
 3779      6E2000
 3780 017f 00       		.space	1
 3781              	.LC24:
 3782 0180 73746720 		.ascii	"stg \000"
 3782      00
 3783 0185 000000   		.space	3
 3784              	.LC25:
 3785 0188 6D6F642D 		.ascii	"mod-amixer out 1 vol \000"
 3785      616D6978 
 3785      6572206F 
 3785      75742031 
 3785      20766F6C 
 3786 019e 0000     		.space	2
 3787              	.LC26:
 3788 01a0 6D6F642D 		.ascii	"mod-amixer out 2 vol \000"
 3788      616D6978 
 3788      6572206F 
 3788      75742032 
 3788      20766F6C 
 3789 01b6 0000     		.space	2
 3790              	.LC27:
 3791 01b8 6D6F642D 		.ascii	"mod-amixer save\000"
 3791      616D6978 
 3791      65722073 
 3791      61766500 
 3792              	.LC28:
 3793 01c8 2500     		.ascii	"%\000"
 3794 01ca 0000     		.space	2
 3795              	.LC29:
 3796 01cc 204F4E00 		.ascii	" ON\000"
 3797              	.LC30:
 3798 01d0 4F464600 		.ascii	"OFF\000"
 3799              	.LC31:
 3800 01d4 7365745F 		.ascii	"set_in_chan_link 0 %i\000"
 3800      696E5F63 
 3800      68616E5F 
 3800      6C696E6B 
 3800      20302025 
 3801 01ea 0000     		.space	2
 3802              	.LC32:
 3803 01ec 7365745F 		.ascii	"set_out_chan_link 0 %i\000"
 3803      6F75745F 
 3803      6368616E 
 3803      5F6C696E 
 3803      6B203020 
 3804 0203 00       		.space	1
 3805              	.LC33:
 3806 0204 4D555445 		.ascii	"MUTE [X]\000"
 3806      205B585D 
 3806      00
 3807 020d 000000   		.space	3
 3808              	.LC34:
 3809 0210 4D555445 		.ascii	"MUTE [ ]\000"
 3809      205B205D 
 3809      00
 3810 0219 000000   		.space	3
 3811              	.LC35:
 3812 021c 7365745F 		.ascii	"set_tuner_mute %i\000"
 3812      74756E65 
 3812      725F6D75 
 3812      74652025 
 3812      6900
 3813 022e 0000     		.space	2
 3814              	.LC36:
 3815 0230 6765745F 		.ascii	"get_tuner_mute\000"
 3815      74756E65 
 3815      725F6D75 
 3815      746500
 3816 023f 00       		.space	1
 3817              	.LC37:
 3818 0240 45585000 		.ascii	"EXP\000"
 3819              	.LC38:
 3820 0244 20435600 		.ascii	" CV\000"
 3821              	.LC39:
 3822 0248 7365745F 		.ascii	"set_exp_cv %i\000"
 3822      6578705F 
 3822      63762025 
 3822      6900
 3823 0256 0000     		.space	2
 3824              	.LC40:
 3825 0258 6765745F 		.ascii	"get_exp_cv\000"
 3825      6578705F 
 3825      637600
 3826 0263 00       		.space	1
 3827              	.LC41:
 3828 0264 485000   		.ascii	"HP\000"
 3829 0267 00       		.space	1
 3830              	.LC42:
 3831 0268 435600   		.ascii	"CV\000"
 3832 026b 00       		.space	1
 3833              	.LC43:
 3834 026c 7365745F 		.ascii	"set_hp_cv %i\000"
 3834      68705F63 
 3834      76202569 
 3834      00
 3835 0279 000000   		.space	3
 3836              	.LC44:
 3837 027c 6765745F 		.ascii	"get_hp_cv\000"
 3837      68705F63 
 3837      7600
 3838 0286 0000     		.space	2
 3839              	.LC45:
 3840 0288 504C4159 		.ascii	"PLAY [X]\000"
 3840      205B585D 
 3840      00
 3841 0291 000000   		.space	3
 3842              	.LC46:
 3843 0294 504C4159 		.ascii	"PLAY [ ]\000"
 3843      205B205D 
 3843      00
 3844 029d 000000   		.space	3
 3845              	.LC47:
 3846 02a0 7365745F 		.ascii	"set_play_status %i\000"
 3846      706C6179 
 3846      5F737461 
 3846      74757320 
 3846      256900
 3847 02b3 00       		.space	1
 3848              	.LC48:
 3849 02b4 6765745F 		.ascii	"get_play_status\000"
 3849      706C6179 
 3849      5F737461 
 3849      74757300 
 3850              	.LC49:
 3851 02c4 7365745F 		.ascii	"set_clk_src %i\000"
 3851      636C6B5F 
 3851      73726320 
 3851      256900
 3852 02d3 00       		.space	1
 3853              	.LC50:
 3854 02d4 6765745F 		.ascii	"get_clk_src\000"
 3854      636C6B5F 
 3854      73726300 
 3855              	.LC51:
 3856 02e0 494E5445 		.ascii	"INTERNAL\000"
 3856      524E414C 
 3856      00
 3857 02e9 000000   		.space	3
 3858              	.LC52:
 3859 02ec 4D494449 		.ascii	"MIDI\000"
 3859      00
 3860 02f1 000000   		.space	3
 3861              	.LC53:
 3862 02f4 41424C45 		.ascii	"ABLETON LINK\000"
 3862      544F4E20 
 3862      4C494E4B 
 3862      00
 3863 0301 000000   		.space	3
 3864              	.LC54:
 3865 0304 5B585D00 		.ascii	"[X]\000"
 3866              	.LC55:
 3867 0308 5B205D00 		.ascii	"[ ]\000"
 3868              	.LC56:
 3869 030c 73656E64 		.ascii	"send_midi_clk %i\000"
 3869      5F6D6964 
 3869      695F636C 
 3869      6B202569 
 3869      00
 3870 031d 000000   		.space	3
 3871              	.LC57:
 3872 0320 6765745F 		.ascii	"get_send_midi_clk\000"
 3872      73656E64 
 3872      5F6D6964 
 3872      695F636C 
 3872      6B00
 3873 0332 0000     		.space	2
 3874              	.LC58:
 3875 0334 7365745F 		.ascii	"set_snapshot_prgch %i\000"
 3875      736E6170 
 3875      73686F74 
 3875      5F707267 
 3875      63682025 
 3876 034a 0000     		.space	2
 3877              	.LC59:
 3878 034c 6765745F 		.ascii	"get_snapshot_prgch\000"
 3878      736E6170 
 3878      73686F74 
 3878      5F707267 
 3878      636800
 3879 035f 00       		.space	1
 3880              	.LC60:
 3881 0360 7365745F 		.ascii	"set_bank_prgch %i\000"
 3881      62616E6B 
 3881      5F707267 
 3881      63682025 
 3881      6900
 3882 0372 0000     		.space	2
 3883              	.LC61:
 3884 0374 6765745F 		.ascii	"get_bank_prgch\000"
 3884      62616E6B 
 3884      5F707267 
 3884      636800
 3885 0383 00       		.space	1
 3886              	.LC62:
 3887 0384 7365745F 		.ascii	"set_tempo_bpm %i\000"
 3887      74656D70 
 3887      6F5F6270 
 3887      6D202569 
 3887      00
 3888 0395 000000   		.space	3
 3889              	.LC63:
 3890 0398 6765745F 		.ascii	"get_tempo_bpm\000"
 3890      74656D70 
 3890      6F5F6270 
 3890      6D00
 3891 03a6 0000     		.space	2
 3892              	.LC64:
 3893 03a8 2042504D 		.ascii	" BPM\000"
 3893      00
 3894 03ad 000000   		.space	3
 3895              	.LC65:
 3896 03b0 7365745F 		.ascii	"set_tempo_bpb %i\000"
 3896      74656D70 
 3896      6F5F6270 
 3896      62202569 
 3896      00
 3897 03c1 000000   		.space	3
 3898              	.LC66:
 3899 03c4 6765745F 		.ascii	"get_tempo_bpb\000"
 3899      74656D70 
 3899      6F5F6270 
 3899      6200
 3900 03d2 0000     		.space	2
 3901              	.LC67:
 3902 03d4 2F3400   		.ascii	"/4\000"
 3903 03d7 00       		.space	1
 3904              	.LC68:
 3905 03d8 7365745F 		.ascii	"set_truebypass_value \000"
 3905      74727565 
 3905      62797061 
 3905      73735F76 
 3905      616C7565 
 3906 03ee 0000     		.space	2
 3907              	.LC69:
 3908 03f0 6765745F 		.ascii	"get_truebypass_value \000"
 3908      74727565 
 3908      62797061 
 3908      73735F76 
 3908      616C7565 
 3909 0406 0000     		.space	2
 3910              	.LC70:
 3911 0408 42595041 		.ascii	"BYPASS [X]\000"
 3911      5353205B 
 3911      585D00
 3912 0413 00       		.space	1
 3913              	.LC71:
 3914 0414 42595041 		.ascii	"BYPASS [ ]\000"
 3914      5353205B 
 3914      205D00
 3915 041f 00       		.space	1
 3916              	.LC72:
 3917 0420 73746F72 		.ascii	"store_profile %i\000"
 3917      655F7072 
 3917      6F66696C 
 3917      65202569 
 3917      00
 3918 0431 000000   		.space	3
 3919              	.LC73:
 3920 0434 5B415D00 		.ascii	"[A]\000"
 3921              	.LC74:
 3922 0438 5B425D00 		.ascii	"[B]\000"
 3923              	.LC75:
 3924 043c 5B435D00 		.ascii	"[C]\000"
 3925              	.LC76:
 3926 0440 5B445D00 		.ascii	"[D]\000"
 3927              	.LC77:
 3928 0444 76657273 		.ascii	"version\000"
 3928      696F6E00 
 3929              	.LC78:
 3930 044c 72657374 		.ascii	"restore\000"
 3930      6F726500 
 3931              	.LC79:
 3932 0454 73797374 		.ascii	"system\000"
 3932      656D00
 3933 045b 00       		.space	1
 3934              	.LC80:
 3935 045c 636F6E74 		.ascii	"controller\000"
 3935      726F6C6C 
 3935      657200
 3936 0467 00       		.space	1
 3937              	.LC81:
 3938 0468 6A61636B 		.ascii	"jack2\000"
 3938      3200
 3939 046e 0000     		.space	2
 3940              	.LC82:
 3941 0470 73736864 		.ascii	"sshd\000"
 3941      00
 3942 0475 000000   		.space	3
 3943              	.LC83:
 3944 0478 6D6F642D 		.ascii	"mod-ui\000"
 3944      756900
 3945 047f 00       		.space	1
 3946              	.LC84:
 3947 0480 646E736D 		.ascii	"dnsmasq\000"
 3947      61737100 
 3948              		.ident	"GCC: (GNU Tools for Arm Embedded Processors 7-2018-q3-update) 7.3.1 20180622 (release) [AR
DEFINED SYMBOLS
                            *ABS*:0000000000000000 system.c
     /tmp/cc6A7fSo.s:13     .text:0000000000000000 $t
     /tmp/cc6A7fSo.s:19     .text:0000000000000000 update_status
     /tmp/cc6A7fSo.s:46     .text:0000000000000020 request_item_value
     /tmp/cc6A7fSo.s:63     .text:0000000000000040 $d
     /tmp/cc6A7fSo.s:852    .text:0000000000000648 get_item_value
     /tmp/cc6A7fSo.s:65     .text:0000000000000044 $t
     /tmp/cc6A7fSo.s:72     .text:0000000000000044 set_item_value
     /tmp/cc6A7fSo.s:124    .text:000000000000009e system_get_current_profile
     /tmp/cc6A7fSo.s:134    .text:00000000000000a4 $d
     /tmp/cc6A7fSo.s:136    .text:00000000000000a8 $t
     /tmp/cc6A7fSo.s:143    .text:00000000000000a8 system_pedalboard_cb
     /tmp/cc6A7fSo.s:173    .text:00000000000000d4 $d
     /tmp/cc6A7fSo.s:176    .text:00000000000000dc $t
     /tmp/cc6A7fSo.s:183    .text:00000000000000dc system_bluetooth_cb
     /tmp/cc6A7fSo.s:230    .text:0000000000000134 $d
     /tmp/cc6A7fSo.s:235    .text:0000000000000144 $t
     /tmp/cc6A7fSo.s:242    .text:0000000000000144 system_services_cb
     /tmp/cc6A7fSo.s:274    .text:000000000000017c $d
     /tmp/cc6A7fSo.s:277    .text:0000000000000184 $t
     /tmp/cc6A7fSo.s:284    .text:0000000000000184 system_versions_cb
     /tmp/cc6A7fSo.s:335    .text:00000000000001f0 $d
     /tmp/cc6A7fSo.s:338    .text:00000000000001f8 $t
     /tmp/cc6A7fSo.s:345    .text:00000000000001f8 system_release_cb
     /tmp/cc6A7fSo.s:361    .text:000000000000020c $d
     /tmp/cc6A7fSo.s:363    .text:0000000000000210 $t
     /tmp/cc6A7fSo.s:370    .text:0000000000000210 system_device_cb
     /tmp/cc6A7fSo.s:389    .text:000000000000022c $d
     /tmp/cc6A7fSo.s:391    .text:0000000000000230 $t
     /tmp/cc6A7fSo.s:398    .text:0000000000000230 system_tag_cb
     /tmp/cc6A7fSo.s:442    .text:0000000000000288 $d
     /tmp/cc6A7fSo.s:445    .text:0000000000000290 $t
     /tmp/cc6A7fSo.s:452    .text:0000000000000290 system_upgrade_cb
     /tmp/cc6A7fSo.s:483    .text:00000000000002b6 system_volume_cb
     /tmp/cc6A7fSo.s:497    .text:00000000000002d0 $d
     /tmp/cc6A7fSo.s:502    .text:00000000000002da $t
     /tmp/cc6A7fSo.s:823    .text:00000000000005f4 $d
                            *COM*:0000000000000001 sl_out
                            *COM*:0000000000000001 sl_in
     /tmp/cc6A7fSo.s:846    .text:0000000000000648 $t
     /tmp/cc6A7fSo.s:864    .text:000000000000065c $d
     /tmp/cc6A7fSo.s:1059   .text:00000000000007e2 $t
     /tmp/cc6A7fSo.s:1224   .text:0000000000000934 $d
     /tmp/cc6A7fSo.s:1230   .text:0000000000000948 $t
     /tmp/cc6A7fSo.s:1237   .text:0000000000000948 system_stage_cb
     /tmp/cc6A7fSo.s:1319   .text:00000000000009e8 $d
     /tmp/cc6A7fSo.s:1327   .text:00000000000009f4 $t
     /tmp/cc6A7fSo.s:1334   .text:00000000000009f4 system_master_volume_cb
     /tmp/cc6A7fSo.s:1440   .text:0000000000000ad8 $d
     /tmp/cc6A7fSo.s:1453   .text:0000000000000b08 $t
     /tmp/cc6A7fSo.s:1460   .text:0000000000000b08 system_master_vol_link_cb
     /tmp/cc6A7fSo.s:1523   .text:0000000000000b84 $d
     /tmp/cc6A7fSo.s:1527   .text:0000000000000b90 $t
     /tmp/cc6A7fSo.s:1534   .text:0000000000000b90 system_save_gains_cb
     /tmp/cc6A7fSo.s:1547   .text:0000000000000ba0 $d
     /tmp/cc6A7fSo.s:1549   .text:0000000000000ba4 $t
     /tmp/cc6A7fSo.s:1556   .text:0000000000000ba4 system_banks_cb
     /tmp/cc6A7fSo.s:1575   .text:0000000000000bb4 system_display_cb
     /tmp/cc6A7fSo.s:1659   .text:0000000000000c64 $d
     /tmp/cc6A7fSo.s:1663   .text:0000000000000c70 $t
     /tmp/cc6A7fSo.s:1670   .text:0000000000000c70 system_sl_in_cb
     /tmp/cc6A7fSo.s:1784   .text:0000000000000d70 $d
     /tmp/cc6A7fSo.s:1796   .text:0000000000000d9c $t
     /tmp/cc6A7fSo.s:1803   .text:0000000000000d9c system_sl_out_cb
     /tmp/cc6A7fSo.s:1912   .text:0000000000000e8c $d
     /tmp/cc6A7fSo.s:1924   .text:0000000000000eb8 $t
     /tmp/cc6A7fSo.s:1931   .text:0000000000000eb8 system_tuner_cb
     /tmp/cc6A7fSo.s:2010   .text:0000000000000f58 $d
     /tmp/cc6A7fSo.s:2016   .text:0000000000000f6c $t
     /tmp/cc6A7fSo.s:2023   .text:0000000000000f6c system_cv_exp_cb
     /tmp/cc6A7fSo.s:2098   .text:0000000000001004 $d
     /tmp/cc6A7fSo.s:2104   .text:0000000000001018 $t
     /tmp/cc6A7fSo.s:2111   .text:0000000000001018 system_cv_hp_cb
     /tmp/cc6A7fSo.s:2189   .text:00000000000010b8 $d
     /tmp/cc6A7fSo.s:2195   .text:00000000000010cc $t
     /tmp/cc6A7fSo.s:2202   .text:00000000000010cc system_play_cb
     /tmp/cc6A7fSo.s:2281   .text:000000000000116c $d
     /tmp/cc6A7fSo.s:2287   .text:0000000000001180 $t
     /tmp/cc6A7fSo.s:2294   .text:0000000000001180 system_midi_src_cb
     /tmp/cc6A7fSo.s:2392   .text:0000000000001248 $d
     /tmp/cc6A7fSo.s:2399   .text:0000000000001260 $t
     /tmp/cc6A7fSo.s:2406   .text:0000000000001260 system_midi_send_cb
     /tmp/cc6A7fSo.s:2480   .text:00000000000012f8 $d
     /tmp/cc6A7fSo.s:2486   .text:000000000000130c $t
     /tmp/cc6A7fSo.s:2493   .text:000000000000130c system_ss_prog_change_cb
     /tmp/cc6A7fSo.s:2578   .text:00000000000013b8 $d
     /tmp/cc6A7fSo.s:2583   .text:00000000000013c8 $t
     /tmp/cc6A7fSo.s:2590   .text:00000000000013c8 system_pb_prog_change_cb
     /tmp/cc6A7fSo.s:2675   .text:0000000000001474 $d
     /tmp/cc6A7fSo.s:2680   .text:0000000000001484 $t
     /tmp/cc6A7fSo.s:2687   .text:0000000000001484 system_tempo_cb
     /tmp/cc6A7fSo.s:2774   .text:0000000000001538 $d
     /tmp/cc6A7fSo.s:2779   .text:0000000000001548 $t
     /tmp/cc6A7fSo.s:2786   .text:0000000000001548 system_bpb_cb
     /tmp/cc6A7fSo.s:2871   .text:00000000000015f8 $d
     /tmp/cc6A7fSo.s:2876   .text:0000000000001608 $t
     /tmp/cc6A7fSo.s:2883   .text:0000000000001608 system_bypass_cb
     /tmp/cc6A7fSo.s:3192   .text:00000000000018b8 $d
     /tmp/cc6A7fSo.s:3202   .text:00000000000018dc $t
     /tmp/cc6A7fSo.s:3209   .text:00000000000018dc system_quick_bypass_cb
     /tmp/cc6A7fSo.s:3449   .text:0000000000001b24 $d
     /tmp/cc6A7fSo.s:3455   .text:0000000000001b38 $t
     /tmp/cc6A7fSo.s:3462   .text:0000000000001b38 system_load_pro_cb
     /tmp/cc6A7fSo.s:3538   .text:0000000000001bd4 $d
     /tmp/cc6A7fSo.s:3542   .text:0000000000001be0 $t
     /tmp/cc6A7fSo.s:3549   .text:0000000000001be0 system_save_pro_cb
     /tmp/cc6A7fSo.s:3598   .text:0000000000001c44 $d
     /tmp/cc6A7fSo.s:3602   .text:0000000000001c48 $t
     /tmp/cc6A7fSo.s:3642   .text:0000000000001c90 $d
     /tmp/cc6A7fSo.s:3671   .data:0000000000000000 current_profile
     /tmp/cc6A7fSo.s:3708   .bss:0000000000000018 bypass
     /tmp/cc6A7fSo.s:3703   .bss:0000000000000014 q_bypass
     /tmp/cc6A7fSo.s:3712   .bss:000000000000001c master_vol_port
     /tmp/cc6A7fSo.s:3699   .bss:0000000000000000 gains_volumes
     /tmp/cc6A7fSo.s:3684   .data:0000000000000018 versions_names
     /tmp/cc6A7fSo.s:3676   .data:0000000000000004 systemctl_services
     /tmp/cc6A7fSo.s:3660   .rodata:0000000000000000 $d
     /tmp/cc6A7fSo.s:3667   .data:0000000000000000 $d
     /tmp/cc6A7fSo.s:3692   .data:000000000000002c level.8792
     /tmp/cc6A7fSo.s:3695   .bss:0000000000000000 $d
     /tmp/cc6A7fSo.s:3715   .rodata.str1.4:0000000000000000 $d

UNDEFINED SYMBOLS
strchr
strcpy
comm_webgui_set_response_cb
strlen
comm_webgui_send
comm_webgui_wait_response
copy_command
int_to_str
cli_command
cli_systemctl
strncpy
screen_system_menu
pvPortMalloc
strcat
hardware_actuators
actuator_get_status
cli_restore
__aeabi_f2iz
__aeabi_i2f
float_to_str
naveg_settings_refresh
naveg_update_gain
__aeabi_d2iz
atoi
atof
deselect_item
strcmp
select_item
__aeabi_d2f
__aeabi_fadd
__aeabi_fmul
__aeabi_fdiv
naveg_toggle_tool
hardware_glcd_brightness
naveg_bypass_refresh
naveg_menu_refresh
