   1              		.cpu cortex-m3
   2              		.eabi_attribute 20, 1
   3              		.eabi_attribute 21, 1
   4              		.eabi_attribute 23, 3
   5              		.eabi_attribute 24, 1
   6              		.eabi_attribute 25, 1
   7              		.eabi_attribute 26, 1
   8              		.eabi_attribute 30, 1
   9              		.eabi_attribute 34, 1
  10              		.eabi_attribute 18, 4
  11              		.file	"system.c"
  12              		.text
  13              		.align	1
  14              		.syntax unified
  15              		.thumb
  16              		.thumb_func
  17              		.fpu softvfp
  19              	update_status:
  20              		@ args = 0, pretend = 0, frame = 0
  21              		@ frame_needed = 0, uses_anonymous_args = 0
  22 0000 68B1     		cbz	r0, .L4
  23 0002 10B5     		push	{r4, lr}
  24 0004 0C46     		mov	r4, r1
  25 0006 3A21     		movs	r1, #58
  26 0008 FFF7FEFF 		bl	strchr
  27 000c 30B1     		cbz	r0, .L1
  28 000e 2CB1     		cbz	r4, .L1
  29 0010 2022     		movs	r2, #32
  30 0012 4270     		strb	r2, [r0, #1]
  31 0014 2146     		mov	r1, r4
  32 0016 0230     		adds	r0, r0, #2
  33 0018 FFF7FEFF 		bl	strcpy
  34              	.L1:
  35 001c 10BD     		pop	{r4, pc}
  36              	.L4:
  37 001e 7047     		bx	lr
  39              		.align	1
  40              		.global	request_item_value
  41              		.syntax unified
  42              		.thumb
  43              		.thumb_func
  44              		.fpu softvfp
  46              	request_item_value:
  47              		@ args = 0, pretend = 0, frame = 0
  48              		@ frame_needed = 0, uses_anonymous_args = 0
  49 0020 10B5     		push	{r4, lr}
  50 0022 0446     		mov	r4, r0
  51 0024 0648     		ldr	r0, .L9
  52 0026 FFF7FEFF 		bl	comm_webgui_set_response_cb
  53 002a 2046     		mov	r0, r4
  54 002c FFF7FEFF 		bl	strlen
  55 0030 0146     		mov	r1, r0
  56 0032 2046     		mov	r0, r4
  57 0034 FFF7FEFF 		bl	comm_webgui_send
  58 0038 FFF7FEFF 		bl	comm_webgui_wait_response
  59 003c 10BD     		pop	{r4, pc}
  60              	.L10:
  61 003e 00BF     		.align	2
  62              	.L9:
  63 0040 00000000 		.word	get_item_value
  65              		.align	1
  66              		.global	set_item_value
  67              		.syntax unified
  68              		.thumb
  69              		.thumb_func
  70              		.fpu softvfp
  72              	set_item_value:
  73              		@ args = 0, pretend = 0, frame = 64
  74              		@ frame_needed = 0, uses_anonymous_args = 0
  75 0044 30B5     		push	{r4, r5, lr}
  76 0046 91B0     		sub	sp, sp, #68
  77 0048 0D46     		mov	r5, r1
  78 004a 0146     		mov	r1, r0
  79 004c 03A8     		add	r0, sp, #12
  80 004e FFF7FEFF 		bl	copy_command
  81 0052 0446     		mov	r4, r0
  82 0054 0023     		movs	r3, #0
  83 0056 0822     		movs	r2, #8
  84 0058 01A9     		add	r1, sp, #4
  85 005a 2846     		mov	r0, r5
  86 005c FFF7FEFF 		bl	int_to_str
  87 0060 9DF80430 		ldrb	r3, [sp, #4]	@ zero_extendqisi2
  88 0064 CBB1     		cbz	r3, .L14
  89 0066 01AA     		add	r2, sp, #4
  90              	.L13:
  91 0068 651C     		adds	r5, r4, #1
  92 006a EDB2     		uxtb	r5, r5
  93 006c 10A9     		add	r1, sp, #64
  94 006e 0C44     		add	r4, r4, r1
  95 0070 04F8343C 		strb	r3, [r4, #-52]
  96 0074 12F8013F 		ldrb	r3, [r2, #1]!	@ zero_extendqisi2
  97 0078 2C46     		mov	r4, r5
  98 007a 002B     		cmp	r3, #0
  99 007c F4D1     		bne	.L13
 100              	.L12:
 101 007e 10AB     		add	r3, sp, #64
 102 0080 2B44     		add	r3, r3, r5
 103 0082 0020     		movs	r0, #0
 104 0084 03F8340C 		strb	r0, [r3, #-52]
 105 0088 0146     		mov	r1, r0
 106 008a FFF7FEFF 		bl	comm_webgui_set_response_cb
 107 008e 2946     		mov	r1, r5
 108 0090 03A8     		add	r0, sp, #12
 109 0092 FFF7FEFF 		bl	comm_webgui_send
 110 0096 11B0     		add	sp, sp, #68
 111              		@ sp needed
 112 0098 30BD     		pop	{r4, r5, pc}
 113              	.L14:
 114 009a 2546     		mov	r5, r4
 115 009c EFE7     		b	.L12
 117              		.align	1
 118              		.global	system_get_current_profile
 119              		.syntax unified
 120              		.thumb
 121              		.thumb_func
 122              		.fpu softvfp
 124              	system_get_current_profile:
 125              		@ args = 0, pretend = 0, frame = 0
 126              		@ frame_needed = 0, uses_anonymous_args = 0
 127              		@ link register save eliminated.
 128 009e 014B     		ldr	r3, .L18
 129 00a0 1878     		ldrb	r0, [r3]	@ zero_extendqisi2
 130 00a2 7047     		bx	lr
 131              	.L19:
 132              		.align	2
 133              	.L18:
 134 00a4 00000000 		.word	.LANCHOR0
 136              		.align	1
 137              		.global	system_pedalboard_cb
 138              		.syntax unified
 139              		.thumb
 140              		.thumb_func
 141              		.fpu softvfp
 143              	system_pedalboard_cb:
 144              		@ args = 0, pretend = 0, frame = 0
 145              		@ frame_needed = 0, uses_anonymous_args = 0
 146 00a8 99B9     		cbnz	r1, .L25
 147 00aa 08B5     		push	{r3, lr}
 148 00ac 837B     		ldrb	r3, [r0, #14]	@ zero_extendqisi2
 149 00ae 2BB9     		cbnz	r3, .L20
 150 00b0 4368     		ldr	r3, [r0, #4]
 151 00b2 DB88     		ldrh	r3, [r3, #6]
 152 00b4 842B     		cmp	r3, #132
 153 00b6 02D0     		beq	.L22
 154 00b8 852B     		cmp	r3, #133
 155 00ba 05D0     		beq	.L23
 156              	.L20:
 157 00bc 08BD     		pop	{r3, pc}
 158              	.L22:
 159 00be 0F21     		movs	r1, #15
 160 00c0 0448     		ldr	r0, .L28
 161 00c2 FFF7FEFF 		bl	comm_webgui_send
 162 00c6 F9E7     		b	.L20
 163              	.L23:
 164 00c8 1021     		movs	r1, #16
 165 00ca 0348     		ldr	r0, .L28+4
 166 00cc FFF7FEFF 		bl	comm_webgui_send
 167 00d0 F4E7     		b	.L20
 168              	.L25:
 169 00d2 7047     		bx	lr
 170              	.L29:
 171              		.align	2
 172              	.L28:
 173 00d4 00000000 		.word	.LC1
 174 00d8 10000000 		.word	.LC2
 176              		.align	1
 177              		.global	system_bluetooth_cb
 178              		.syntax unified
 179              		.thumb
 180              		.thumb_func
 181              		.fpu softvfp
 183              	system_bluetooth_cb:
 184              		@ args = 0, pretend = 0, frame = 0
 185              		@ frame_needed = 0, uses_anonymous_args = 0
 186 00dc 49BB     		cbnz	r1, .L34
 187 00de 10B5     		push	{r4, lr}
 188 00e0 0446     		mov	r4, r0
 189 00e2 4368     		ldr	r3, [r0, #4]
 190 00e4 DB88     		ldrh	r3, [r3, #6]
 191 00e6 8C2B     		cmp	r3, #140
 192 00e8 02D0     		beq	.L37
 193 00ea 8E2B     		cmp	r3, #142
 194 00ec 1CD0     		beq	.L38
 195              	.L30:
 196 00ee 10BD     		pop	{r4, pc}
 197              	.L37:
 198 00f0 0121     		movs	r1, #1
 199 00f2 1048     		ldr	r0, .L39
 200 00f4 FFF7FEFF 		bl	cli_command
 201 00f8 A368     		ldr	r3, [r4, #8]
 202 00fa 0146     		mov	r1, r0
 203 00fc 9868     		ldr	r0, [r3, #8]
 204 00fe FFF77FFF 		bl	update_status
 205 0102 0121     		movs	r1, #1
 206 0104 0C48     		ldr	r0, .L39+4
 207 0106 FFF7FEFF 		bl	cli_command
 208 010a A368     		ldr	r3, [r4, #8]
 209 010c 0146     		mov	r1, r0
 210 010e D868     		ldr	r0, [r3, #12]
 211 0110 FFF776FF 		bl	update_status
 212 0114 0121     		movs	r1, #1
 213 0116 0948     		ldr	r0, .L39+8
 214 0118 FFF7FEFF 		bl	cli_command
 215 011c A368     		ldr	r3, [r4, #8]
 216 011e 0146     		mov	r1, r0
 217 0120 1869     		ldr	r0, [r3, #16]
 218 0122 FFF76DFF 		bl	update_status
 219 0126 E2E7     		b	.L30
 220              	.L38:
 221 0128 0021     		movs	r1, #0
 222 012a 0548     		ldr	r0, .L39+12
 223 012c FFF7FEFF 		bl	cli_command
 224 0130 DDE7     		b	.L30
 225              	.L34:
 226 0132 7047     		bx	lr
 227              	.L40:
 228              		.align	2
 229              	.L39:
 230 0134 24000000 		.word	.LC3
 231 0138 3C000000 		.word	.LC4
 232 013c 50000000 		.word	.LC5
 233 0140 68000000 		.word	.LC6
 235              		.align	1
 236              		.global	system_services_cb
 237              		.syntax unified
 238              		.thumb
 239              		.thumb_func
 240              		.fpu softvfp
 242              	system_services_cb:
 243              		@ args = 0, pretend = 0, frame = 0
 244              		@ frame_needed = 0, uses_anonymous_args = 0
 245 0144 C1B9     		cbnz	r1, .L46
 246 0146 F8B5     		push	{r3, r4, r5, r6, r7, lr}
 247 0148 0C4B     		ldr	r3, .L49
 248 014a 5968     		ldr	r1, [r3, #4]
 249 014c 99B1     		cbz	r1, .L41
 250 014e 0546     		mov	r5, r0
 251 0150 0024     		movs	r4, #0
 252 0152 0B4F     		ldr	r7, .L49+4
 253 0154 1E46     		mov	r6, r3
 254              	.L43:
 255 0156 3846     		mov	r0, r7
 256 0158 FFF7FEFF 		bl	cli_systemctl
 257 015c 0134     		adds	r4, r4, #1
 258 015e AB68     		ldr	r3, [r5, #8]
 259 0160 0146     		mov	r1, r0
 260 0162 53F82400 		ldr	r0, [r3, r4, lsl #2]
 261 0166 FFF74BFF 		bl	update_status
 262 016a E4B2     		uxtb	r4, r4
 263 016c 06EB8403 		add	r3, r6, r4, lsl #2
 264 0170 5968     		ldr	r1, [r3, #4]
 265 0172 0029     		cmp	r1, #0
 266 0174 EFD1     		bne	.L43
 267              	.L41:
 268 0176 F8BD     		pop	{r3, r4, r5, r6, r7, pc}
 269              	.L46:
 270 0178 7047     		bx	lr
 271              	.L50:
 272 017a 00BF     		.align	2
 273              	.L49:
 274 017c 00000000 		.word	.LANCHOR0
 275 0180 80000000 		.word	.LC7
 277              		.align	1
 278              		.global	system_versions_cb
 279              		.syntax unified
 280              		.thumb
 281              		.thumb_func
 282              		.fpu softvfp
 284              	system_versions_cb:
 285              		@ args = 0, pretend = 0, frame = 8
 286              		@ frame_needed = 0, uses_anonymous_args = 0
 287 0184 99BB     		cbnz	r1, .L57
 288 0186 2DE9F043 		push	{r4, r5, r6, r7, r8, r9, lr}
 289 018a 83B0     		sub	sp, sp, #12
 290 018c 0646     		mov	r6, r0
 291 018e 0D46     		mov	r5, r1
 292 0190 174B     		ldr	r3, .L60
 293 0192 9B69     		ldr	r3, [r3, #24]
 294 0194 43B3     		cbz	r3, .L51
 295 0196 0024     		movs	r4, #0
 296 0198 DFF85890 		ldr	r9, .L60+4
 297 019c 4FF00208 		mov	r8, #2
 298 01a0 134F     		ldr	r7, .L60
 299              	.L54:
 300 01a2 4146     		mov	r1, r8
 301 01a4 4846     		mov	r0, r9
 302 01a6 FFF7FEFF 		bl	cli_command
 303 01aa 07EB8505 		add	r5, r7, r5, lsl #2
 304 01ae 0121     		movs	r1, #1
 305 01b0 A869     		ldr	r0, [r5, #24]
 306 01b2 FFF7FEFF 		bl	cli_command
 307 01b6 0722     		movs	r2, #7
 308 01b8 0146     		mov	r1, r0
 309 01ba 6846     		mov	r0, sp
 310 01bc FFF7FEFF 		bl	strncpy
 311 01c0 0023     		movs	r3, #0
 312 01c2 8DF80730 		strb	r3, [sp, #7]
 313 01c6 0134     		adds	r4, r4, #1
 314 01c8 B368     		ldr	r3, [r6, #8]
 315 01ca 6946     		mov	r1, sp
 316 01cc 53F82400 		ldr	r0, [r3, r4, lsl #2]
 317 01d0 FFF716FF 		bl	update_status
 318 01d4 3046     		mov	r0, r6
 319 01d6 FFF7FEFF 		bl	screen_system_menu
 320 01da E4B2     		uxtb	r4, r4
 321 01dc 2546     		mov	r5, r4
 322 01de 07EB8403 		add	r3, r7, r4, lsl #2
 323 01e2 9B69     		ldr	r3, [r3, #24]
 324 01e4 002B     		cmp	r3, #0
 325 01e6 DCD1     		bne	.L54
 326              	.L51:
 327 01e8 03B0     		add	sp, sp, #12
 328              		@ sp needed
 329 01ea BDE8F083 		pop	{r4, r5, r6, r7, r8, r9, pc}
 330              	.L57:
 331 01ee 7047     		bx	lr
 332              	.L61:
 333              		.align	2
 334              	.L60:
 335 01f0 00000000 		.word	.LANCHOR0
 336 01f4 8C000000 		.word	.LC8
 338              		.align	1
 339              		.global	system_release_cb
 340              		.syntax unified
 341              		.thumb
 342              		.thumb_func
 343              		.fpu softvfp
 345              	system_release_cb:
 346              		@ args = 0, pretend = 0, frame = 0
 347              		@ frame_needed = 0, uses_anonymous_args = 0
 348 01f8 01B1     		cbz	r1, .L68
 349 01fa 7047     		bx	lr
 350              	.L68:
 351 01fc 10B5     		push	{r4, lr}
 352 01fe 0446     		mov	r4, r0
 353 0200 0121     		movs	r1, #1
 354 0202 0248     		ldr	r0, .L69
 355 0204 FFF7FEFF 		bl	cli_command
 356 0208 6061     		str	r0, [r4, #20]
 357 020a 10BD     		pop	{r4, pc}
 358              	.L70:
 359              		.align	2
 360              	.L69:
 361 020c 9C000000 		.word	.LC9
 363              		.align	1
 364              		.global	system_device_cb
 365              		.syntax unified
 366              		.thumb
 367              		.thumb_func
 368              		.fpu softvfp
 370              	system_device_cb:
 371              		@ args = 0, pretend = 0, frame = 0
 372              		@ frame_needed = 0, uses_anonymous_args = 0
 373 0210 01B1     		cbz	r1, .L77
 374 0212 7047     		bx	lr
 375              	.L77:
 376 0214 10B5     		push	{r4, lr}
 377 0216 0446     		mov	r4, r0
 378 0218 0121     		movs	r1, #1
 379 021a 0448     		ldr	r0, .L78
 380 021c FFF7FEFF 		bl	cli_command
 381 0220 A368     		ldr	r3, [r4, #8]
 382 0222 0146     		mov	r1, r0
 383 0224 5868     		ldr	r0, [r3, #4]
 384 0226 FFF7EBFE 		bl	update_status
 385 022a 10BD     		pop	{r4, pc}
 386              	.L79:
 387              		.align	2
 388              	.L78:
 389 022c B0000000 		.word	.LC10
 391              		.align	1
 392              		.global	system_tag_cb
 393              		.syntax unified
 394              		.thumb
 395              		.thumb_func
 396              		.fpu softvfp
 398              	system_tag_cb:
 399              		@ args = 0, pretend = 0, frame = 0
 400              		@ frame_needed = 0, uses_anonymous_args = 0
 401 0230 01B1     		cbz	r1, .L88
 402 0232 7047     		bx	lr
 403              	.L88:
 404 0234 2DE9F843 		push	{r3, r4, r5, r6, r7, r8, r9, lr}
 405 0238 0746     		mov	r7, r0
 406 023a 0121     		movs	r1, #1
 407 023c 1248     		ldr	r0, .L89
 408 023e FFF7FEFF 		bl	cli_command
 409 0242 8146     		mov	r9, r0
 410 0244 FFF7FEFF 		bl	strlen
 411 0248 3D30     		adds	r0, r0, #61
 412 024a FFF7FEFF 		bl	pvPortMalloc
 413 024e 8046     		mov	r8, r0
 414 0250 0E4C     		ldr	r4, .L89+4
 415 0252 0546     		mov	r5, r0
 416 0254 04F1300C 		add	ip, r4, #48
 417              	.L82:
 418 0258 2646     		mov	r6, r4
 419 025a 0FCE     		ldmia	r6!, {r0, r1, r2, r3}
 420 025c 2860     		str	r0, [r5]	@ unaligned
 421 025e 6960     		str	r1, [r5, #4]	@ unaligned
 422 0260 AA60     		str	r2, [r5, #8]	@ unaligned
 423 0262 EB60     		str	r3, [r5, #12]	@ unaligned
 424 0264 3446     		mov	r4, r6
 425 0266 1035     		adds	r5, r5, #16
 426 0268 6645     		cmp	r6, ip
 427 026a F5D1     		bne	.L82
 428 026c 07CC     		ldmia	r4!, {r0, r1, r2}
 429 026e 2860     		str	r0, [r5]	@ unaligned
 430 0270 6960     		str	r1, [r5, #4]	@ unaligned
 431 0272 AA60     		str	r2, [r5, #8]	@ unaligned
 432 0274 2378     		ldrb	r3, [r4]	@ zero_extendqisi2
 433 0276 2B73     		strb	r3, [r5, #12]
 434 0278 4946     		mov	r1, r9
 435 027a 4046     		mov	r0, r8
 436 027c FFF7FEFF 		bl	strcat
 437 0280 C7F81480 		str	r8, [r7, #20]
 438 0284 BDE8F883 		pop	{r3, r4, r5, r6, r7, r8, r9, pc}
 439              	.L90:
 440              		.align	2
 441              	.L89:
 442 0288 B0000000 		.word	.LC10
 443 028c C8000000 		.word	.LC11
 445              		.align	1
 446              		.global	system_upgrade_cb
 447              		.syntax unified
 448              		.thumb
 449              		.thumb_func
 450              		.fpu softvfp
 452              	system_upgrade_cb:
 453              		@ args = 0, pretend = 0, frame = 0
 454              		@ frame_needed = 0, uses_anonymous_args = 0
 455 0290 01B1     		cbz	r1, .L97
 456 0292 7047     		bx	lr
 457              	.L97:
 458 0294 10B5     		push	{r4, lr}
 459 0296 0446     		mov	r4, r0
 460 0298 0220     		movs	r0, #2
 461 029a FFF7FEFF 		bl	hardware_actuators
 462 029e A37B     		ldrb	r3, [r4, #14]	@ zero_extendqisi2
 463 02a0 03B1     		cbz	r3, .L98
 464              	.L91:
 465 02a2 10BD     		pop	{r4, pc}
 466              	.L98:
 467 02a4 FFF7FEFF 		bl	actuator_get_status
 468 02a8 10F0020F 		tst	r0, #2
 469 02ac F9D0     		beq	.L91
 470 02ae 0020     		movs	r0, #0
 471 02b0 FFF7FEFF 		bl	cli_restore
 472 02b4 F5E7     		b	.L91
 474              		.global	__aeabi_f2iz
 475              		.global	__aeabi_i2f
 476              		.align	1
 477              		.global	system_volume_cb
 478              		.syntax unified
 479              		.thumb
 480              		.thumb_func
 481              		.fpu softvfp
 483              	system_volume_cb:
 484              		@ args = 0, pretend = 0, frame = 40
 485              		@ frame_needed = 0, uses_anonymous_args = 0
 486 02b6 2DE9F04F 		push	{r4, r5, r6, r7, r8, r9, r10, fp, lr}
 487 02ba 8BB0     		sub	sp, sp, #44
 488 02bc 0546     		mov	r5, r0
 489 02be 0C46     		mov	r4, r1
 490 02c0 4368     		ldr	r3, [r0, #4]
 491 02c2 DB88     		ldrh	r3, [r3, #6]
 492 02c4 6E3B     		subs	r3, r3, #110
 493 02c6 042B     		cmp	r3, #4
 494 02c8 00F2E380 		bhi	.L99
 495 02cc DFE813F0 		tbh	[pc, r3, lsl #1]
 496              	.L102:
 497 02d0 0D00     		.2byte	(.L101-.L102)/2
 498 02d2 4C01     		.2byte	(.L103-.L102)/2
 499 02d4 1001     		.2byte	(.L104-.L102)/2
 500 02d6 0500     		.2byte	(.L105-.L102)/2
 501 02d8 1801     		.2byte	(.L128-.L102)/2
 502              		.p2align 1
 503              	.L105:
 504 02da DFF85083 		ldr	r8, .L139+56
 505 02de 4FF0804B 		mov	fp, #1073741824
 506 02e2 4FF0000A 		mov	r10, #0
 507 02e6 C34E     		ldr	r6, .L139
 508 02e8 11E1     		b	.L106
 509              	.L101:
 510 02ea 0021     		movs	r1, #0
 511 02ec 0846     		mov	r0, r1
 512 02ee FFF7FEFF 		bl	cli_command
 513 02f2 671E     		subs	r7, r4, #1
 514 02f4 012F     		cmp	r7, #1
 515 02f6 34D9     		bls	.L129
 516 02f8 4FF06909 		mov	r9, #105
 517 02fc DFF83083 		ldr	r8, .L139+60
 518 0300 4FF07E5B 		mov	fp, #1065353216
 519 0304 DFF82CA3 		ldr	r10, .L139+64
 520 0308 BB4E     		ldr	r6, .L139+4
 521 030a 0AE1     		b	.L108
 522              	.L137:
 523 030c BB4B     		ldr	r3, .L139+8
 524 030e 1B78     		ldrb	r3, [r3]	@ zero_extendqisi2
 525 0310 002B     		cmp	r3, #0
 526 0312 00F00681 		beq	.L108
 527 0316 6B68     		ldr	r3, [r5, #4]
 528 0318 DB88     		ldrh	r3, [r3, #6]
 529 031a 722B     		cmp	r3, #114
 530 031c 00F00181 		beq	.L108
 531 0320 02AC     		add	r4, sp, #8
 532 0322 B74B     		ldr	r3, .L139+12
 533 0324 0FCB     		ldm	r3, {r0, r1, r2, r3}
 534 0326 84E80F00 		stm	r4, {r0, r1, r2, r3}
 535 032a B5F91C30 		ldrsh	r3, [r5, #28]
 536 032e 3C33     		adds	r3, r3, #60
 537 0330 C3EB0313 		rsb	r3, r3, r3, lsl #4
 538 0334 DB00     		lsls	r3, r3, #3
 539 0336 B348     		ldr	r0, .L139+16
 540 0338 80FB0320 		smull	r2, r0, r0, r3
 541 033c 1844     		add	r0, r0, r3
 542 033e DB17     		asrs	r3, r3, #31
 543 0340 C3EB6010 		rsb	r0, r3, r0, asr #5
 544 0344 0123     		movs	r3, #1
 545 0346 0822     		movs	r2, #8
 546 0348 6946     		mov	r1, sp
 547 034a 8730     		adds	r0, r0, #135
 548 034c FFF7FEFF 		bl	int_to_str
 549 0350 6946     		mov	r1, sp
 550 0352 2046     		mov	r0, r4
 551 0354 FFF7FEFF 		bl	strcat
 552 0358 0021     		movs	r1, #0
 553 035a 2046     		mov	r0, r4
 554 035c FFF7FEFF 		bl	cli_command
 555 0360 50E0     		b	.L112
 556              	.L129:
 557 0362 DFF8CC82 		ldr	r8, .L139+60
 558              	.L107:
 559 0366 A84B     		ldr	r3, .L139+20
 560 0368 1B78     		ldrb	r3, [r3]	@ zero_extendqisi2
 561 036a 002B     		cmp	r3, #0
 562 036c 40F00E81 		bne	.L110
 563 0370 4FF06909 		mov	r9, #105
 564 0374 4FF07E5B 		mov	fp, #1065353216
 565 0378 DFF8B8A2 		ldr	r10, .L139+64
 566 037c 9E4E     		ldr	r6, .L139+4
 567 037e D0E0     		b	.L108
 568              	.L131:
 569 0380 DFF8B482 		ldr	r8, .L139+68
 570 0384 EFE7     		b	.L107
 571              	.L113:
 572 0386 0221     		movs	r1, #2
 573 0388 A048     		ldr	r0, .L139+24
 574 038a FFF7FEFF 		bl	cli_command
 575 038e 0221     		movs	r1, #2
 576 0390 4046     		mov	r0, r8
 577 0392 FFF7FEFF 		bl	cli_command
 578 0396 0221     		movs	r1, #2
 579 0398 9D48     		ldr	r0, .L139+28
 580 039a FFF7FEFF 		bl	cli_command
 581 039e 0121     		movs	r1, #1
 582 03a0 0020     		movs	r0, #0
 583 03a2 FFF7FEFF 		bl	cli_command
 584 03a6 0146     		mov	r1, r0
 585 03a8 02A8     		add	r0, sp, #8
 586 03aa FFF7FEFF 		bl	strcpy
 587 03ae 3046     		mov	r0, r6
 588 03b0 FFF7FEFF 		bl	__aeabi_f2iz
 589 03b4 2883     		strh	r0, [r5, #24]	@ movhi
 590 03b6 5046     		mov	r0, r10
 591 03b8 FFF7FEFF 		bl	__aeabi_f2iz
 592 03bc 6883     		strh	r0, [r5, #26]	@ movhi
 593 03be 5846     		mov	r0, fp
 594 03c0 FFF7FEFF 		bl	__aeabi_f2iz
 595 03c4 E883     		strh	r0, [r5, #30]	@ movhi
 596 03c6 9DF80830 		ldrb	r3, [sp, #8]	@ zero_extendqisi2
 597 03ca 2D2B     		cmp	r3, #45
 598 03cc 15BF     		itete	ne
 599 03ce 0021     		movne	r1, #0
 600 03d0 0121     		moveq	r1, #1
 601 03d2 0120     		movne	r0, #1
 602 03d4 4FF0FF30 		moveq	r0, #-1
 603 03d8 0AAB     		add	r3, sp, #40
 604 03da 0B44     		add	r3, r3, r1
 605 03dc 13F8202C 		ldrb	r2, [r3, #-32]	@ zero_extendqisi2
 606 03e0 2E2A     		cmp	r2, #46
 607 03e2 59D0     		beq	.L134
 608 03e4 0AAB     		add	r3, sp, #40
 609 03e6 1944     		add	r1, r1, r3
 610 03e8 1F39     		subs	r1, r1, #31
 611 03ea 0023     		movs	r3, #0
 612              	.L116:
 613 03ec 03EB8303 		add	r3, r3, r3, lsl #2
 614 03f0 02EB4303 		add	r3, r2, r3, lsl #1
 615 03f4 303B     		subs	r3, r3, #48
 616 03f6 11F8012B 		ldrb	r2, [r1], #1	@ zero_extendqisi2
 617 03fa 2E2A     		cmp	r2, #46
 618 03fc F6D1     		bne	.L116
 619              	.L117:
 620 03fe 00FB03F3 		mul	r3, r0, r3
 621 0402 AB83     		strh	r3, [r5, #28]	@ movhi
 622              	.L112:
 623 0404 B5F91C00 		ldrsh	r0, [r5, #28]
 624 0408 FFF7FEFF 		bl	__aeabi_i2f
 625 040c 6B68     		ldr	r3, [r5, #4]
 626 040e DB88     		ldrh	r3, [r3, #6]
 627 0410 6E3B     		subs	r3, r3, #110
 628 0412 804A     		ldr	r2, .L139+32
 629 0414 42F82300 		str	r0, [r2, r3, lsl #2]	@ float
 630 0418 0123     		movs	r3, #1
 631 041a 0822     		movs	r2, #8
 632 041c 0DEB0201 		add	r1, sp, r2
 633 0420 FFF7FEFF 		bl	float_to_str
 634 0424 6B68     		ldr	r3, [r5, #4]
 635 0426 1968     		ldr	r1, [r3]
 636 0428 2868     		ldr	r0, [r5]
 637 042a FFF7FEFF 		bl	strcpy
 638 042e 02A8     		add	r0, sp, #8
 639 0430 FFF7FEFF 		bl	strlen
 640 0434 8246     		mov	r10, r0
 641 0436 2868     		ldr	r0, [r5]
 642 0438 FFF7FEFF 		bl	strlen
 643 043c C0B2     		uxtb	r0, r0
 644 043e 5FFA8AFA 		uxtb	r10, r10
 645 0442 CAF11D0A 		rsb	r10, r10, #29
 646 0446 AAEB000A 		sub	r10, r10, r0
 647 044a BAF1000F 		cmp	r10, #0
 648 044e 0DDD     		ble	.L119
 649 0450 0024     		movs	r4, #0
 650 0452 714B     		ldr	r3, .L139+36
 651 0454 B3F800B0 		ldrh	fp, [r3]	@ unaligned
 652              	.L120:
 653 0458 2E68     		ldr	r6, [r5]
 654 045a 3046     		mov	r0, r6
 655 045c FFF7FEFF 		bl	strlen
 656 0460 26F800B0 		strh	fp, [r6, r0]	@ unaligned
 657 0464 0134     		adds	r4, r4, #1
 658 0466 E4B2     		uxtb	r4, r4
 659 0468 5445     		cmp	r4, r10
 660 046a F5DB     		blt	.L120
 661              	.L119:
 662 046c 02A9     		add	r1, sp, #8
 663 046e 2868     		ldr	r0, [r5]
 664 0470 FFF7FEFF 		bl	strcat
 665 0474 2C68     		ldr	r4, [r5]
 666 0476 2046     		mov	r0, r4
 667 0478 FFF7FEFF 		bl	strlen
 668 047c 2218     		adds	r2, r4, r0
 669 047e 674B     		ldr	r3, .L139+40
 670 0480 1988     		ldrh	r1, [r3]	@ unaligned
 671 0482 9B78     		ldrb	r3, [r3, #2]	@ zero_extendqisi2
 672 0484 2152     		strh	r1, [r4, r0]	@ unaligned
 673 0486 9370     		strb	r3, [r2, #2]
 674 0488 012F     		cmp	r7, #1
 675 048a 07D9     		bls	.L136
 676              	.L121:
 677 048c 0120     		movs	r0, #1
 678 048e FFF7FEFF 		bl	naveg_settings_refresh
 679              	.L99:
 680 0492 0BB0     		add	sp, sp, #44
 681              		@ sp needed
 682 0494 BDE8F08F 		pop	{r4, r5, r6, r7, r8, r9, r10, fp, pc}
 683              	.L134:
 684 0498 0023     		movs	r3, #0
 685 049a B0E7     		b	.L117
 686              	.L136:
 687 049c B9F1690F 		cmp	r9, #105
 688 04a0 14BF     		ite	ne
 689 04a2 564B     		ldrne	r3, .L139+8
 690 04a4 584B     		ldreq	r3, .L139+20
 691 04a6 1B78     		ldrb	r3, [r3]	@ zero_extendqisi2
 692 04a8 0033     		adds	r3, r3, #0
 693 04aa 18BF     		it	ne
 694 04ac 0123     		movne	r3, #1
 695 04ae 002B     		cmp	r3, #0
 696 04b0 ECD0     		beq	.L121
 697 04b2 6B68     		ldr	r3, [r5, #4]
 698 04b4 DC88     		ldrh	r4, [r3, #6]
 699 04b6 722C     		cmp	r4, #114
 700 04b8 E8D0     		beq	.L121
 701 04ba 3121     		movs	r1, #49
 702 04bc 4046     		mov	r0, r8
 703 04be FFF7FEFF 		bl	strchr
 704 04c2 50B1     		cbz	r0, .L124
 705 04c4 B5F91C00 		ldrsh	r0, [r5, #28]
 706 04c8 FFF7FEFF 		bl	__aeabi_i2f
 707 04cc 611C     		adds	r1, r4, #1
 708 04ce 0246     		mov	r2, r0
 709 04d0 C9B2     		uxtb	r1, r1
 710 04d2 0120     		movs	r0, #1
 711 04d4 FFF7FEFF 		bl	naveg_update_gain
 712 04d8 D8E7     		b	.L121
 713              	.L124:
 714 04da B5F91C00 		ldrsh	r0, [r5, #28]
 715 04de FFF7FEFF 		bl	__aeabi_i2f
 716 04e2 611E     		subs	r1, r4, #1
 717 04e4 0246     		mov	r2, r0
 718 04e6 C9B2     		uxtb	r1, r1
 719 04e8 0120     		movs	r0, #1
 720 04ea FFF7FEFF 		bl	naveg_update_gain
 721 04ee CDE7     		b	.L121
 722              	.L104:
 723 04f0 DFF84881 		ldr	r8, .L139+72
 724 04f4 4FF0804B 		mov	fp, #1073741824
 725 04f8 4FF0000A 		mov	r10, #0
 726 04fc 3D4E     		ldr	r6, .L139
 727 04fe 06E0     		b	.L106
 728              	.L128:
 729 0500 DFF83C81 		ldr	r8, .L139+76
 730 0504 DFF83CB1 		ldr	fp, .L139+80
 731 0508 DFF828A1 		ldr	r10, .L139+64
 732 050c 444E     		ldr	r6, .L139+44
 733              	.L106:
 734 050e 0021     		movs	r1, #0
 735 0510 0846     		mov	r0, r1
 736 0512 FFF7FEFF 		bl	cli_command
 737 0516 98F80090 		ldrb	r9, [r8]	@ zero_extendqisi2
 738 051a 671E     		subs	r7, r4, #1
 739 051c 012F     		cmp	r7, #1
 740 051e 7FF6F5AE 		bls	.L137
 741              	.L108:
 742 0522 002C     		cmp	r4, #0
 743 0524 3FF42FAF 		beq	.L113
 744 0528 032C     		cmp	r4, #3
 745 052a 3FF42CAF 		beq	.L113
 746 052e 012F     		cmp	r7, #1
 747 0530 3FF668AF 		bhi	.L112
 748 0534 0221     		movs	r1, #2
 749 0536 3548     		ldr	r0, .L139+24
 750 0538 FFF7FEFF 		bl	cli_command
 751 053c 0221     		movs	r1, #2
 752 053e 4046     		mov	r0, r8
 753 0540 FFF7FEFF 		bl	cli_command
 754 0544 0221     		movs	r1, #2
 755 0546 3248     		ldr	r0, .L139+28
 756 0548 FFF7FEFF 		bl	cli_command
 757 054c B5F91C00 		ldrsh	r0, [r5, #28]
 758 0550 FFF7FEFF 		bl	__aeabi_i2f
 759 0554 0123     		movs	r3, #1
 760 0556 0822     		movs	r2, #8
 761 0558 6946     		mov	r1, sp
 762 055a FFF7FEFF 		bl	float_to_str
 763 055e 0021     		movs	r1, #0
 764 0560 6846     		mov	r0, sp
 765 0562 FFF7FEFF 		bl	cli_command
 766 0566 4DE7     		b	.L112
 767              	.L103:
 768 0568 0021     		movs	r1, #0
 769 056a 0846     		mov	r0, r1
 770 056c FFF7FEFF 		bl	cli_command
 771 0570 671E     		subs	r7, r4, #1
 772 0572 012F     		cmp	r7, #1
 773 0574 7FF604AF 		bls	.L131
 774 0578 4FF06909 		mov	r9, #105
 775 057c DFF8B880 		ldr	r8, .L139+68
 776 0580 4FF07E5B 		mov	fp, #1065353216
 777 0584 DFF8ACA0 		ldr	r10, .L139+64
 778 0588 1B4E     		ldr	r6, .L139+4
 779 058a CAE7     		b	.L108
 780              	.L110:
 781 058c 6B68     		ldr	r3, [r5, #4]
 782 058e DB88     		ldrh	r3, [r3, #6]
 783 0590 722B     		cmp	r3, #114
 784 0592 27D0     		beq	.L138
 785 0594 02AC     		add	r4, sp, #8
 786 0596 234E     		ldr	r6, .L139+48
 787 0598 0FCE     		ldmia	r6!, {r0, r1, r2, r3}
 788 059a 0FC4     		stmia	r4!, {r0, r1, r2, r3}
 789 059c 96E80300 		ldm	r6, {r0, r1}
 790 05a0 44F8040B 		str	r0, [r4], #4
 791 05a4 24F8021B 		strh	r1, [r4], #2	@ movhi
 792 05a8 090C     		lsrs	r1, r1, #16
 793 05aa 2170     		strb	r1, [r4]
 794 05ac B5F91C30 		ldrsh	r3, [r5, #28]
 795 05b0 0C33     		adds	r3, r3, #12
 796 05b2 03EB4303 		add	r3, r3, r3, lsl #1
 797 05b6 1B01     		lsls	r3, r3, #4
 798 05b8 1B4C     		ldr	r4, .L139+52
 799 05ba 84FB0324 		smull	r2, r4, r4, r3
 800 05be D817     		asrs	r0, r3, #31
 801 05c0 0123     		movs	r3, #1
 802 05c2 0822     		movs	r2, #8
 803 05c4 6946     		mov	r1, sp
 804 05c6 C0EBA400 		rsb	r0, r0, r4, asr #2
 805 05ca FFF7FEFF 		bl	int_to_str
 806 05ce 6946     		mov	r1, sp
 807 05d0 02A8     		add	r0, sp, #8
 808 05d2 FFF7FEFF 		bl	strcat
 809 05d6 0021     		movs	r1, #0
 810 05d8 02A8     		add	r0, sp, #8
 811 05da FFF7FEFF 		bl	cli_command
 812 05de 4FF06909 		mov	r9, #105
 813 05e2 0FE7     		b	.L112
 814              	.L138:
 815 05e4 4FF06909 		mov	r9, #105
 816 05e8 4FF07E5B 		mov	fp, #1065353216
 817 05ec DFF844A0 		ldr	r10, .L139+64
 818 05f0 014E     		ldr	r6, .L139+4
 819 05f2 96E7     		b	.L108
 820              	.L140:
 821              		.align	2
 822              	.L139:
 823 05f4 000070C2 		.word	-1032847360
 824 05f8 000040C1 		.word	-1052770304
 825 05fc 00000000 		.word	sl_out
 826 0600 44010000 		.word	.LC18
 827 0604 89888888 		.word	-2004318071
 828 0608 00000000 		.word	sl_in
 829 060c 54010000 		.word	.LC19
 830 0610 60010000 		.word	.LC20
 831 0614 00000000 		.word	.LANCHOR1
 832 0618 68010000 		.word	.LC21
 833 061c 6C010000 		.word	.LC22
 834 0620 000004C2 		.word	-1039925248
 835 0624 2C010000 		.word	.LC17
 836 0628 ABAAAA2A 		.word	715827883
 837 062c 1C010000 		.word	.LC15
 838 0630 08010000 		.word	.LC12
 839 0634 00004041 		.word	1094713344
 840 0638 10010000 		.word	.LC13
 841 063c 24010000 		.word	.LC16
 842 0640 18010000 		.word	.LC14
 843 0644 00004040 		.word	1077936128
 845              		.global	__aeabi_d2iz
 846              		.align	1
 847              		.syntax unified
 848              		.thumb
 849              		.thumb_func
 850              		.fpu softvfp
 852              	get_item_value:
 853              		@ args = 0, pretend = 0, frame = 0
 854              		@ frame_needed = 0, uses_anonymous_args = 0
 855 0648 10B5     		push	{r4, lr}
 856 064a 0C46     		mov	r4, r1
 857 064c 4B68     		ldr	r3, [r1, #4]
 858 064e DB88     		ldrh	r3, [r3, #6]
 859 0650 0B3B     		subs	r3, r3, #11
 860 0652 C22B     		cmp	r3, #194
 861 0654 00F2CB80 		bhi	.L141
 862 0658 DFE813F0 		tbh	[pc, r3, lsl #1]
 863              	.L144:
 864 065c EE00     		.2byte	(.L143-.L144)/2
 865 065e 0701     		.2byte	(.L145-.L144)/2
 866 0660 C900     		.2byte	(.L141-.L144)/2
 867 0662 C900     		.2byte	(.L141-.L144)/2
 868 0664 C900     		.2byte	(.L141-.L144)/2
 869 0666 C900     		.2byte	(.L141-.L144)/2
 870 0668 C900     		.2byte	(.L141-.L144)/2
 871 066a C900     		.2byte	(.L141-.L144)/2
 872 066c C900     		.2byte	(.L141-.L144)/2
 873 066e C900     		.2byte	(.L141-.L144)/2
 874 0670 0C01     		.2byte	(.L146-.L144)/2
 875 0672 2C01     		.2byte	(.L147-.L144)/2
 876 0674 2501     		.2byte	(.L148-.L144)/2
 877 0676 C900     		.2byte	(.L141-.L144)/2
 878 0678 C900     		.2byte	(.L141-.L144)/2
 879 067a C900     		.2byte	(.L141-.L144)/2
 880 067c C900     		.2byte	(.L141-.L144)/2
 881 067e C900     		.2byte	(.L141-.L144)/2
 882 0680 C900     		.2byte	(.L141-.L144)/2
 883 0682 E900     		.2byte	(.L149-.L144)/2
 884 0684 C900     		.2byte	(.L141-.L144)/2
 885 0686 C900     		.2byte	(.L141-.L144)/2
 886 0688 C900     		.2byte	(.L141-.L144)/2
 887 068a C900     		.2byte	(.L141-.L144)/2
 888 068c C900     		.2byte	(.L141-.L144)/2
 889 068e C900     		.2byte	(.L141-.L144)/2
 890 0690 C900     		.2byte	(.L141-.L144)/2
 891 0692 C900     		.2byte	(.L141-.L144)/2
 892 0694 C900     		.2byte	(.L141-.L144)/2
 893 0696 C900     		.2byte	(.L141-.L144)/2
 894 0698 C900     		.2byte	(.L141-.L144)/2
 895 069a C900     		.2byte	(.L141-.L144)/2
 896 069c C900     		.2byte	(.L141-.L144)/2
 897 069e C900     		.2byte	(.L141-.L144)/2
 898 06a0 C900     		.2byte	(.L141-.L144)/2
 899 06a2 C900     		.2byte	(.L141-.L144)/2
 900 06a4 C900     		.2byte	(.L141-.L144)/2
 901 06a6 C900     		.2byte	(.L141-.L144)/2
 902 06a8 C900     		.2byte	(.L141-.L144)/2
 903 06aa C900     		.2byte	(.L141-.L144)/2
 904 06ac C900     		.2byte	(.L141-.L144)/2
 905 06ae C900     		.2byte	(.L141-.L144)/2
 906 06b0 C900     		.2byte	(.L141-.L144)/2
 907 06b2 C900     		.2byte	(.L141-.L144)/2
 908 06b4 C900     		.2byte	(.L141-.L144)/2
 909 06b6 C900     		.2byte	(.L141-.L144)/2
 910 06b8 C900     		.2byte	(.L141-.L144)/2
 911 06ba C900     		.2byte	(.L141-.L144)/2
 912 06bc C900     		.2byte	(.L141-.L144)/2
 913 06be C900     		.2byte	(.L141-.L144)/2
 914 06c0 C900     		.2byte	(.L141-.L144)/2
 915 06c2 C900     		.2byte	(.L141-.L144)/2
 916 06c4 C900     		.2byte	(.L141-.L144)/2
 917 06c6 C900     		.2byte	(.L141-.L144)/2
 918 06c8 C900     		.2byte	(.L141-.L144)/2
 919 06ca C900     		.2byte	(.L141-.L144)/2
 920 06cc C900     		.2byte	(.L141-.L144)/2
 921 06ce C900     		.2byte	(.L141-.L144)/2
 922 06d0 C900     		.2byte	(.L141-.L144)/2
 923 06d2 C900     		.2byte	(.L141-.L144)/2
 924 06d4 C900     		.2byte	(.L141-.L144)/2
 925 06d6 C900     		.2byte	(.L141-.L144)/2
 926 06d8 C900     		.2byte	(.L141-.L144)/2
 927 06da C900     		.2byte	(.L141-.L144)/2
 928 06dc C900     		.2byte	(.L141-.L144)/2
 929 06de C900     		.2byte	(.L141-.L144)/2
 930 06e0 C900     		.2byte	(.L141-.L144)/2
 931 06e2 C900     		.2byte	(.L141-.L144)/2
 932 06e4 C900     		.2byte	(.L141-.L144)/2
 933 06e6 C900     		.2byte	(.L141-.L144)/2
 934 06e8 C900     		.2byte	(.L141-.L144)/2
 935 06ea C900     		.2byte	(.L141-.L144)/2
 936 06ec C900     		.2byte	(.L141-.L144)/2
 937 06ee C900     		.2byte	(.L141-.L144)/2
 938 06f0 C900     		.2byte	(.L141-.L144)/2
 939 06f2 C900     		.2byte	(.L141-.L144)/2
 940 06f4 C900     		.2byte	(.L141-.L144)/2
 941 06f6 C900     		.2byte	(.L141-.L144)/2
 942 06f8 C900     		.2byte	(.L141-.L144)/2
 943 06fa C900     		.2byte	(.L141-.L144)/2
 944 06fc C900     		.2byte	(.L141-.L144)/2
 945 06fe C900     		.2byte	(.L141-.L144)/2
 946 0700 C900     		.2byte	(.L141-.L144)/2
 947 0702 C900     		.2byte	(.L141-.L144)/2
 948 0704 C900     		.2byte	(.L141-.L144)/2
 949 0706 C900     		.2byte	(.L141-.L144)/2
 950 0708 C900     		.2byte	(.L141-.L144)/2
 951 070a C900     		.2byte	(.L141-.L144)/2
 952 070c C900     		.2byte	(.L141-.L144)/2
 953 070e C900     		.2byte	(.L141-.L144)/2
 954 0710 C900     		.2byte	(.L141-.L144)/2
 955 0712 C900     		.2byte	(.L141-.L144)/2
 956 0714 C900     		.2byte	(.L141-.L144)/2
 957 0716 C900     		.2byte	(.L141-.L144)/2
 958 0718 C900     		.2byte	(.L141-.L144)/2
 959 071a C900     		.2byte	(.L141-.L144)/2
 960 071c C900     		.2byte	(.L141-.L144)/2
 961 071e C900     		.2byte	(.L141-.L144)/2
 962 0720 C900     		.2byte	(.L141-.L144)/2
 963 0722 F500     		.2byte	(.L150-.L144)/2
 964 0724 FE00     		.2byte	(.L151-.L144)/2
 965 0726 1301     		.2byte	(.L152-.L144)/2
 966 0728 1C01     		.2byte	(.L153-.L144)/2
 967 072a 3101     		.2byte	(.L154-.L144)/2
 968 072c C900     		.2byte	(.L141-.L144)/2
 969 072e C900     		.2byte	(.L141-.L144)/2
 970 0730 C900     		.2byte	(.L141-.L144)/2
 971 0732 C900     		.2byte	(.L141-.L144)/2
 972 0734 C900     		.2byte	(.L141-.L144)/2
 973 0736 C900     		.2byte	(.L141-.L144)/2
 974 0738 C900     		.2byte	(.L141-.L144)/2
 975 073a C900     		.2byte	(.L141-.L144)/2
 976 073c C900     		.2byte	(.L141-.L144)/2
 977 073e C900     		.2byte	(.L141-.L144)/2
 978 0740 C900     		.2byte	(.L141-.L144)/2
 979 0742 C900     		.2byte	(.L141-.L144)/2
 980 0744 C900     		.2byte	(.L141-.L144)/2
 981 0746 C900     		.2byte	(.L141-.L144)/2
 982 0748 C900     		.2byte	(.L141-.L144)/2
 983 074a C900     		.2byte	(.L141-.L144)/2
 984 074c C900     		.2byte	(.L141-.L144)/2
 985 074e C900     		.2byte	(.L141-.L144)/2
 986 0750 C900     		.2byte	(.L141-.L144)/2
 987 0752 C900     		.2byte	(.L141-.L144)/2
 988 0754 C900     		.2byte	(.L141-.L144)/2
 989 0756 C900     		.2byte	(.L141-.L144)/2
 990 0758 C900     		.2byte	(.L141-.L144)/2
 991 075a C900     		.2byte	(.L141-.L144)/2
 992 075c C900     		.2byte	(.L141-.L144)/2
 993 075e C900     		.2byte	(.L141-.L144)/2
 994 0760 C900     		.2byte	(.L141-.L144)/2
 995 0762 C900     		.2byte	(.L141-.L144)/2
 996 0764 C900     		.2byte	(.L141-.L144)/2
 997 0766 C900     		.2byte	(.L141-.L144)/2
 998 0768 C900     		.2byte	(.L141-.L144)/2
 999 076a C900     		.2byte	(.L141-.L144)/2
 1000 076c C900     		.2byte	(.L141-.L144)/2
 1001 076e C900     		.2byte	(.L141-.L144)/2
 1002 0770 C900     		.2byte	(.L141-.L144)/2
 1003 0772 C900     		.2byte	(.L141-.L144)/2
 1004 0774 C900     		.2byte	(.L141-.L144)/2
 1005 0776 C900     		.2byte	(.L141-.L144)/2
 1006 0778 C900     		.2byte	(.L141-.L144)/2
 1007 077a C900     		.2byte	(.L141-.L144)/2
 1008 077c C900     		.2byte	(.L141-.L144)/2
 1009 077e C900     		.2byte	(.L141-.L144)/2
 1010 0780 C900     		.2byte	(.L141-.L144)/2
 1011 0782 C900     		.2byte	(.L141-.L144)/2
 1012 0784 C900     		.2byte	(.L141-.L144)/2
 1013 0786 5001     		.2byte	(.L155-.L144)/2
 1014 0788 C900     		.2byte	(.L141-.L144)/2
 1015 078a C900     		.2byte	(.L141-.L144)/2
 1016 078c C900     		.2byte	(.L141-.L144)/2
 1017 078e C900     		.2byte	(.L141-.L144)/2
 1018 0790 C900     		.2byte	(.L141-.L144)/2
 1019 0792 C900     		.2byte	(.L141-.L144)/2
 1020 0794 C900     		.2byte	(.L141-.L144)/2
 1021 0796 C900     		.2byte	(.L141-.L144)/2
 1022 0798 C900     		.2byte	(.L141-.L144)/2
 1023 079a C900     		.2byte	(.L141-.L144)/2
 1024 079c CA00     		.2byte	(.L156-.L144)/2
 1025 079e D100     		.2byte	(.L157-.L144)/2
 1026 07a0 D800     		.2byte	(.L158-.L144)/2
 1027 07a2 C300     		.2byte	(.L159-.L144)/2
 1028 07a4 C900     		.2byte	(.L141-.L144)/2
 1029 07a6 C900     		.2byte	(.L141-.L144)/2
 1030 07a8 C900     		.2byte	(.L141-.L144)/2
 1031 07aa C900     		.2byte	(.L141-.L144)/2
 1032 07ac C900     		.2byte	(.L141-.L144)/2
 1033 07ae C900     		.2byte	(.L141-.L144)/2
 1034 07b0 DF00     		.2byte	(.L160-.L144)/2
 1035 07b2 E400     		.2byte	(.L161-.L144)/2
 1036 07b4 C900     		.2byte	(.L141-.L144)/2
 1037 07b6 C900     		.2byte	(.L141-.L144)/2
 1038 07b8 C900     		.2byte	(.L141-.L144)/2
 1039 07ba C900     		.2byte	(.L141-.L144)/2
 1040 07bc C900     		.2byte	(.L141-.L144)/2
 1041 07be C900     		.2byte	(.L141-.L144)/2
 1042 07c0 C900     		.2byte	(.L141-.L144)/2
 1043 07c2 C900     		.2byte	(.L141-.L144)/2
 1044 07c4 5B01     		.2byte	(.L162-.L144)/2
 1045 07c6 5B01     		.2byte	(.L162-.L144)/2
 1046 07c8 5B01     		.2byte	(.L162-.L144)/2
 1047 07ca 5B01     		.2byte	(.L162-.L144)/2
 1048 07cc C900     		.2byte	(.L141-.L144)/2
 1049 07ce C900     		.2byte	(.L141-.L144)/2
 1050 07d0 C900     		.2byte	(.L141-.L144)/2
 1051 07d2 C900     		.2byte	(.L141-.L144)/2
 1052 07d4 C900     		.2byte	(.L141-.L144)/2
 1053 07d6 C900     		.2byte	(.L141-.L144)/2
 1054 07d8 C900     		.2byte	(.L141-.L144)/2
 1055 07da 3C01     		.2byte	(.L163-.L144)/2
 1056 07dc 4101     		.2byte	(.L164-.L144)/2
 1057 07de 4601     		.2byte	(.L165-.L144)/2
 1058 07e0 4B01     		.2byte	(.L166-.L144)/2
 1059              		.p2align 1
 1060              	.L159:
 1061 07e2 8068     		ldr	r0, [r0, #8]
 1062 07e4 FFF7FEFF 		bl	atoi
 1063 07e8 A083     		strh	r0, [r4, #28]	@ movhi
 1064 07ea 524B     		ldr	r3, .L168
 1065 07ec 1875     		strb	r0, [r3, #20]
 1066              	.L141:
 1067 07ee 10BD     		pop	{r4, pc}
 1068              	.L156:
 1069 07f0 8068     		ldr	r0, [r0, #8]
 1070 07f2 FFF7FEFF 		bl	atoi
 1071 07f6 A083     		strh	r0, [r4, #28]	@ movhi
 1072 07f8 4E4B     		ldr	r3, .L168
 1073 07fa 1876     		strb	r0, [r3, #24]
 1074 07fc F7E7     		b	.L141
 1075              	.L157:
 1076 07fe 8068     		ldr	r0, [r0, #8]
 1077 0800 FFF7FEFF 		bl	atoi
 1078 0804 A083     		strh	r0, [r4, #28]	@ movhi
 1079 0806 4B4B     		ldr	r3, .L168
 1080 0808 5876     		strb	r0, [r3, #25]
 1081 080a F0E7     		b	.L141
 1082              	.L158:
 1083 080c 8068     		ldr	r0, [r0, #8]
 1084 080e FFF7FEFF 		bl	atoi
 1085 0812 A083     		strh	r0, [r4, #28]	@ movhi
 1086 0814 474B     		ldr	r3, .L168
 1087 0816 9876     		strb	r0, [r3, #26]
 1088 0818 E9E7     		b	.L141
 1089              	.L160:
 1090 081a 8068     		ldr	r0, [r0, #8]
 1091 081c FFF7FEFF 		bl	atoi
 1092 0820 A083     		strh	r0, [r4, #28]	@ movhi
 1093 0822 E4E7     		b	.L141
 1094              	.L161:
 1095 0824 8068     		ldr	r0, [r0, #8]
 1096 0826 FFF7FEFF 		bl	atoi
 1097 082a A083     		strh	r0, [r4, #28]	@ movhi
 1098 082c DFE7     		b	.L141
 1099              	.L149:
 1100 082e 8068     		ldr	r0, [r0, #8]
 1101 0830 FFF7FEFF 		bl	atoi
 1102 0834 A083     		strh	r0, [r4, #28]	@ movhi
 1103 0836 DAE7     		b	.L141
 1104              	.L143:
 1105 0838 8068     		ldr	r0, [r0, #8]
 1106 083a FFF7FEFF 		bl	atoi
 1107 083e A083     		strh	r0, [r4, #28]	@ movhi
 1108 0840 3D4B     		ldr	r3, .L168+4
 1109 0842 1870     		strb	r0, [r3]
 1110 0844 D3E7     		b	.L141
 1111              	.L150:
 1112 0846 8068     		ldr	r0, [r0, #8]
 1113 0848 FFF7FEFF 		bl	atoi
 1114 084c A083     		strh	r0, [r4, #28]	@ movhi
 1115 084e 0121     		movs	r1, #1
 1116 0850 2046     		mov	r0, r4
 1117 0852 FFF7FEFF 		bl	system_volume_cb
 1118 0856 CAE7     		b	.L141
 1119              	.L151:
 1120 0858 8068     		ldr	r0, [r0, #8]
 1121 085a FFF7FEFF 		bl	atoi
 1122 085e A083     		strh	r0, [r4, #28]	@ movhi
 1123 0860 0121     		movs	r1, #1
 1124 0862 2046     		mov	r0, r4
 1125 0864 FFF7FEFF 		bl	system_volume_cb
 1126 0868 C1E7     		b	.L141
 1127              	.L145:
 1128 086a 8068     		ldr	r0, [r0, #8]
 1129 086c FFF7FEFF 		bl	atoi
 1130 0870 A083     		strh	r0, [r4, #28]	@ movhi
 1131 0872 BCE7     		b	.L141
 1132              	.L146:
 1133 0874 8068     		ldr	r0, [r0, #8]
 1134 0876 FFF7FEFF 		bl	atoi
 1135 087a A083     		strh	r0, [r4, #28]	@ movhi
 1136 087c 2F4B     		ldr	r3, .L168+8
 1137 087e 1870     		strb	r0, [r3]
 1138 0880 B5E7     		b	.L141
 1139              	.L152:
 1140 0882 8068     		ldr	r0, [r0, #8]
 1141 0884 FFF7FEFF 		bl	atoi
 1142 0888 A083     		strh	r0, [r4, #28]	@ movhi
 1143 088a 0121     		movs	r1, #1
 1144 088c 2046     		mov	r0, r4
 1145 088e FFF7FEFF 		bl	system_volume_cb
 1146 0892 ACE7     		b	.L141
 1147              	.L153:
 1148 0894 8068     		ldr	r0, [r0, #8]
 1149 0896 FFF7FEFF 		bl	atoi
 1150 089a A083     		strh	r0, [r4, #28]	@ movhi
 1151 089c 0121     		movs	r1, #1
 1152 089e 2046     		mov	r0, r4
 1153 08a0 FFF7FEFF 		bl	system_volume_cb
 1154 08a4 A3E7     		b	.L141
 1155              	.L148:
 1156 08a6 8068     		ldr	r0, [r0, #8]
 1157 08a8 FFF7FEFF 		bl	atoi
 1158 08ac A083     		strh	r0, [r4, #28]	@ movhi
 1159 08ae 214B     		ldr	r3, .L168
 1160 08b0 1877     		strb	r0, [r3, #28]
 1161 08b2 9CE7     		b	.L141
 1162              	.L147:
 1163 08b4 8068     		ldr	r0, [r0, #8]
 1164 08b6 FFF7FEFF 		bl	atoi
 1165 08ba A083     		strh	r0, [r4, #28]	@ movhi
 1166 08bc 97E7     		b	.L141
 1167              	.L154:
 1168 08be 8068     		ldr	r0, [r0, #8]
 1169 08c0 FFF7FEFF 		bl	atof
 1170 08c4 FFF7FEFF 		bl	__aeabi_d2iz
 1171 08c8 A083     		strh	r0, [r4, #28]	@ movhi
 1172 08ca 0121     		movs	r1, #1
 1173 08cc 2046     		mov	r0, r4
 1174 08ce FFF7FEFF 		bl	system_volume_cb
 1175 08d2 8CE7     		b	.L141
 1176              	.L163:
 1177 08d4 8068     		ldr	r0, [r0, #8]
 1178 08d6 FFF7FEFF 		bl	atoi
 1179 08da A083     		strh	r0, [r4, #28]	@ movhi
 1180 08dc 87E7     		b	.L141
 1181              	.L164:
 1182 08de 8068     		ldr	r0, [r0, #8]
 1183 08e0 FFF7FEFF 		bl	atoi
 1184 08e4 A083     		strh	r0, [r4, #28]	@ movhi
 1185 08e6 82E7     		b	.L141
 1186              	.L165:
 1187 08e8 8068     		ldr	r0, [r0, #8]
 1188 08ea FFF7FEFF 		bl	atoi
 1189 08ee A083     		strh	r0, [r4, #28]	@ movhi
 1190 08f0 7DE7     		b	.L141
 1191              	.L166:
 1192 08f2 8068     		ldr	r0, [r0, #8]
 1193 08f4 FFF7FEFF 		bl	atoi
 1194 08f8 A083     		strh	r0, [r4, #28]	@ movhi
 1195 08fa 78E7     		b	.L141
 1196              	.L155:
 1197 08fc 8068     		ldr	r0, [r0, #8]
 1198 08fe FFF7FEFF 		bl	atoi
 1199 0902 0F4B     		ldr	r3, .L168+12
 1200 0904 83FB0023 		smull	r2, r3, r3, r0
 1201 0908 C017     		asrs	r0, r0, #31
 1202 090a C0EBE300 		rsb	r0, r0, r3, asr #3
 1203 090e A083     		strh	r0, [r4, #28]	@ movhi
 1204 0910 6DE7     		b	.L141
 1205              	.L162:
 1206 0912 8068     		ldr	r0, [r0, #8]
 1207 0914 FFF7FEFF 		bl	atoi
 1208 0918 0A4B     		ldr	r3, .L168+16
 1209 091a 1870     		strb	r0, [r3]
 1210 091c 6268     		ldr	r2, [r4, #4]
 1211 091e D388     		ldrh	r3, [r2, #6]
 1212 0920 1289     		ldrh	r2, [r2, #8]
 1213 0922 9B1A     		subs	r3, r3, r2
 1214 0924 C0B2     		uxtb	r0, r0
 1215 0926 8342     		cmp	r3, r0
 1216 0928 14BF     		ite	ne
 1217 092a 0023     		movne	r3, #0
 1218 092c 0123     		moveq	r3, #1
 1219 092e A383     		strh	r3, [r4, #28]	@ movhi
 1220 0930 5DE7     		b	.L141
 1221              	.L169:
 1222 0932 00BF     		.align	2
 1223              	.L168:
 1224 0934 00000000 		.word	.LANCHOR1
 1225 0938 00000000 		.word	sl_in
 1226 093c 00000000 		.word	sl_out
 1227 0940 1F85EB51 		.word	1374389535
 1228 0944 00000000 		.word	.LANCHOR0
 1230              		.align	1
 1231              		.global	system_stage_cb
 1232              		.syntax unified
 1233              		.thumb
 1234              		.thumb_func
 1235              		.fpu softvfp
 1237              	system_stage_cb:
 1238              		@ args = 0, pretend = 0, frame = 8
 1239              		@ frame_needed = 0, uses_anonymous_args = 0
 1240 0948 0029     		cmp	r1, #0
 1241 094a 4CD1     		bne	.L181
 1242 094c F0B5     		push	{r4, r5, r6, r7, lr}
 1243 094e 83B0     		sub	sp, sp, #12
 1244 0950 254B     		ldr	r3, .L184
 1245 0952 1B68     		ldr	r3, [r3]
 1246 0954 ADF80430 		strh	r3, [sp, #4]	@ movhi
 1247 0958 1B0C     		lsrs	r3, r3, #16
 1248 095a 8DF80630 		strb	r3, [sp, #6]
 1249 095e 4368     		ldr	r3, [r0, #4]
 1250 0960 DA88     		ldrh	r2, [r3, #6]
 1251 0962 D92A     		cmp	r2, #217
 1252 0964 02D0     		beq	.L172
 1253 0966 1B89     		ldrh	r3, [r3, #8]
 1254 0968 D92B     		cmp	r3, #217
 1255 096a 02D1     		bne	.L173
 1256              	.L172:
 1257 096c 3223     		movs	r3, #50
 1258 096e 8DF80430 		strb	r3, [sp, #4]
 1259              	.L173:
 1260 0972 0546     		mov	r5, r0
 1261 0974 0221     		movs	r1, #2
 1262 0976 1D48     		ldr	r0, .L184+4
 1263 0978 FFF7FEFF 		bl	cli_command
 1264 097c 0221     		movs	r1, #2
 1265 097e 01A8     		add	r0, sp, #4
 1266 0980 FFF7FEFF 		bl	cli_command
 1267 0984 0221     		movs	r1, #2
 1268 0986 1A48     		ldr	r0, .L184+8
 1269 0988 FFF7FEFF 		bl	cli_command
 1270 098c 6A68     		ldr	r2, [r5, #4]
 1271 098e D388     		ldrh	r3, [r2, #6]
 1272 0990 D42B     		cmp	r3, #212
 1273 0992 01D0     		beq	.L174
 1274 0994 D92B     		cmp	r3, #217
 1275 0996 20D1     		bne	.L175
 1276              	.L174:
 1277 0998 0121     		movs	r1, #1
 1278 099a 0020     		movs	r0, #0
 1279 099c FFF7FEFF 		bl	cli_command
 1280 09a0 0746     		mov	r7, r0
 1281 09a2 2B7B     		ldrb	r3, [r5, #12]	@ zero_extendqisi2
 1282 09a4 012B     		cmp	r3, #1
 1283 09a6 1CD9     		bls	.L170
 1284 09a8 0124     		movs	r4, #1
 1285 09aa 04E0     		b	.L178
 1286              	.L177:
 1287 09ac 0134     		adds	r4, r4, #1
 1288 09ae E4B2     		uxtb	r4, r4
 1289 09b0 2B7B     		ldrb	r3, [r5, #12]	@ zero_extendqisi2
 1290 09b2 A342     		cmp	r3, r4
 1291 09b4 15D9     		bls	.L170
 1292              	.L178:
 1293 09b6 AB68     		ldr	r3, [r5, #8]
 1294 09b8 53F82400 		ldr	r0, [r3, r4, lsl #2]
 1295 09bc FFF7FEFF 		bl	deselect_item
 1296 09c0 AB68     		ldr	r3, [r5, #8]
 1297 09c2 53F82460 		ldr	r6, [r3, r4, lsl #2]
 1298 09c6 3946     		mov	r1, r7
 1299 09c8 3046     		mov	r0, r6
 1300 09ca FFF7FEFF 		bl	strcmp
 1301 09ce 0028     		cmp	r0, #0
 1302 09d0 ECD1     		bne	.L177
 1303 09d2 3046     		mov	r0, r6
 1304 09d4 FFF7FEFF 		bl	select_item
 1305 09d8 E8E7     		b	.L177
 1306              	.L175:
 1307 09da 0021     		movs	r1, #0
 1308 09dc 1068     		ldr	r0, [r2]
 1309 09de FFF7FEFF 		bl	cli_command
 1310              	.L170:
 1311 09e2 03B0     		add	sp, sp, #12
 1312              		@ sp needed
 1313 09e4 F0BD     		pop	{r4, r5, r6, r7, pc}
 1314              	.L181:
 1315 09e6 7047     		bx	lr
 1316              	.L185:
 1317              		.align	2
 1318              	.L184:
 1319 09e8 00000000 		.word	.LANCHOR2
 1320 09ec 70010000 		.word	.LC23
 1321 09f0 80010000 		.word	.LC24
 1323              		.global	__aeabi_d2f
 1324              		.global	__aeabi_fadd
 1325              		.global	__aeabi_fmul
 1326              		.global	__aeabi_fdiv
 1327              		.align	1
 1328              		.global	system_master_volume_cb
 1329              		.syntax unified
 1330              		.thumb
 1331              		.thumb_func
 1332              		.fpu softvfp
 1334              	system_master_volume_cb:
 1335              		@ args = 0, pretend = 0, frame = 32
 1336              		@ frame_needed = 0, uses_anonymous_args = 0
 1337 09f4 30B5     		push	{r4, r5, lr}
 1338 09f6 89B0     		sub	sp, sp, #36
 1339 09f8 39B1     		cbz	r1, .L187
 1340 09fa 0446     		mov	r4, r0
 1341 09fc 0329     		cmp	r1, #3
 1342 09fe 04D0     		beq	.L187
 1343 0a00 4B1E     		subs	r3, r1, #1
 1344 0a02 012B     		cmp	r3, #1
 1345 0a04 1ED9     		bls	.L199
 1346 0a06 0020     		movs	r0, #0
 1347 0a08 1AE0     		b	.L186
 1348              	.L187:
 1349 0a0a 334B     		ldr	r3, .L200
 1350 0a0c 1A7F     		ldrb	r2, [r3, #28]	@ zero_extendqisi2
 1351 0a0e 334C     		ldr	r4, .L200+4
 1352 0a10 334B     		ldr	r3, .L200+8
 1353 0a12 012A     		cmp	r2, #1
 1354 0a14 88BF     		it	hi
 1355 0a16 1C46     		movhi	r4, r3
 1356 0a18 0221     		movs	r1, #2
 1357 0a1a 3248     		ldr	r0, .L200+12
 1358 0a1c FFF7FEFF 		bl	cli_command
 1359 0a20 0221     		movs	r1, #2
 1360 0a22 2046     		mov	r0, r4
 1361 0a24 FFF7FEFF 		bl	cli_command
 1362 0a28 0221     		movs	r1, #2
 1363 0a2a 2F48     		ldr	r0, .L200+16
 1364 0a2c FFF7FEFF 		bl	cli_command
 1365 0a30 0121     		movs	r1, #1
 1366 0a32 0020     		movs	r0, #0
 1367 0a34 FFF7FEFF 		bl	cli_command
 1368 0a38 FFF7FEFF 		bl	atof
 1369 0a3c FFF7FEFF 		bl	__aeabi_d2f
 1370              	.L186:
 1371 0a40 09B0     		add	sp, sp, #36
 1372              		@ sp needed
 1373 0a42 30BD     		pop	{r4, r5, pc}
 1374              	.L199:
 1375 0a44 244B     		ldr	r3, .L200
 1376 0a46 1B7F     		ldrb	r3, [r3, #28]	@ zero_extendqisi2
 1377 0a48 012B     		cmp	r3, #1
 1378 0a4a 26D0     		beq	.L192
 1379 0a4c 1BB1     		cbz	r3, .L193
 1380 0a4e 022B     		cmp	r3, #2
 1381 0a50 32D0     		beq	.L194
 1382              	.L191:
 1383 0a52 2046     		mov	r0, r4
 1384 0a54 F4E7     		b	.L186
 1385              	.L193:
 1386 0a56 03AD     		add	r5, sp, #12
 1387 0a58 244B     		ldr	r3, .L200+20
 1388 0a5a 0FCB     		ldm	r3, {r0, r1, r2, r3}
 1389 0a5c 85E80F00 		stm	r5, {r0, r1, r2, r3}
 1390 0a60 2349     		ldr	r1, .L200+24
 1391 0a62 2046     		mov	r0, r4
 1392 0a64 FFF7FEFF 		bl	__aeabi_fadd
 1393 0a68 2249     		ldr	r1, .L200+28
 1394 0a6a FFF7FEFF 		bl	__aeabi_fmul
 1395 0a6e 2249     		ldr	r1, .L200+32
 1396 0a70 FFF7FEFF 		bl	__aeabi_fdiv
 1397 0a74 2149     		ldr	r1, .L200+36
 1398 0a76 FFF7FEFF 		bl	__aeabi_fadd
 1399 0a7a FFF7FEFF 		bl	__aeabi_f2iz
 1400 0a7e 0123     		movs	r3, #1
 1401 0a80 0822     		movs	r2, #8
 1402 0a82 01A9     		add	r1, sp, #4
 1403 0a84 FFF7FEFF 		bl	int_to_str
 1404 0a88 01A9     		add	r1, sp, #4
 1405 0a8a 2846     		mov	r0, r5
 1406 0a8c FFF7FEFF 		bl	strcat
 1407 0a90 0021     		movs	r1, #0
 1408 0a92 2846     		mov	r0, r5
 1409 0a94 FFF7FEFF 		bl	cli_command
 1410 0a98 DBE7     		b	.L191
 1411              	.L192:
 1412 0a9a 0221     		movs	r1, #2
 1413 0a9c 1848     		ldr	r0, .L200+40
 1414 0a9e FFF7FEFF 		bl	cli_command
 1415 0aa2 0123     		movs	r3, #1
 1416 0aa4 0822     		movs	r2, #8
 1417 0aa6 01A9     		add	r1, sp, #4
 1418 0aa8 2046     		mov	r0, r4
 1419 0aaa FFF7FEFF 		bl	float_to_str
 1420 0aae 0021     		movs	r1, #0
 1421 0ab0 01A8     		add	r0, sp, #4
 1422 0ab2 FFF7FEFF 		bl	cli_command
 1423 0ab6 CCE7     		b	.L191
 1424              	.L194:
 1425 0ab8 0221     		movs	r1, #2
 1426 0aba 1248     		ldr	r0, .L200+44
 1427 0abc FFF7FEFF 		bl	cli_command
 1428 0ac0 0123     		movs	r3, #1
 1429 0ac2 0822     		movs	r2, #8
 1430 0ac4 01A9     		add	r1, sp, #4
 1431 0ac6 2046     		mov	r0, r4
 1432 0ac8 FFF7FEFF 		bl	float_to_str
 1433 0acc 0021     		movs	r1, #0
 1434 0ace 01A8     		add	r0, sp, #4
 1435 0ad0 FFF7FEFF 		bl	cli_command
 1436 0ad4 BDE7     		b	.L191
 1437              	.L201:
 1438 0ad6 00BF     		.align	2
 1439              	.L200:
 1440 0ad8 00000000 		.word	.LANCHOR1
 1441 0adc 24010000 		.word	.LC16
 1442 0ae0 1C010000 		.word	.LC15
 1443 0ae4 54010000 		.word	.LC19
 1444 0ae8 60010000 		.word	.LC20
 1445 0aec 44010000 		.word	.LC18
 1446 0af0 00006442 		.word	1113849856
 1447 0af4 0000F042 		.word	1123024896
 1448 0af8 00005842 		.word	1113063424
 1449 0afc 00000743 		.word	1124532224
 1450 0b00 88010000 		.word	.LC25
 1451 0b04 A0010000 		.word	.LC26
 1453              		.align	1
 1454              		.global	system_master_vol_link_cb
 1455              		.syntax unified
 1456              		.thumb
 1457              		.thumb_func
 1458              		.fpu softvfp
 1460              	system_master_vol_link_cb:
 1461              		@ args = 0, pretend = 0, frame = 8
 1462              		@ frame_needed = 0, uses_anonymous_args = 0
 1463 0b08 2DE9F041 		push	{r4, r5, r6, r7, r8, lr}
 1464 0b0c 82B0     		sub	sp, sp, #8
 1465 0b0e 0746     		mov	r7, r0
 1466 0b10 0029     		cmp	r1, #0
 1467 0b12 33D1     		bne	.L203
 1468 0b14 214B     		ldr	r3, .L214
 1469 0b16 1B7F     		ldrb	r3, [r3, #28]	@ zero_extendqisi2
 1470 0b18 012B     		cmp	r3, #1
 1471 0b1a 2CD9     		bls	.L213
 1472 0b1c 1F4B     		ldr	r3, .L214
 1473 0b1e 0022     		movs	r2, #0
 1474 0b20 1A77     		strb	r2, [r3, #28]
 1475              	.L205:
 1476 0b22 1F4B     		ldr	r3, .L214+4
 1477 0b24 0193     		str	r3, [sp, #4]
 1478              	.L206:
 1479 0b26 7B68     		ldr	r3, [r7, #4]
 1480 0b28 1968     		ldr	r1, [r3]
 1481 0b2a 3868     		ldr	r0, [r7]
 1482 0b2c FFF7FEFF 		bl	strcpy
 1483 0b30 01A8     		add	r0, sp, #4
 1484 0b32 FFF7FEFF 		bl	strlen
 1485 0b36 0446     		mov	r4, r0
 1486 0b38 3868     		ldr	r0, [r7]
 1487 0b3a FFF7FEFF 		bl	strlen
 1488 0b3e C6B2     		uxtb	r6, r0
 1489 0b40 C6F11F06 		rsb	r6, r6, #31
 1490 0b44 E4B2     		uxtb	r4, r4
 1491 0b46 361B     		subs	r6, r6, r4
 1492 0b48 002E     		cmp	r6, #0
 1493 0b4a 0DDD     		ble	.L209
 1494 0b4c 0024     		movs	r4, #0
 1495 0b4e 154B     		ldr	r3, .L214+8
 1496 0b50 B3F80080 		ldrh	r8, [r3]	@ unaligned
 1497              	.L210:
 1498 0b54 3D68     		ldr	r5, [r7]
 1499 0b56 2846     		mov	r0, r5
 1500 0b58 FFF7FEFF 		bl	strlen
 1501 0b5c 25F80080 		strh	r8, [r5, r0]	@ unaligned
 1502 0b60 0134     		adds	r4, r4, #1
 1503 0b62 E4B2     		uxtb	r4, r4
 1504 0b64 B442     		cmp	r4, r6
 1505 0b66 F5DB     		blt	.L210
 1506              	.L209:
 1507 0b68 01A9     		add	r1, sp, #4
 1508 0b6a 3868     		ldr	r0, [r7]
 1509 0b6c FFF7FEFF 		bl	strcat
 1510 0b70 02B0     		add	sp, sp, #8
 1511              		@ sp needed
 1512 0b72 BDE8F081 		pop	{r4, r5, r6, r7, r8, pc}
 1513              	.L213:
 1514 0b76 0133     		adds	r3, r3, #1
 1515 0b78 084A     		ldr	r2, .L214
 1516 0b7a 1377     		strb	r3, [r2, #28]
 1517              	.L203:
 1518 0b7c 074B     		ldr	r3, .L214
 1519 0b7e 1B7F     		ldrb	r3, [r3, #28]	@ zero_extendqisi2
 1520 0b80 012B     		cmp	r3, #1
 1521 0b82 07D0     		beq	.L207
 1522 0b84 002B     		cmp	r3, #0
 1523 0b86 CCD0     		beq	.L205
 1524 0b88 022B     		cmp	r3, #2
 1525 0b8a CCD1     		bne	.L206
 1526 0b8c 3223     		movs	r3, #50
 1527 0b8e ADF80430 		strh	r3, [sp, #4]	@ movhi
 1528 0b92 C8E7     		b	.L206
 1529              	.L207:
 1530 0b94 3123     		movs	r3, #49
 1531 0b96 ADF80430 		strh	r3, [sp, #4]	@ movhi
 1532 0b9a C4E7     		b	.L206
 1533              	.L215:
 1534              		.align	2
 1535              	.L214:
 1536 0b9c 00000000 		.word	.LANCHOR1
 1537 0ba0 31263200 		.word	3286577
 1538 0ba4 68010000 		.word	.LC21
 1540              		.align	1
 1541              		.global	system_save_gains_cb
 1542              		.syntax unified
 1543              		.thumb
 1544              		.thumb_func
 1545              		.fpu softvfp
 1547              	system_save_gains_cb:
 1548              		@ args = 0, pretend = 0, frame = 0
 1549              		@ frame_needed = 0, uses_anonymous_args = 0
 1550 0ba8 01B1     		cbz	r1, .L222
 1551 0baa 7047     		bx	lr
 1552              	.L222:
 1553 0bac 08B5     		push	{r3, lr}
 1554 0bae 0248     		ldr	r0, .L223
 1555 0bb0 FFF7FEFF 		bl	cli_command
 1556 0bb4 08BD     		pop	{r3, pc}
 1557              	.L224:
 1558 0bb6 00BF     		.align	2
 1559              	.L223:
 1560 0bb8 B8010000 		.word	.LC27
 1562              		.align	1
 1563              		.global	system_banks_cb
 1564              		.syntax unified
 1565              		.thumb
 1566              		.thumb_func
 1567              		.fpu softvfp
 1569              	system_banks_cb:
 1570              		@ args = 0, pretend = 0, frame = 0
 1571              		@ frame_needed = 0, uses_anonymous_args = 0
 1572 0bbc 01B1     		cbz	r1, .L231
 1573 0bbe 7047     		bx	lr
 1574              	.L231:
 1575 0bc0 08B5     		push	{r3, lr}
 1576 0bc2 0121     		movs	r1, #1
 1577 0bc4 0220     		movs	r0, #2
 1578 0bc6 FFF7FEFF 		bl	naveg_toggle_tool
 1579 0bca 08BD     		pop	{r3, pc}
 1581              		.align	1
 1582              		.global	system_display_cb
 1583              		.syntax unified
 1584              		.thumb
 1585              		.thumb_func
 1586              		.fpu softvfp
 1588              	system_display_cb:
 1589              		@ args = 0, pretend = 0, frame = 8
 1590              		@ frame_needed = 0, uses_anonymous_args = 0
 1591 0bcc 2DE9F043 		push	{r4, r5, r6, r7, r8, r9, lr}
 1592 0bd0 83B0     		sub	sp, sp, #12
 1593 0bd2 0746     		mov	r7, r0
 1594 0bd4 8846     		mov	r8, r1
 1595 0bd6 51B9     		cbnz	r1, .L233
 1596 0bd8 284B     		ldr	r3, .L242
 1597 0bda DB6A     		ldr	r3, [r3, #44]
 1598 0bdc 0133     		adds	r3, r3, #1
 1599 0bde 042B     		cmp	r3, #4
 1600 0be0 44DC     		bgt	.L234
 1601 0be2 264A     		ldr	r2, .L242
 1602 0be4 D362     		str	r3, [r2, #44]
 1603              	.L235:
 1604 0be6 254B     		ldr	r3, .L242
 1605 0be8 D86A     		ldr	r0, [r3, #44]
 1606 0bea FFF7FEFF 		bl	hardware_glcd_brightness
 1607              	.L233:
 1608 0bee 234B     		ldr	r3, .L242
 1609 0bf0 B3F92C00 		ldrsh	r0, [r3, #44]
 1610 0bf4 B883     		strh	r0, [r7, #28]	@ movhi
 1611 0bf6 00EB8000 		add	r0, r0, r0, lsl #2
 1612 0bfa 0023     		movs	r3, #0
 1613 0bfc 0822     		movs	r2, #8
 1614 0bfe 6946     		mov	r1, sp
 1615 0c00 00EB8000 		add	r0, r0, r0, lsl #2
 1616 0c04 FFF7FEFF 		bl	int_to_str
 1617 0c08 7B68     		ldr	r3, [r7, #4]
 1618 0c0a 1968     		ldr	r1, [r3]
 1619 0c0c 3868     		ldr	r0, [r7]
 1620 0c0e FFF7FEFF 		bl	strcpy
 1621 0c12 6846     		mov	r0, sp
 1622 0c14 FFF7FEFF 		bl	strlen
 1623 0c18 0646     		mov	r6, r0
 1624 0c1a 3868     		ldr	r0, [r7]
 1625 0c1c FFF7FEFF 		bl	strlen
 1626 0c20 C0B2     		uxtb	r0, r0
 1627 0c22 F6B2     		uxtb	r6, r6
 1628 0c24 C6F11E06 		rsb	r6, r6, #30
 1629 0c28 361A     		subs	r6, r6, r0
 1630 0c2a 002E     		cmp	r6, #0
 1631 0c2c 0DDD     		ble	.L236
 1632 0c2e 0024     		movs	r4, #0
 1633 0c30 134B     		ldr	r3, .L242+4
 1634 0c32 B3F80090 		ldrh	r9, [r3]	@ unaligned
 1635              	.L237:
 1636 0c36 3D68     		ldr	r5, [r7]
 1637 0c38 2846     		mov	r0, r5
 1638 0c3a FFF7FEFF 		bl	strlen
 1639 0c3e 25F80090 		strh	r9, [r5, r0]	@ unaligned
 1640 0c42 0134     		adds	r4, r4, #1
 1641 0c44 E4B2     		uxtb	r4, r4
 1642 0c46 B442     		cmp	r4, r6
 1643 0c48 F5DB     		blt	.L237
 1644              	.L236:
 1645 0c4a 6946     		mov	r1, sp
 1646 0c4c 3868     		ldr	r0, [r7]
 1647 0c4e FFF7FEFF 		bl	strcat
 1648 0c52 3C68     		ldr	r4, [r7]
 1649 0c54 2046     		mov	r0, r4
 1650 0c56 FFF7FEFF 		bl	strlen
 1651 0c5a 0A4B     		ldr	r3, .L242+8
 1652 0c5c 1B88     		ldrh	r3, [r3]	@ unaligned
 1653 0c5e 2352     		strh	r3, [r4, r0]	@ unaligned
 1654 0c60 B8F1000F 		cmp	r8, #0
 1655 0c64 06D0     		beq	.L241
 1656              	.L232:
 1657 0c66 03B0     		add	sp, sp, #12
 1658              		@ sp needed
 1659 0c68 BDE8F083 		pop	{r4, r5, r6, r7, r8, r9, pc}
 1660              	.L234:
 1661 0c6c 034B     		ldr	r3, .L242
 1662 0c6e 0022     		movs	r2, #0
 1663 0c70 DA62     		str	r2, [r3, #44]
 1664 0c72 B8E7     		b	.L235
 1665              	.L241:
 1666 0c74 0120     		movs	r0, #1
 1667 0c76 FFF7FEFF 		bl	naveg_settings_refresh
 1668 0c7a F4E7     		b	.L232
 1669              	.L243:
 1670              		.align	2
 1671              	.L242:
 1672 0c7c 00000000 		.word	.LANCHOR0
 1673 0c80 68010000 		.word	.LC21
 1674 0c84 C8010000 		.word	.LC28
 1676              		.align	1
 1677              		.global	system_sl_in_cb
 1678              		.syntax unified
 1679              		.thumb
 1680              		.thumb_func
 1681              		.fpu softvfp
 1683              	system_sl_in_cb:
 1684              		@ args = 0, pretend = 0, frame = 40
 1685              		@ frame_needed = 0, uses_anonymous_args = 0
 1686 0c88 2DE9F043 		push	{r4, r5, r6, r7, r8, r9, lr}
 1687 0c8c 8BB0     		sub	sp, sp, #44
 1688 0c8e 0646     		mov	r6, r0
 1689 0c90 8946     		mov	r9, r1
 1690 0c92 69B9     		cbnz	r1, .L245
 1691 0c94 B0F91C30 		ldrsh	r3, [r0, #28]
 1692 0c98 002B     		cmp	r3, #0
 1693 0c9a 3AD1     		bne	.L246
 1694 0c9c 0123     		movs	r3, #1
 1695 0c9e 8383     		strh	r3, [r0, #28]	@ movhi
 1696              	.L247:
 1697 0ca0 317F     		ldrb	r1, [r6, #28]	@ zero_extendqisi2
 1698 0ca2 3948     		ldr	r0, .L257
 1699 0ca4 FFF7FEFF 		bl	set_item_value
 1700 0ca8 B6F91C30 		ldrsh	r3, [r6, #28]
 1701 0cac 012B     		cmp	r3, #1
 1702 0cae 33D0     		beq	.L255
 1703              	.L245:
 1704 0cb0 B28B     		ldrh	r2, [r6, #28]
 1705 0cb2 364B     		ldr	r3, .L257+4
 1706 0cb4 1A70     		strb	r2, [r3]
 1707 0cb6 7368     		ldr	r3, [r6, #4]
 1708 0cb8 1968     		ldr	r1, [r3]
 1709 0cba 3068     		ldr	r0, [r6]
 1710 0cbc FFF7FEFF 		bl	strcpy
 1711 0cc0 3068     		ldr	r0, [r6]
 1712 0cc2 FFF7FEFF 		bl	strlen
 1713 0cc6 C0B2     		uxtb	r0, r0
 1714 0cc8 C0F11C07 		rsb	r7, r0, #28
 1715 0ccc 002F     		cmp	r7, #0
 1716 0cce 0DDD     		ble	.L248
 1717 0cd0 0024     		movs	r4, #0
 1718 0cd2 2F4B     		ldr	r3, .L257+8
 1719 0cd4 B3F80080 		ldrh	r8, [r3]	@ unaligned
 1720              	.L249:
 1721 0cd8 3568     		ldr	r5, [r6]
 1722 0cda 2846     		mov	r0, r5
 1723 0cdc FFF7FEFF 		bl	strlen
 1724 0ce0 25F80080 		strh	r8, [r5, r0]	@ unaligned
 1725 0ce4 0134     		adds	r4, r4, #1
 1726 0ce6 E4B2     		uxtb	r4, r4
 1727 0ce8 BC42     		cmp	r4, r7
 1728 0cea F5DB     		blt	.L249
 1729              	.L248:
 1730 0cec 3568     		ldr	r5, [r6]
 1731 0cee B6F91C20 		ldrsh	r2, [r6, #28]
 1732 0cf2 284C     		ldr	r4, .L257+12
 1733 0cf4 284B     		ldr	r3, .L257+16
 1734 0cf6 002A     		cmp	r2, #0
 1735 0cf8 08BF     		it	eq
 1736 0cfa 1C46     		moveq	r4, r3
 1737 0cfc 2846     		mov	r0, r5
 1738 0cfe FFF7FEFF 		bl	strlen
 1739 0d02 2368     		ldr	r3, [r4]
 1740 0d04 2B50     		str	r3, [r5, r0]	@ unaligned
 1741 0d06 B9F1000F 		cmp	r9, #0
 1742 0d0a 34D0     		beq	.L256
 1743              	.L244:
 1744 0d0c 0BB0     		add	sp, sp, #44
 1745              		@ sp needed
 1746 0d0e BDE8F083 		pop	{r4, r5, r6, r7, r8, r9, pc}
 1747              	.L246:
 1748 0d12 0023     		movs	r3, #0
 1749 0d14 8383     		strh	r3, [r0, #28]	@ movhi
 1750 0d16 C3E7     		b	.L247
 1751              	.L255:
 1752 0d18 02AC     		add	r4, sp, #8
 1753 0d1a 204D     		ldr	r5, .L257+20
 1754 0d1c 0FCD     		ldmia	r5!, {r0, r1, r2, r3}
 1755 0d1e 0FC4     		stmia	r4!, {r0, r1, r2, r3}
 1756 0d20 95E80300 		ldm	r5, {r0, r1}
 1757 0d24 44F8040B 		str	r0, [r4], #4
 1758 0d28 24F8021B 		strh	r1, [r4], #2	@ movhi
 1759 0d2c 090C     		lsrs	r1, r1, #16
 1760 0d2e 2170     		strb	r1, [r4]
 1761 0d30 1B4C     		ldr	r4, .L257+24
 1762 0d32 1C49     		ldr	r1, .L257+28
 1763 0d34 2068     		ldr	r0, [r4]	@ float
 1764 0d36 FFF7FEFF 		bl	__aeabi_fadd
 1765 0d3a 1B49     		ldr	r1, .L257+32
 1766 0d3c FFF7FEFF 		bl	__aeabi_fmul
 1767 0d40 1A49     		ldr	r1, .L257+36
 1768 0d42 FFF7FEFF 		bl	__aeabi_fdiv
 1769 0d46 0021     		movs	r1, #0
 1770 0d48 FFF7FEFF 		bl	__aeabi_fadd
 1771 0d4c FFF7FEFF 		bl	__aeabi_f2iz
 1772 0d50 0123     		movs	r3, #1
 1773 0d52 0822     		movs	r2, #8
 1774 0d54 6946     		mov	r1, sp
 1775 0d56 FFF7FEFF 		bl	int_to_str
 1776 0d5a 6946     		mov	r1, sp
 1777 0d5c 02A8     		add	r0, sp, #8
 1778 0d5e FFF7FEFF 		bl	strcat
 1779 0d62 0021     		movs	r1, #0
 1780 0d64 02A8     		add	r0, sp, #8
 1781 0d66 FFF7FEFF 		bl	cli_command
 1782 0d6a 2268     		ldr	r2, [r4]	@ float
 1783 0d6c 6F21     		movs	r1, #111
 1784 0d6e 0120     		movs	r0, #1
 1785 0d70 FFF7FEFF 		bl	naveg_update_gain
 1786 0d74 9CE7     		b	.L245
 1787              	.L256:
 1788 0d76 0021     		movs	r1, #0
 1789 0d78 0D48     		ldr	r0, .L257+40
 1790 0d7a FFF7FEFF 		bl	cli_command
 1791 0d7e 0120     		movs	r0, #1
 1792 0d80 FFF7FEFF 		bl	naveg_settings_refresh
 1793 0d84 C2E7     		b	.L244
 1794              	.L258:
 1795 0d86 00BF     		.align	2
 1796              	.L257:
 1797 0d88 D4010000 		.word	.LC31
 1798 0d8c 00000000 		.word	sl_in
 1799 0d90 68010000 		.word	.LC21
 1800 0d94 CC010000 		.word	.LC29
 1801 0d98 D0010000 		.word	.LC30
 1802 0d9c 2C010000 		.word	.LC17
 1803 0da0 00000000 		.word	.LANCHOR1
 1804 0da4 00004041 		.word	1094713344
 1805 0da8 00004042 		.word	1111490560
 1806 0dac 0000C041 		.word	1103101952
 1807 0db0 B8010000 		.word	.LC27
 1809              		.align	1
 1810              		.global	system_sl_out_cb
 1811              		.syntax unified
 1812              		.thumb
 1813              		.thumb_func
 1814              		.fpu softvfp
 1816              	system_sl_out_cb:
 1817              		@ args = 0, pretend = 0, frame = 40
 1818              		@ frame_needed = 0, uses_anonymous_args = 0
 1819 0db4 2DE9F043 		push	{r4, r5, r6, r7, r8, r9, lr}
 1820 0db8 8BB0     		sub	sp, sp, #44
 1821 0dba 0646     		mov	r6, r0
 1822 0dbc 8946     		mov	r9, r1
 1823 0dbe 69B9     		cbnz	r1, .L260
 1824 0dc0 B0F91C30 		ldrsh	r3, [r0, #28]
 1825 0dc4 002B     		cmp	r3, #0
 1826 0dc6 3AD1     		bne	.L261
 1827 0dc8 0123     		movs	r3, #1
 1828 0dca 8383     		strh	r3, [r0, #28]	@ movhi
 1829              	.L262:
 1830 0dcc 317F     		ldrb	r1, [r6, #28]	@ zero_extendqisi2
 1831 0dce 3548     		ldr	r0, .L272
 1832 0dd0 FFF7FEFF 		bl	set_item_value
 1833 0dd4 B6F91C30 		ldrsh	r3, [r6, #28]
 1834 0dd8 012B     		cmp	r3, #1
 1835 0dda 33D0     		beq	.L270
 1836              	.L260:
 1837 0ddc B28B     		ldrh	r2, [r6, #28]
 1838 0dde 324B     		ldr	r3, .L272+4
 1839 0de0 1A70     		strb	r2, [r3]
 1840 0de2 7368     		ldr	r3, [r6, #4]
 1841 0de4 1968     		ldr	r1, [r3]
 1842 0de6 3068     		ldr	r0, [r6]
 1843 0de8 FFF7FEFF 		bl	strcpy
 1844 0dec 3068     		ldr	r0, [r6]
 1845 0dee FFF7FEFF 		bl	strlen
 1846 0df2 C0B2     		uxtb	r0, r0
 1847 0df4 C0F11C07 		rsb	r7, r0, #28
 1848 0df8 002F     		cmp	r7, #0
 1849 0dfa 0DDD     		ble	.L263
 1850 0dfc 0024     		movs	r4, #0
 1851 0dfe 2B4B     		ldr	r3, .L272+8
 1852 0e00 B3F80080 		ldrh	r8, [r3]	@ unaligned
 1853              	.L264:
 1854 0e04 3568     		ldr	r5, [r6]
 1855 0e06 2846     		mov	r0, r5
 1856 0e08 FFF7FEFF 		bl	strlen
 1857 0e0c 25F80080 		strh	r8, [r5, r0]	@ unaligned
 1858 0e10 0134     		adds	r4, r4, #1
 1859 0e12 E4B2     		uxtb	r4, r4
 1860 0e14 BC42     		cmp	r4, r7
 1861 0e16 F5DB     		blt	.L264
 1862              	.L263:
 1863 0e18 3568     		ldr	r5, [r6]
 1864 0e1a B6F91C20 		ldrsh	r2, [r6, #28]
 1865 0e1e 244C     		ldr	r4, .L272+12
 1866 0e20 244B     		ldr	r3, .L272+16
 1867 0e22 002A     		cmp	r2, #0
 1868 0e24 08BF     		it	eq
 1869 0e26 1C46     		moveq	r4, r3
 1870 0e28 2846     		mov	r0, r5
 1871 0e2a FFF7FEFF 		bl	strlen
 1872 0e2e 2368     		ldr	r3, [r4]
 1873 0e30 2B50     		str	r3, [r5, r0]	@ unaligned
 1874 0e32 B9F1000F 		cmp	r9, #0
 1875 0e36 2DD0     		beq	.L271
 1876              	.L259:
 1877 0e38 0BB0     		add	sp, sp, #44
 1878              		@ sp needed
 1879 0e3a BDE8F083 		pop	{r4, r5, r6, r7, r8, r9, pc}
 1880              	.L261:
 1881 0e3e 0023     		movs	r3, #0
 1882 0e40 8383     		strh	r3, [r0, #28]	@ movhi
 1883 0e42 C3E7     		b	.L262
 1884              	.L270:
 1885 0e44 02AC     		add	r4, sp, #8
 1886 0e46 1C4B     		ldr	r3, .L272+20
 1887 0e48 0FCB     		ldm	r3, {r0, r1, r2, r3}
 1888 0e4a 84E80F00 		stm	r4, {r0, r1, r2, r3}
 1889 0e4e 1B4D     		ldr	r5, .L272+24
 1890 0e50 1B49     		ldr	r1, .L272+28
 1891 0e52 A868     		ldr	r0, [r5, #8]	@ float
 1892 0e54 FFF7FEFF 		bl	__aeabi_fadd
 1893 0e58 1A49     		ldr	r1, .L272+32
 1894 0e5a FFF7FEFF 		bl	__aeabi_fmul
 1895 0e5e 1849     		ldr	r1, .L272+28
 1896 0e60 FFF7FEFF 		bl	__aeabi_fdiv
 1897 0e64 1849     		ldr	r1, .L272+36
 1898 0e66 FFF7FEFF 		bl	__aeabi_fadd
 1899 0e6a FFF7FEFF 		bl	__aeabi_f2iz
 1900 0e6e 0123     		movs	r3, #1
 1901 0e70 0822     		movs	r2, #8
 1902 0e72 6946     		mov	r1, sp
 1903 0e74 FFF7FEFF 		bl	int_to_str
 1904 0e78 6946     		mov	r1, sp
 1905 0e7a 2046     		mov	r0, r4
 1906 0e7c FFF7FEFF 		bl	strcat
 1907 0e80 0021     		movs	r1, #0
 1908 0e82 2046     		mov	r0, r4
 1909 0e84 FFF7FEFF 		bl	cli_command
 1910 0e88 AA68     		ldr	r2, [r5, #8]	@ float
 1911 0e8a 7121     		movs	r1, #113
 1912 0e8c 0120     		movs	r0, #1
 1913 0e8e FFF7FEFF 		bl	naveg_update_gain
 1914 0e92 A3E7     		b	.L260
 1915              	.L271:
 1916 0e94 0021     		movs	r1, #0
 1917 0e96 0D48     		ldr	r0, .L272+40
 1918 0e98 FFF7FEFF 		bl	cli_command
 1919 0e9c 0120     		movs	r0, #1
 1920 0e9e FFF7FEFF 		bl	naveg_settings_refresh
 1921 0ea2 C9E7     		b	.L259
 1922              	.L273:
 1923              		.align	2
 1924              	.L272:
 1925 0ea4 EC010000 		.word	.LC32
 1926 0ea8 00000000 		.word	sl_out
 1927 0eac 68010000 		.word	.LC21
 1928 0eb0 CC010000 		.word	.LC29
 1929 0eb4 D0010000 		.word	.LC30
 1930 0eb8 44010000 		.word	.LC18
 1931 0ebc 00000000 		.word	.LANCHOR1
 1932 0ec0 00007042 		.word	1114636288
 1933 0ec4 0000F042 		.word	1123024896
 1934 0ec8 00000743 		.word	1124532224
 1935 0ecc B8010000 		.word	.LC27
 1937              		.align	1
 1938              		.global	system_tuner_cb
 1939              		.syntax unified
 1940              		.thumb
 1941              		.thumb_func
 1942              		.fpu softvfp
 1944              	system_tuner_cb:
 1945              		@ args = 0, pretend = 0, frame = 0
 1946              		@ frame_needed = 0, uses_anonymous_args = 0
 1947 0ed0 2DE9F843 		push	{r3, r4, r5, r6, r7, r8, r9, lr}
 1948 0ed4 0646     		mov	r6, r0
 1949 0ed6 0F46     		mov	r7, r1
 1950 0ed8 0029     		cmp	r1, #0
 1951 0eda 3ED1     		bne	.L275
 1952 0edc B0F91C30 		ldrsh	r3, [r0, #28]
 1953 0ee0 002B     		cmp	r3, #0
 1954 0ee2 37D1     		bne	.L276
 1955 0ee4 0123     		movs	r3, #1
 1956 0ee6 8383     		strh	r3, [r0, #28]	@ movhi
 1957              	.L277:
 1958 0ee8 317F     		ldrb	r1, [r6, #28]	@ zero_extendqisi2
 1959 0eea 2148     		ldr	r0, .L287
 1960 0eec FFF7FEFF 		bl	set_item_value
 1961              	.L278:
 1962 0ef0 7368     		ldr	r3, [r6, #4]
 1963 0ef2 1968     		ldr	r1, [r3]
 1964 0ef4 3068     		ldr	r0, [r6]
 1965 0ef6 FFF7FEFF 		bl	strcpy
 1966 0efa 3068     		ldr	r0, [r6]
 1967 0efc FFF7FEFF 		bl	strlen
 1968 0f00 C0B2     		uxtb	r0, r0
 1969 0f02 C0F11708 		rsb	r8, r0, #23
 1970 0f06 B8F1000F 		cmp	r8, #0
 1971 0f0a 0DDD     		ble	.L279
 1972 0f0c 0024     		movs	r4, #0
 1973 0f0e 194B     		ldr	r3, .L287+4
 1974 0f10 B3F80090 		ldrh	r9, [r3]	@ unaligned
 1975              	.L280:
 1976 0f14 3568     		ldr	r5, [r6]
 1977 0f16 2846     		mov	r0, r5
 1978 0f18 FFF7FEFF 		bl	strlen
 1979 0f1c 25F80090 		strh	r9, [r5, r0]	@ unaligned
 1980 0f20 0134     		adds	r4, r4, #1
 1981 0f22 E4B2     		uxtb	r4, r4
 1982 0f24 4445     		cmp	r4, r8
 1983 0f26 F5DB     		blt	.L280
 1984              	.L279:
 1985 0f28 3568     		ldr	r5, [r6]
 1986 0f2a B6F91C20 		ldrsh	r2, [r6, #28]
 1987 0f2e 124B     		ldr	r3, .L287+8
 1988 0f30 124C     		ldr	r4, .L287+12
 1989 0f32 002A     		cmp	r2, #0
 1990 0f34 18BF     		it	ne
 1991 0f36 1C46     		movne	r4, r3
 1992 0f38 2846     		mov	r0, r5
 1993 0f3a FFF7FEFF 		bl	strlen
 1994 0f3e 0646     		mov	r6, r0
 1995 0f40 2A18     		adds	r2, r5, r0
 1996 0f42 2346     		mov	r3, r4
 1997 0f44 03CB     		ldmia	r3!, {r0, r1}
 1998 0f46 A851     		str	r0, [r5, r6]	@ unaligned
 1999 0f48 5160     		str	r1, [r2, #4]	@ unaligned
 2000 0f4a 1B78     		ldrb	r3, [r3]	@ zero_extendqisi2
 2001 0f4c 1372     		strb	r3, [r2, #8]
 2002 0f4e 5FB1     		cbz	r7, .L286
 2003              	.L274:
 2004 0f50 BDE8F883 		pop	{r3, r4, r5, r6, r7, r8, r9, pc}
 2005              	.L276:
 2006 0f54 0023     		movs	r3, #0
 2007 0f56 8383     		strh	r3, [r0, #28]	@ movhi
 2008 0f58 C6E7     		b	.L277
 2009              	.L275:
 2010 0f5a 0329     		cmp	r1, #3
 2011 0f5c C8D1     		bne	.L278
 2012 0f5e 0146     		mov	r1, r0
 2013 0f60 0748     		ldr	r0, .L287+16
 2014 0f62 FFF7FEFF 		bl	request_item_value
 2015 0f66 C3E7     		b	.L278
 2016              	.L286:
 2017 0f68 0020     		movs	r0, #0
 2018 0f6a FFF7FEFF 		bl	naveg_settings_refresh
 2019 0f6e EFE7     		b	.L274
 2020              	.L288:
 2021              		.align	2
 2022              	.L287:
 2023 0f70 1C020000 		.word	.LC35
 2024 0f74 68010000 		.word	.LC21
 2025 0f78 04020000 		.word	.LC33
 2026 0f7c 10020000 		.word	.LC34
 2027 0f80 30020000 		.word	.LC36
 2029              		.align	1
 2030              		.global	system_cv_exp_cb
 2031              		.syntax unified
 2032              		.thumb
 2033              		.thumb_func
 2034              		.fpu softvfp
 2036              	system_cv_exp_cb:
 2037              		@ args = 0, pretend = 0, frame = 0
 2038              		@ frame_needed = 0, uses_anonymous_args = 0
 2039 0f84 2DE9F843 		push	{r3, r4, r5, r6, r7, r8, r9, lr}
 2040 0f88 0646     		mov	r6, r0
 2041 0f8a 8946     		mov	r9, r1
 2042 0f8c 31B1     		cbz	r1, .L290
 2043 0f8e 0329     		cmp	r1, #3
 2044 0f90 3BD1     		bne	.L289
 2045 0f92 0146     		mov	r1, r0
 2046 0f94 2148     		ldr	r0, .L303
 2047 0f96 FFF7FEFF 		bl	request_item_value
 2048 0f9a 0BE0     		b	.L293
 2049              	.L290:
 2050 0f9c 837B     		ldrb	r3, [r0, #14]	@ zero_extendqisi2
 2051 0f9e 4BB9     		cbnz	r3, .L293
 2052 0fa0 B0F91C30 		ldrsh	r3, [r0, #28]
 2053 0fa4 002B     		cmp	r3, #0
 2054 0fa6 32D1     		bne	.L294
 2055 0fa8 0123     		movs	r3, #1
 2056 0faa 8383     		strh	r3, [r0, #28]	@ movhi
 2057              	.L295:
 2058 0fac 317F     		ldrb	r1, [r6, #28]	@ zero_extendqisi2
 2059 0fae 1C48     		ldr	r0, .L303+4
 2060 0fb0 FFF7FEFF 		bl	set_item_value
 2061              	.L293:
 2062 0fb4 7368     		ldr	r3, [r6, #4]
 2063 0fb6 1968     		ldr	r1, [r3]
 2064 0fb8 3068     		ldr	r0, [r6]
 2065 0fba FFF7FEFF 		bl	strcpy
 2066 0fbe 3068     		ldr	r0, [r6]
 2067 0fc0 FFF7FEFF 		bl	strlen
 2068 0fc4 C0B2     		uxtb	r0, r0
 2069 0fc6 C0F11C07 		rsb	r7, r0, #28
 2070 0fca 002F     		cmp	r7, #0
 2071 0fcc 0DDD     		ble	.L296
 2072 0fce 0024     		movs	r4, #0
 2073 0fd0 144B     		ldr	r3, .L303+8
 2074 0fd2 B3F80080 		ldrh	r8, [r3]	@ unaligned
 2075              	.L297:
 2076 0fd6 3568     		ldr	r5, [r6]
 2077 0fd8 2846     		mov	r0, r5
 2078 0fda FFF7FEFF 		bl	strlen
 2079 0fde 25F80080 		strh	r8, [r5, r0]	@ unaligned
 2080 0fe2 0134     		adds	r4, r4, #1
 2081 0fe4 E4B2     		uxtb	r4, r4
 2082 0fe6 BC42     		cmp	r4, r7
 2083 0fe8 F5DB     		blt	.L297
 2084              	.L296:
 2085 0fea 3568     		ldr	r5, [r6]
 2086 0fec B6F91C20 		ldrsh	r2, [r6, #28]
 2087 0ff0 0D4C     		ldr	r4, .L303+12
 2088 0ff2 0E4B     		ldr	r3, .L303+16
 2089 0ff4 002A     		cmp	r2, #0
 2090 0ff6 08BF     		it	eq
 2091 0ff8 1C46     		moveq	r4, r3
 2092 0ffa 2846     		mov	r0, r5
 2093 0ffc FFF7FEFF 		bl	strlen
 2094 1000 2368     		ldr	r3, [r4]
 2095 1002 2B50     		str	r3, [r5, r0]	@ unaligned
 2096 1004 B9F1000F 		cmp	r9, #0
 2097 1008 04D0     		beq	.L302
 2098              	.L289:
 2099 100a BDE8F883 		pop	{r3, r4, r5, r6, r7, r8, r9, pc}
 2100              	.L294:
 2101 100e 0023     		movs	r3, #0
 2102 1010 8383     		strh	r3, [r0, #28]	@ movhi
 2103 1012 CBE7     		b	.L295
 2104              	.L302:
 2105 1014 0120     		movs	r0, #1
 2106 1016 FFF7FEFF 		bl	naveg_settings_refresh
 2107 101a F6E7     		b	.L289
 2108              	.L304:
 2109              		.align	2
 2110              	.L303:
 2111 101c 58020000 		.word	.LC40
 2112 1020 48020000 		.word	.LC39
 2113 1024 68010000 		.word	.LC21
 2114 1028 40020000 		.word	.LC37
 2115 102c 44020000 		.word	.LC38
 2117              		.align	1
 2118              		.global	system_cv_hp_cb
 2119              		.syntax unified
 2120              		.thumb
 2121              		.thumb_func
 2122              		.fpu softvfp
 2124              	system_cv_hp_cb:
 2125              		@ args = 0, pretend = 0, frame = 0
 2126              		@ frame_needed = 0, uses_anonymous_args = 0
 2127 1030 2DE9F843 		push	{r3, r4, r5, r6, r7, r8, r9, lr}
 2128 1034 0646     		mov	r6, r0
 2129 1036 8946     		mov	r9, r1
 2130 1038 31B1     		cbz	r1, .L306
 2131 103a 0329     		cmp	r1, #3
 2132 103c 3ED1     		bne	.L305
 2133 103e 0146     		mov	r1, r0
 2134 1040 2348     		ldr	r0, .L319
 2135 1042 FFF7FEFF 		bl	request_item_value
 2136 1046 0BE0     		b	.L309
 2137              	.L306:
 2138 1048 837B     		ldrb	r3, [r0, #14]	@ zero_extendqisi2
 2139 104a 4BB9     		cbnz	r3, .L309
 2140 104c B0F91C30 		ldrsh	r3, [r0, #28]
 2141 1050 002B     		cmp	r3, #0
 2142 1052 35D1     		bne	.L310
 2143 1054 0123     		movs	r3, #1
 2144 1056 8383     		strh	r3, [r0, #28]	@ movhi
 2145              	.L311:
 2146 1058 317F     		ldrb	r1, [r6, #28]	@ zero_extendqisi2
 2147 105a 1E48     		ldr	r0, .L319+4
 2148 105c FFF7FEFF 		bl	set_item_value
 2149              	.L309:
 2150 1060 7368     		ldr	r3, [r6, #4]
 2151 1062 1968     		ldr	r1, [r3]
 2152 1064 3068     		ldr	r0, [r6]
 2153 1066 FFF7FEFF 		bl	strcpy
 2154 106a 3068     		ldr	r0, [r6]
 2155 106c FFF7FEFF 		bl	strlen
 2156 1070 C0B2     		uxtb	r0, r0
 2157 1072 C0F11D07 		rsb	r7, r0, #29
 2158 1076 002F     		cmp	r7, #0
 2159 1078 0DDD     		ble	.L312
 2160 107a 0024     		movs	r4, #0
 2161 107c 164B     		ldr	r3, .L319+8
 2162 107e B3F80080 		ldrh	r8, [r3]	@ unaligned
 2163              	.L313:
 2164 1082 3568     		ldr	r5, [r6]
 2165 1084 2846     		mov	r0, r5
 2166 1086 FFF7FEFF 		bl	strlen
 2167 108a 25F80080 		strh	r8, [r5, r0]	@ unaligned
 2168 108e 0134     		adds	r4, r4, #1
 2169 1090 E4B2     		uxtb	r4, r4
 2170 1092 BC42     		cmp	r4, r7
 2171 1094 F5DB     		blt	.L313
 2172              	.L312:
 2173 1096 3568     		ldr	r5, [r6]
 2174 1098 B6F91C20 		ldrsh	r2, [r6, #28]
 2175 109c 0F4C     		ldr	r4, .L319+12
 2176 109e 104B     		ldr	r3, .L319+16
 2177 10a0 002A     		cmp	r2, #0
 2178 10a2 08BF     		it	eq
 2179 10a4 1C46     		moveq	r4, r3
 2180 10a6 2846     		mov	r0, r5
 2181 10a8 FFF7FEFF 		bl	strlen
 2182 10ac 2B18     		adds	r3, r5, r0
 2183 10ae 2188     		ldrh	r1, [r4]	@ unaligned
 2184 10b0 A278     		ldrb	r2, [r4, #2]	@ zero_extendqisi2
 2185 10b2 2952     		strh	r1, [r5, r0]	@ unaligned
 2186 10b4 9A70     		strb	r2, [r3, #2]
 2187 10b6 B9F1000F 		cmp	r9, #0
 2188 10ba 04D0     		beq	.L318
 2189              	.L305:
 2190 10bc BDE8F883 		pop	{r3, r4, r5, r6, r7, r8, r9, pc}
 2191              	.L310:
 2192 10c0 0023     		movs	r3, #0
 2193 10c2 8383     		strh	r3, [r0, #28]	@ movhi
 2194 10c4 C8E7     		b	.L311
 2195              	.L318:
 2196 10c6 0120     		movs	r0, #1
 2197 10c8 FFF7FEFF 		bl	naveg_settings_refresh
 2198 10cc F6E7     		b	.L305
 2199              	.L320:
 2200 10ce 00BF     		.align	2
 2201              	.L319:
 2202 10d0 7C020000 		.word	.LC44
 2203 10d4 6C020000 		.word	.LC43
 2204 10d8 68010000 		.word	.LC21
 2205 10dc 64020000 		.word	.LC41
 2206 10e0 68020000 		.word	.LC42
 2208              		.align	1
 2209              		.global	system_play_cb
 2210              		.syntax unified
 2211              		.thumb
 2212              		.thumb_func
 2213              		.fpu softvfp
 2215              	system_play_cb:
 2216              		@ args = 0, pretend = 0, frame = 0
 2217              		@ frame_needed = 0, uses_anonymous_args = 0
 2218 10e4 2DE9F843 		push	{r3, r4, r5, r6, r7, r8, r9, lr}
 2219 10e8 0646     		mov	r6, r0
 2220 10ea 0F46     		mov	r7, r1
 2221 10ec 0029     		cmp	r1, #0
 2222 10ee 3ED1     		bne	.L322
 2223 10f0 B0F91C30 		ldrsh	r3, [r0, #28]
 2224 10f4 002B     		cmp	r3, #0
 2225 10f6 37D1     		bne	.L323
 2226 10f8 0123     		movs	r3, #1
 2227 10fa 8383     		strh	r3, [r0, #28]	@ movhi
 2228              	.L324:
 2229 10fc 317F     		ldrb	r1, [r6, #28]	@ zero_extendqisi2
 2230 10fe 2148     		ldr	r0, .L334
 2231 1100 FFF7FEFF 		bl	set_item_value
 2232              	.L325:
 2233 1104 7368     		ldr	r3, [r6, #4]
 2234 1106 1968     		ldr	r1, [r3]
 2235 1108 3068     		ldr	r0, [r6]
 2236 110a FFF7FEFF 		bl	strcpy
 2237 110e 3068     		ldr	r0, [r6]
 2238 1110 FFF7FEFF 		bl	strlen
 2239 1114 C0B2     		uxtb	r0, r0
 2240 1116 C0F11708 		rsb	r8, r0, #23
 2241 111a B8F1000F 		cmp	r8, #0
 2242 111e 0DDD     		ble	.L326
 2243 1120 0024     		movs	r4, #0
 2244 1122 194B     		ldr	r3, .L334+4
 2245 1124 B3F80090 		ldrh	r9, [r3]	@ unaligned
 2246              	.L327:
 2247 1128 3568     		ldr	r5, [r6]
 2248 112a 2846     		mov	r0, r5
 2249 112c FFF7FEFF 		bl	strlen
 2250 1130 25F80090 		strh	r9, [r5, r0]	@ unaligned
 2251 1134 0134     		adds	r4, r4, #1
 2252 1136 E4B2     		uxtb	r4, r4
 2253 1138 4445     		cmp	r4, r8
 2254 113a F5DB     		blt	.L327
 2255              	.L326:
 2256 113c 3568     		ldr	r5, [r6]
 2257 113e B6F91C20 		ldrsh	r2, [r6, #28]
 2258 1142 124B     		ldr	r3, .L334+8
 2259 1144 124C     		ldr	r4, .L334+12
 2260 1146 002A     		cmp	r2, #0
 2261 1148 18BF     		it	ne
 2262 114a 1C46     		movne	r4, r3
 2263 114c 2846     		mov	r0, r5
 2264 114e FFF7FEFF 		bl	strlen
 2265 1152 0646     		mov	r6, r0
 2266 1154 2A18     		adds	r2, r5, r0
 2267 1156 2346     		mov	r3, r4
 2268 1158 03CB     		ldmia	r3!, {r0, r1}
 2269 115a A851     		str	r0, [r5, r6]	@ unaligned
 2270 115c 5160     		str	r1, [r2, #4]	@ unaligned
 2271 115e 1B78     		ldrb	r3, [r3]	@ zero_extendqisi2
 2272 1160 1372     		strb	r3, [r2, #8]
 2273 1162 5FB1     		cbz	r7, .L333
 2274              	.L321:
 2275 1164 BDE8F883 		pop	{r3, r4, r5, r6, r7, r8, r9, pc}
 2276              	.L323:
 2277 1168 0023     		movs	r3, #0
 2278 116a 8383     		strh	r3, [r0, #28]	@ movhi
 2279 116c C6E7     		b	.L324
 2280              	.L322:
 2281 116e 0329     		cmp	r1, #3
 2282 1170 C8D1     		bne	.L325
 2283 1172 0146     		mov	r1, r0
 2284 1174 0748     		ldr	r0, .L334+16
 2285 1176 FFF7FEFF 		bl	request_item_value
 2286 117a C3E7     		b	.L325
 2287              	.L333:
 2288 117c 0020     		movs	r0, #0
 2289 117e FFF7FEFF 		bl	naveg_settings_refresh
 2290 1182 EFE7     		b	.L321
 2291              	.L335:
 2292              		.align	2
 2293              	.L334:
 2294 1184 A0020000 		.word	.LC47
 2295 1188 68010000 		.word	.LC21
 2296 118c 88020000 		.word	.LC45
 2297 1190 94020000 		.word	.LC46
 2298 1194 B4020000 		.word	.LC48
 2300              		.align	1
 2301              		.global	system_midi_src_cb
 2302              		.syntax unified
 2303              		.thumb
 2304              		.thumb_func
 2305              		.fpu softvfp
 2307              	system_midi_src_cb:
 2308              		@ args = 0, pretend = 0, frame = 16
 2309              		@ frame_needed = 0, uses_anonymous_args = 0
 2310 1198 2DE9F043 		push	{r4, r5, r6, r7, r8, r9, lr}
 2311 119c 85B0     		sub	sp, sp, #20
 2312 119e 0646     		mov	r6, r0
 2313 11a0 8846     		mov	r8, r1
 2314 11a2 0029     		cmp	r1, #0
 2315 11a4 3DD1     		bne	.L337
 2316 11a6 B0F91C30 		ldrsh	r3, [r0, #28]
 2317 11aa 012B     		cmp	r3, #1
 2318 11ac D4BF     		ite	le
 2319 11ae 0133     		addle	r3, r3, #1
 2320 11b0 0023     		movgt	r3, #0
 2321 11b2 8383     		strh	r3, [r0, #28]	@ movhi
 2322 11b4 017F     		ldrb	r1, [r0, #28]	@ zero_extendqisi2
 2323 11b6 2A48     		ldr	r0, .L353
 2324 11b8 FFF7FEFF 		bl	set_item_value
 2325              	.L340:
 2326 11bc B6F91C30 		ldrsh	r3, [r6, #28]
 2327 11c0 002B     		cmp	r3, #0
 2328 11c2 35D0     		beq	.L349
 2329 11c4 012B     		cmp	r3, #1
 2330 11c6 39D0     		beq	.L350
 2331 11c8 022B     		cmp	r3, #2
 2332 11ca 3ED0     		beq	.L351
 2333              	.L342:
 2334 11cc 7368     		ldr	r3, [r6, #4]
 2335 11ce 1968     		ldr	r1, [r3]
 2336 11d0 3068     		ldr	r0, [r6]
 2337 11d2 FFF7FEFF 		bl	strcpy
 2338 11d6 6846     		mov	r0, sp
 2339 11d8 FFF7FEFF 		bl	strlen
 2340 11dc 0446     		mov	r4, r0
 2341 11de 3068     		ldr	r0, [r6]
 2342 11e0 FFF7FEFF 		bl	strlen
 2343 11e4 C7B2     		uxtb	r7, r0
 2344 11e6 C7F11F07 		rsb	r7, r7, #31
 2345 11ea E4B2     		uxtb	r4, r4
 2346 11ec 3F1B     		subs	r7, r7, r4
 2347 11ee 002F     		cmp	r7, #0
 2348 11f0 0DDD     		ble	.L344
 2349 11f2 0024     		movs	r4, #0
 2350 11f4 1B4B     		ldr	r3, .L353+4
 2351 11f6 B3F80090 		ldrh	r9, [r3]	@ unaligned
 2352              	.L345:
 2353 11fa 3568     		ldr	r5, [r6]
 2354 11fc 2846     		mov	r0, r5
 2355 11fe FFF7FEFF 		bl	strlen
 2356 1202 25F80090 		strh	r9, [r5, r0]	@ unaligned
 2357 1206 0134     		adds	r4, r4, #1
 2358 1208 E4B2     		uxtb	r4, r4
 2359 120a BC42     		cmp	r4, r7
 2360 120c F5DB     		blt	.L345
 2361              	.L344:
 2362 120e 6946     		mov	r1, sp
 2363 1210 3068     		ldr	r0, [r6]
 2364 1212 FFF7FEFF 		bl	strcat
 2365 1216 B8F1000F 		cmp	r8, #0
 2366 121a 1CD0     		beq	.L352
 2367              	.L336:
 2368 121c 05B0     		add	sp, sp, #20
 2369              		@ sp needed
 2370 121e BDE8F083 		pop	{r4, r5, r6, r7, r8, r9, pc}
 2371              	.L337:
 2372 1222 0329     		cmp	r1, #3
 2373 1224 CAD1     		bne	.L340
 2374 1226 0146     		mov	r1, r0
 2375 1228 0F48     		ldr	r0, .L353+8
 2376 122a FFF7FEFF 		bl	request_item_value
 2377 122e C5E7     		b	.L340
 2378              	.L349:
 2379 1230 0E4A     		ldr	r2, .L353+12
 2380 1232 6B46     		mov	r3, sp
 2381 1234 07CA     		ldm	r2, {r0, r1, r2}
 2382 1236 03C3     		stmia	r3!, {r0, r1}
 2383 1238 1A70     		strb	r2, [r3]
 2384 123a C7E7     		b	.L342
 2385              	.L350:
 2386 123c 0C4B     		ldr	r3, .L353+16
 2387 123e 93E80300 		ldm	r3, {r0, r1}
 2388 1242 0090     		str	r0, [sp]
 2389 1244 8DF80410 		strb	r1, [sp, #4]
 2390 1248 C0E7     		b	.L342
 2391              	.L351:
 2392 124a 0A4B     		ldr	r3, .L353+20
 2393 124c 6C46     		mov	r4, sp
 2394 124e 0FCB     		ldm	r3, {r0, r1, r2, r3}
 2395 1250 07C4     		stmia	r4!, {r0, r1, r2}
 2396 1252 2370     		strb	r3, [r4]
 2397 1254 BAE7     		b	.L342
 2398              	.L352:
 2399 1256 0120     		movs	r0, #1
 2400 1258 FFF7FEFF 		bl	naveg_settings_refresh
 2401 125c DEE7     		b	.L336
 2402              	.L354:
 2403 125e 00BF     		.align	2
 2404              	.L353:
 2405 1260 C4020000 		.word	.LC49
 2406 1264 68010000 		.word	.LC21
 2407 1268 D4020000 		.word	.LC50
 2408 126c E0020000 		.word	.LC51
 2409 1270 EC020000 		.word	.LC52
 2410 1274 F4020000 		.word	.LC53
 2412              		.align	1
 2413              		.global	system_midi_send_cb
 2414              		.syntax unified
 2415              		.thumb
 2416              		.thumb_func
 2417              		.fpu softvfp
 2419              	system_midi_send_cb:
 2420              		@ args = 0, pretend = 0, frame = 0
 2421              		@ frame_needed = 0, uses_anonymous_args = 0
 2422 1278 2DE9F843 		push	{r3, r4, r5, r6, r7, r8, r9, lr}
 2423 127c 0646     		mov	r6, r0
 2424 127e 8946     		mov	r9, r1
 2425 1280 0029     		cmp	r1, #0
 2426 1282 39D1     		bne	.L356
 2427 1284 B0F91C30 		ldrsh	r3, [r0, #28]
 2428 1288 002B     		cmp	r3, #0
 2429 128a 32D1     		bne	.L357
 2430 128c 0123     		movs	r3, #1
 2431 128e 8383     		strh	r3, [r0, #28]	@ movhi
 2432              	.L358:
 2433 1290 317F     		ldrb	r1, [r6, #28]	@ zero_extendqisi2
 2434 1292 1F48     		ldr	r0, .L368
 2435 1294 FFF7FEFF 		bl	set_item_value
 2436              	.L359:
 2437 1298 7368     		ldr	r3, [r6, #4]
 2438 129a 1968     		ldr	r1, [r3]
 2439 129c 3068     		ldr	r0, [r6]
 2440 129e FFF7FEFF 		bl	strcpy
 2441 12a2 3068     		ldr	r0, [r6]
 2442 12a4 FFF7FEFF 		bl	strlen
 2443 12a8 C0B2     		uxtb	r0, r0
 2444 12aa C0F11C07 		rsb	r7, r0, #28
 2445 12ae 002F     		cmp	r7, #0
 2446 12b0 0DDD     		ble	.L360
 2447 12b2 0024     		movs	r4, #0
 2448 12b4 174B     		ldr	r3, .L368+4
 2449 12b6 B3F80080 		ldrh	r8, [r3]	@ unaligned
 2450              	.L361:
 2451 12ba 3568     		ldr	r5, [r6]
 2452 12bc 2846     		mov	r0, r5
 2453 12be FFF7FEFF 		bl	strlen
 2454 12c2 25F80080 		strh	r8, [r5, r0]	@ unaligned
 2455 12c6 0134     		adds	r4, r4, #1
 2456 12c8 E4B2     		uxtb	r4, r4
 2457 12ca BC42     		cmp	r4, r7
 2458 12cc F5DB     		blt	.L361
 2459              	.L360:
 2460 12ce 3568     		ldr	r5, [r6]
 2461 12d0 B6F91C20 		ldrsh	r2, [r6, #28]
 2462 12d4 104C     		ldr	r4, .L368+8
 2463 12d6 114B     		ldr	r3, .L368+12
 2464 12d8 002A     		cmp	r2, #0
 2465 12da 08BF     		it	eq
 2466 12dc 1C46     		moveq	r4, r3
 2467 12de 2846     		mov	r0, r5
 2468 12e0 FFF7FEFF 		bl	strlen
 2469 12e4 2368     		ldr	r3, [r4]
 2470 12e6 2B50     		str	r3, [r5, r0]	@ unaligned
 2471 12e8 B9F1000F 		cmp	r9, #0
 2472 12ec 0BD0     		beq	.L367
 2473              	.L355:
 2474 12ee BDE8F883 		pop	{r3, r4, r5, r6, r7, r8, r9, pc}
 2475              	.L357:
 2476 12f2 0023     		movs	r3, #0
 2477 12f4 8383     		strh	r3, [r0, #28]	@ movhi
 2478 12f6 CBE7     		b	.L358
 2479              	.L356:
 2480 12f8 0329     		cmp	r1, #3
 2481 12fa CDD1     		bne	.L359
 2482 12fc 0146     		mov	r1, r0
 2483 12fe 0848     		ldr	r0, .L368+16
 2484 1300 FFF7FEFF 		bl	request_item_value
 2485 1304 C8E7     		b	.L359
 2486              	.L367:
 2487 1306 0120     		movs	r0, #1
 2488 1308 FFF7FEFF 		bl	naveg_settings_refresh
 2489 130c EFE7     		b	.L355
 2490              	.L369:
 2491 130e 00BF     		.align	2
 2492              	.L368:
 2493 1310 0C030000 		.word	.LC56
 2494 1314 68010000 		.word	.LC21
 2495 1318 04030000 		.word	.LC54
 2496 131c 08030000 		.word	.LC55
 2497 1320 20030000 		.word	.LC57
 2499              		.align	1
 2500              		.global	system_ss_prog_change_cb
 2501              		.syntax unified
 2502              		.thumb
 2503              		.thumb_func
 2504              		.fpu softvfp
 2506              	system_ss_prog_change_cb:
 2507              		@ args = 0, pretend = 0, frame = 8
 2508              		@ frame_needed = 0, uses_anonymous_args = 0
 2509 1324 2DE9F043 		push	{r4, r5, r6, r7, r8, r9, lr}
 2510 1328 83B0     		sub	sp, sp, #12
 2511 132a 0646     		mov	r6, r0
 2512 132c 8846     		mov	r8, r1
 2513 132e 0029     		cmp	r1, #0
 2514 1330 37D0     		beq	.L379
 2515 1332 0329     		cmp	r1, #3
 2516 1334 3AD0     		beq	.L380
 2517              	.L372:
 2518 1336 7368     		ldr	r3, [r6, #4]
 2519 1338 1968     		ldr	r1, [r3]
 2520 133a 3068     		ldr	r0, [r6]
 2521 133c FFF7FEFF 		bl	strcpy
 2522 1340 0023     		movs	r3, #0
 2523 1342 0322     		movs	r2, #3
 2524 1344 6946     		mov	r1, sp
 2525 1346 B6F91C00 		ldrsh	r0, [r6, #28]
 2526 134a FFF7FEFF 		bl	int_to_str
 2527 134e B6F91C30 		ldrsh	r3, [r6, #28]
 2528 1352 002B     		cmp	r3, #0
 2529 1354 35D0     		beq	.L381
 2530              	.L373:
 2531 1356 6846     		mov	r0, sp
 2532 1358 FFF7FEFF 		bl	strlen
 2533 135c 0446     		mov	r4, r0
 2534 135e 3068     		ldr	r0, [r6]
 2535 1360 FFF7FEFF 		bl	strlen
 2536 1364 C7B2     		uxtb	r7, r0
 2537 1366 C7F11F07 		rsb	r7, r7, #31
 2538 136a E4B2     		uxtb	r4, r4
 2539 136c 3F1B     		subs	r7, r7, r4
 2540 136e 002F     		cmp	r7, #0
 2541 1370 0DDD     		ble	.L374
 2542 1372 0024     		movs	r4, #0
 2543 1374 164B     		ldr	r3, .L383
 2544 1376 B3F80090 		ldrh	r9, [r3]	@ unaligned
 2545              	.L375:
 2546 137a 3568     		ldr	r5, [r6]
 2547 137c 2846     		mov	r0, r5
 2548 137e FFF7FEFF 		bl	strlen
 2549 1382 25F80090 		strh	r9, [r5, r0]	@ unaligned
 2550 1386 0134     		adds	r4, r4, #1
 2551 1388 E4B2     		uxtb	r4, r4
 2552 138a BC42     		cmp	r4, r7
 2553 138c F5DB     		blt	.L375
 2554              	.L374:
 2555 138e 6946     		mov	r1, sp
 2556 1390 3068     		ldr	r0, [r6]
 2557 1392 FFF7FEFF 		bl	strcat
 2558 1396 B8F1000F 		cmp	r8, #0
 2559 139a 15D0     		beq	.L382
 2560              	.L370:
 2561 139c 03B0     		add	sp, sp, #12
 2562              		@ sp needed
 2563 139e BDE8F083 		pop	{r4, r5, r6, r7, r8, r9, pc}
 2564              	.L379:
 2565 13a2 017F     		ldrb	r1, [r0, #28]	@ zero_extendqisi2
 2566 13a4 0B48     		ldr	r0, .L383+4
 2567 13a6 FFF7FEFF 		bl	set_item_value
 2568 13aa C4E7     		b	.L372
 2569              	.L380:
 2570 13ac 0146     		mov	r1, r0
 2571 13ae 0A48     		ldr	r0, .L383+8
 2572 13b0 FFF7FEFF 		bl	request_item_value
 2573 13b4 0023     		movs	r3, #0
 2574 13b6 3383     		strh	r3, [r6, #24]	@ movhi
 2575 13b8 1023     		movs	r3, #16
 2576 13ba 7383     		strh	r3, [r6, #26]	@ movhi
 2577 13bc 0123     		movs	r3, #1
 2578 13be F383     		strh	r3, [r6, #30]	@ movhi
 2579 13c0 B9E7     		b	.L372
 2580              	.L381:
 2581 13c2 064B     		ldr	r3, .L383+12
 2582 13c4 0093     		str	r3, [sp]
 2583 13c6 C6E7     		b	.L373
 2584              	.L382:
 2585 13c8 0120     		movs	r0, #1
 2586 13ca FFF7FEFF 		bl	naveg_settings_refresh
 2587 13ce E5E7     		b	.L370
 2588              	.L384:
 2589              		.align	2
 2590              	.L383:
 2591 13d0 68010000 		.word	.LC21
 2592 13d4 34030000 		.word	.LC58
 2593 13d8 4C030000 		.word	.LC59
 2594 13dc 4F464600 		.word	4605519
 2596              		.align	1
 2597              		.global	system_pb_prog_change_cb
 2598              		.syntax unified
 2599              		.thumb
 2600              		.thumb_func
 2601              		.fpu softvfp
 2603              	system_pb_prog_change_cb:
 2604              		@ args = 0, pretend = 0, frame = 8
 2605              		@ frame_needed = 0, uses_anonymous_args = 0
 2606 13e0 2DE9F043 		push	{r4, r5, r6, r7, r8, r9, lr}
 2607 13e4 83B0     		sub	sp, sp, #12
 2608 13e6 0646     		mov	r6, r0
 2609 13e8 8846     		mov	r8, r1
 2610 13ea 0029     		cmp	r1, #0
 2611 13ec 37D0     		beq	.L394
 2612 13ee 0329     		cmp	r1, #3
 2613 13f0 3AD0     		beq	.L395
 2614              	.L387:
 2615 13f2 7368     		ldr	r3, [r6, #4]
 2616 13f4 1968     		ldr	r1, [r3]
 2617 13f6 3068     		ldr	r0, [r6]
 2618 13f8 FFF7FEFF 		bl	strcpy
 2619 13fc 0023     		movs	r3, #0
 2620 13fe 0322     		movs	r2, #3
 2621 1400 6946     		mov	r1, sp
 2622 1402 B6F91C00 		ldrsh	r0, [r6, #28]
 2623 1406 FFF7FEFF 		bl	int_to_str
 2624 140a B6F91C30 		ldrsh	r3, [r6, #28]
 2625 140e 002B     		cmp	r3, #0
 2626 1410 35D0     		beq	.L396
 2627              	.L388:
 2628 1412 6846     		mov	r0, sp
 2629 1414 FFF7FEFF 		bl	strlen
 2630 1418 0446     		mov	r4, r0
 2631 141a 3068     		ldr	r0, [r6]
 2632 141c FFF7FEFF 		bl	strlen
 2633 1420 C7B2     		uxtb	r7, r0
 2634 1422 C7F11F07 		rsb	r7, r7, #31
 2635 1426 E4B2     		uxtb	r4, r4
 2636 1428 3F1B     		subs	r7, r7, r4
 2637 142a 002F     		cmp	r7, #0
 2638 142c 0DDD     		ble	.L389
 2639 142e 0024     		movs	r4, #0
 2640 1430 164B     		ldr	r3, .L398
 2641 1432 B3F80090 		ldrh	r9, [r3]	@ unaligned
 2642              	.L390:
 2643 1436 3568     		ldr	r5, [r6]
 2644 1438 2846     		mov	r0, r5
 2645 143a FFF7FEFF 		bl	strlen
 2646 143e 25F80090 		strh	r9, [r5, r0]	@ unaligned
 2647 1442 0134     		adds	r4, r4, #1
 2648 1444 E4B2     		uxtb	r4, r4
 2649 1446 BC42     		cmp	r4, r7
 2650 1448 F5DB     		blt	.L390
 2651              	.L389:
 2652 144a 6946     		mov	r1, sp
 2653 144c 3068     		ldr	r0, [r6]
 2654 144e FFF7FEFF 		bl	strcat
 2655 1452 B8F1000F 		cmp	r8, #0
 2656 1456 15D0     		beq	.L397
 2657              	.L385:
 2658 1458 03B0     		add	sp, sp, #12
 2659              		@ sp needed
 2660 145a BDE8F083 		pop	{r4, r5, r6, r7, r8, r9, pc}
 2661              	.L394:
 2662 145e 017F     		ldrb	r1, [r0, #28]	@ zero_extendqisi2
 2663 1460 0B48     		ldr	r0, .L398+4
 2664 1462 FFF7FEFF 		bl	set_item_value
 2665 1466 C4E7     		b	.L387
 2666              	.L395:
 2667 1468 0146     		mov	r1, r0
 2668 146a 0A48     		ldr	r0, .L398+8
 2669 146c FFF7FEFF 		bl	request_item_value
 2670 1470 0023     		movs	r3, #0
 2671 1472 3383     		strh	r3, [r6, #24]	@ movhi
 2672 1474 1023     		movs	r3, #16
 2673 1476 7383     		strh	r3, [r6, #26]	@ movhi
 2674 1478 0123     		movs	r3, #1
 2675 147a F383     		strh	r3, [r6, #30]	@ movhi
 2676 147c B9E7     		b	.L387
 2677              	.L396:
 2678 147e 064B     		ldr	r3, .L398+12
 2679 1480 0093     		str	r3, [sp]
 2680 1482 C6E7     		b	.L388
 2681              	.L397:
 2682 1484 0120     		movs	r0, #1
 2683 1486 FFF7FEFF 		bl	naveg_settings_refresh
 2684 148a E5E7     		b	.L385
 2685              	.L399:
 2686              		.align	2
 2687              	.L398:
 2688 148c 68010000 		.word	.LC21
 2689 1490 60030000 		.word	.LC60
 2690 1494 74030000 		.word	.LC61
 2691 1498 4F464600 		.word	4605519
 2693              		.align	1
 2694              		.global	system_tempo_cb
 2695              		.syntax unified
 2696              		.thumb
 2697              		.thumb_func
 2698              		.fpu softvfp
 2700              	system_tempo_cb:
 2701              		@ args = 0, pretend = 0, frame = 8
 2702              		@ frame_needed = 0, uses_anonymous_args = 0
 2703 149c 2DE9F043 		push	{r4, r5, r6, r7, r8, r9, lr}
 2704 14a0 83B0     		sub	sp, sp, #12
 2705 14a2 0746     		mov	r7, r0
 2706 14a4 8846     		mov	r8, r1
 2707 14a6 0029     		cmp	r1, #0
 2708 14a8 3ED0     		beq	.L408
 2709 14aa 0329     		cmp	r1, #3
 2710 14ac 41D0     		beq	.L409
 2711              	.L402:
 2712 14ae 7B68     		ldr	r3, [r7, #4]
 2713 14b0 1968     		ldr	r1, [r3]
 2714 14b2 3868     		ldr	r0, [r7]
 2715 14b4 FFF7FEFF 		bl	strcpy
 2716 14b8 0023     		movs	r3, #0
 2717 14ba 0822     		movs	r2, #8
 2718 14bc 6946     		mov	r1, sp
 2719 14be B7F91C00 		ldrsh	r0, [r7, #28]
 2720 14c2 FFF7FEFF 		bl	int_to_str
 2721 14c6 6846     		mov	r0, sp
 2722 14c8 FFF7FEFF 		bl	strlen
 2723 14cc 0646     		mov	r6, r0
 2724 14ce 3868     		ldr	r0, [r7]
 2725 14d0 FFF7FEFF 		bl	strlen
 2726 14d4 C0B2     		uxtb	r0, r0
 2727 14d6 F6B2     		uxtb	r6, r6
 2728 14d8 C6F11B06 		rsb	r6, r6, #27
 2729 14dc 361A     		subs	r6, r6, r0
 2730 14de 002E     		cmp	r6, #0
 2731 14e0 0DDD     		ble	.L403
 2732 14e2 0024     		movs	r4, #0
 2733 14e4 1A4B     		ldr	r3, .L411
 2734 14e6 B3F80090 		ldrh	r9, [r3]	@ unaligned
 2735              	.L404:
 2736 14ea 3D68     		ldr	r5, [r7]
 2737 14ec 2846     		mov	r0, r5
 2738 14ee FFF7FEFF 		bl	strlen
 2739 14f2 25F80090 		strh	r9, [r5, r0]	@ unaligned
 2740 14f6 0134     		adds	r4, r4, #1
 2741 14f8 E4B2     		uxtb	r4, r4
 2742 14fa B442     		cmp	r4, r6
 2743 14fc F5DB     		blt	.L404
 2744              	.L403:
 2745 14fe 6946     		mov	r1, sp
 2746 1500 3868     		ldr	r0, [r7]
 2747 1502 FFF7FEFF 		bl	strcat
 2748 1506 3C68     		ldr	r4, [r7]
 2749 1508 2046     		mov	r0, r4
 2750 150a FFF7FEFF 		bl	strlen
 2751 150e 0246     		mov	r2, r0
 2752 1510 2118     		adds	r1, r4, r0
 2753 1512 104B     		ldr	r3, .L411+4
 2754 1514 1868     		ldr	r0, [r3]
 2755 1516 A050     		str	r0, [r4, r2]	@ unaligned
 2756 1518 1B79     		ldrb	r3, [r3, #4]	@ zero_extendqisi2
 2757 151a 0B71     		strb	r3, [r1, #4]
 2758 151c B8F1000F 		cmp	r8, #0
 2759 1520 12D0     		beq	.L410
 2760              	.L400:
 2761 1522 03B0     		add	sp, sp, #12
 2762              		@ sp needed
 2763 1524 BDE8F083 		pop	{r4, r5, r6, r7, r8, r9, pc}
 2764              	.L408:
 2765 1528 017F     		ldrb	r1, [r0, #28]	@ zero_extendqisi2
 2766 152a 0B48     		ldr	r0, .L411+8
 2767 152c FFF7FEFF 		bl	set_item_value
 2768 1530 BDE7     		b	.L402
 2769              	.L409:
 2770 1532 0146     		mov	r1, r0
 2771 1534 0948     		ldr	r0, .L411+12
 2772 1536 FFF7FEFF 		bl	request_item_value
 2773 153a 1423     		movs	r3, #20
 2774 153c 3B83     		strh	r3, [r7, #24]	@ movhi
 2775 153e DC23     		movs	r3, #220
 2776 1540 7B83     		strh	r3, [r7, #26]	@ movhi
 2777 1542 0123     		movs	r3, #1
 2778 1544 FB83     		strh	r3, [r7, #30]	@ movhi
 2779 1546 B2E7     		b	.L402
 2780              	.L410:
 2781 1548 0120     		movs	r0, #1
 2782 154a FFF7FEFF 		bl	naveg_settings_refresh
 2783 154e E8E7     		b	.L400
 2784              	.L412:
 2785              		.align	2
 2786              	.L411:
 2787 1550 68010000 		.word	.LC21
 2788 1554 A8030000 		.word	.LC64
 2789 1558 84030000 		.word	.LC62
 2790 155c 98030000 		.word	.LC63
 2792              		.align	1
 2793              		.global	system_bpb_cb
 2794              		.syntax unified
 2795              		.thumb
 2796              		.thumb_func
 2797              		.fpu softvfp
 2799              	system_bpb_cb:
 2800              		@ args = 0, pretend = 0, frame = 8
 2801              		@ frame_needed = 0, uses_anonymous_args = 0
 2802 1560 2DE9F043 		push	{r4, r5, r6, r7, r8, r9, lr}
 2803 1564 83B0     		sub	sp, sp, #12
 2804 1566 0746     		mov	r7, r0
 2805 1568 8846     		mov	r8, r1
 2806 156a 0029     		cmp	r1, #0
 2807 156c 3DD0     		beq	.L421
 2808 156e 0329     		cmp	r1, #3
 2809 1570 40D0     		beq	.L422
 2810              	.L415:
 2811 1572 7B68     		ldr	r3, [r7, #4]
 2812 1574 1968     		ldr	r1, [r3]
 2813 1576 3868     		ldr	r0, [r7]
 2814 1578 FFF7FEFF 		bl	strcpy
 2815 157c 0023     		movs	r3, #0
 2816 157e 0822     		movs	r2, #8
 2817 1580 6946     		mov	r1, sp
 2818 1582 B7F91C00 		ldrsh	r0, [r7, #28]
 2819 1586 FFF7FEFF 		bl	int_to_str
 2820 158a 6846     		mov	r0, sp
 2821 158c FFF7FEFF 		bl	strlen
 2822 1590 0646     		mov	r6, r0
 2823 1592 3868     		ldr	r0, [r7]
 2824 1594 FFF7FEFF 		bl	strlen
 2825 1598 C0B2     		uxtb	r0, r0
 2826 159a F6B2     		uxtb	r6, r6
 2827 159c C6F11D06 		rsb	r6, r6, #29
 2828 15a0 361A     		subs	r6, r6, r0
 2829 15a2 002E     		cmp	r6, #0
 2830 15a4 0DDD     		ble	.L416
 2831 15a6 0024     		movs	r4, #0
 2832 15a8 194B     		ldr	r3, .L424
 2833 15aa B3F80090 		ldrh	r9, [r3]	@ unaligned
 2834              	.L417:
 2835 15ae 3D68     		ldr	r5, [r7]
 2836 15b0 2846     		mov	r0, r5
 2837 15b2 FFF7FEFF 		bl	strlen
 2838 15b6 25F80090 		strh	r9, [r5, r0]	@ unaligned
 2839 15ba 0134     		adds	r4, r4, #1
 2840 15bc E4B2     		uxtb	r4, r4
 2841 15be B442     		cmp	r4, r6
 2842 15c0 F5DB     		blt	.L417
 2843              	.L416:
 2844 15c2 6946     		mov	r1, sp
 2845 15c4 3868     		ldr	r0, [r7]
 2846 15c6 FFF7FEFF 		bl	strcat
 2847 15ca 3C68     		ldr	r4, [r7]
 2848 15cc 2046     		mov	r0, r4
 2849 15ce FFF7FEFF 		bl	strlen
 2850 15d2 2218     		adds	r2, r4, r0
 2851 15d4 0F4B     		ldr	r3, .L424+4
 2852 15d6 1988     		ldrh	r1, [r3]	@ unaligned
 2853 15d8 9B78     		ldrb	r3, [r3, #2]	@ zero_extendqisi2
 2854 15da 2152     		strh	r1, [r4, r0]	@ unaligned
 2855 15dc 9370     		strb	r3, [r2, #2]
 2856 15de B8F1000F 		cmp	r8, #0
 2857 15e2 11D0     		beq	.L423
 2858              	.L413:
 2859 15e4 03B0     		add	sp, sp, #12
 2860              		@ sp needed
 2861 15e6 BDE8F083 		pop	{r4, r5, r6, r7, r8, r9, pc}
 2862              	.L421:
 2863 15ea 017F     		ldrb	r1, [r0, #28]	@ zero_extendqisi2
 2864 15ec 0A48     		ldr	r0, .L424+8
 2865 15ee FFF7FEFF 		bl	set_item_value
 2866 15f2 BEE7     		b	.L415
 2867              	.L422:
 2868 15f4 0146     		mov	r1, r0
 2869 15f6 0948     		ldr	r0, .L424+12
 2870 15f8 FFF7FEFF 		bl	request_item_value
 2871 15fc 0123     		movs	r3, #1
 2872 15fe 3B83     		strh	r3, [r7, #24]	@ movhi
 2873 1600 1022     		movs	r2, #16
 2874 1602 7A83     		strh	r2, [r7, #26]	@ movhi
 2875 1604 FB83     		strh	r3, [r7, #30]	@ movhi
 2876 1606 B4E7     		b	.L415
 2877              	.L423:
 2878 1608 0120     		movs	r0, #1
 2879 160a FFF7FEFF 		bl	naveg_settings_refresh
 2880 160e E9E7     		b	.L413
 2881              	.L425:
 2882              		.align	2
 2883              	.L424:
 2884 1610 68010000 		.word	.LC21
 2885 1614 D4030000 		.word	.LC67
 2886 1618 B0030000 		.word	.LC65
 2887 161c C4030000 		.word	.LC66
 2889              		.align	1
 2890              		.global	system_bypass_cb
 2891              		.syntax unified
 2892              		.thumb
 2893              		.thumb_func
 2894              		.fpu softvfp
 2896              	system_bypass_cb:
 2897              		@ args = 0, pretend = 0, frame = 48
 2898              		@ frame_needed = 0, uses_anonymous_args = 0
 2899 1620 2DE9F047 		push	{r4, r5, r6, r7, r8, r9, r10, lr}
 2900 1624 8CB0     		sub	sp, sp, #48
 2901 1626 0646     		mov	r6, r0
 2902 1628 8946     		mov	r9, r1
 2903 162a 0029     		cmp	r1, #0
 2904 162c 40F0BC80 		bne	.L427
 2905 1630 4768     		ldr	r7, [r0, #4]
 2906 1632 FB88     		ldrh	r3, [r7, #6]
 2907 1634 AD2B     		cmp	r3, #173
 2908 1636 13D0     		beq	.L452
 2909 1638 AE2B     		cmp	r3, #174
 2910 163a 6BD0     		beq	.L453
 2911 163c A54A     		ldr	r2, .L462
 2912 163e 1344     		add	r3, r3, r2
 2913 1640 13F8933C 		ldrb	r3, [r3, #-147]	@ zero_extendqisi2
 2914 1644 012B     		cmp	r3, #1
 2915 1646 00F08580 		beq	.L454
 2916 164a 002B     		cmp	r3, #0
 2917 164c 40F08980 		bne	.L436
 2918 1650 0122     		movs	r2, #1
 2919 1652 8283     		strh	r2, [r0, #28]	@ movhi
 2920 1654 F988     		ldrh	r1, [r7, #6]
 2921 1656 9F4B     		ldr	r3, .L462
 2922 1658 0B44     		add	r3, r3, r1
 2923 165a 03F8932C 		strb	r2, [r3, #-147]
 2924 165e 80E0     		b	.L436
 2925              	.L452:
 2926 1660 B0F91C30 		ldrsh	r3, [r0, #28]
 2927 1664 012B     		cmp	r3, #1
 2928 1666 0AD0     		beq	.L455
 2929 1668 93B9     		cbnz	r3, .L430
 2930 166a 0123     		movs	r3, #1
 2931 166c 8383     		strh	r3, [r0, #28]	@ movhi
 2932 166e 994A     		ldr	r2, .L462
 2933 1670 F988     		ldrh	r1, [r7, #6]
 2934 1672 1144     		add	r1, r1, r2
 2935 1674 01F8933C 		strb	r3, [r1, #-147]
 2936 1678 1376     		strb	r3, [r2, #24]
 2937 167a 5376     		strb	r3, [r2, #25]
 2938 167c 08E0     		b	.L430
 2939              	.L455:
 2940 167e 0023     		movs	r3, #0
 2941 1680 8383     		strh	r3, [r0, #28]	@ movhi
 2942 1682 944A     		ldr	r2, .L462
 2943 1684 F988     		ldrh	r1, [r7, #6]
 2944 1686 1144     		add	r1, r1, r2
 2945 1688 01F8933C 		strb	r3, [r1, #-147]
 2946 168c 1376     		strb	r3, [r2, #24]
 2947 168e 5376     		strb	r3, [r2, #25]
 2948              	.L430:
 2949 1690 04AC     		add	r4, sp, #16
 2950 1692 DFF84882 		ldr	r8, .L462+8
 2951 1696 2746     		mov	r7, r4
 2952 1698 4546     		mov	r5, r8
 2953 169a 0FCD     		ldmia	r5!, {r0, r1, r2, r3}
 2954 169c 0FC7     		stmia	r7!, {r0, r1, r2, r3}
 2955 169e 95E80300 		ldm	r5, {r0, r1}
 2956 16a2 47F8040B 		str	r0, [r7], #4
 2957 16a6 3980     		strh	r1, [r7]	@ movhi
 2958 16a8 0023     		movs	r3, #0
 2959 16aa 0822     		movs	r2, #8
 2960 16ac 0DEB0201 		add	r1, sp, r2
 2961 16b0 1846     		mov	r0, r3
 2962 16b2 FFF7FEFF 		bl	int_to_str
 2963 16b6 02A9     		add	r1, sp, #8
 2964 16b8 2046     		mov	r0, r4
 2965 16ba FFF7FEFF 		bl	strcat
 2966 16be 2046     		mov	r0, r4
 2967 16c0 FFF7FEFF 		bl	strlen
 2968 16c4 844B     		ldr	r3, .L462+4
 2969 16c6 B3F800A0 		ldrh	r10, [r3]	@ unaligned
 2970 16ca 24F800A0 		strh	r10, [r4, r0]	@ unaligned
 2971 16ce 317F     		ldrb	r1, [r6, #28]	@ zero_extendqisi2
 2972 16d0 2046     		mov	r0, r4
 2973 16d2 FFF7FEFF 		bl	set_item_value
 2974 16d6 2746     		mov	r7, r4
 2975 16d8 C446     		mov	ip, r8
 2976 16da BCE80F00 		ldmia	ip!, {r0, r1, r2, r3}
 2977 16de 0FC7     		stmia	r7!, {r0, r1, r2, r3}
 2978 16e0 95E80300 		ldm	r5, {r0, r1}
 2979 16e4 47F8040B 		str	r0, [r7], #4
 2980 16e8 3980     		strh	r1, [r7]	@ movhi
 2981 16ea 0023     		movs	r3, #0
 2982 16ec 0822     		movs	r2, #8
 2983 16ee 0DEB0201 		add	r1, sp, r2
 2984 16f2 0120     		movs	r0, #1
 2985 16f4 FFF7FEFF 		bl	int_to_str
 2986 16f8 02A9     		add	r1, sp, #8
 2987 16fa 2046     		mov	r0, r4
 2988 16fc FFF7FEFF 		bl	strcat
 2989 1700 2046     		mov	r0, r4
 2990 1702 FFF7FEFF 		bl	strlen
 2991 1706 24F800A0 		strh	r10, [r4, r0]	@ unaligned
 2992 170a 317F     		ldrb	r1, [r6, #28]	@ zero_extendqisi2
 2993 170c 2046     		mov	r0, r4
 2994 170e FFF7FEFF 		bl	set_item_value
 2995 1712 4BE0     		b	.L431
 2996              	.L453:
 2997 1714 6F4B     		ldr	r3, .L462
 2998 1716 DB7E     		ldrb	r3, [r3, #27]	@ zero_extendqisi2
 2999 1718 012B     		cmp	r3, #1
 3000 171a 0BD0     		beq	.L456
 3001 171c 022B     		cmp	r3, #2
 3002 171e 11D0     		beq	.L457
 3003 1720 002B     		cmp	r3, #0
 3004 1722 43D1     		bne	.L431
 3005 1724 0122     		movs	r2, #1
 3006 1726 8283     		strh	r2, [r0, #28]	@ movhi
 3007 1728 F988     		ldrh	r1, [r7, #6]
 3008 172a 6A4B     		ldr	r3, .L462
 3009 172c 0B44     		add	r3, r3, r1
 3010 172e 03F8932C 		strb	r2, [r3, #-147]
 3011 1732 3BE0     		b	.L431
 3012              	.L456:
 3013 1734 0222     		movs	r2, #2
 3014 1736 8283     		strh	r2, [r0, #28]	@ movhi
 3015 1738 F988     		ldrh	r1, [r7, #6]
 3016 173a 664B     		ldr	r3, .L462
 3017 173c 0B44     		add	r3, r3, r1
 3018 173e 03F8932C 		strb	r2, [r3, #-147]
 3019 1742 33E0     		b	.L431
 3020              	.L457:
 3021 1744 0022     		movs	r2, #0
 3022 1746 8283     		strh	r2, [r0, #28]	@ movhi
 3023 1748 F988     		ldrh	r1, [r7, #6]
 3024 174a 624B     		ldr	r3, .L462
 3025 174c 0B44     		add	r3, r3, r1
 3026 174e 03F8932C 		strb	r2, [r3, #-147]
 3027 1752 2BE0     		b	.L431
 3028              	.L454:
 3029 1754 0022     		movs	r2, #0
 3030 1756 8283     		strh	r2, [r0, #28]	@ movhi
 3031 1758 F988     		ldrh	r1, [r7, #6]
 3032 175a 5E4B     		ldr	r3, .L462
 3033 175c 0B44     		add	r3, r3, r1
 3034 175e 03F8932C 		strb	r2, [r3, #-147]
 3035              	.L436:
 3036 1762 0DF11008 		add	r8, sp, #16
 3037 1766 4446     		mov	r4, r8
 3038 1768 5C4D     		ldr	r5, .L462+8
 3039 176a 0FCD     		ldmia	r5!, {r0, r1, r2, r3}
 3040 176c 0FC4     		stmia	r4!, {r0, r1, r2, r3}
 3041 176e 95E80300 		ldm	r5, {r0, r1}
 3042 1772 44F8040B 		str	r0, [r4], #4
 3043 1776 2180     		strh	r1, [r4]	@ movhi
 3044 1778 F888     		ldrh	r0, [r7, #6]
 3045 177a 0023     		movs	r3, #0
 3046 177c 0822     		movs	r2, #8
 3047 177e 0DEB0201 		add	r1, sp, r2
 3048 1782 AA38     		subs	r0, r0, #170
 3049 1784 FFF7FEFF 		bl	int_to_str
 3050 1788 02A9     		add	r1, sp, #8
 3051 178a 4046     		mov	r0, r8
 3052 178c FFF7FEFF 		bl	strcat
 3053 1790 4046     		mov	r0, r8
 3054 1792 FFF7FEFF 		bl	strlen
 3055 1796 504B     		ldr	r3, .L462+4
 3056 1798 1B88     		ldrh	r3, [r3]	@ unaligned
 3057 179a 28F80030 		strh	r3, [r8, r0]	@ unaligned
 3058 179e 317F     		ldrb	r1, [r6, #28]	@ zero_extendqisi2
 3059 17a0 4046     		mov	r0, r8
 3060 17a2 FFF7FEFF 		bl	set_item_value
 3061 17a6 01E0     		b	.L431
 3062              	.L427:
 3063 17a8 0329     		cmp	r1, #3
 3064 17aa 31D0     		beq	.L458
 3065              	.L431:
 3066 17ac 7368     		ldr	r3, [r6, #4]
 3067 17ae 1968     		ldr	r1, [r3]
 3068 17b0 3068     		ldr	r0, [r6]
 3069 17b2 FFF7FEFF 		bl	strcpy
 3070 17b6 3068     		ldr	r0, [r6]
 3071 17b8 FFF7FEFF 		bl	strlen
 3072 17bc C0B2     		uxtb	r0, r0
 3073 17be C0F11C07 		rsb	r7, r0, #28
 3074 17c2 002F     		cmp	r7, #0
 3075 17c4 0DDD     		ble	.L439
 3076 17c6 0024     		movs	r4, #0
 3077 17c8 434B     		ldr	r3, .L462+4
 3078 17ca B3F80080 		ldrh	r8, [r3]	@ unaligned
 3079              	.L440:
 3080 17ce 3568     		ldr	r5, [r6]
 3081 17d0 2846     		mov	r0, r5
 3082 17d2 FFF7FEFF 		bl	strlen
 3083 17d6 25F80080 		strh	r8, [r5, r0]	@ unaligned
 3084 17da 0134     		adds	r4, r4, #1
 3085 17dc E4B2     		uxtb	r4, r4
 3086 17de BC42     		cmp	r4, r7
 3087 17e0 F5DB     		blt	.L440
 3088              	.L439:
 3089 17e2 7368     		ldr	r3, [r6, #4]
 3090 17e4 DB88     		ldrh	r3, [r3, #6]
 3091 17e6 AE2B     		cmp	r3, #174
 3092 17e8 52D0     		beq	.L459
 3093 17ea 3568     		ldr	r5, [r6]
 3094 17ec B6F91C20 		ldrsh	r2, [r6, #28]
 3095 17f0 3B4C     		ldr	r4, .L462+12
 3096 17f2 3C4B     		ldr	r3, .L462+16
 3097 17f4 002A     		cmp	r2, #0
 3098 17f6 08BF     		it	eq
 3099 17f8 1C46     		moveq	r4, r3
 3100 17fa 2846     		mov	r0, r5
 3101 17fc FFF7FEFF 		bl	strlen
 3102 1800 2368     		ldr	r3, [r4]
 3103 1802 2B50     		str	r3, [r5, r0]	@ unaligned
 3104              	.L446:
 3105 1804 B9F1000F 		cmp	r9, #0
 3106 1808 57D0     		beq	.L460
 3107              	.L426:
 3108 180a 0CB0     		add	sp, sp, #48
 3109              		@ sp needed
 3110 180c BDE8F087 		pop	{r4, r5, r6, r7, r8, r9, r10, pc}
 3111              	.L458:
 3112 1810 4468     		ldr	r4, [r0, #4]
 3113 1812 E288     		ldrh	r2, [r4, #6]
 3114 1814 A2F1AB03 		sub	r3, r2, #171
 3115 1818 9BB2     		uxth	r3, r3
 3116 181a 012B     		cmp	r3, #1
 3117 181c 0FD9     		bls	.L461
 3118 181e AD2A     		cmp	r2, #173
 3119 1820 C4D1     		bne	.L431
 3120 1822 2C4B     		ldr	r3, .L462
 3121 1824 1B7E     		ldrb	r3, [r3, #24]	@ zero_extendqisi2
 3122 1826 5BB3     		cbz	r3, .L438
 3123 1828 2A4B     		ldr	r3, .L462
 3124 182a 5B7E     		ldrb	r3, [r3, #25]	@ zero_extendqisi2
 3125 182c 43B3     		cbz	r3, .L438
 3126 182e 0122     		movs	r2, #1
 3127 1830 8283     		strh	r2, [r0, #28]	@ movhi
 3128 1832 E188     		ldrh	r1, [r4, #6]
 3129 1834 274B     		ldr	r3, .L462
 3130 1836 0B44     		add	r3, r3, r1
 3131 1838 03F8932C 		strb	r2, [r3, #-147]
 3132 183c B6E7     		b	.L431
 3133              	.L461:
 3134 183e 04AD     		add	r5, sp, #16
 3135 1840 294F     		ldr	r7, .L462+20
 3136 1842 0FCF     		ldmia	r7!, {r0, r1, r2, r3}
 3137 1844 0FC5     		stmia	r5!, {r0, r1, r2, r3}
 3138 1846 97E80300 		ldm	r7, {r0, r1}
 3139 184a 45F8040B 		str	r0, [r5], #4
 3140 184e 2980     		strh	r1, [r5]	@ movhi
 3141 1850 E088     		ldrh	r0, [r4, #6]
 3142 1852 0023     		movs	r3, #0
 3143 1854 0822     		movs	r2, #8
 3144 1856 0DEB0201 		add	r1, sp, r2
 3145 185a AB38     		subs	r0, r0, #171
 3146 185c FFF7FEFF 		bl	int_to_str
 3147 1860 02A9     		add	r1, sp, #8
 3148 1862 04A8     		add	r0, sp, #16
 3149 1864 FFF7FEFF 		bl	strcat
 3150 1868 3146     		mov	r1, r6
 3151 186a 04A8     		add	r0, sp, #16
 3152 186c FFF7FEFF 		bl	request_item_value
 3153 1870 7368     		ldr	r3, [r6, #4]
 3154 1872 DA88     		ldrh	r2, [r3, #6]
 3155 1874 174B     		ldr	r3, .L462
 3156 1876 1344     		add	r3, r3, r2
 3157 1878 B28B     		ldrh	r2, [r6, #28]
 3158 187a 03F8932C 		strb	r2, [r3, #-147]
 3159 187e 95E7     		b	.L431
 3160              	.L438:
 3161 1880 0022     		movs	r2, #0
 3162 1882 B283     		strh	r2, [r6, #28]	@ movhi
 3163 1884 E188     		ldrh	r1, [r4, #6]
 3164 1886 134B     		ldr	r3, .L462
 3165 1888 0B44     		add	r3, r3, r1
 3166 188a 03F8932C 		strb	r2, [r3, #-147]
 3167 188e 8DE7     		b	.L431
 3168              	.L459:
 3169 1890 104B     		ldr	r3, .L462
 3170 1892 DB7E     		ldrb	r3, [r3, #27]	@ zero_extendqisi2
 3171 1894 012B     		cmp	r3, #1
 3172 1896 0AD0     		beq	.L443
 3173 1898 33B1     		cbz	r3, .L444
 3174 189a 022B     		cmp	r3, #2
 3175 189c 0AD0     		beq	.L445
 3176              	.L442:
 3177 189e 01A9     		add	r1, sp, #4
 3178 18a0 3068     		ldr	r0, [r6]
 3179 18a2 FFF7FEFF 		bl	strcat
 3180 18a6 ADE7     		b	.L446
 3181              	.L444:
 3182 18a8 104B     		ldr	r3, .L462+24
 3183 18aa 0193     		str	r3, [sp, #4]
 3184 18ac F7E7     		b	.L442
 3185              	.L443:
 3186 18ae 104B     		ldr	r3, .L462+28
 3187 18b0 0193     		str	r3, [sp, #4]
 3188 18b2 F4E7     		b	.L442
 3189              	.L445:
 3190 18b4 0F4B     		ldr	r3, .L462+32
 3191 18b6 0193     		str	r3, [sp, #4]
 3192 18b8 F1E7     		b	.L442
 3193              	.L460:
 3194 18ba 0020     		movs	r0, #0
 3195 18bc FFF7FEFF 		bl	naveg_menu_refresh
 3196 18c0 0020     		movs	r0, #0
 3197 18c2 FFF7FEFF 		bl	naveg_settings_refresh
 3198 18c6 034B     		ldr	r3, .L462
 3199 18c8 DA7E     		ldrb	r2, [r3, #27]	@ zero_extendqisi2
 3200 18ca 597E     		ldrb	r1, [r3, #25]	@ zero_extendqisi2
 3201 18cc 187E     		ldrb	r0, [r3, #24]	@ zero_extendqisi2
 3202 18ce FFF7FEFF 		bl	naveg_bypass_refresh
 3203 18d2 9AE7     		b	.L426
 3204              	.L463:
 3205              		.align	2
 3206              	.L462:
 3207 18d4 00000000 		.word	.LANCHOR1
 3208 18d8 68010000 		.word	.LC21
 3209 18dc D8030000 		.word	.LC68
 3210 18e0 04030000 		.word	.LC54
 3211 18e4 08030000 		.word	.LC55
 3212 18e8 F0030000 		.word	.LC69
 3213 18ec 20203100 		.word	3219488
 3214 18f0 20203200 		.word	3285024
 3215 18f4 31263200 		.word	3286577
 3217              		.align	1
 3218              		.global	system_quick_bypass_cb
 3219              		.syntax unified
 3220              		.thumb
 3221              		.thumb_func
 3222              		.fpu softvfp
 3224              	system_quick_bypass_cb:
 3225              		@ args = 0, pretend = 0, frame = 40
 3226              		@ frame_needed = 0, uses_anonymous_args = 0
 3227 18f8 2DE9F047 		push	{r4, r5, r6, r7, r8, r9, r10, lr}
 3228 18fc 8AB0     		sub	sp, sp, #40
 3229 18fe 0646     		mov	r6, r0
 3230 1900 0F46     		mov	r7, r1
 3231 1902 0029     		cmp	r1, #0
 3232 1904 40F0B280 		bne	.L465
 3233 1908 8D4B     		ldr	r3, .L489
 3234 190a DB7E     		ldrb	r3, [r3, #27]	@ zero_extendqisi2
 3235 190c 012B     		cmp	r3, #1
 3236 190e 2ED0     		beq	.L467
 3237 1910 23B1     		cbz	r3, .L468
 3238 1912 022B     		cmp	r3, #2
 3239 1914 54D0     		beq	.L469
 3240 1916 4FF00009 		mov	r9, #0
 3241 191a ABE0     		b	.L466
 3242              	.L468:
 3243 191c 884A     		ldr	r2, .L489
 3244 191e 147E     		ldrb	r4, [r2, #24]	@ zero_extendqisi2
 3245 1920 B4FA84F9 		clz	r9, r4
 3246 1924 4FEA5919 		lsr	r9, r9, #5
 3247 1928 82F81890 		strb	r9, [r2, #24]
 3248 192c 0DF10808 		add	r8, sp, #8
 3249 1930 4446     		mov	r4, r8
 3250 1932 844D     		ldr	r5, .L489+4
 3251 1934 0FCD     		ldmia	r5!, {r0, r1, r2, r3}
 3252 1936 0FC4     		stmia	r4!, {r0, r1, r2, r3}
 3253 1938 95E80300 		ldm	r5, {r0, r1}
 3254 193c 44F8040B 		str	r0, [r4], #4
 3255 1940 2180     		strh	r1, [r4]	@ movhi
 3256 1942 0023     		movs	r3, #0
 3257 1944 0822     		movs	r2, #8
 3258 1946 6946     		mov	r1, sp
 3259 1948 1846     		mov	r0, r3
 3260 194a FFF7FEFF 		bl	int_to_str
 3261 194e 6946     		mov	r1, sp
 3262 1950 4046     		mov	r0, r8
 3263 1952 FFF7FEFF 		bl	strcat
 3264 1956 4046     		mov	r0, r8
 3265 1958 FFF7FEFF 		bl	strlen
 3266 195c 7A4B     		ldr	r3, .L489+8
 3267 195e 1B88     		ldrh	r3, [r3]	@ unaligned
 3268 1960 28F80030 		strh	r3, [r8, r0]	@ unaligned
 3269 1964 4946     		mov	r1, r9
 3270 1966 4046     		mov	r0, r8
 3271 1968 FFF7FEFF 		bl	set_item_value
 3272 196c 82E0     		b	.L466
 3273              	.L467:
 3274 196e 744A     		ldr	r2, .L489
 3275 1970 547E     		ldrb	r4, [r2, #25]	@ zero_extendqisi2
 3276 1972 B4FA84F9 		clz	r9, r4
 3277 1976 4FEA5919 		lsr	r9, r9, #5
 3278 197a 82F81990 		strb	r9, [r2, #25]
 3279 197e 0DF10808 		add	r8, sp, #8
 3280 1982 4446     		mov	r4, r8
 3281 1984 6F4D     		ldr	r5, .L489+4
 3282 1986 0FCD     		ldmia	r5!, {r0, r1, r2, r3}
 3283 1988 0FC4     		stmia	r4!, {r0, r1, r2, r3}
 3284 198a 95E80300 		ldm	r5, {r0, r1}
 3285 198e 44F8040B 		str	r0, [r4], #4
 3286 1992 2180     		strh	r1, [r4]	@ movhi
 3287 1994 0023     		movs	r3, #0
 3288 1996 0822     		movs	r2, #8
 3289 1998 6946     		mov	r1, sp
 3290 199a 0120     		movs	r0, #1
 3291 199c FFF7FEFF 		bl	int_to_str
 3292 19a0 6946     		mov	r1, sp
 3293 19a2 4046     		mov	r0, r8
 3294 19a4 FFF7FEFF 		bl	strcat
 3295 19a8 4046     		mov	r0, r8
 3296 19aa FFF7FEFF 		bl	strlen
 3297 19ae 664B     		ldr	r3, .L489+8
 3298 19b0 1B88     		ldrh	r3, [r3]	@ unaligned
 3299 19b2 28F80030 		strh	r3, [r8, r0]	@ unaligned
 3300 19b6 4946     		mov	r1, r9
 3301 19b8 4046     		mov	r0, r8
 3302 19ba FFF7FEFF 		bl	set_item_value
 3303 19be 59E0     		b	.L466
 3304              	.L469:
 3305 19c0 5F4B     		ldr	r3, .L489
 3306 19c2 1B7E     		ldrb	r3, [r3, #24]	@ zero_extendqisi2
 3307 19c4 002B     		cmp	r3, #0
 3308 19c6 4ED0     		beq	.L479
 3309 19c8 5D4B     		ldr	r3, .L489
 3310 19ca 5C7E     		ldrb	r4, [r3, #25]	@ zero_extendqisi2
 3311 19cc B4FA84F9 		clz	r9, r4
 3312 19d0 4FEA5919 		lsr	r9, r9, #5
 3313              	.L470:
 3314 19d4 5A4B     		ldr	r3, .L489
 3315 19d6 83F81890 		strb	r9, [r3, #24]
 3316 19da 83F81990 		strb	r9, [r3, #25]
 3317 19de 02AC     		add	r4, sp, #8
 3318 19e0 DFF860A1 		ldr	r10, .L489+4
 3319 19e4 A446     		mov	ip, r4
 3320 19e6 5546     		mov	r5, r10
 3321 19e8 0FCD     		ldmia	r5!, {r0, r1, r2, r3}
 3322 19ea ACE80F00 		stmia	ip!, {r0, r1, r2, r3}
 3323 19ee 95E80300 		ldm	r5, {r0, r1}
 3324 19f2 4CF8040B 		str	r0, [ip], #4
 3325 19f6 ACF80010 		strh	r1, [ip]	@ movhi
 3326 19fa 0023     		movs	r3, #0
 3327 19fc 0822     		movs	r2, #8
 3328 19fe 6946     		mov	r1, sp
 3329 1a00 1846     		mov	r0, r3
 3330 1a02 FFF7FEFF 		bl	int_to_str
 3331 1a06 6946     		mov	r1, sp
 3332 1a08 2046     		mov	r0, r4
 3333 1a0a FFF7FEFF 		bl	strcat
 3334 1a0e 2046     		mov	r0, r4
 3335 1a10 FFF7FEFF 		bl	strlen
 3336 1a14 4C4B     		ldr	r3, .L489+8
 3337 1a16 B3F80080 		ldrh	r8, [r3]	@ unaligned
 3338 1a1a 24F80080 		strh	r8, [r4, r0]	@ unaligned
 3339 1a1e 4946     		mov	r1, r9
 3340 1a20 2046     		mov	r0, r4
 3341 1a22 FFF7FEFF 		bl	set_item_value
 3342 1a26 A446     		mov	ip, r4
 3343 1a28 D646     		mov	lr, r10
 3344 1a2a BEE80F00 		ldmia	lr!, {r0, r1, r2, r3}
 3345 1a2e ACE80F00 		stmia	ip!, {r0, r1, r2, r3}
 3346 1a32 95E80300 		ldm	r5, {r0, r1}
 3347 1a36 4CF8040B 		str	r0, [ip], #4
 3348 1a3a ACF80010 		strh	r1, [ip]	@ movhi
 3349 1a3e 0023     		movs	r3, #0
 3350 1a40 0822     		movs	r2, #8
 3351 1a42 6946     		mov	r1, sp
 3352 1a44 0120     		movs	r0, #1
 3353 1a46 FFF7FEFF 		bl	int_to_str
 3354 1a4a 6946     		mov	r1, sp
 3355 1a4c 2046     		mov	r0, r4
 3356 1a4e FFF7FEFF 		bl	strcat
 3357 1a52 2046     		mov	r0, r4
 3358 1a54 FFF7FEFF 		bl	strlen
 3359 1a58 24F80080 		strh	r8, [r4, r0]	@ unaligned
 3360 1a5c 4946     		mov	r1, r9
 3361 1a5e 2046     		mov	r0, r4
 3362 1a60 FFF7FEFF 		bl	set_item_value
 3363 1a64 06E0     		b	.L466
 3364              	.L479:
 3365 1a66 4FF00109 		mov	r9, #1
 3366 1a6a B3E7     		b	.L470
 3367              	.L465:
 3368 1a6c 0329     		cmp	r1, #3
 3369 1a6e 35D0     		beq	.L487
 3370 1a70 4FF00009 		mov	r9, #0
 3371              	.L466:
 3372 1a74 7368     		ldr	r3, [r6, #4]
 3373 1a76 1968     		ldr	r1, [r3]
 3374 1a78 3068     		ldr	r0, [r6]
 3375 1a7a FFF7FEFF 		bl	strcpy
 3376 1a7e 3068     		ldr	r0, [r6]
 3377 1a80 FFF7FEFF 		bl	strlen
 3378 1a84 C0B2     		uxtb	r0, r0
 3379 1a86 C0F11508 		rsb	r8, r0, #21
 3380 1a8a B8F1000F 		cmp	r8, #0
 3381 1a8e 0DDD     		ble	.L474
 3382 1a90 0024     		movs	r4, #0
 3383 1a92 2D4B     		ldr	r3, .L489+8
 3384 1a94 B3F800A0 		ldrh	r10, [r3]	@ unaligned
 3385              	.L475:
 3386 1a98 3568     		ldr	r5, [r6]
 3387 1a9a 2846     		mov	r0, r5
 3388 1a9c FFF7FEFF 		bl	strlen
 3389 1aa0 25F800A0 		strh	r10, [r5, r0]	@ unaligned
 3390 1aa4 0134     		adds	r4, r4, #1
 3391 1aa6 E4B2     		uxtb	r4, r4
 3392 1aa8 4445     		cmp	r4, r8
 3393 1aaa F5DB     		blt	.L475
 3394              	.L474:
 3395 1aac 3568     		ldr	r5, [r6]
 3396 1aae 274B     		ldr	r3, .L489+12
 3397 1ab0 274C     		ldr	r4, .L489+16
 3398 1ab2 B9F1000F 		cmp	r9, #0
 3399 1ab6 18BF     		it	ne
 3400 1ab8 1C46     		movne	r4, r3
 3401 1aba 2846     		mov	r0, r5
 3402 1abc FFF7FEFF 		bl	strlen
 3403 1ac0 0646     		mov	r6, r0
 3404 1ac2 2A18     		adds	r2, r5, r0
 3405 1ac4 2346     		mov	r3, r4
 3406 1ac6 03CB     		ldmia	r3!, {r0, r1}
 3407 1ac8 A851     		str	r0, [r5, r6]	@ unaligned
 3408 1aca 5160     		str	r1, [r2, #4]	@ unaligned
 3409 1acc 1988     		ldrh	r1, [r3]	@ unaligned
 3410 1ace 9B78     		ldrb	r3, [r3, #2]	@ zero_extendqisi2
 3411 1ad0 1181     		strh	r1, [r2, #8]	@ unaligned
 3412 1ad2 9372     		strb	r3, [r2, #10]
 3413 1ad4 4FB3     		cbz	r7, .L488
 3414              	.L464:
 3415 1ad6 0AB0     		add	sp, sp, #40
 3416              		@ sp needed
 3417 1ad8 BDE8F087 		pop	{r4, r5, r6, r7, r8, r9, r10, pc}
 3418              	.L487:
 3419 1adc 184B     		ldr	r3, .L489
 3420 1ade DB7E     		ldrb	r3, [r3, #27]	@ zero_extendqisi2
 3421 1ae0 012B     		cmp	r3, #1
 3422 1ae2 0DD0     		beq	.L471
 3423 1ae4 23B1     		cbz	r3, .L472
 3424 1ae6 022B     		cmp	r3, #2
 3425 1ae8 12D0     		beq	.L473
 3426 1aea 4FF00009 		mov	r9, #0
 3427 1aee C1E7     		b	.L466
 3428              	.L472:
 3429 1af0 134B     		ldr	r3, .L489
 3430 1af2 1C7E     		ldrb	r4, [r3, #24]	@ zero_extendqisi2
 3431 1af4 14F10009 		adds	r9, r4, #0
 3432 1af8 18BF     		it	ne
 3433 1afa 4FF00109 		movne	r9, #1
 3434 1afe B9E7     		b	.L466
 3435              	.L471:
 3436 1b00 0F4B     		ldr	r3, .L489
 3437 1b02 5C7E     		ldrb	r4, [r3, #25]	@ zero_extendqisi2
 3438 1b04 14F10009 		adds	r9, r4, #0
 3439 1b08 18BF     		it	ne
 3440 1b0a 4FF00109 		movne	r9, #1
 3441 1b0e B1E7     		b	.L466
 3442              	.L473:
 3443 1b10 0B4B     		ldr	r3, .L489
 3444 1b12 93F81890 		ldrb	r9, [r3, #24]	@ zero_extendqisi2
 3445 1b16 B9F1000F 		cmp	r9, #0
 3446 1b1a ABD0     		beq	.L466
 3447 1b1c 5C7E     		ldrb	r4, [r3, #25]	@ zero_extendqisi2
 3448 1b1e 14F10009 		adds	r9, r4, #0
 3449 1b22 18BF     		it	ne
 3450 1b24 4FF00109 		movne	r9, #1
 3451 1b28 A4E7     		b	.L466
 3452              	.L488:
 3453 1b2a 0020     		movs	r0, #0
 3454 1b2c FFF7FEFF 		bl	naveg_settings_refresh
 3455 1b30 034B     		ldr	r3, .L489
 3456 1b32 DA7E     		ldrb	r2, [r3, #27]	@ zero_extendqisi2
 3457 1b34 597E     		ldrb	r1, [r3, #25]	@ zero_extendqisi2
 3458 1b36 187E     		ldrb	r0, [r3, #24]	@ zero_extendqisi2
 3459 1b38 FFF7FEFF 		bl	naveg_bypass_refresh
 3460 1b3c CBE7     		b	.L464
 3461              	.L490:
 3462 1b3e 00BF     		.align	2
 3463              	.L489:
 3464 1b40 00000000 		.word	.LANCHOR1
 3465 1b44 D8030000 		.word	.LC68
 3466 1b48 68010000 		.word	.LC21
 3467 1b4c 08040000 		.word	.LC70
 3468 1b50 14040000 		.word	.LC71
 3470              		.align	1
 3471              		.global	system_load_pro_cb
 3472              		.syntax unified
 3473              		.thumb
 3474              		.thumb_func
 3475              		.fpu softvfp
 3477              	system_load_pro_cb:
 3478              		@ args = 0, pretend = 0, frame = 0
 3479              		@ frame_needed = 0, uses_anonymous_args = 0
 3480 1b54 2DE9F041 		push	{r4, r5, r6, r7, r8, lr}
 3481 1b58 0446     		mov	r4, r0
 3482 1b5a A9B9     		cbnz	r1, .L492
 3483 1b5c 837B     		ldrb	r3, [r0, #14]	@ zero_extendqisi2
 3484 1b5e 23B1     		cbz	r3, .L499
 3485              	.L493:
 3486 1b60 0120     		movs	r0, #1
 3487 1b62 FFF7FEFF 		bl	naveg_settings_refresh
 3488 1b66 BDE8F081 		pop	{r4, r5, r6, r7, r8, pc}
 3489              	.L499:
 3490 1b6a 4268     		ldr	r2, [r0, #4]
 3491 1b6c 9379     		ldrb	r3, [r2, #6]	@ zero_extendqisi2
 3492 1b6e 127A     		ldrb	r2, [r2, #8]	@ zero_extendqisi2
 3493 1b70 9B1A     		subs	r3, r3, r2
 3494 1b72 DBB2     		uxtb	r3, r3
 3495 1b74 1E4A     		ldr	r2, .L501
 3496 1b76 1370     		strb	r3, [r2]
 3497 1b78 8383     		strh	r3, [r0, #28]	@ movhi
 3498 1b7a 0020     		movs	r0, #0
 3499 1b7c FFF7FEFF 		bl	naveg_menu_refresh
 3500 1b80 0120     		movs	r0, #1
 3501 1b82 FFF7FEFF 		bl	naveg_menu_refresh
 3502 1b86 EBE7     		b	.L493
 3503              	.L492:
 3504 1b88 0329     		cmp	r1, #3
 3505 1b8a E9D1     		bne	.L493
 3506 1b8c 184B     		ldr	r3, .L501
 3507 1b8e 1978     		ldrb	r1, [r3]	@ zero_extendqisi2
 3508 1b90 4268     		ldr	r2, [r0, #4]
 3509 1b92 D388     		ldrh	r3, [r2, #6]
 3510 1b94 1089     		ldrh	r0, [r2, #8]
 3511 1b96 1B1A     		subs	r3, r3, r0
 3512 1b98 8B42     		cmp	r3, r1
 3513 1b9a 04D0     		beq	.L500
 3514 1b9c 1168     		ldr	r1, [r2]
 3515 1b9e 2068     		ldr	r0, [r4]
 3516 1ba0 FFF7FEFF 		bl	strcpy
 3517 1ba4 DCE7     		b	.L493
 3518              	.L500:
 3519 1ba6 A183     		strh	r1, [r4, #28]	@ movhi
 3520 1ba8 1168     		ldr	r1, [r2]
 3521 1baa 2068     		ldr	r0, [r4]
 3522 1bac FFF7FEFF 		bl	strcpy
 3523 1bb0 2068     		ldr	r0, [r4]
 3524 1bb2 FFF7FEFF 		bl	strlen
 3525 1bb6 C0B2     		uxtb	r0, r0
 3526 1bb8 C0F11C07 		rsb	r7, r0, #28
 3527 1bbc 002F     		cmp	r7, #0
 3528 1bbe 0DDD     		ble	.L495
 3529 1bc0 0025     		movs	r5, #0
 3530 1bc2 0C4B     		ldr	r3, .L501+4
 3531 1bc4 B3F80080 		ldrh	r8, [r3]	@ unaligned
 3532              	.L496:
 3533 1bc8 2668     		ldr	r6, [r4]
 3534 1bca 3046     		mov	r0, r6
 3535 1bcc FFF7FEFF 		bl	strlen
 3536 1bd0 26F80080 		strh	r8, [r6, r0]	@ unaligned
 3537 1bd4 0135     		adds	r5, r5, #1
 3538 1bd6 EDB2     		uxtb	r5, r5
 3539 1bd8 BD42     		cmp	r5, r7
 3540 1bda F5DB     		blt	.L496
 3541              	.L495:
 3542 1bdc 2468     		ldr	r4, [r4]
 3543 1bde 2046     		mov	r0, r4
 3544 1be0 FFF7FEFF 		bl	strlen
 3545 1be4 0346     		mov	r3, r0
 3546 1be6 044A     		ldr	r2, .L501+8
 3547 1be8 1068     		ldr	r0, [r2]
 3548 1bea E050     		str	r0, [r4, r3]	@ unaligned
 3549 1bec B8E7     		b	.L493
 3550              	.L502:
 3551 1bee 00BF     		.align	2
 3552              	.L501:
 3553 1bf0 00000000 		.word	.LANCHOR0
 3554 1bf4 68010000 		.word	.LC21
 3555 1bf8 04030000 		.word	.LC54
 3557              		.align	1
 3558              		.global	system_save_pro_cb
 3559              		.syntax unified
 3560              		.thumb
 3561              		.thumb_func
 3562              		.fpu softvfp
 3564              	system_save_pro_cb:
 3565              		@ args = 0, pretend = 0, frame = 0
 3566              		@ frame_needed = 0, uses_anonymous_args = 0
 3567 1bfc 2DE9F041 		push	{r4, r5, r6, r7, r8, lr}
 3568 1c00 0546     		mov	r5, r0
 3569 1c02 49B9     		cbnz	r1, .L504
 3570 1c04 837B     		ldrb	r3, [r0, #14]	@ zero_extendqisi2
 3571 1c06 0BB1     		cbz	r3, .L515
 3572              	.L503:
 3573 1c08 BDE8F081 		pop	{r4, r5, r6, r7, r8, pc}
 3574              	.L515:
 3575 1c0c 274B     		ldr	r3, .L516
 3576 1c0e 1978     		ldrb	r1, [r3]	@ zero_extendqisi2
 3577 1c10 2748     		ldr	r0, .L516+4
 3578 1c12 FFF7FEFF 		bl	set_item_value
 3579 1c16 F7E7     		b	.L503
 3580              	.L504:
 3581 1c18 0329     		cmp	r1, #3
 3582 1c1a F5D1     		bne	.L503
 3583 1c1c 4368     		ldr	r3, [r0, #4]
 3584 1c1e 1968     		ldr	r1, [r3]
 3585 1c20 0068     		ldr	r0, [r0]
 3586 1c22 FFF7FEFF 		bl	strcpy
 3587 1c26 2868     		ldr	r0, [r5]
 3588 1c28 FFF7FEFF 		bl	strlen
 3589 1c2c C0B2     		uxtb	r0, r0
 3590 1c2e C0F11C07 		rsb	r7, r0, #28
 3591 1c32 002F     		cmp	r7, #0
 3592 1c34 0DDD     		ble	.L506
 3593 1c36 0024     		movs	r4, #0
 3594 1c38 1E4B     		ldr	r3, .L516+8
 3595 1c3a B3F80080 		ldrh	r8, [r3]	@ unaligned
 3596              	.L507:
 3597 1c3e 2E68     		ldr	r6, [r5]
 3598 1c40 3046     		mov	r0, r6
 3599 1c42 FFF7FEFF 		bl	strlen
 3600 1c46 26F80080 		strh	r8, [r6, r0]	@ unaligned
 3601 1c4a 0134     		adds	r4, r4, #1
 3602 1c4c E4B2     		uxtb	r4, r4
 3603 1c4e BC42     		cmp	r4, r7
 3604 1c50 F5DB     		blt	.L507
 3605              	.L506:
 3606 1c52 164B     		ldr	r3, .L516
 3607 1c54 1B78     		ldrb	r3, [r3]	@ zero_extendqisi2
 3608 1c56 013B     		subs	r3, r3, #1
 3609 1c58 032B     		cmp	r3, #3
 3610 1c5a D5D8     		bhi	.L503
 3611 1c5c DFE803F0 		tbb	[pc, r3]
 3612              	.L509:
 3613 1c60 02       		.byte	(.L508-.L509)/2
 3614 1c61 0B       		.byte	(.L510-.L509)/2
 3615 1c62 14       		.byte	(.L511-.L509)/2
 3616 1c63 1D       		.byte	(.L512-.L509)/2
 3617              		.p2align 1
 3618              	.L508:
 3619 1c64 2C68     		ldr	r4, [r5]
 3620 1c66 2046     		mov	r0, r4
 3621 1c68 FFF7FEFF 		bl	strlen
 3622 1c6c 0346     		mov	r3, r0
 3623 1c6e 124A     		ldr	r2, .L516+12
 3624 1c70 1068     		ldr	r0, [r2]
 3625 1c72 E050     		str	r0, [r4, r3]	@ unaligned
 3626 1c74 C8E7     		b	.L503
 3627              	.L510:
 3628 1c76 2C68     		ldr	r4, [r5]
 3629 1c78 2046     		mov	r0, r4
 3630 1c7a FFF7FEFF 		bl	strlen
 3631 1c7e 0346     		mov	r3, r0
 3632 1c80 0E4A     		ldr	r2, .L516+16
 3633 1c82 1068     		ldr	r0, [r2]
 3634 1c84 E050     		str	r0, [r4, r3]	@ unaligned
 3635 1c86 BFE7     		b	.L503
 3636              	.L511:
 3637 1c88 2C68     		ldr	r4, [r5]
 3638 1c8a 2046     		mov	r0, r4
 3639 1c8c FFF7FEFF 		bl	strlen
 3640 1c90 0346     		mov	r3, r0
 3641 1c92 0B4A     		ldr	r2, .L516+20
 3642 1c94 1068     		ldr	r0, [r2]
 3643 1c96 E050     		str	r0, [r4, r3]	@ unaligned
 3644 1c98 B6E7     		b	.L503
 3645              	.L512:
 3646 1c9a 2C68     		ldr	r4, [r5]
 3647 1c9c 2046     		mov	r0, r4
 3648 1c9e FFF7FEFF 		bl	strlen
 3649 1ca2 0346     		mov	r3, r0
 3650 1ca4 074A     		ldr	r2, .L516+24
 3651 1ca6 1068     		ldr	r0, [r2]
 3652 1ca8 E050     		str	r0, [r4, r3]	@ unaligned
 3653 1caa ADE7     		b	.L503
 3654              	.L517:
 3655              		.align	2
 3656              	.L516:
 3657 1cac 00000000 		.word	.LANCHOR0
 3658 1cb0 20040000 		.word	.LC72
 3659 1cb4 68010000 		.word	.LC21
 3660 1cb8 34040000 		.word	.LC73
 3661 1cbc 38040000 		.word	.LC74
 3662 1cc0 3C040000 		.word	.LC75
 3663 1cc4 40040000 		.word	.LC76
 3665              		.comm	sl_in,1,1
 3666              		.comm	sl_out,1,1
 3667              		.global	current_profile
 3668              		.global	bypass
 3669              		.global	q_bypass
 3670              		.global	master_vol_port
 3671              		.global	gains_volumes
 3672              		.global	versions_names
 3673              		.global	systemctl_services
 3674              		.section	.rodata
 3675              		.align	2
 3676              		.set	.LANCHOR2,. + 0
 3677              	.LC0:
 3678 0000 31       		.byte	49
 3679 0001 20       		.byte	32
 3680 0002 00       		.byte	0
 3681              		.data
 3682              		.align	2
 3683              		.set	.LANCHOR0,. + 0
 3686              	current_profile:
 3687 0000 05       		.byte	5
 3688 0001 000000   		.space	3
 3691              	systemctl_services:
 3692 0004 68040000 		.word	.LC81
 3693 0008 70040000 		.word	.LC82
 3694 000c 78040000 		.word	.LC83
 3695 0010 80040000 		.word	.LC84
 3696 0014 00000000 		.word	0
 3699              	versions_names:
 3700 0018 44040000 		.word	.LC77
 3701 001c 4C040000 		.word	.LC78
 3702 0020 54040000 		.word	.LC79
 3703 0024 5C040000 		.word	.LC80
 3704 0028 00000000 		.word	0
 3707              	level.8792:
 3708 002c 02000000 		.word	2
 3709              		.bss
 3710              		.align	2
 3711              		.set	.LANCHOR1,. + 0
 3714              	gains_volumes:
 3715 0000 00000000 		.space	20
 3715      00000000 
 3715      00000000 
 3715      00000000 
 3715      00000000 
 3718              	q_bypass:
 3719 0014 00       		.space	1
 3720 0015 000000   		.space	3
 3723              	bypass:
 3724 0018 00000000 		.space	4
 3727              	master_vol_port:
 3728 001c 00       		.space	1
 3729              		.section	.rodata.str1.4,"aMS",%progbits,1
 3730              		.align	2
 3731              	.LC1:
 3732 0000 70656461 		.ascii	"pedalboard_save\000"
 3732      6C626F61 
 3732      72645F73 
 3732      61766500 
 3733              	.LC2:
 3734 0010 70656461 		.ascii	"pedalboard_reset\000"
 3734      6C626F61 
 3734      72645F72 
 3734      65736574 
 3734      00
 3735 0021 000000   		.space	3
 3736              	.LC3:
 3737 0024 6D6F642D 		.ascii	"mod-bluetooth status\000"
 3737      626C7565 
 3737      746F6F74 
 3737      68207374 
 3737      61747573 
 3738 0039 000000   		.space	3
 3739              	.LC4:
 3740 003c 6D6F642D 		.ascii	"mod-bluetooth name\000"
 3740      626C7565 
 3740      746F6F74 
 3740      68206E61 
 3740      6D6500
 3741 004f 00       		.space	1
 3742              	.LC5:
 3743 0050 6D6F642D 		.ascii	"mod-bluetooth address\000"
 3743      626C7565 
 3743      746F6F74 
 3743      68206164 
 3743      64726573 
 3744 0066 0000     		.space	2
 3745              	.LC6:
 3746 0068 6D6F642D 		.ascii	"mod-bluetooth discovery\000"
 3746      626C7565 
 3746      746F6F74 
 3746      68206469 
 3746      73636F76 
 3747              	.LC7:
 3748 0080 69732D61 		.ascii	"is-active \000"
 3748      63746976 
 3748      652000
 3749 008b 00       		.space	1
 3750              	.LC8:
 3751 008c 6D6F642D 		.ascii	"mod-version \000"
 3751      76657273 
 3751      696F6E20 
 3751      00
 3752 0099 000000   		.space	3
 3753              	.LC9:
 3754 009c 6D6F642D 		.ascii	"mod-version release\000"
 3754      76657273 
 3754      696F6E20 
 3754      72656C65 
 3754      61736500 
 3755              	.LC10:
 3756 00b0 63617420 		.ascii	"cat /var/cache/mod/tag\000"
 3756      2F766172 
 3756      2F636163 
 3756      68652F6D 
 3756      6F642F74 
 3757 00c7 00       		.space	1
 3758              	.LC11:
 3759 00c8 54686520 		.ascii	"The serial number of your     device is:           "
 3759      73657269 
 3759      616C206E 
 3759      756D6265 
 3759      72206F66 
 3760 00fb 20202020 		.ascii	"         \000"
 3760      20202020 
 3760      2000
 3761 0105 000000   		.space	3
 3762              	.LC12:
 3763 0108 696E2031 		.ascii	"in 1\000"
 3763      00
 3764 010d 000000   		.space	3
 3765              	.LC13:
 3766 0110 696E2032 		.ascii	"in 2\000"
 3766      00
 3767 0115 000000   		.space	3
 3768              	.LC14:
 3769 0118 687000   		.ascii	"hp\000"
 3770 011b 00       		.space	1
 3771              	.LC15:
 3772 011c 6F757420 		.ascii	"out 2\000"
 3772      3200
 3773 0122 0000     		.space	2
 3774              	.LC16:
 3775 0124 6F757420 		.ascii	"out 1\000"
 3775      3100
 3776 012a 0000     		.space	2
 3777              	.LC17:
 3778 012c 616D6978 		.ascii	"amixer set 'PGA Gain' \000"
 3778      65722073 
 3778      65742027 
 3778      50474120 
 3778      4761696E 
 3779 0143 00       		.space	1
 3780              	.LC18:
 3781 0144 616D6978 		.ascii	"amixer set DAC \000"
 3781      65722073 
 3781      65742044 
 3781      41432000 
 3782              	.LC19:
 3783 0154 6D6F642D 		.ascii	"mod-amixer \000"
 3783      616D6978 
 3783      65722000 
 3784              	.LC20:
 3785 0160 20766F6C 		.ascii	" vol \000"
 3785      2000
 3786 0166 0000     		.space	2
 3787              	.LC21:
 3788 0168 2000     		.ascii	" \000"
 3789 016a 0000     		.space	2
 3790              	.LC22:
 3791 016c 444200   		.ascii	"DB\000"
 3792 016f 00       		.space	1
 3793              	.LC23:
 3794 0170 6D6F642D 		.ascii	"mod-amixer in \000"
 3794      616D6978 
 3794      65722069 
 3794      6E2000
 3795 017f 00       		.space	1
 3796              	.LC24:
 3797 0180 73746720 		.ascii	"stg \000"
 3797      00
 3798 0185 000000   		.space	3
 3799              	.LC25:
 3800 0188 6D6F642D 		.ascii	"mod-amixer out 1 vol \000"
 3800      616D6978 
 3800      6572206F 
 3800      75742031 
 3800      20766F6C 
 3801 019e 0000     		.space	2
 3802              	.LC26:
 3803 01a0 6D6F642D 		.ascii	"mod-amixer out 2 vol \000"
 3803      616D6978 
 3803      6572206F 
 3803      75742032 
 3803      20766F6C 
 3804 01b6 0000     		.space	2
 3805              	.LC27:
 3806 01b8 6D6F642D 		.ascii	"mod-amixer save\000"
 3806      616D6978 
 3806      65722073 
 3806      61766500 
 3807              	.LC28:
 3808 01c8 2500     		.ascii	"%\000"
 3809 01ca 0000     		.space	2
 3810              	.LC29:
 3811 01cc 204F4E00 		.ascii	" ON\000"
 3812              	.LC30:
 3813 01d0 4F464600 		.ascii	"OFF\000"
 3814              	.LC31:
 3815 01d4 7365745F 		.ascii	"set_in_chan_link 0 %i\000"
 3815      696E5F63 
 3815      68616E5F 
 3815      6C696E6B 
 3815      20302025 
 3816 01ea 0000     		.space	2
 3817              	.LC32:
 3818 01ec 7365745F 		.ascii	"set_out_chan_link 0 %i\000"
 3818      6F75745F 
 3818      6368616E 
 3818      5F6C696E 
 3818      6B203020 
 3819 0203 00       		.space	1
 3820              	.LC33:
 3821 0204 4D555445 		.ascii	"MUTE [X]\000"
 3821      205B585D 
 3821      00
 3822 020d 000000   		.space	3
 3823              	.LC34:
 3824 0210 4D555445 		.ascii	"MUTE [ ]\000"
 3824      205B205D 
 3824      00
 3825 0219 000000   		.space	3
 3826              	.LC35:
 3827 021c 7365745F 		.ascii	"set_tuner_mute %i\000"
 3827      74756E65 
 3827      725F6D75 
 3827      74652025 
 3827      6900
 3828 022e 0000     		.space	2
 3829              	.LC36:
 3830 0230 6765745F 		.ascii	"get_tuner_mute\000"
 3830      74756E65 
 3830      725F6D75 
 3830      746500
 3831 023f 00       		.space	1
 3832              	.LC37:
 3833 0240 45585000 		.ascii	"EXP\000"
 3834              	.LC38:
 3835 0244 20435600 		.ascii	" CV\000"
 3836              	.LC39:
 3837 0248 7365745F 		.ascii	"set_exp_cv %i\000"
 3837      6578705F 
 3837      63762025 
 3837      6900
 3838 0256 0000     		.space	2
 3839              	.LC40:
 3840 0258 6765745F 		.ascii	"get_exp_cv\000"
 3840      6578705F 
 3840      637600
 3841 0263 00       		.space	1
 3842              	.LC41:
 3843 0264 485000   		.ascii	"HP\000"
 3844 0267 00       		.space	1
 3845              	.LC42:
 3846 0268 435600   		.ascii	"CV\000"
 3847 026b 00       		.space	1
 3848              	.LC43:
 3849 026c 7365745F 		.ascii	"set_hp_cv %i\000"
 3849      68705F63 
 3849      76202569 
 3849      00
 3850 0279 000000   		.space	3
 3851              	.LC44:
 3852 027c 6765745F 		.ascii	"get_hp_cv\000"
 3852      68705F63 
 3852      7600
 3853 0286 0000     		.space	2
 3854              	.LC45:
 3855 0288 504C4159 		.ascii	"PLAY [X]\000"
 3855      205B585D 
 3855      00
 3856 0291 000000   		.space	3
 3857              	.LC46:
 3858 0294 504C4159 		.ascii	"PLAY [ ]\000"
 3858      205B205D 
 3858      00
 3859 029d 000000   		.space	3
 3860              	.LC47:
 3861 02a0 7365745F 		.ascii	"set_play_status %i\000"
 3861      706C6179 
 3861      5F737461 
 3861      74757320 
 3861      256900
 3862 02b3 00       		.space	1
 3863              	.LC48:
 3864 02b4 6765745F 		.ascii	"get_play_status\000"
 3864      706C6179 
 3864      5F737461 
 3864      74757300 
 3865              	.LC49:
 3866 02c4 7365745F 		.ascii	"set_clk_src %i\000"
 3866      636C6B5F 
 3866      73726320 
 3866      256900
 3867 02d3 00       		.space	1
 3868              	.LC50:
 3869 02d4 6765745F 		.ascii	"get_clk_src\000"
 3869      636C6B5F 
 3869      73726300 
 3870              	.LC51:
 3871 02e0 494E5445 		.ascii	"INTERNAL\000"
 3871      524E414C 
 3871      00
 3872 02e9 000000   		.space	3
 3873              	.LC52:
 3874 02ec 4D494449 		.ascii	"MIDI\000"
 3874      00
 3875 02f1 000000   		.space	3
 3876              	.LC53:
 3877 02f4 41424C45 		.ascii	"ABLETON LINK\000"
 3877      544F4E20 
 3877      4C494E4B 
 3877      00
 3878 0301 000000   		.space	3
 3879              	.LC54:
 3880 0304 5B585D00 		.ascii	"[X]\000"
 3881              	.LC55:
 3882 0308 5B205D00 		.ascii	"[ ]\000"
 3883              	.LC56:
 3884 030c 73656E64 		.ascii	"send_midi_clk %i\000"
 3884      5F6D6964 
 3884      695F636C 
 3884      6B202569 
 3884      00
 3885 031d 000000   		.space	3
 3886              	.LC57:
 3887 0320 6765745F 		.ascii	"get_send_midi_clk\000"
 3887      73656E64 
 3887      5F6D6964 
 3887      695F636C 
 3887      6B00
 3888 0332 0000     		.space	2
 3889              	.LC58:
 3890 0334 7365745F 		.ascii	"set_snapshot_prgch %i\000"
 3890      736E6170 
 3890      73686F74 
 3890      5F707267 
 3890      63682025 
 3891 034a 0000     		.space	2
 3892              	.LC59:
 3893 034c 6765745F 		.ascii	"get_snapshot_prgch\000"
 3893      736E6170 
 3893      73686F74 
 3893      5F707267 
 3893      636800
 3894 035f 00       		.space	1
 3895              	.LC60:
 3896 0360 7365745F 		.ascii	"set_bank_prgch %i\000"
 3896      62616E6B 
 3896      5F707267 
 3896      63682025 
 3896      6900
 3897 0372 0000     		.space	2
 3898              	.LC61:
 3899 0374 6765745F 		.ascii	"get_bank_prgch\000"
 3899      62616E6B 
 3899      5F707267 
 3899      636800
 3900 0383 00       		.space	1
 3901              	.LC62:
 3902 0384 7365745F 		.ascii	"set_tempo_bpm %i\000"
 3902      74656D70 
 3902      6F5F6270 
 3902      6D202569 
 3902      00
 3903 0395 000000   		.space	3
 3904              	.LC63:
 3905 0398 6765745F 		.ascii	"get_tempo_bpm\000"
 3905      74656D70 
 3905      6F5F6270 
 3905      6D00
 3906 03a6 0000     		.space	2
 3907              	.LC64:
 3908 03a8 2042504D 		.ascii	" BPM\000"
 3908      00
 3909 03ad 000000   		.space	3
 3910              	.LC65:
 3911 03b0 7365745F 		.ascii	"set_tempo_bpb %i\000"
 3911      74656D70 
 3911      6F5F6270 
 3911      62202569 
 3911      00
 3912 03c1 000000   		.space	3
 3913              	.LC66:
 3914 03c4 6765745F 		.ascii	"get_tempo_bpb\000"
 3914      74656D70 
 3914      6F5F6270 
 3914      6200
 3915 03d2 0000     		.space	2
 3916              	.LC67:
 3917 03d4 2F3400   		.ascii	"/4\000"
 3918 03d7 00       		.space	1
 3919              	.LC68:
 3920 03d8 7365745F 		.ascii	"set_truebypass_value \000"
 3920      74727565 
 3920      62797061 
 3920      73735F76 
 3920      616C7565 
 3921 03ee 0000     		.space	2
 3922              	.LC69:
 3923 03f0 6765745F 		.ascii	"get_truebypass_value \000"
 3923      74727565 
 3923      62797061 
 3923      73735F76 
 3923      616C7565 
 3924 0406 0000     		.space	2
 3925              	.LC70:
 3926 0408 42595041 		.ascii	"BYPASS [X]\000"
 3926      5353205B 
 3926      585D00
 3927 0413 00       		.space	1
 3928              	.LC71:
 3929 0414 42595041 		.ascii	"BYPASS [ ]\000"
 3929      5353205B 
 3929      205D00
 3930 041f 00       		.space	1
 3931              	.LC72:
 3932 0420 73746F72 		.ascii	"store_profile %i\000"
 3932      655F7072 
 3932      6F66696C 
 3932      65202569 
 3932      00
 3933 0431 000000   		.space	3
 3934              	.LC73:
 3935 0434 5B415D00 		.ascii	"[A]\000"
 3936              	.LC74:
 3937 0438 5B425D00 		.ascii	"[B]\000"
 3938              	.LC75:
 3939 043c 5B435D00 		.ascii	"[C]\000"
 3940              	.LC76:
 3941 0440 5B445D00 		.ascii	"[D]\000"
 3942              	.LC77:
 3943 0444 76657273 		.ascii	"version\000"
 3943      696F6E00 
 3944              	.LC78:
 3945 044c 72657374 		.ascii	"restore\000"
 3945      6F726500 
 3946              	.LC79:
 3947 0454 73797374 		.ascii	"system\000"
 3947      656D00
 3948 045b 00       		.space	1
 3949              	.LC80:
 3950 045c 636F6E74 		.ascii	"controller\000"
 3950      726F6C6C 
 3950      657200
 3951 0467 00       		.space	1
 3952              	.LC81:
 3953 0468 6A61636B 		.ascii	"jack2\000"
 3953      3200
 3954 046e 0000     		.space	2
 3955              	.LC82:
 3956 0470 73736864 		.ascii	"sshd\000"
 3956      00
 3957 0475 000000   		.space	3
 3958              	.LC83:
 3959 0478 6D6F642D 		.ascii	"mod-ui\000"
 3959      756900
 3960 047f 00       		.space	1
 3961              	.LC84:
 3962 0480 646E736D 		.ascii	"dnsmasq\000"
 3962      61737100 
 3963              		.ident	"GCC: (GNU Tools for Arm Embedded Processors 7-2018-q3-update) 7.3.1 20180622 (release) [AR